GAS LISTING /tmp/ccfWFBKV.s 			page 1


   1              		.file	"MyTest.cpp"
   2              		.option pic
   3              		.option norelax
   4              		.text
   5              	.Ltext0:
   6              		.section	.text._ZN6TestThD2Ev,"axG",@progbits,_ZN6TestThD5Ev,comdat
   7              		.align	2
   8              		.weak	_ZN6TestThD2Ev
  10              	_ZN6TestThD2Ev:
  11              	.LFB9:
  12              		.file 1 "src/Tests/MyTest.cpp"
   1:src/Tests/MyTest.cpp **** //
   2:src/Tests/MyTest.cpp **** // Created by os on 6/27/26.
   3:src/Tests/MyTest.cpp **** //
   4:src/Tests/MyTest.cpp **** #include "../../test/printing.hpp"
   5:src/Tests/MyTest.cpp **** #include "../syscall_cpp.hpp"
   6:src/Tests/MyTest.cpp **** class TestTh: public Thread {
  13              		.loc 1 6 7
  14              		.cfi_startproc
  15              	.LVL0:
  16 0000 130101FF 		addi	sp,sp,-16
  17              		.cfi_def_cfa_offset 16
  18 0004 23341100 		sd	ra,8(sp)
  19 0008 23308100 		sd	s0,0(sp)
  20              		.cfi_offset 1, -8
  21              		.cfi_offset 8, -16
  22 000c 13040101 		addi	s0,sp,16
  23              		.cfi_def_cfa 8, 0
  24              	.LBB8:
  25              		.loc 1 6 7 is_stmt 0
  26 0010 97070000 		lla	a5,_ZTV6TestTh+16
  26      93870700 
  27 0018 2330F500 		sd	a5,0(a0)
  28 001c 97000000 		call	_ZN6ThreadD2Ev@plt
  28      E7800000 
  29              	.LVL1:
  30              	.LBE8:
  31 0024 83308100 		ld	ra,8(sp)
  32              		.cfi_restore 1
  33 0028 03340100 		ld	s0,0(sp)
  34              		.cfi_restore 8
  35              		.cfi_def_cfa 2, 16
  36 002c 13010101 		addi	sp,sp,16
  37              		.cfi_def_cfa_offset 0
  38 0030 67800000 		jr	ra
  39              		.cfi_endproc
  40              	.LFE9:
  42              		.weak	_ZN6TestThD1Ev
  43              		.set	_ZN6TestThD1Ev,_ZN6TestThD2Ev
  44              		.section	.text._ZN6TestThD0Ev,"axG",@progbits,_ZN6TestThD5Ev,comdat
  45              		.align	2
  46              		.weak	_ZN6TestThD0Ev
  48              	_ZN6TestThD0Ev:
  49              	.LFB11:
  50              		.loc 1 6 7 is_stmt 1
  51              		.cfi_startproc
  52              	.LVL2:
GAS LISTING /tmp/ccfWFBKV.s 			page 2


  53 0000 130101FE 		addi	sp,sp,-32
  54              		.cfi_def_cfa_offset 32
  55 0004 233C1100 		sd	ra,24(sp)
  56 0008 23388100 		sd	s0,16(sp)
  57 000c 23349100 		sd	s1,8(sp)
  58              		.cfi_offset 1, -8
  59              		.cfi_offset 8, -16
  60              		.cfi_offset 9, -24
  61 0010 13040102 		addi	s0,sp,32
  62              		.cfi_def_cfa 8, 0
  63 0014 93040500 		mv	s1,a0
  64              	.LVL3:
  65              	.LBB9:
  66              	.LBB10:
  67              		.loc 1 6 7 is_stmt 0
  68 0018 97070000 		lla	a5,_ZTV6TestTh+16
  68      93870700 
  69 0020 2330F500 		sd	a5,0(a0)
  70 0024 97000000 		call	_ZN6ThreadD2Ev@plt
  70      E7800000 
  71              	.LVL4:
  72              	.LBE10:
  73              	.LBE9:
  74 002c 13850400 		mv	a0,s1
  75 0030 97000000 		call	_ZdlPv@plt
  75      E7800000 
  76              	.LVL5:
  77 0038 83308101 		ld	ra,24(sp)
  78              		.cfi_restore 1
  79 003c 03340101 		ld	s0,16(sp)
  80              		.cfi_restore 8
  81              		.cfi_def_cfa 2, 32
  82 0040 83348100 		ld	s1,8(sp)
  83              		.cfi_restore 9
  84              	.LVL6:
  85 0044 13010102 		addi	sp,sp,32
  86              		.cfi_def_cfa_offset 0
  87 0048 67800000 		jr	ra
  88              		.cfi_endproc
  89              	.LFE11:
  91              		.section	.rodata.str1.8,"aMS",@progbits,1
  92              		.align	3
  93              	.LC0:
  94 0000 54657374 		.string	"TestTh\n"
  94      54680A00 
  95              		.align	3
  96              	.LC1:
  97 0008 46696E69 		.string	"Finished Thread\n"
  97      73686564 
  97      20546872 
  97      6561640A 
  97      00
  98              		.text
  99              		.align	2
 100              		.globl	_ZN6TestTh10testThBodyEPv
 102              	_ZN6TestTh10testThBodyEPv:
 103              	.LFB6:
GAS LISTING /tmp/ccfWFBKV.s 			page 3


   7:src/Tests/MyTest.cpp ****     void testThBody(void* arg);
   8:src/Tests/MyTest.cpp **** public:
   9:src/Tests/MyTest.cpp ****     TestTh():Thread() {}
  10:src/Tests/MyTest.cpp **** 
  11:src/Tests/MyTest.cpp ****     void run() override {
  12:src/Tests/MyTest.cpp ****         testThBody(nullptr);
  13:src/Tests/MyTest.cpp **** 
  14:src/Tests/MyTest.cpp ****     }
  15:src/Tests/MyTest.cpp **** };
  16:src/Tests/MyTest.cpp **** void TestTh::testThBody(void* arg) {
 104              		.loc 1 16 36 is_stmt 1
 105              		.cfi_startproc
 106              	.LVL7:
 107 0000 130101FE 		addi	sp,sp,-32
 108              		.cfi_def_cfa_offset 32
 109 0004 233C1100 		sd	ra,24(sp)
 110 0008 23388100 		sd	s0,16(sp)
 111 000c 23349100 		sd	s1,8(sp)
 112              		.cfi_offset 1, -8
 113              		.cfi_offset 8, -16
 114              		.cfi_offset 9, -24
 115 0010 13040102 		addi	s0,sp,32
 116              		.cfi_def_cfa 8, 0
  17:src/Tests/MyTest.cpp ****     for (long long i=0; i < 1000000;i++) {
 117              		.loc 1 17 5
 118              	.LVL8:
 119              	.LBB11:
 120              		.loc 1 17 20 is_stmt 0
 121 0014 93040000 		li	s1,0
 122              	.LVL9:
 123              	.L7:
 124              		.loc 1 17 27 is_stmt 1 discriminator 3
 125 0018 B7470F00 		li	a5,999424
 126 001c 9387F723 		addi	a5,a5,575
 127 0020 63CE9700 		bgt	s1,a5,.L6
  18:src/Tests/MyTest.cpp ****         printString("TestTh\n");
 128              		.loc 1 18 9 discriminator 2
 129              		.loc 1 18 20 is_stmt 0 discriminator 2
 130 0024 17050000 		lla	a0,.LC0
 130      13050500 
 131 002c 97000000 		call	_Z11printStringPKc@plt
 131      E7800000 
 132              	.LVL10:
  17:src/Tests/MyTest.cpp ****     for (long long i=0; i < 1000000;i++) {
 133              		.loc 1 17 5 is_stmt 1 discriminator 2
 134 0034 93841400 		addi	s1,s1,1
 135              	.LVL11:
 136 0038 6FF01FFE 		j	.L7
 137              	.L6:
 138              	.LBE11:
  19:src/Tests/MyTest.cpp ****     }
  20:src/Tests/MyTest.cpp ****     printString("Finished Thread\n");
 139              		.loc 1 20 5
 140              		.loc 1 20 16 is_stmt 0
 141 003c 17050000 		lla	a0,.LC1
 141      13050500 
 142 0044 97000000 		call	_Z11printStringPKc@plt
GAS LISTING /tmp/ccfWFBKV.s 			page 4


 142      E7800000 
 143              	.LVL12:
  21:src/Tests/MyTest.cpp ****     thread_dispatch();
 144              		.loc 1 21 5 is_stmt 1
 145              		.loc 1 21 20 is_stmt 0
 146 004c 97000000 		call	thread_dispatch@plt
 146      E7800000 
 147              	.LVL13:
  22:src/Tests/MyTest.cpp **** }
 148              		.loc 1 22 1
 149 0054 83308101 		ld	ra,24(sp)
 150              		.cfi_restore 1
 151 0058 03340101 		ld	s0,16(sp)
 152              		.cfi_restore 8
 153              		.cfi_def_cfa 2, 32
 154 005c 83348100 		ld	s1,8(sp)
 155              		.cfi_restore 9
 156              	.LVL14:
 157 0060 13010102 		addi	sp,sp,32
 158              		.cfi_def_cfa_offset 0
 159 0064 67800000 		jr	ra
 160              		.cfi_endproc
 161              	.LFE6:
 163              		.section	.text._ZN6TestTh3runEv,"axG",@progbits,_ZN6TestTh3runEv,comdat
 164              		.align	2
 165              		.weak	_ZN6TestTh3runEv
 167              	_ZN6TestTh3runEv:
 168              	.LFB5:
  11:src/Tests/MyTest.cpp ****         testThBody(nullptr);
 169              		.loc 1 11 10 is_stmt 1
 170              		.cfi_startproc
 171              	.LVL15:
 172 0000 130101FF 		addi	sp,sp,-16
 173              		.cfi_def_cfa_offset 16
 174 0004 23341100 		sd	ra,8(sp)
 175 0008 23308100 		sd	s0,0(sp)
 176              		.cfi_offset 1, -8
 177              		.cfi_offset 8, -16
 178 000c 13040101 		addi	s0,sp,16
 179              		.cfi_def_cfa 8, 0
  12:src/Tests/MyTest.cpp **** 
 180              		.loc 1 12 9
  12:src/Tests/MyTest.cpp **** 
 181              		.loc 1 12 19 is_stmt 0
 182 0010 93050000 		li	a1,0
 183 0014 97000000 		call	_ZN6TestTh10testThBodyEPv
 183      E7800000 
 184              	.LVL16:
  14:src/Tests/MyTest.cpp **** };
 185              		.loc 1 14 5
 186 001c 83308100 		ld	ra,8(sp)
 187              		.cfi_restore 1
 188 0020 03340100 		ld	s0,0(sp)
 189              		.cfi_restore 8
 190              		.cfi_def_cfa 2, 16
 191 0024 13010101 		addi	sp,sp,16
 192              		.cfi_def_cfa_offset 0
GAS LISTING /tmp/ccfWFBKV.s 			page 5


 193 0028 67800000 		jr	ra
 194              		.cfi_endproc
 195              	.LFE5:
 197              		.section	.rodata.str1.8
 198 0019 00000000 		.align	3
 198      000000
 199              	.LC2:
 200 0020 48656C6C 		.string	"Hello World!"
 200      6F20576F 
 200      726C6421 
 200      00
 201 002d 000000   		.align	3
 202              	.LC3:
 203 0030 46696E69 		.string	"Finished"
 203      73686564 
 203      00
 204              		.text
 205              		.align	2
 206              		.globl	_Z10myUserMainv
 208              	_Z10myUserMainv:
 209              	.LFB7:
  23:src/Tests/MyTest.cpp **** void myUserMain() {
 210              		.loc 1 23 19 is_stmt 1
 211              		.cfi_startproc
 212              		.cfi_personality 0x9b,DW.ref.__gxx_personality_v0
 213              		.cfi_lsda 0x1b,.LLSDA7
 214 0068 130101FE 		addi	sp,sp,-32
 215              		.cfi_def_cfa_offset 32
 216 006c 233C1100 		sd	ra,24(sp)
 217 0070 23388100 		sd	s0,16(sp)
 218 0074 23349100 		sd	s1,8(sp)
 219 0078 23302101 		sd	s2,0(sp)
 220              		.cfi_offset 1, -8
 221              		.cfi_offset 8, -16
 222              		.cfi_offset 9, -24
 223              		.cfi_offset 18, -32
 224 007c 13040102 		addi	s0,sp,32
 225              		.cfi_def_cfa 8, 0
  24:src/Tests/MyTest.cpp ****     getc();
 226              		.loc 1 24 5
 227              	.LEHB0:
 228              		.loc 1 24 9 is_stmt 0
 229 0080 97000000 		call	getc@plt
 229      E7800000 
 230              	.LVL17:
  25:src/Tests/MyTest.cpp ****     printString("Hello World!");
 231              		.loc 1 25 5 is_stmt 1
 232              		.loc 1 25 16 is_stmt 0
 233 0088 17050000 		lla	a0,.LC2
 233      13050500 
 234 0090 97000000 		call	_Z11printStringPKc@plt
 234      E7800000 
 235              	.LVL18:
  26:src/Tests/MyTest.cpp ****     Thread* th1 = new TestTh();
 236              		.loc 1 26 5 is_stmt 1
 237              		.loc 1 26 30 is_stmt 0
 238 0098 13050002 		li	a0,32
GAS LISTING /tmp/ccfWFBKV.s 			page 6


 239 009c 97000000 		call	_Znwm@plt
 239      E7800000 
 240              	.LVL19:
 241              	.LEHE0:
 242 00a4 93040500 		mv	s1,a0
 243              	.LVL20:
 244              	.LEHB1:
 245              	.LBB12:
 246              	.LBB13:
   9:src/Tests/MyTest.cpp **** 
 247              		.loc 1 9 21
 248 00a8 97000000 		call	_ZN6ThreadC2Ev@plt
 248      E7800000 
 249              	.LVL21:
 250              	.LEHE1:
 251 00b0 97070000 		lla	a5,_ZTV6TestTh+16
 251      93870700 
 252 00b8 23B0F400 		sd	a5,0(s1)
 253              	.LVL22:
 254              	.LBE13:
 255              	.LBE12:
  27:src/Tests/MyTest.cpp ****     th1->start();
 256              		.loc 1 27 5 is_stmt 1
 257              		.loc 1 27 15 is_stmt 0
 258 00bc 13850400 		mv	a0,s1
 259              	.LEHB2:
 260 00c0 97000000 		call	_ZN6Thread5startEv@plt
 260      E7800000 
 261              	.LVL23:
  28:src/Tests/MyTest.cpp ****     th1->dispatch();
 262              		.loc 1 28 5 is_stmt 1
 263              		.loc 1 28 18 is_stmt 0
 264 00c8 97000000 		call	_ZN6Thread8dispatchEv@plt
 264      E7800000 
 265              	.LVL24:
  29:src/Tests/MyTest.cpp **** 
  30:src/Tests/MyTest.cpp ****     th1->join(th1);
 266              		.loc 1 30 5 is_stmt 1
 267              		.loc 1 30 14 is_stmt 0
 268 00d0 13850400 		mv	a0,s1
 269 00d4 97000000 		call	_ZN6Thread4joinEPS_@plt
 269      E7800000 
 270              	.LVL25:
  31:src/Tests/MyTest.cpp **** 
  32:src/Tests/MyTest.cpp ****     printString("Finished");
 271              		.loc 1 32 5 is_stmt 1
 272              		.loc 1 32 16 is_stmt 0
 273 00dc 17050000 		lla	a0,.LC3
 273      13050500 
 274 00e4 97000000 		call	_Z11printStringPKc@plt
 274      E7800000 
 275              	.LVL26:
 276              	.LEHE2:
 277              	.L12:
  33:src/Tests/MyTest.cpp **** 
  34:src/Tests/MyTest.cpp ****     while (true) {}
 278              		.loc 1 34 5 is_stmt 1 discriminator 2
GAS LISTING /tmp/ccfWFBKV.s 			page 7


 279              		.loc 1 34 5 discriminator 2
 280 00ec 6F000000 		j	.L12
 281              	.LVL27:
 282              	.L14:
 283 00f0 13090500 		mv	s2,a0
  26:src/Tests/MyTest.cpp ****     th1->start();
 284              		.loc 1 26 30 is_stmt 0
 285 00f4 13850400 		mv	a0,s1
 286 00f8 97000000 		call	_ZdlPv@plt
 286      E7800000 
 287              	.LVL28:
 288 0100 13050900 		mv	a0,s2
 289              	.LEHB3:
 290 0104 97000000 		call	_Unwind_Resume@plt
 290      E7800000 
 291              	.LVL29:
 292              	.LEHE3:
 293              		.cfi_endproc
 294              	.LFE7:
 295              		.globl	__gxx_personality_v0
 296              		.section	.gcc_except_table,"a",@progbits
 297              	.LLSDA7:
 298 0000 FF       		.byte	0xff
 299 0001 FF       		.byte	0xff
 300 0002 03       		.byte	0x3
 301 0003 34       		.byte	0x34
 302 0004 00000000 		.4byte	.LEHB0-.LFB7
 303 0008 00000000 		.4byte	.LEHE0-.LEHB0
 304 000c 00000000 		.4byte	0
 305 0010 00       		.byte	0
 306 0011 00000000 		.4byte	.LEHB1-.LFB7
 307 0015 00000000 		.4byte	.LEHE1-.LEHB1
 308 0019 00000000 		.4byte	.L14-.LFB7
 309 001d 00       		.byte	0
 310 001e 00000000 		.4byte	.LEHB2-.LFB7
 311 0022 00000000 		.4byte	.LEHE2-.LEHB2
 312 0026 00000000 		.4byte	0
 313 002a 00       		.byte	0
 314 002b 00000000 		.4byte	.LEHB3-.LFB7
 315 002f 00000000 		.4byte	.LEHE3-.LEHB3
 316 0033 00000000 		.4byte	0
 317 0037 00       		.byte	0
 318              		.text
 320              		.weak	_ZTV6TestTh
 321              		.section	.data.rel.ro.local._ZTV6TestTh,"awG",@progbits,_ZTV6TestTh,comdat
 322              		.align	3
 325              	_ZTV6TestTh:
 326 0000 00000000 		.dword	0
 326      00000000 
 327 0008 00000000 		.dword	0
 327      00000000 
 328 0010 00000000 		.dword	_ZN6TestThD1Ev
 328      00000000 
 329 0018 00000000 		.dword	_ZN6TestThD0Ev
 329      00000000 
 330 0020 00000000 		.dword	_ZN6TestTh3runEv
 330      00000000 
GAS LISTING /tmp/ccfWFBKV.s 			page 8


 331              		.text
 332              	.Letext0:
 333              		.file 2 "src/Tests/../../test/../src/../lib/hw.h"
 334              		.file 3 "src/Tests/../syscall_cpp.hpp"
 335              		.file 4 "src/Tests/../../test/../src/syscall_c.h"
 336              		.file 5 "src/Tests/../../test/printing.hpp"
 1836              		.align	3
 1839              	DW.ref.__gxx_personality_v0:
 1840 0000 00000000 		.dword	__gxx_personality_v0
 1840      00000000 
 1841              		.ident	"GCC: (Ubuntu 9.4.0-1ubuntu1~20.04) 9.4.0"
 1842              		.section	.note.GNU-stack,"",@progbits
GAS LISTING /tmp/ccfWFBKV.s 			page 9

