GAS LISTING /tmp/cc3yeH6v.s 			page 1


   1              		.file	"test_cpp.cpp"
   2              		.option pic
   3              		.option norelax
   4              		.text
   5              	.Ltext0:
   6              		.section	.text._ZN6Ticker18periodicActivationEv,"axG",@progbits,_ZN6Ticker18periodicActivationEv,c
   7              		.align	2
   8              		.weak	_ZN6Ticker18periodicActivationEv
  10              	_ZN6Ticker18periodicActivationEv:
  11              	.LFB13:
  12              		.file 1 "src/Tests/test_cpp.cpp"
   1:src/Tests/test_cpp.cpp **** 
   2:src/Tests/test_cpp.cpp **** #include "../syscall_cpp.hpp"
   3:src/Tests/test_cpp.cpp **** 
   4:src/Tests/test_cpp.cpp **** class Worker : public Thread {
   5:src/Tests/test_cpp.cpp ****     char id;
   6:src/Tests/test_cpp.cpp ****     Semaphore* mx;
   7:src/Tests/test_cpp.cpp ****     Semaphore* done;
   8:src/Tests/test_cpp.cpp **** public:
   9:src/Tests/test_cpp.cpp ****     Worker(char id, Semaphore* mx, Semaphore* done) : Thread(), id(id), mx(mx), done(done) {}
  10:src/Tests/test_cpp.cpp **** protected:
  11:src/Tests/test_cpp.cpp ****     void run() override {
  12:src/Tests/test_cpp.cpp ****         for (int i = 0; i < 3; i++) {
  13:src/Tests/test_cpp.cpp ****             mx->wait();
  14:src/Tests/test_cpp.cpp ****             Console::putc('['); Console::putc(id); Console::putc(']');
  15:src/Tests/test_cpp.cpp ****             mx->signal();
  16:src/Tests/test_cpp.cpp ****             Thread::sleep(2);
  17:src/Tests/test_cpp.cpp ****         }
  18:src/Tests/test_cpp.cpp ****         done->signal();
  19:src/Tests/test_cpp.cpp ****     }
  20:src/Tests/test_cpp.cpp **** };
  21:src/Tests/test_cpp.cpp **** 
  22:src/Tests/test_cpp.cpp **** class Ticker : public PeriodicThread {
  23:src/Tests/test_cpp.cpp **** public:
  24:src/Tests/test_cpp.cpp ****     Ticker() : PeriodicThread(3) {}
  25:src/Tests/test_cpp.cpp **** protected:
  26:src/Tests/test_cpp.cpp ****     void periodicActivation() override { Console::putc('.'); }
  13              		.loc 1 26 10
  14              		.cfi_startproc
  15              	.LVL0:
  16 0000 130101FF 		addi	sp,sp,-16
  17              		.cfi_def_cfa_offset 16
  18 0004 23341100 		sd	ra,8(sp)
  19 0008 23308100 		sd	s0,0(sp)
  20              		.cfi_offset 1, -8
  21              		.cfi_offset 8, -16
  22 000c 13040101 		addi	s0,sp,16
  23              		.cfi_def_cfa 8, 0
  24              		.loc 1 26 42
  25              		.loc 1 26 55 is_stmt 0
  26 0010 1305E002 		li	a0,46
  27              	.LVL1:
  28 0014 97000000 		call	_ZN7Console4putcEc@plt
  28      E7800000 
  29              	.LVL2:
  30              		.loc 1 26 62
  31 001c 83308100 		ld	ra,8(sp)
GAS LISTING /tmp/cc3yeH6v.s 			page 2


  32              		.cfi_restore 1
  33 0020 03340100 		ld	s0,0(sp)
  34              		.cfi_restore 8
  35              		.cfi_def_cfa 2, 16
  36 0024 13010101 		addi	sp,sp,16
  37              		.cfi_def_cfa_offset 0
  38 0028 67800000 		jr	ra
  39              		.cfi_endproc
  40              	.LFE13:
  42              		.text
  43              		.align	2
  45              	_ZL8echoFuncPv:
  46              	.LFB14:
  27:src/Tests/test_cpp.cpp **** };
  28:src/Tests/test_cpp.cpp **** 
  29:src/Tests/test_cpp.cpp **** static void echoFunc(void* arg) {
  47              		.loc 1 29 33 is_stmt 1
  48              		.cfi_startproc
  49              	.LVL3:
  50 0000 130101FF 		addi	sp,sp,-16
  51              		.cfi_def_cfa_offset 16
  52 0004 23341100 		sd	ra,8(sp)
  53 0008 23308100 		sd	s0,0(sp)
  54              		.cfi_offset 1, -8
  55              		.cfi_offset 8, -16
  56 000c 13040101 		addi	s0,sp,16
  57              		.cfi_def_cfa 8, 0
  30:src/Tests/test_cpp.cpp ****     (void)arg;
  58              		.loc 1 30 5
  31:src/Tests/test_cpp.cpp ****     Console::putc('>');
  59              		.loc 1 31 5
  60              		.loc 1 31 18 is_stmt 0
  61 0010 1305E003 		li	a0,62
  62              	.LVL4:
  63 0014 97000000 		call	_ZN7Console4putcEc@plt
  63      E7800000 
  64              	.LVL5:
  65 001c 6F00C000 		j	.L4
  66              	.LVL6:
  67              	.L7:
  68              	.LBB29:
  32:src/Tests/test_cpp.cpp ****     while (true) {
  33:src/Tests/test_cpp.cpp ****         char c = Console::getc();
  34:src/Tests/test_cpp.cpp ****         if (c != '\r') Console::putc(c);
  69              		.loc 1 34 24 is_stmt 1 discriminator 1
  70              		.loc 1 34 37 is_stmt 0 discriminator 1
  71 0020 97000000 		call	_ZN7Console4putcEc@plt
  71      E7800000 
  72              	.LVL7:
  73              	.L4:
  74              	.LBE29:
  32:src/Tests/test_cpp.cpp ****     while (true) {
  75              		.loc 1 32 5 is_stmt 1
  76              	.LBB30:
  33:src/Tests/test_cpp.cpp ****         if (c != '\r') Console::putc(c);
  77              		.loc 1 33 9
  33:src/Tests/test_cpp.cpp ****         if (c != '\r') Console::putc(c);
GAS LISTING /tmp/cc3yeH6v.s 			page 3


  78              		.loc 1 33 31 is_stmt 0
  79 0028 97000000 		call	_ZN7Console4getcEv@plt
  79      E7800000 
  80              	.LVL8:
  81              		.loc 1 34 9 is_stmt 1
  82 0030 9307D000 		li	a5,13
  83 0034 E30AF5FE 		beq	a0,a5,.L4
  84 0038 6FF09FFE 		j	.L7
  85              	.LBE30:
  86              		.cfi_endproc
  87              	.LFE14:
  89              		.section	.text._ZN6Worker3runEv,"axG",@progbits,_ZN6Worker3runEv,comdat
  90              		.align	2
  91              		.weak	_ZN6Worker3runEv
  93              	_ZN6Worker3runEv:
  94              	.LFB5:
  11:src/Tests/test_cpp.cpp ****         for (int i = 0; i < 3; i++) {
  95              		.loc 1 11 10
  96              		.cfi_startproc
  97              	.LVL9:
  98 0000 130101FE 		addi	sp,sp,-32
  99              		.cfi_def_cfa_offset 32
 100 0004 233C1100 		sd	ra,24(sp)
 101 0008 23388100 		sd	s0,16(sp)
 102 000c 23349100 		sd	s1,8(sp)
 103 0010 23302101 		sd	s2,0(sp)
 104              		.cfi_offset 1, -8
 105              		.cfi_offset 8, -16
 106              		.cfi_offset 9, -24
 107              		.cfi_offset 18, -32
 108 0014 13040102 		addi	s0,sp,32
 109              		.cfi_def_cfa 8, 0
 110 0018 93040500 		mv	s1,a0
  12:src/Tests/test_cpp.cpp ****             mx->wait();
 111              		.loc 1 12 9
 112              	.LVL10:
 113              	.LBB31:
  12:src/Tests/test_cpp.cpp ****             mx->wait();
 114              		.loc 1 12 18 is_stmt 0
 115 001c 13090000 		li	s2,0
 116 0020 6F000005 		j	.L10
 117              	.LVL11:
 118              	.L12:
  13:src/Tests/test_cpp.cpp ****             Console::putc('['); Console::putc(id); Console::putc(']');
 119              		.loc 1 13 13 is_stmt 1 discriminator 2
  13:src/Tests/test_cpp.cpp ****             Console::putc('['); Console::putc(id); Console::putc(']');
 120              		.loc 1 13 21 is_stmt 0 discriminator 2
 121 0024 03B58402 		ld	a0,40(s1)
 122 0028 97000000 		call	_ZN9Semaphore4waitEv@plt
 122      E7800000 
 123              	.LVL12:
  14:src/Tests/test_cpp.cpp ****             mx->signal();
 124              		.loc 1 14 13 is_stmt 1 discriminator 2
  14:src/Tests/test_cpp.cpp ****             mx->signal();
 125              		.loc 1 14 26 is_stmt 0 discriminator 2
 126 0030 1305B005 		li	a0,91
 127 0034 97000000 		call	_ZN7Console4putcEc@plt
GAS LISTING /tmp/cc3yeH6v.s 			page 4


 127      E7800000 
 128              	.LVL13:
  14:src/Tests/test_cpp.cpp ****             mx->signal();
 129              		.loc 1 14 33 is_stmt 1 discriminator 2
  14:src/Tests/test_cpp.cpp ****             mx->signal();
 130              		.loc 1 14 46 is_stmt 0 discriminator 2
 131 003c 03C50402 		lbu	a0,32(s1)
 132 0040 97000000 		call	_ZN7Console4putcEc@plt
 132      E7800000 
 133              	.LVL14:
  14:src/Tests/test_cpp.cpp ****             mx->signal();
 134              		.loc 1 14 52 is_stmt 1 discriminator 2
  14:src/Tests/test_cpp.cpp ****             mx->signal();
 135              		.loc 1 14 65 is_stmt 0 discriminator 2
 136 0048 1305D005 		li	a0,93
 137 004c 97000000 		call	_ZN7Console4putcEc@plt
 137      E7800000 
 138              	.LVL15:
  15:src/Tests/test_cpp.cpp ****             Thread::sleep(2);
 139              		.loc 1 15 13 is_stmt 1 discriminator 2
  15:src/Tests/test_cpp.cpp ****             Thread::sleep(2);
 140              		.loc 1 15 23 is_stmt 0 discriminator 2
 141 0054 03B58402 		ld	a0,40(s1)
 142 0058 97000000 		call	_ZN9Semaphore6signalEv@plt
 142      E7800000 
 143              	.LVL16:
  16:src/Tests/test_cpp.cpp ****         }
 144              		.loc 1 16 13 is_stmt 1 discriminator 2
  16:src/Tests/test_cpp.cpp ****         }
 145              		.loc 1 16 26 is_stmt 0 discriminator 2
 146 0060 13052000 		li	a0,2
 147 0064 97000000 		call	_ZN6Thread5sleepEm@plt
 147      E7800000 
 148              	.LVL17:
  12:src/Tests/test_cpp.cpp ****             mx->wait();
 149              		.loc 1 12 9 is_stmt 1 discriminator 2
 150 006c 1B091900 		addiw	s2,s2,1
 151              	.LVL18:
 152              	.L10:
  12:src/Tests/test_cpp.cpp ****             mx->wait();
 153              		.loc 1 12 27 discriminator 3
 154 0070 93072000 		li	a5,2
 155 0074 E3D827FB 		ble	s2,a5,.L12
 156              	.LBE31:
  18:src/Tests/test_cpp.cpp ****     }
 157              		.loc 1 18 9
  18:src/Tests/test_cpp.cpp ****     }
 158              		.loc 1 18 21 is_stmt 0
 159 0078 03B50403 		ld	a0,48(s1)
 160 007c 97000000 		call	_ZN9Semaphore6signalEv@plt
 160      E7800000 
 161              	.LVL19:
  19:src/Tests/test_cpp.cpp **** };
 162              		.loc 1 19 5
 163 0084 83308101 		ld	ra,24(sp)
 164              		.cfi_restore 1
 165 0088 03340101 		ld	s0,16(sp)
GAS LISTING /tmp/cc3yeH6v.s 			page 5


 166              		.cfi_restore 8
 167              		.cfi_def_cfa 2, 32
 168 008c 83348100 		ld	s1,8(sp)
 169              		.cfi_restore 9
 170              	.LVL20:
 171 0090 03390100 		ld	s2,0(sp)
 172              		.cfi_restore 18
 173              	.LVL21:
 174 0094 13010102 		addi	sp,sp,32
 175              		.cfi_def_cfa_offset 0
 176 0098 67800000 		jr	ra
 177              		.cfi_endproc
 178              	.LFE5:
 180              		.section	.text._ZN6WorkerD2Ev,"axG",@progbits,_ZN6WorkerD5Ev,comdat
 181              		.align	2
 182              		.weak	_ZN6WorkerD2Ev
 184              	_ZN6WorkerD2Ev:
 185              	.LFB21:
   4:src/Tests/test_cpp.cpp ****     char id;
 186              		.loc 1 4 7 is_stmt 1
 187              		.cfi_startproc
 188              	.LVL22:
 189 0000 130101FF 		addi	sp,sp,-16
 190              		.cfi_def_cfa_offset 16
 191 0004 23341100 		sd	ra,8(sp)
 192 0008 23308100 		sd	s0,0(sp)
 193              		.cfi_offset 1, -8
 194              		.cfi_offset 8, -16
 195 000c 13040101 		addi	s0,sp,16
 196              		.cfi_def_cfa 8, 0
 197              	.LBB32:
   4:src/Tests/test_cpp.cpp ****     char id;
 198              		.loc 1 4 7 is_stmt 0
 199 0010 97070000 		lla	a5,_ZTV6Worker+16
 199      93870700 
 200 0018 2330F500 		sd	a5,0(a0)
 201 001c 97000000 		call	_ZN6ThreadD2Ev@plt
 201      E7800000 
 202              	.LVL23:
 203              	.LBE32:
 204 0024 83308100 		ld	ra,8(sp)
 205              		.cfi_restore 1
 206 0028 03340100 		ld	s0,0(sp)
 207              		.cfi_restore 8
 208              		.cfi_def_cfa 2, 16
 209 002c 13010101 		addi	sp,sp,16
 210              		.cfi_def_cfa_offset 0
 211 0030 67800000 		jr	ra
 212              		.cfi_endproc
 213              	.LFE21:
 215              		.weak	_ZN6WorkerD1Ev
 216              		.set	_ZN6WorkerD1Ev,_ZN6WorkerD2Ev
 217              		.section	.text._ZN6WorkerD0Ev,"axG",@progbits,_ZN6WorkerD5Ev,comdat
 218              		.align	2
 219              		.weak	_ZN6WorkerD0Ev
 221              	_ZN6WorkerD0Ev:
 222              	.LFB23:
GAS LISTING /tmp/cc3yeH6v.s 			page 6


   4:src/Tests/test_cpp.cpp ****     char id;
 223              		.loc 1 4 7 is_stmt 1
 224              		.cfi_startproc
 225              	.LVL24:
 226 0000 130101FE 		addi	sp,sp,-32
 227              		.cfi_def_cfa_offset 32
 228 0004 233C1100 		sd	ra,24(sp)
 229 0008 23388100 		sd	s0,16(sp)
 230 000c 23349100 		sd	s1,8(sp)
 231              		.cfi_offset 1, -8
 232              		.cfi_offset 8, -16
 233              		.cfi_offset 9, -24
 234 0010 13040102 		addi	s0,sp,32
 235              		.cfi_def_cfa 8, 0
 236 0014 93040500 		mv	s1,a0
 237              	.LVL25:
 238              	.LBB33:
 239              	.LBB34:
   4:src/Tests/test_cpp.cpp ****     char id;
 240              		.loc 1 4 7 is_stmt 0
 241 0018 97070000 		lla	a5,_ZTV6Worker+16
 241      93870700 
 242 0020 2330F500 		sd	a5,0(a0)
 243 0024 97000000 		call	_ZN6ThreadD2Ev@plt
 243      E7800000 
 244              	.LVL26:
 245              	.LBE34:
 246              	.LBE33:
 247 002c 13850400 		mv	a0,s1
 248 0030 97000000 		call	_ZdlPv@plt
 248      E7800000 
 249              	.LVL27:
 250 0038 83308101 		ld	ra,24(sp)
 251              		.cfi_restore 1
 252 003c 03340101 		ld	s0,16(sp)
 253              		.cfi_restore 8
 254              		.cfi_def_cfa 2, 32
 255 0040 83348100 		ld	s1,8(sp)
 256              		.cfi_restore 9
 257              	.LVL28:
 258 0044 13010102 		addi	sp,sp,32
 259              		.cfi_def_cfa_offset 0
 260 0048 67800000 		jr	ra
 261              		.cfi_endproc
 262              	.LFE23:
 264              		.section	.text._ZN6TickerD2Ev,"axG",@progbits,_ZN6TickerD5Ev,comdat
 265              		.align	2
 266              		.weak	_ZN6TickerD2Ev
 268              	_ZN6TickerD2Ev:
 269              	.LFB17:
  22:src/Tests/test_cpp.cpp **** public:
 270              		.loc 1 22 7 is_stmt 1
 271              		.cfi_startproc
 272              	.LVL29:
 273 0000 130101FF 		addi	sp,sp,-16
 274              		.cfi_def_cfa_offset 16
 275 0004 23341100 		sd	ra,8(sp)
GAS LISTING /tmp/cc3yeH6v.s 			page 7


 276 0008 23308100 		sd	s0,0(sp)
 277              		.cfi_offset 1, -8
 278              		.cfi_offset 8, -16
 279 000c 13040101 		addi	s0,sp,16
 280              		.cfi_def_cfa 8, 0
 281              	.LVL30:
 282              	.LBB35:
 283              	.LBB36:
 284              		.file 2 "src/Tests/../syscall_cpp.hpp"
   1:src/Tests/../syscall_cpp.hpp **** //
   2:src/Tests/../syscall_cpp.hpp **** // Created by os on 6/25/26.
   3:src/Tests/../syscall_cpp.hpp **** //
   4:src/Tests/../syscall_cpp.hpp **** 
   5:src/Tests/../syscall_cpp.hpp **** #ifndef _syscall_cpp
   6:src/Tests/../syscall_cpp.hpp **** #define _syscall_cpp
   7:src/Tests/../syscall_cpp.hpp **** 
   8:src/Tests/../syscall_cpp.hpp **** #include "syscall_c.h"
   9:src/Tests/../syscall_cpp.hpp **** 
  10:src/Tests/../syscall_cpp.hpp **** void* operator new(size_t);
  11:src/Tests/../syscall_cpp.hpp **** void  operator delete(void*);
  12:src/Tests/../syscall_cpp.hpp **** 
  13:src/Tests/../syscall_cpp.hpp **** class Thread {
  14:src/Tests/../syscall_cpp.hpp **** public:
  15:src/Tests/../syscall_cpp.hpp ****     Thread(void (*body)(void*), void* arg);
  16:src/Tests/../syscall_cpp.hpp ****     virtual ~Thread();
  17:src/Tests/../syscall_cpp.hpp ****     int start();
  18:src/Tests/../syscall_cpp.hpp ****     static void dispatch();
  19:src/Tests/../syscall_cpp.hpp ****     static int sleep(time_t);
  20:src/Tests/../syscall_cpp.hpp **** protected:
  21:src/Tests/../syscall_cpp.hpp ****     Thread();
  22:src/Tests/../syscall_cpp.hpp ****     virtual void run() {}
  23:src/Tests/../syscall_cpp.hpp **** private:
  24:src/Tests/../syscall_cpp.hpp ****     thread_t myHandle;
  25:src/Tests/../syscall_cpp.hpp ****     void (*body)(void*);
  26:src/Tests/../syscall_cpp.hpp ****     void* arg;
  27:src/Tests/../syscall_cpp.hpp ****     static void runBody(void* arg);
  28:src/Tests/../syscall_cpp.hpp **** };
  29:src/Tests/../syscall_cpp.hpp **** 
  30:src/Tests/../syscall_cpp.hpp **** class Semaphore {
  31:src/Tests/../syscall_cpp.hpp **** public:
  32:src/Tests/../syscall_cpp.hpp ****     Semaphore(unsigned init = 1);
  33:src/Tests/../syscall_cpp.hpp ****     virtual ~Semaphore();
  34:src/Tests/../syscall_cpp.hpp ****     int wait();
  35:src/Tests/../syscall_cpp.hpp ****     int signal();
  36:src/Tests/../syscall_cpp.hpp **** private:
  37:src/Tests/../syscall_cpp.hpp ****     sem_t myHandle;
  38:src/Tests/../syscall_cpp.hpp **** };
  39:src/Tests/../syscall_cpp.hpp **** 
  40:src/Tests/../syscall_cpp.hpp **** class PeriodicThread : public Thread {
 285              		.loc 2 40 7 is_stmt 0
 286 0010 97070000 		la	a5,_ZTV14PeriodicThread
 286      83B70700 
 287 0018 93870701 		addi	a5,a5,16
 288 001c 2330F500 		sd	a5,0(a0)
 289 0020 97000000 		call	_ZN6ThreadD2Ev@plt
 289      E7800000 
 290              	.LVL31:
GAS LISTING /tmp/cc3yeH6v.s 			page 8


 291              	.LBE36:
 292              	.LBE35:
  22:src/Tests/test_cpp.cpp **** public:
 293              		.loc 1 22 7
 294 0028 83308100 		ld	ra,8(sp)
 295              		.cfi_restore 1
 296 002c 03340100 		ld	s0,0(sp)
 297              		.cfi_restore 8
 298              		.cfi_def_cfa 2, 16
 299 0030 13010101 		addi	sp,sp,16
 300              		.cfi_def_cfa_offset 0
 301 0034 67800000 		jr	ra
 302              		.cfi_endproc
 303              	.LFE17:
 305              		.weak	_ZN6TickerD1Ev
 306              		.set	_ZN6TickerD1Ev,_ZN6TickerD2Ev
 307              		.section	.text._ZN6TickerD0Ev,"axG",@progbits,_ZN6TickerD5Ev,comdat
 308              		.align	2
 309              		.weak	_ZN6TickerD0Ev
 311              	_ZN6TickerD0Ev:
 312              	.LFB19:
  22:src/Tests/test_cpp.cpp **** public:
 313              		.loc 1 22 7 is_stmt 1
 314              		.cfi_startproc
 315              	.LVL32:
 316 0000 130101FE 		addi	sp,sp,-32
 317              		.cfi_def_cfa_offset 32
 318 0004 233C1100 		sd	ra,24(sp)
 319 0008 23388100 		sd	s0,16(sp)
 320 000c 23349100 		sd	s1,8(sp)
 321              		.cfi_offset 1, -8
 322              		.cfi_offset 8, -16
 323              		.cfi_offset 9, -24
 324 0010 13040102 		addi	s0,sp,32
 325              		.cfi_def_cfa 8, 0
 326 0014 93040500 		mv	s1,a0
 327              	.LVL33:
 328              	.LBB37:
 329              	.LBB38:
 330              	.LBB39:
 331              		.loc 2 40 7 is_stmt 0
 332 0018 97070000 		la	a5,_ZTV14PeriodicThread
 332      83B70700 
 333 0020 93870701 		addi	a5,a5,16
 334 0024 2330F500 		sd	a5,0(a0)
 335 0028 97000000 		call	_ZN6ThreadD2Ev@plt
 335      E7800000 
 336              	.LVL34:
 337              	.LBE39:
 338              	.LBE38:
 339              	.LBE37:
  22:src/Tests/test_cpp.cpp **** public:
 340              		.loc 1 22 7
 341 0030 13850400 		mv	a0,s1
 342 0034 97000000 		call	_ZdlPv@plt
 342      E7800000 
 343              	.LVL35:
GAS LISTING /tmp/cc3yeH6v.s 			page 9


 344 003c 83308101 		ld	ra,24(sp)
 345              		.cfi_restore 1
 346 0040 03340101 		ld	s0,16(sp)
 347              		.cfi_restore 8
 348              		.cfi_def_cfa 2, 32
 349 0044 83348100 		ld	s1,8(sp)
 350              		.cfi_restore 9
 351              	.LVL36:
 352 0048 13010102 		addi	sp,sp,32
 353              		.cfi_def_cfa_offset 0
 354 004c 67800000 		jr	ra
 355              		.cfi_endproc
 356              	.LFE19:
 358              		.text
 359              		.align	2
 360              		.globl	userMainCpp
 362              	userMainCpp:
 363              	.LFB15:
  35:src/Tests/test_cpp.cpp ****     }
  36:src/Tests/test_cpp.cpp **** }
  37:src/Tests/test_cpp.cpp **** 
  38:src/Tests/test_cpp.cpp **** extern "C" void userMainCpp(void) {
 364              		.loc 1 38 35 is_stmt 1
 365              		.cfi_startproc
 366              		.cfi_personality 0x9b,DW.ref.__gxx_personality_v0
 367              		.cfi_lsda 0x1b,.LLSDA15
 368 003c 130101FB 		addi	sp,sp,-80
 369              		.cfi_def_cfa_offset 80
 370 0040 23341104 		sd	ra,72(sp)
 371 0044 23308104 		sd	s0,64(sp)
 372 0048 233C9102 		sd	s1,56(sp)
 373 004c 23382103 		sd	s2,48(sp)
 374 0050 23343103 		sd	s3,40(sp)
 375              		.cfi_offset 1, -8
 376              		.cfi_offset 8, -16
 377              		.cfi_offset 9, -24
 378              		.cfi_offset 18, -32
 379              		.cfi_offset 19, -40
 380 0054 13040105 		addi	s0,sp,80
 381              		.cfi_def_cfa 8, 0
  39:src/Tests/test_cpp.cpp ****     char* buf = (char*)mem_alloc(4);
 382              		.loc 1 39 5
 383              		.loc 1 39 33 is_stmt 0
 384 0058 13054000 		li	a0,4
 385              	.LEHB0:
 386 005c 97000000 		call	mem_alloc@plt
 386      E7800000 
 387              	.LVL37:
 388 0064 93040500 		mv	s1,a0
 389              	.LVL38:
  40:src/Tests/test_cpp.cpp ****     buf[0] = 'C'; buf[1] = '+'; buf[2] = '+'; buf[3] = '\n';
 390              		.loc 1 40 5 is_stmt 1
 391              		.loc 1 40 12 is_stmt 0
 392 0068 93073004 		li	a5,67
 393 006c 2300F500 		sb	a5,0(a0)
 394              		.loc 1 40 19 is_stmt 1
 395              		.loc 1 40 26 is_stmt 0
GAS LISTING /tmp/cc3yeH6v.s 			page 10


 396 0070 9307B002 		li	a5,43
 397 0074 A300F500 		sb	a5,1(a0)
 398              		.loc 1 40 33 is_stmt 1
 399              		.loc 1 40 40 is_stmt 0
 400 0078 2301F500 		sb	a5,2(a0)
 401              		.loc 1 40 47 is_stmt 1
 402              		.loc 1 40 54 is_stmt 0
 403 007c 9307A000 		li	a5,10
 404 0080 A301F500 		sb	a5,3(a0)
  41:src/Tests/test_cpp.cpp ****     Console::putc(buf[0]); Console::putc(buf[1]); Console::putc(buf[2]); Console::putc(buf[3]);
 405              		.loc 1 41 5 is_stmt 1
 406              		.loc 1 41 18 is_stmt 0
 407 0084 13053004 		li	a0,67
 408 0088 97000000 		call	_ZN7Console4putcEc@plt
 408      E7800000 
 409              	.LVL39:
 410              		.loc 1 41 28 is_stmt 1
 411              		.loc 1 41 41 is_stmt 0
 412 0090 03C51400 		lbu	a0,1(s1)
 413 0094 97000000 		call	_ZN7Console4putcEc@plt
 413      E7800000 
 414              	.LVL40:
 415              		.loc 1 41 51 is_stmt 1
 416              		.loc 1 41 64 is_stmt 0
 417 009c 03C52400 		lbu	a0,2(s1)
 418 00a0 97000000 		call	_ZN7Console4putcEc@plt
 418      E7800000 
 419              	.LVL41:
 420              		.loc 1 41 74 is_stmt 1
 421              		.loc 1 41 87 is_stmt 0
 422 00a8 03C53400 		lbu	a0,3(s1)
 423 00ac 97000000 		call	_ZN7Console4putcEc@plt
 423      E7800000 
 424              	.LVL42:
  42:src/Tests/test_cpp.cpp ****     mem_free(buf);
 425              		.loc 1 42 5 is_stmt 1
 426              		.loc 1 42 13 is_stmt 0
 427 00b4 13850400 		mv	a0,s1
 428 00b8 97000000 		call	mem_free@plt
 428      E7800000 
 429              	.LVL43:
  43:src/Tests/test_cpp.cpp **** 
  44:src/Tests/test_cpp.cpp ****     Semaphore mx(1), done(0);
 430              		.loc 1 44 5 is_stmt 1
 431              		.loc 1 44 19 is_stmt 0
 432 00c0 93051000 		li	a1,1
 433 00c4 130504FC 		addi	a0,s0,-64
 434 00c8 97000000 		call	_ZN9SemaphoreC1Ej@plt
 434      E7800000 
 435              	.LVL44:
 436              	.LEHE0:
 437              		.loc 1 44 28
 438 00d0 93050000 		li	a1,0
 439 00d4 130504FB 		addi	a0,s0,-80
 440              	.LEHB1:
 441 00d8 97000000 		call	_ZN9SemaphoreC1Ej@plt
 441      E7800000 
GAS LISTING /tmp/cc3yeH6v.s 			page 11


 442              	.LVL45:
 443              	.LEHE1:
  45:src/Tests/test_cpp.cpp ****     Worker* a = new Worker('A', &mx, &done);
 444              		.loc 1 45 5 is_stmt 1
 445              		.loc 1 45 43 is_stmt 0
 446 00e0 13058003 		li	a0,56
 447              	.LEHB2:
 448 00e4 97000000 		call	_Znwm@plt
 448      E7800000 
 449              	.LVL46:
 450              	.LEHE2:
 451 00ec 93090500 		mv	s3,a0
 452              	.LVL47:
 453              	.LEHB3:
 454              	.LBB40:
 455              	.LBB41:
   9:src/Tests/test_cpp.cpp **** protected:
 456              		.loc 1 9 90
 457 00f0 97000000 		call	_ZN6ThreadC2Ev@plt
 457      E7800000 
 458              	.LVL48:
 459              	.LEHE3:
 460 00f8 97070000 		lla	a5,_ZTV6Worker+16
 460      93870700 
 461 0100 23B0F900 		sd	a5,0(s3)
 462 0104 93071004 		li	a5,65
 463 0108 2380F902 		sb	a5,32(s3)
 464 010c 930704FC 		addi	a5,s0,-64
 465              	.LVL49:
 466 0110 23B4F902 		sd	a5,40(s3)
 467 0114 930704FB 		addi	a5,s0,-80
 468              	.LVL50:
 469 0118 23B8F902 		sd	a5,48(s3)
 470              	.LVL51:
 471              	.LBE41:
 472              	.LBE40:
  46:src/Tests/test_cpp.cpp ****     Worker* b = new Worker('B', &mx, &done);
 473              		.loc 1 46 5 is_stmt 1
 474              		.loc 1 46 43 is_stmt 0
 475 011c 13058003 		li	a0,56
 476              	.LEHB4:
 477 0120 97000000 		call	_Znwm@plt
 477      E7800000 
 478              	.LVL52:
 479              	.LEHE4:
 480 0128 13090500 		mv	s2,a0
 481              	.LVL53:
 482              	.LEHB5:
 483              	.LBB42:
 484              	.LBB43:
   9:src/Tests/test_cpp.cpp **** protected:
 485              		.loc 1 9 90
 486 012c 97000000 		call	_ZN6ThreadC2Ev@plt
 486      E7800000 
 487              	.LVL54:
 488              	.LEHE5:
 489 0134 97070000 		lla	a5,_ZTV6Worker+16
GAS LISTING /tmp/cc3yeH6v.s 			page 12


 489      93870700 
 490 013c 2330F900 		sd	a5,0(s2)
 491 0140 93072004 		li	a5,66
 492 0144 2300F902 		sb	a5,32(s2)
 493 0148 930704FC 		addi	a5,s0,-64
 494              	.LVL55:
 495 014c 2334F902 		sd	a5,40(s2)
 496 0150 930704FB 		addi	a5,s0,-80
 497              	.LVL56:
 498 0154 2338F902 		sd	a5,48(s2)
 499              	.LVL57:
 500              	.LBE43:
 501              	.LBE42:
  47:src/Tests/test_cpp.cpp ****     Worker* c = new Worker('C', &mx, &done);
 502              		.loc 1 47 5 is_stmt 1
 503              		.loc 1 47 43 is_stmt 0
 504 0158 13058003 		li	a0,56
 505              	.LEHB6:
 506 015c 97000000 		call	_Znwm@plt
 506      E7800000 
 507              	.LVL58:
 508              	.LEHE6:
 509 0164 93040500 		mv	s1,a0
 510              	.LVL59:
 511              	.LEHB7:
 512              	.LBB44:
 513              	.LBB45:
   9:src/Tests/test_cpp.cpp **** protected:
 514              		.loc 1 9 90
 515 0168 97000000 		call	_ZN6ThreadC2Ev@plt
 515      E7800000 
 516              	.LVL60:
 517              	.LEHE7:
 518 0170 97070000 		lla	a5,_ZTV6Worker+16
 518      93870700 
 519 0178 23B0F400 		sd	a5,0(s1)
 520 017c 93073004 		li	a5,67
 521 0180 2380F402 		sb	a5,32(s1)
 522 0184 930704FC 		addi	a5,s0,-64
 523              	.LVL61:
 524 0188 23B4F402 		sd	a5,40(s1)
 525 018c 930704FB 		addi	a5,s0,-80
 526              	.LVL62:
 527 0190 23B8F402 		sd	a5,48(s1)
 528              	.LVL63:
 529              	.LBE45:
 530              	.LBE44:
  48:src/Tests/test_cpp.cpp ****     a->start(); b->start(); c->start();
 531              		.loc 1 48 5 is_stmt 1
 532              		.loc 1 48 13 is_stmt 0
 533 0194 13850900 		mv	a0,s3
 534              	.LEHB8:
 535 0198 97000000 		call	_ZN6Thread5startEv@plt
 535      E7800000 
 536              	.LVL64:
 537              		.loc 1 48 17 is_stmt 1 discriminator 1
 538              		.loc 1 48 25 is_stmt 0 discriminator 1
GAS LISTING /tmp/cc3yeH6v.s 			page 13


 539 01a0 13050900 		mv	a0,s2
 540 01a4 97000000 		call	_ZN6Thread5startEv@plt
 540      E7800000 
 541              	.LVL65:
 542              		.loc 1 48 29 is_stmt 1 discriminator 2
 543              		.loc 1 48 37 is_stmt 0 discriminator 2
 544 01ac 13850400 		mv	a0,s1
 545 01b0 97000000 		call	_ZN6Thread5startEv@plt
 545      E7800000 
 546              	.LVL66:
  49:src/Tests/test_cpp.cpp ****     done.wait(); done.wait(); done.wait();
 547              		.loc 1 49 5 is_stmt 1
 548              		.loc 1 49 14 is_stmt 0
 549 01b8 130504FB 		addi	a0,s0,-80
 550 01bc 97000000 		call	_ZN9Semaphore4waitEv@plt
 550      E7800000 
 551              	.LVL67:
 552              		.loc 1 49 18 is_stmt 1 discriminator 1
 553              		.loc 1 49 27 is_stmt 0 discriminator 1
 554 01c4 130504FB 		addi	a0,s0,-80
 555 01c8 97000000 		call	_ZN9Semaphore4waitEv@plt
 555      E7800000 
 556              	.LVL68:
 557              		.loc 1 49 31 is_stmt 1 discriminator 2
 558              		.loc 1 49 40 is_stmt 0 discriminator 2
 559 01d0 130504FB 		addi	a0,s0,-80
 560 01d4 97000000 		call	_ZN9Semaphore4waitEv@plt
 560      E7800000 
 561              	.LVL69:
  50:src/Tests/test_cpp.cpp ****     delete a; delete b; delete c;
 562              		.loc 1 50 5 is_stmt 1
 563              		.loc 1 50 13 is_stmt 0
 564 01dc 638A0900 		beqz	s3,.L22
 565              		.loc 1 50 12 discriminator 1
 566 01e0 83B70900 		ld	a5,0(s3)
 567 01e4 83B78700 		ld	a5,8(a5)
 568 01e8 13850900 		mv	a0,s3
 569 01ec E7800700 		jalr	a5
 570              	.LVL70:
 571              	.L22:
 572              		.loc 1 50 15 is_stmt 1 discriminator 3
 573              		.loc 1 50 23 is_stmt 0 discriminator 3
 574 01f0 630A0900 		beqz	s2,.L23
 575              		.loc 1 50 22 discriminator 4
 576 01f4 83370900 		ld	a5,0(s2)
 577 01f8 83B78700 		ld	a5,8(a5)
 578 01fc 13050900 		mv	a0,s2
 579 0200 E7800700 		jalr	a5
 580              	.LVL71:
 581              	.L23:
 582              		.loc 1 50 25 is_stmt 1 discriminator 6
 583              		.loc 1 50 33 is_stmt 0 discriminator 6
 584 0204 638A0400 		beqz	s1,.L24
 585              		.loc 1 50 32 discriminator 7
 586 0208 83B70400 		ld	a5,0(s1)
 587 020c 83B78700 		ld	a5,8(a5)
 588 0210 13850400 		mv	a0,s1
GAS LISTING /tmp/cc3yeH6v.s 			page 14


 589 0214 E7800700 		jalr	a5
 590              	.LVL72:
 591              	.L24:
  51:src/Tests/test_cpp.cpp ****     Console::putc('\n'); Console::putc('O'); Console::putc('K'); Console::putc('\n');
 592              		.loc 1 51 5 is_stmt 1
 593              		.loc 1 51 18 is_stmt 0
 594 0218 1305A000 		li	a0,10
 595 021c 97000000 		call	_ZN7Console4putcEc@plt
 595      E7800000 
 596              	.LVL73:
 597              		.loc 1 51 26 is_stmt 1 discriminator 1
 598              		.loc 1 51 39 is_stmt 0 discriminator 1
 599 0224 1305F004 		li	a0,79
 600 0228 97000000 		call	_ZN7Console4putcEc@plt
 600      E7800000 
 601              	.LVL74:
 602              		.loc 1 51 46 is_stmt 1 discriminator 2
 603              		.loc 1 51 59 is_stmt 0 discriminator 2
 604 0230 1305B004 		li	a0,75
 605 0234 97000000 		call	_ZN7Console4putcEc@plt
 605      E7800000 
 606              	.LVL75:
 607              		.loc 1 51 66 is_stmt 1 discriminator 3
 608              		.loc 1 51 79 is_stmt 0 discriminator 3
 609 023c 1305A000 		li	a0,10
 610 0240 97000000 		call	_ZN7Console4putcEc@plt
 610      E7800000 
 611              	.LVL76:
  52:src/Tests/test_cpp.cpp **** 
  53:src/Tests/test_cpp.cpp ****     Ticker* t = new Ticker();
 612              		.loc 1 53 5 is_stmt 1
 613              		.loc 1 53 28 is_stmt 0
 614 0248 13058002 		li	a0,40
 615 024c 97000000 		call	_Znwm@plt
 615      E7800000 
 616              	.LVL77:
 617              	.LEHE8:
 618 0254 93040500 		mv	s1,a0
 619              	.LVL78:
 620              	.LBB46:
 621              	.LBB47:
  24:src/Tests/test_cpp.cpp **** protected:
 622              		.loc 1 24 32
 623 0258 93053000 		li	a1,3
 624              	.LEHB9:
 625 025c 97000000 		call	_ZN14PeriodicThreadC2Em@plt
 625      E7800000 
 626              	.LVL79:
 627              	.LEHE9:
 628 0264 97070000 		lla	a5,_ZTV6Ticker+16
 628      93870700 
 629 026c 23B0F400 		sd	a5,0(s1)
 630              	.LVL80:
 631              	.LBE47:
 632              	.LBE46:
  54:src/Tests/test_cpp.cpp ****     t->start();
 633              		.loc 1 54 5 is_stmt 1
GAS LISTING /tmp/cc3yeH6v.s 			page 15


 634              		.loc 1 54 13 is_stmt 0
 635 0270 13850400 		mv	a0,s1
 636              	.LEHB10:
 637 0274 97000000 		call	_ZN6Thread5startEv@plt
 637      E7800000 
 638              	.LVL81:
  55:src/Tests/test_cpp.cpp ****     Thread::sleep(15);
 639              		.loc 1 55 5 is_stmt 1
 640              		.loc 1 55 18 is_stmt 0
 641 027c 1305F000 		li	a0,15
 642 0280 97000000 		call	_ZN6Thread5sleepEm@plt
 642      E7800000 
 643              	.LVL82:
  56:src/Tests/test_cpp.cpp ****     t->terminate();
 644              		.loc 1 56 5 is_stmt 1
 645              		.loc 1 56 17 is_stmt 0
 646 0288 13850400 		mv	a0,s1
 647 028c 97000000 		call	_ZN14PeriodicThread9terminateEv@plt
 647      E7800000 
 648              	.LVL83:
  57:src/Tests/test_cpp.cpp ****     Thread::sleep(5);
 649              		.loc 1 57 5 is_stmt 1
 650              		.loc 1 57 18 is_stmt 0
 651 0294 13055000 		li	a0,5
 652 0298 97000000 		call	_ZN6Thread5sleepEm@plt
 652      E7800000 
 653              	.LVL84:
  58:src/Tests/test_cpp.cpp ****     Console::putc('\n');
 654              		.loc 1 58 5 is_stmt 1
 655              		.loc 1 58 18 is_stmt 0
 656 02a0 1305A000 		li	a0,10
 657 02a4 97000000 		call	_ZN7Console4putcEc@plt
 657      E7800000 
 658              	.LVL85:
  59:src/Tests/test_cpp.cpp ****     delete t;
 659              		.loc 1 59 5 is_stmt 1
 660              		.loc 1 59 13 is_stmt 0
 661 02ac 638A0400 		beqz	s1,.L25
 662              		.loc 1 59 12 discriminator 1
 663 02b0 83B70400 		ld	a5,0(s1)
 664 02b4 83B78700 		ld	a5,8(a5)
 665 02b8 13850400 		mv	a0,s1
 666 02bc E7800700 		jalr	a5
 667              	.LVL86:
 668              	.L25:
  60:src/Tests/test_cpp.cpp **** 
  61:src/Tests/test_cpp.cpp ****     Thread* echo = new Thread(echoFunc, nullptr);
 669              		.loc 1 61 5 is_stmt 1
 670              		.loc 1 61 48 is_stmt 0
 671 02c0 13050002 		li	a0,32
 672 02c4 97000000 		call	_Znwm@plt
 672      E7800000 
 673              	.LVL87:
 674              	.LEHE10:
 675 02cc 93040500 		mv	s1,a0
 676              	.LVL88:
 677 02d0 13060000 		li	a2,0
GAS LISTING /tmp/cc3yeH6v.s 			page 16


 678 02d4 97050000 		lla	a1,_ZL8echoFuncPv
 678      93850500 
 679              	.LEHB11:
 680 02dc 97000000 		call	_ZN6ThreadC1EPFvPvES0_@plt
 680      E7800000 
 681              	.LVL89:
 682              	.LEHE11:
  62:src/Tests/test_cpp.cpp ****     echo->start();
 683              		.loc 1 62 5 is_stmt 1 discriminator 3
 684              		.loc 1 62 16 is_stmt 0 discriminator 3
 685 02e4 13850400 		mv	a0,s1
 686              	.LEHB12:
 687 02e8 97000000 		call	_ZN6Thread5startEv@plt
 687      E7800000 
 688              	.LVL90:
 689              	.LEHE12:
 690              	.L26:
  63:src/Tests/test_cpp.cpp ****     while (true) {}
 691              		.loc 1 63 5 is_stmt 1 discriminator 2
 692              		.loc 1 63 5 discriminator 2
 693 02f0 6F000000 		j	.L26
 694              	.LVL91:
 695              	.L36:
 696 02f4 93040500 		mv	s1,a0
 697              	.LVL92:
  45:src/Tests/test_cpp.cpp ****     Worker* b = new Worker('B', &mx, &done);
 698              		.loc 1 45 43 is_stmt 0
 699 02f8 13850900 		mv	a0,s3
 700 02fc 97000000 		call	_ZdlPv@plt
 700      E7800000 
 701              	.LVL93:
 702              	.L28:
  44:src/Tests/test_cpp.cpp ****     Worker* a = new Worker('A', &mx, &done);
 703              		.loc 1 44 28
 704 0304 130504FB 		addi	a0,s0,-80
 705 0308 97000000 		call	_ZN9SemaphoreD1Ev@plt
 705      E7800000 
 706              	.LVL94:
 707              	.L33:
  44:src/Tests/test_cpp.cpp ****     Worker* a = new Worker('A', &mx, &done);
 708              		.loc 1 44 19 discriminator 2
 709 0310 130504FC 		addi	a0,s0,-64
 710 0314 97000000 		call	_ZN9SemaphoreD1Ev@plt
 710      E7800000 
 711              	.LVL95:
 712 031c 13850400 		mv	a0,s1
 713              	.LEHB13:
 714 0320 97000000 		call	_Unwind_Resume@plt
 714      E7800000 
 715              	.LVL96:
 716              	.LEHE13:
 717              	.L37:
 718 0328 93040500 		mv	s1,a0
 719              	.LVL97:
  46:src/Tests/test_cpp.cpp ****     Worker* c = new Worker('C', &mx, &done);
 720              		.loc 1 46 43
 721 032c 13050900 		mv	a0,s2
GAS LISTING /tmp/cc3yeH6v.s 			page 17


 722 0330 97000000 		call	_ZdlPv@plt
 722      E7800000 
 723              	.LVL98:
 724 0338 6FF0DFFC 		j	.L28
 725              	.LVL99:
 726              	.L38:
 727 033c 13090500 		mv	s2,a0
 728              	.LVL100:
  47:src/Tests/test_cpp.cpp ****     a->start(); b->start(); c->start();
 729              		.loc 1 47 43
 730 0340 13850400 		mv	a0,s1
 731 0344 97000000 		call	_ZdlPv@plt
 731      E7800000 
 732              	.LVL101:
 733 034c 93040900 		mv	s1,s2
 734              	.LVL102:
 735 0350 6FF05FFB 		j	.L28
 736              	.LVL103:
 737              	.L39:
 738 0354 13090500 		mv	s2,a0
 739              	.LVL104:
  53:src/Tests/test_cpp.cpp ****     t->start();
 740              		.loc 1 53 28
 741 0358 13850400 		mv	a0,s1
 742 035c 97000000 		call	_ZdlPv@plt
 742      E7800000 
 743              	.LVL105:
 744 0364 93040900 		mv	s1,s2
 745              	.LVL106:
 746 0368 6FF0DFF9 		j	.L28
 747              	.LVL107:
 748              	.L40:
 749 036c 13090500 		mv	s2,a0
 750              	.LVL108:
  61:src/Tests/test_cpp.cpp ****     echo->start();
 751              		.loc 1 61 48
 752 0370 13850400 		mv	a0,s1
 753 0374 97000000 		call	_ZdlPv@plt
 753      E7800000 
 754              	.LVL109:
 755 037c 93040900 		mv	s1,s2
 756 0380 6FF05FF8 		j	.L28
 757              	.LVL110:
 758              	.L35:
 759 0384 93040500 		mv	s1,a0
 760 0388 6FF0DFF7 		j	.L28
 761              	.LVL111:
 762              	.L34:
 763 038c 93040500 		mv	s1,a0
 764              	.LVL112:
 765 0390 6FF01FF8 		j	.L33
 766              		.cfi_endproc
 767              	.LFE15:
 768              		.globl	__gxx_personality_v0
 769              		.section	.gcc_except_table,"a",@progbits
 770              	.LLSDA15:
 771 0000 FF       		.byte	0xff
GAS LISTING /tmp/cc3yeH6v.s 			page 18


 772 0001 FF       		.byte	0xff
 773 0002 03       		.byte	0x3
 774 0003 B601     		.byte	0xb6,0x1
 775 0005 00000000 		.4byte	.LEHB0-.LFB15
 776 0009 00000000 		.4byte	.LEHE0-.LEHB0
 777 000d 00000000 		.4byte	0
 778 0011 00       		.byte	0
 779 0012 00000000 		.4byte	.LEHB1-.LFB15
 780 0016 00000000 		.4byte	.LEHE1-.LEHB1
 781 001a 00000000 		.4byte	.L34-.LFB15
 782 001e 00       		.byte	0
 783 001f 00000000 		.4byte	.LEHB2-.LFB15
 784 0023 00000000 		.4byte	.LEHE2-.LEHB2
 785 0027 00000000 		.4byte	.L35-.LFB15
 786 002b 00       		.byte	0
 787 002c 00000000 		.4byte	.LEHB3-.LFB15
 788 0030 00000000 		.4byte	.LEHE3-.LEHB3
 789 0034 00000000 		.4byte	.L36-.LFB15
 790 0038 00       		.byte	0
 791 0039 00000000 		.4byte	.LEHB4-.LFB15
 792 003d 00000000 		.4byte	.LEHE4-.LEHB4
 793 0041 00000000 		.4byte	.L35-.LFB15
 794 0045 00       		.byte	0
 795 0046 00000000 		.4byte	.LEHB5-.LFB15
 796 004a 00000000 		.4byte	.LEHE5-.LEHB5
 797 004e 00000000 		.4byte	.L37-.LFB15
 798 0052 00       		.byte	0
 799 0053 00000000 		.4byte	.LEHB6-.LFB15
 800 0057 00000000 		.4byte	.LEHE6-.LEHB6
 801 005b 00000000 		.4byte	.L35-.LFB15
 802 005f 00       		.byte	0
 803 0060 00000000 		.4byte	.LEHB7-.LFB15
 804 0064 00000000 		.4byte	.LEHE7-.LEHB7
 805 0068 00000000 		.4byte	.L38-.LFB15
 806 006c 00       		.byte	0
 807 006d 00000000 		.4byte	.LEHB8-.LFB15
 808 0071 00000000 		.4byte	.LEHE8-.LEHB8
 809 0075 00000000 		.4byte	.L35-.LFB15
 810 0079 00       		.byte	0
 811 007a 00000000 		.4byte	.LEHB9-.LFB15
 812 007e 00000000 		.4byte	.LEHE9-.LEHB9
 813 0082 00000000 		.4byte	.L39-.LFB15
 814 0086 00       		.byte	0
 815 0087 00000000 		.4byte	.LEHB10-.LFB15
 816 008b 00000000 		.4byte	.LEHE10-.LEHB10
 817 008f 00000000 		.4byte	.L35-.LFB15
 818 0093 00       		.byte	0
 819 0094 00000000 		.4byte	.LEHB11-.LFB15
 820 0098 00000000 		.4byte	.LEHE11-.LEHB11
 821 009c 00000000 		.4byte	.L40-.LFB15
 822 00a0 00       		.byte	0
 823 00a1 00000000 		.4byte	.LEHB12-.LFB15
 824 00a5 00000000 		.4byte	.LEHE12-.LEHB12
 825 00a9 00000000 		.4byte	.L35-.LFB15
 826 00ad 00       		.byte	0
 827 00ae 00000000 		.4byte	.LEHB13-.LFB15
 828 00b2 00000000 		.4byte	.LEHE13-.LEHB13
GAS LISTING /tmp/cc3yeH6v.s 			page 19


 829 00b6 00000000 		.4byte	0
 830 00ba 00       		.byte	0
 831              		.text
 833              		.weak	_ZTV6Worker
 834              		.section	.data.rel.ro.local._ZTV6Worker,"awG",@progbits,_ZTV6Worker,comdat
 835              		.align	3
 838              	_ZTV6Worker:
 839 0000 00000000 		.dword	0
 839      00000000 
 840 0008 00000000 		.dword	0
 840      00000000 
 841 0010 00000000 		.dword	_ZN6WorkerD1Ev
 841      00000000 
 842 0018 00000000 		.dword	_ZN6WorkerD0Ev
 842      00000000 
 843 0020 00000000 		.dword	_ZN6Worker3runEv
 843      00000000 
 844              		.weak	_ZTV6Ticker
 845              		.section	.data.rel.ro._ZTV6Ticker,"awG",@progbits,_ZTV6Ticker,comdat
 846              		.align	3
 849              	_ZTV6Ticker:
 850 0000 00000000 		.dword	0
 850      00000000 
 851 0008 00000000 		.dword	0
 851      00000000 
 852 0010 00000000 		.dword	_ZN6TickerD1Ev
 852      00000000 
 853 0018 00000000 		.dword	_ZN6TickerD0Ev
 853      00000000 
 854 0020 00000000 		.dword	_ZN14PeriodicThread3runEv
 854      00000000 
 855 0028 00000000 		.dword	_ZN6Ticker18periodicActivationEv
 855      00000000 
 856              		.text
 857              	.Letext0:
 858              		.file 3 "src/Tests/../../lib/hw.h"
 859              		.file 4 "src/Tests/../syscall_c.h"
 3962              		.align	3
 3965              	DW.ref.__gxx_personality_v0:
 3966 0000 00000000 		.dword	__gxx_personality_v0
 3966      00000000 
 3967              		.ident	"GCC: (Ubuntu 9.4.0-1ubuntu1~20.04) 9.4.0"
 3968              		.section	.note.GNU-stack,"",@progbits
GAS LISTING /tmp/cc3yeH6v.s 			page 20

