GAS LISTING /tmp/ccpAbfry.s 			page 1


   1              		.file	"test_c.c"
   2              		.option nopic
   3              		.option norelax
   4              		.text
   5              	.Ltext0:
   6              		.cfi_sections	.debug_frame
   7              		.align	2
   9              	echoBody:
  10              	.LFB1:
  11              		.file 1 "src/Tests/test_c.c"
   1:src/Tests/test_c.c **** 
   2:src/Tests/test_c.c **** #include "../syscall_c.h"
   3:src/Tests/test_c.c **** 
   4:src/Tests/test_c.c **** static sem_t mutex;
   5:src/Tests/test_c.c **** static sem_t done;
   6:src/Tests/test_c.c **** 
   7:src/Tests/test_c.c **** static void worker(void* arg) {
   8:src/Tests/test_c.c ****     char id = (char)(size_t)arg;
   9:src/Tests/test_c.c ****     for (int i = 0; i < 3; i++) {
  10:src/Tests/test_c.c ****         sem_wait(mutex);
  11:src/Tests/test_c.c ****         putc('['); putc(id); putc(']');
  12:src/Tests/test_c.c ****         sem_signal(mutex);
  13:src/Tests/test_c.c ****         time_sleep(2);
  14:src/Tests/test_c.c ****     }
  15:src/Tests/test_c.c ****     sem_signal(done);
  16:src/Tests/test_c.c **** }
  17:src/Tests/test_c.c **** 
  18:src/Tests/test_c.c **** static void echoBody(void* arg) {
  12              		.loc 1 18 33
  13              		.cfi_startproc
  14              	.LVL0:
  15 0000 130101FF 		addi	sp,sp,-16
  16              		.cfi_def_cfa_offset 16
  17 0004 23341100 		sd	ra,8(sp)
  18 0008 23308100 		sd	s0,0(sp)
  19              		.cfi_offset 1, -8
  20              		.cfi_offset 8, -16
  21 000c 13040101 		addi	s0,sp,16
  22              		.cfi_def_cfa 8, 0
  19:src/Tests/test_c.c ****     (void)arg;
  23              		.loc 1 19 5
  20:src/Tests/test_c.c ****     putc('\n'); putc('>');
  24              		.loc 1 20 5
  25 0010 1305A000 		li	a0,10
  26              	.LVL1:
  27 0014 97000000 		call	putc
  27      E7800000 
  28              	.LVL2:
  29              		.loc 1 20 17
  30 001c 1305E003 		li	a0,62
  31 0020 97000000 		call	putc
  31      E7800000 
  32              	.LVL3:
  33 0028 6F00C000 		j	.L2
  34              	.LVL4:
  35              	.L5:
  36              	.LBB2:
GAS LISTING /tmp/ccpAbfry.s 			page 2


  21:src/Tests/test_c.c ****     while (1) {
  22:src/Tests/test_c.c ****         char c = getc();
  23:src/Tests/test_c.c ****         if (c != '\r') putc(c);
  37              		.loc 1 23 24 discriminator 1
  38 002c 97000000 		call	putc
  38      E7800000 
  39              	.LVL5:
  40              	.L2:
  41              	.LBE2:
  21:src/Tests/test_c.c ****     while (1) {
  42              		.loc 1 21 5
  43              	.LBB3:
  22:src/Tests/test_c.c ****         if (c != '\r') putc(c);
  44              		.loc 1 22 9
  22:src/Tests/test_c.c ****         if (c != '\r') putc(c);
  45              		.loc 1 22 18 is_stmt 0
  46 0034 97000000 		call	getc
  46      E7800000 
  47              	.LVL6:
  48              		.loc 1 23 9 is_stmt 1
  49              		.loc 1 23 12 is_stmt 0
  50 003c 9307D000 		li	a5,13
  51 0040 E30AF5FE 		beq	a0,a5,.L2
  52 0044 6FF09FFE 		j	.L5
  53              	.LBE3:
  54              		.cfi_endproc
  55              	.LFE1:
  57              		.align	2
  59              	worker:
  60              	.LFB0:
   7:src/Tests/test_c.c ****     char id = (char)(size_t)arg;
  61              		.loc 1 7 31 is_stmt 1
  62              		.cfi_startproc
  63              	.LVL7:
  64 0048 130101FD 		addi	sp,sp,-48
  65              		.cfi_def_cfa_offset 48
  66 004c 23341102 		sd	ra,40(sp)
  67 0050 23308102 		sd	s0,32(sp)
  68 0054 233C9100 		sd	s1,24(sp)
  69 0058 23382101 		sd	s2,16(sp)
  70 005c 23343101 		sd	s3,8(sp)
  71              		.cfi_offset 1, -8
  72              		.cfi_offset 8, -16
  73              		.cfi_offset 9, -24
  74              		.cfi_offset 18, -32
  75              		.cfi_offset 19, -40
  76 0060 13040103 		addi	s0,sp,48
  77              		.cfi_def_cfa 8, 0
   8:src/Tests/test_c.c ****     for (int i = 0; i < 3; i++) {
  78              		.loc 1 8 5
   8:src/Tests/test_c.c ****     for (int i = 0; i < 3; i++) {
  79              		.loc 1 8 10 is_stmt 0
  80 0064 9379F50F 		andi	s3,a0,0xff
  81              	.LVL8:
   9:src/Tests/test_c.c ****         sem_wait(mutex);
  82              		.loc 1 9 5 is_stmt 1
  83              	.LBB4:
GAS LISTING /tmp/ccpAbfry.s 			page 3


   9:src/Tests/test_c.c ****         sem_wait(mutex);
  84              		.loc 1 9 10
   9:src/Tests/test_c.c ****         sem_wait(mutex);
  85              		.loc 1 9 14 is_stmt 0
  86 0068 93040000 		li	s1,0
   9:src/Tests/test_c.c ****         sem_wait(mutex);
  87              		.loc 1 9 5
  88 006c 6F008005 		j	.L7
  89              	.LVL9:
  90              	.L8:
  10:src/Tests/test_c.c ****         putc('['); putc(id); putc(']');
  91              		.loc 1 10 9 is_stmt 1 discriminator 3
  92 0070 17090000 		lla	s2,mutex
  92      13090900 
  93 0078 03350900 		ld	a0,0(s2)
  94 007c 97000000 		call	sem_wait
  94      E7800000 
  95              	.LVL10:
  11:src/Tests/test_c.c ****         sem_signal(mutex);
  96              		.loc 1 11 9 discriminator 3
  97 0084 1305B005 		li	a0,91
  98 0088 97000000 		call	putc
  98      E7800000 
  99              	.LVL11:
  11:src/Tests/test_c.c ****         sem_signal(mutex);
 100              		.loc 1 11 20 discriminator 3
 101 0090 13850900 		mv	a0,s3
 102 0094 97000000 		call	putc
 102      E7800000 
 103              	.LVL12:
  11:src/Tests/test_c.c ****         sem_signal(mutex);
 104              		.loc 1 11 30 discriminator 3
 105 009c 1305D005 		li	a0,93
 106 00a0 97000000 		call	putc
 106      E7800000 
 107              	.LVL13:
  12:src/Tests/test_c.c ****         time_sleep(2);
 108              		.loc 1 12 9 discriminator 3
 109 00a8 03350900 		ld	a0,0(s2)
 110 00ac 97000000 		call	sem_signal
 110      E7800000 
 111              	.LVL14:
  13:src/Tests/test_c.c ****     }
 112              		.loc 1 13 9 discriminator 3
 113 00b4 13052000 		li	a0,2
 114 00b8 97000000 		call	time_sleep
 114      E7800000 
 115              	.LVL15:
   9:src/Tests/test_c.c ****         sem_wait(mutex);
 116              		.loc 1 9 28 discriminator 3
   9:src/Tests/test_c.c ****         sem_wait(mutex);
 117              		.loc 1 9 29 is_stmt 0 discriminator 3
 118 00c0 9B841400 		addiw	s1,s1,1
 119              	.LVL16:
 120              	.L7:
   9:src/Tests/test_c.c ****         sem_wait(mutex);
 121              		.loc 1 9 21 is_stmt 1 discriminator 1
GAS LISTING /tmp/ccpAbfry.s 			page 4


   9:src/Tests/test_c.c ****         sem_wait(mutex);
 122              		.loc 1 9 5 is_stmt 0 discriminator 1
 123 00c4 93072000 		li	a5,2
 124 00c8 E3D497FA 		ble	s1,a5,.L8
 125              	.LBE4:
  15:src/Tests/test_c.c **** }
 126              		.loc 1 15 5 is_stmt 1
 127 00cc 17050000 		ld	a0,done
 127      03350500 
 128 00d4 97000000 		call	sem_signal
 128      E7800000 
 129              	.LVL17:
  16:src/Tests/test_c.c **** 
 130              		.loc 1 16 1 is_stmt 0
 131 00dc 83308102 		ld	ra,40(sp)
 132              		.cfi_restore 1
 133 00e0 03340102 		ld	s0,32(sp)
 134              		.cfi_restore 8
 135              		.cfi_def_cfa 2, 48
 136 00e4 83348101 		ld	s1,24(sp)
 137              		.cfi_restore 9
 138              	.LVL18:
 139 00e8 03390101 		ld	s2,16(sp)
 140              		.cfi_restore 18
 141 00ec 83398100 		ld	s3,8(sp)
 142              		.cfi_restore 19
 143              	.LVL19:
 144 00f0 13010103 		addi	sp,sp,48
 145              		.cfi_def_cfa_offset 0
 146 00f4 67800000 		jr	ra
 147              		.cfi_endproc
 148              	.LFE0:
 150              		.align	2
 151              		.globl	userMainC
 153              	userMainC:
 154              	.LFB2:
  24:src/Tests/test_c.c ****     }
  25:src/Tests/test_c.c **** }
  26:src/Tests/test_c.c **** 
  27:src/Tests/test_c.c **** void userMainC(void) {
 155              		.loc 1 27 22 is_stmt 1
 156              		.cfi_startproc
 157 00f8 130101FC 		addi	sp,sp,-64
 158              		.cfi_def_cfa_offset 64
 159 00fc 233C1102 		sd	ra,56(sp)
 160 0100 23388102 		sd	s0,48(sp)
 161 0104 23349102 		sd	s1,40(sp)
 162              		.cfi_offset 1, -8
 163              		.cfi_offset 8, -16
 164              		.cfi_offset 9, -24
 165 0108 13040104 		addi	s0,sp,64
 166              		.cfi_def_cfa 8, 0
  28:src/Tests/test_c.c ****     char* buf = (char*)mem_alloc(4);
 167              		.loc 1 28 5
 168              		.loc 1 28 24 is_stmt 0
 169 010c 13054000 		li	a0,4
 170 0110 97000000 		call	mem_alloc
GAS LISTING /tmp/ccpAbfry.s 			page 5


 170      E7800000 
 171              	.LVL20:
 172 0118 93040500 		mv	s1,a0
 173              	.LVL21:
  29:src/Tests/test_c.c ****     buf[0] = 'M'; buf[1] = 'E'; buf[2] = 'M'; buf[3] = '\n';
 174              		.loc 1 29 5 is_stmt 1
 175              		.loc 1 29 12 is_stmt 0
 176 011c 9307D004 		li	a5,77
 177 0120 2300F500 		sb	a5,0(a0)
 178              		.loc 1 29 19 is_stmt 1
 179              		.loc 1 29 26 is_stmt 0
 180 0124 13075004 		li	a4,69
 181 0128 A300E500 		sb	a4,1(a0)
 182              		.loc 1 29 33 is_stmt 1
 183              		.loc 1 29 40 is_stmt 0
 184 012c 2301F500 		sb	a5,2(a0)
 185              		.loc 1 29 47 is_stmt 1
 186              		.loc 1 29 54 is_stmt 0
 187 0130 9307A000 		li	a5,10
 188 0134 A301F500 		sb	a5,3(a0)
  30:src/Tests/test_c.c ****     putc(buf[0]); putc(buf[1]); putc(buf[2]); putc(buf[3]);
 189              		.loc 1 30 5 is_stmt 1
 190 0138 1305D004 		li	a0,77
 191 013c 97000000 		call	putc
 191      E7800000 
 192              	.LVL22:
 193              		.loc 1 30 19
 194 0144 03C51400 		lbu	a0,1(s1)
 195 0148 97000000 		call	putc
 195      E7800000 
 196              	.LVL23:
 197              		.loc 1 30 33
 198 0150 03C52400 		lbu	a0,2(s1)
 199 0154 97000000 		call	putc
 199      E7800000 
 200              	.LVL24:
 201              		.loc 1 30 47
 202 015c 03C53400 		lbu	a0,3(s1)
 203 0160 97000000 		call	putc
 203      E7800000 
 204              	.LVL25:
  31:src/Tests/test_c.c ****     mem_free(buf);
 205              		.loc 1 31 5
 206 0168 13850400 		mv	a0,s1
 207 016c 97000000 		call	mem_free
 207      E7800000 
 208              	.LVL26:
  32:src/Tests/test_c.c **** 
  33:src/Tests/test_c.c ****     sem_open(&mutex, 1);
 209              		.loc 1 33 5
 210 0174 93051000 		li	a1,1
 211 0178 17050000 		lla	a0,mutex
 211      13050500 
 212 0180 97000000 		call	sem_open
 212      E7800000 
 213              	.LVL27:
  34:src/Tests/test_c.c ****     sem_open(&done, 0);
GAS LISTING /tmp/ccpAbfry.s 			page 6


 214              		.loc 1 34 5
 215 0188 93050000 		li	a1,0
 216 018c 17050000 		lla	a0,done
 216      13050500 
 217 0194 97000000 		call	sem_open
 217      E7800000 
 218              	.LVL28:
  35:src/Tests/test_c.c ****     thread_t t1, t2, t3;
 219              		.loc 1 35 5
  36:src/Tests/test_c.c ****     thread_create(&t1, worker, (void*)'A');
 220              		.loc 1 36 5
 221 019c 13061004 		li	a2,65
 222 01a0 97050000 		lla	a1,worker
 222      93850500 
 223 01a8 130584FD 		addi	a0,s0,-40
 224 01ac 97000000 		call	thread_create
 224      E7800000 
 225              	.LVL29:
  37:src/Tests/test_c.c ****     thread_create(&t2, worker, (void*)'B');
 226              		.loc 1 37 5
 227 01b4 13062004 		li	a2,66
 228 01b8 97050000 		lla	a1,worker
 228      93850500 
 229 01c0 130504FD 		addi	a0,s0,-48
 230 01c4 97000000 		call	thread_create
 230      E7800000 
 231              	.LVL30:
  38:src/Tests/test_c.c ****     thread_create(&t3, worker, (void*)'C');
 232              		.loc 1 38 5
 233 01cc 13063004 		li	a2,67
 234 01d0 97050000 		lla	a1,worker
 234      93850500 
 235 01d8 130584FC 		addi	a0,s0,-56
 236 01dc 97000000 		call	thread_create
 236      E7800000 
 237              	.LVL31:
  39:src/Tests/test_c.c ****     sem_wait_n(done, 3);
 238              		.loc 1 39 5
 239 01e4 97040000 		lla	s1,done
 239      93840400 
 240              	.LVL32:
 241 01ec 93053000 		li	a1,3
 242 01f0 03B50400 		ld	a0,0(s1)
 243 01f4 97000000 		call	sem_wait_n
 243      E7800000 
 244              	.LVL33:
  40:src/Tests/test_c.c ****     sem_close(mutex);
 245              		.loc 1 40 5
 246 01fc 17050000 		ld	a0,mutex
 246      03350500 
 247 0204 97000000 		call	sem_close
 247      E7800000 
 248              	.LVL34:
  41:src/Tests/test_c.c ****     sem_close(done);
 249              		.loc 1 41 5
 250 020c 03B50400 		ld	a0,0(s1)
 251 0210 97000000 		call	sem_close
GAS LISTING /tmp/ccpAbfry.s 			page 7


 251      E7800000 
 252              	.LVL35:
  42:src/Tests/test_c.c ****     putc('\n'); putc('O'); putc('K'); putc('\n');
 253              		.loc 1 42 5
 254 0218 1305A000 		li	a0,10
 255 021c 97000000 		call	putc
 255      E7800000 
 256              	.LVL36:
 257              		.loc 1 42 17
 258 0224 1305F004 		li	a0,79
 259 0228 97000000 		call	putc
 259      E7800000 
 260              	.LVL37:
 261              		.loc 1 42 28
 262 0230 1305B004 		li	a0,75
 263 0234 97000000 		call	putc
 263      E7800000 
 264              	.LVL38:
 265              		.loc 1 42 39
 266 023c 1305A000 		li	a0,10
 267 0240 97000000 		call	putc
 267      E7800000 
 268              	.LVL39:
  43:src/Tests/test_c.c **** 
  44:src/Tests/test_c.c ****     thread_t echo;
 269              		.loc 1 44 5
  45:src/Tests/test_c.c ****     thread_create(&echo, echoBody, 0);
 270              		.loc 1 45 5
 271 0248 13060000 		li	a2,0
 272 024c 97050000 		lla	a1,echoBody
 272      93850500 
 273 0254 130504FC 		addi	a0,s0,-64
 274 0258 97000000 		call	thread_create
 274      E7800000 
 275              	.LVL40:
 276              	.L11:
  46:src/Tests/test_c.c ****     while (1) {}
 277              		.loc 1 46 5 discriminator 1
 278              		.loc 1 46 16 discriminator 1
 279              		.loc 1 46 11 discriminator 1
 280 0260 6F000000 		j	.L11
 281              		.cfi_endproc
 282              	.LFE2:
 284              		.section	.sbss,"aw",@nobits
 285              		.align	3
 288              	done:
 289 0000 00000000 		.zero	8
 289      00000000 
 292              	mutex:
 293 0008 00000000 		.zero	8
 293      00000000 
 294              		.text
 295              	.Letext0:
 296              		.file 2 "src/Tests/../../lib/hw.h"
 297              		.file 3 "src/Tests/../syscall_c.h"
GAS LISTING /tmp/ccpAbfry.s 			page 8

