GAS LISTING /tmp/ccpAbfry.s 			page 1


   1              		.file	"test_c.c"
   2              		.option nopic
   3              		.option norelax
   4              		.text
   5              	.Ltext0:
   6              		.cfi_sections	.debug_frame
   7              		.align	2
   9              	echoBody:
  10              	.LFB1:
  11              		.file 1 "src/Tests/test_c.c"
   1:src/Tests/test_c.c **** 
   2:src/Tests/test_c.c **** #include "../syscall_c.h"
   3:src/Tests/test_c.c **** 
   4:src/Tests/test_c.c **** static sem_t mutex;
   5:src/Tests/test_c.c **** static sem_t done;
   6:src/Tests/test_c.c **** 
   7:src/Tests/test_c.c **** static void worker(void* arg) {
   8:src/Tests/test_c.c ****     char id = (char)(size_t)arg;
   9:src/Tests/test_c.c ****     for (int i = 0; i < 3; i++) {
  10:src/Tests/test_c.c ****         sem_wait(mutex);
  11:src/Tests/test_c.c ****         putc('['); putc(id); putc(']');
  12:src/Tests/test_c.c ****         sem_signal(mutex);
  13:src/Tests/test_c.c ****         time_sleep(2);
  14:src/Tests/test_c.c ****     }
  15:src/Tests/test_c.c ****     sem_signal(done);
  16:src/Tests/test_c.c **** }
  17:src/Tests/test_c.c **** 
  18:src/Tests/test_c.c **** static void echoBody(void* arg) {
  12              		.loc 1 18 33
  13              		.cfi_startproc
  14              	.LVL0:
  15 0000 130101FF 		addi	sp,sp,-16
  16              		.cfi_def_cfa_offset 16
  17 0004 23341100 		sd	ra,8(sp)
  18 0008 23308100 		sd	s0,0(sp)
  19              		.cfi_offset 1, -8
  20              		.cfi_offset 8, -16
  21 000c 13040101 		addi	s0,sp,16
  22              		.cfi_def_cfa 8, 0
  19:src/Tests/test_c.c ****     (void)arg;
  23              		.loc 1 19 5
  20:src/Tests/test_c.c ****     putc('\n'); putc('>');
  24              		.loc 1 20 5
  25 0010 1305A000 		li	a0,10
  26              	.LVL1:
  27 0014 97000000 		call	putc
  27      E7800000 
  28              	.LVL2:
  29              		.loc 1 20 17
  30 001c 1305E003 		li	a0,62
  31 0020 97000000 		call	putc
  31      E7800000 
  32              	.LVL3:
  33 0028 6F00C000 		j	.L2
  34              	.LVL4:
  35              	.L5:
  36              	.LBB2:
GAS LISTING /tmp/ccpAbfry.s 			page 2


  21:src/Tests/test_c.c ****     while (1) {
  22:src/Tests/test_c.c ****         char c = getc();
  23:src/Tests/test_c.c ****         if (c != '\r') putc(c);
  37              		.loc 1 23 24 discriminator 1
  38 002c 97000000 		call	putc
  38      E7800000 
  39              	.LVL5:
  40              	.L2:
  41              	.LBE2:
  21:src/Tests/test_c.c ****     while (1) {
  42              		.loc 1 21 5
  43              	.LBB3:
  22:src/Tests/test_c.c ****         if (c != '\r') putc(c);
  44              		.loc 1 22 9
  22:src/Tests/test_c.c ****         if (c != '\r') putc(c);
  45              		.loc 1 22 18 is_stmt 0
  46 0034 97000000 		call	getc
  46      E7800000 
  47              	.LVL6:
  48              		.loc 1 23 9 is_stmt 1
  49              		.loc 1 23 12 is_stmt 0
  50 003c 9307D000 		li	a5,13
  51 0040 E30AF5FE 		beq	a0,a5,.L2
  52 0044 6FF09FFE 		j	.L5
  53              	.LBE3:
  54              		.cfi_endproc
  55              	.LFE1:
  57              		.align	2
  59              	worker:
  60              	.LFB0:
   7:src/Tests/test_c.c ****     char id = (char)(size_t)arg;
  61              		.loc 1 7 31 is_stmt 1
  62              		.cfi_startproc
  63              	.LVL7:
  64 0048 130101FD 		addi	sp,sp,-48
  65              		.cfi_def_cfa_offset 48
  66 004c 23341102 		sd	ra,40(sp)
  67 0050 23308102 		sd	s0,32(sp)
  68 0054 233C9100 		sd	s1,24(sp)
  69 0058 23382101 		sd	s2,16(sp)
  70 005c 23343101 		sd	s3,8(sp)
  71              		.cfi_offset 1, -8
  72              		.cfi_offset 8, -16
  73              		.cfi_offset 9, -24
  74              		.cfi_offset 18, -32
  75              		.cfi_offset 19, -40
  76 0060 13040103 		addi	s0,sp,48
  77              		.cfi_def_cfa 8, 0
   8:src/Tests/test_c.c ****     for (int i = 0; i < 3; i++) {
  78              		.loc 1 8 5
   8:src/Tests/test_c.c ****     for (int i = 0; i < 3; i++) {
  79              		.loc 1 8 10 is_stmt 0
  80 0064 9379F50F 		andi	s3,a0,0xff
  81              	.LVL8:
   9:src/Tests/test_c.c ****         sem_wait(mutex);
  82              		.loc 1 9 5 is_stmt 1
  83              	.LBB4:
GAS LISTING /tmp/ccpAbfry.s 			page 3


   9:src/Tests/test_c.c ****         sem_wait(mutex);
  84              		.loc 1 9 10
   9:src/Tests/test_c.c ****         sem_wait(mutex);
  85              		.loc 1 9 14 is_stmt 0
  86 0068 93040000 		li	s1,0
   9:src/Tests/test_c.c ****         sem_wait(mutex);
  87              		.loc 1 9 5
  88 006c 6F008005 		j	.L7
  89              	.LVL9:
  90              	.L8:
  10:src/Tests/test_c.c ****         putc('['); putc(id); putc(']');
  91              		.loc 1 10 9 is_stmt 1 discriminator 3
  92 0070 17090000 		lla	s2,mutex
  92      13090900 
  93 0078 03350900 		ld	a0,0(s2)
  94 007c 97000000 		call	sem_wait
  94      E7800000 
  95              	.LVL10:
  11:src/Tests/test_c.c ****         sem_signal(mutex);
  96              		.loc 1 11 9 discriminator 3
  97 0084 1305B005 		li	a0,91
  98 0088 97000000 		call	putc
  98      E7800000 
  99              	.LVL11:
  11:src/Tests/test_c.c ****         sem_signal(mutex);
 100              		.loc 1 11 20 discriminator 3
 101 0090 13850900 		mv	a0,s3
 102 0094 97000000 		call	putc
 102      E7800000 
 103              	.LVL12:
  11:src/Tests/test_c.c ****         sem_signal(mutex);
 104              		.loc 1 11 30 discriminator 3
 105 009c 1305D005 		li	a0,93
 106 00a0 97000000 		call	putc
 106      E7800000 
 107              	.LVL13:
  12:src/Tests/test_c.c ****         time_sleep(2);
 108              		.loc 1 12 9 discriminator 3
 109 00a8 03350900 		ld	a0,0(s2)
 110 00ac 97000000 		call	sem_signal
 110      E7800000 
 111              	.LVL14:
  13:src/Tests/test_c.c ****     }
 112              		.loc 1 13 9 discriminator 3
 113 00b4 13052000 		li	a0,2
 114 00b8 97000000 		call	time_sleep
 114      E7800000 
 115              	.LVL15:
   9:src/Tests/test_c.c ****         sem_wait(mutex);
 116              		.loc 1 9 28 discriminator 3
   9:src/Tests/test_c.c ****         sem_wait(mutex);
 117              		.loc 1 9 29 is_stmt 0 discriminator 3
 118 00c0 9B841400 		addiw	s1,s1,1
 119              	.LVL16:
 120              	.L7:
   9:src/Tests/test_c.c ****         sem_wait(mutex);
 121              		.loc 1 9 21 is_stmt 1 discriminator 1
GAS LISTING /tmp/ccpAbfry.s 			page 4


   9:src/Tests/test_c.c ****         sem_wait(mutex);
 122              		.loc 1 9 5 is_stmt 0 discriminator 1
 123 00c4 93072000 		li	a5,2
 124 00c8 E3D497FA 		ble	s1,a5,.L8
 125              	.LBE4:
  15:src/Tests/test_c.c **** }
 126              		.loc 1 15 5 is_stmt 1
 127 00cc 17050000 		ld	a0,done
 127      03350500 
 128 00d4 97000000 		call	sem_signal
 128      E7800000 
 129              	.LVL17:
  16:src/Tests/test_c.c **** 
 130              		.loc 1 16 1 is_stmt 0
 131 00dc 83308102 		ld	ra,40(sp)
 132              		.cfi_restore 1
 133 00e0 03340102 		ld	s0,32(sp)
 134              		.cfi_restore 8
 135              		.cfi_def_cfa 2, 48
 136 00e4 83348101 		ld	s1,24(sp)
 137              		.cfi_restore 9
 138              	.LVL18:
 139 00e8 03390101 		ld	s2,16(sp)
 140              		.cfi_restore 18
 141 00ec 83398100 		ld	s3,8(sp)
 142              		.cfi_restore 19
 143              	.LVL19:
 144 00f0 13010103 		addi	sp,sp,48
 145              		.cfi_def_cfa_offset 0
 146 00f4 67800000 		jr	ra
 147              		.cfi_endproc
 148              	.LFE0:
 150              		.align	2
 151              		.globl	userMainC
 153              	userMainC:
 154              	.LFB2:
  24:src/Tests/test_c.c ****     }
  25:src/Tests/test_c.c **** }
  26:src/Tests/test_c.c **** 
  27:src/Tests/test_c.c **** void userMainC(void) {
 155              		.loc 1 27 22 is_stmt 1
 156              		.cfi_startproc
 157 00f8 130101FC 		addi	sp,sp,-64
 158              		.cfi_def_cfa_offset 64
 159 00fc 233C1102 		sd	ra,56(sp)
 160 0100 23388102 		sd	s0,48(sp)
 161 0104 23349102 		sd	s1,40(sp)
 162              		.cfi_offset 1, -8
 163              		.cfi_offset 8, -16
 164              		.cfi_offset 9, -24
 165 0108 13040104 		addi	s0,sp,64
 166              		.cfi_def_cfa 8, 0
  28:src/Tests/test_c.c ****     char* buf = (char*)mem_alloc(4);
 167              		.loc 1 28 5
 168              		.loc 1 28 24 is_stmt 0
 169 010c 13054000 		li	a0,4
 170 0110 97000000 		call	mem_alloc
GAS LISTING /tmp/ccpAbfry.s 			page 5


 170      E7800000 
 171              	.LVL20:
 172 0118 93040500 		mv	s1,a0
 173              	.LVL21:
  29:src/Tests/test_c.c ****     buf[0] = 'M'; buf[1] = 'E'; buf[2] = 'M'; buf[3] = '\n';
 174              		.loc 1 29 5 is_stmt 1
 175              		.loc 1 29 12 is_stmt 0
 176 011c 9307D004 		li	a5,77
 177 0120 2300F500 		sb	a5,0(a0)
 178              		.loc 1 29 19 is_stmt 1
 179              		.loc 1 29 26 is_stmt 0
 180 0124 13075004 		li	a4,69
 181 0128 A300E500 		sb	a4,1(a0)
 182              		.loc 1 29 33 is_stmt 1
 183              		.loc 1 29 40 is_stmt 0
 184 012c 2301F500 		sb	a5,2(a0)
 185              		.loc 1 29 47 is_stmt 1
 186              		.loc 1 29 54 is_stmt 0
 187 0130 9307A000 		li	a5,10
 188 0134 A301F500 		sb	a5,3(a0)
  30:src/Tests/test_c.c ****     putc(buf[0]); putc(buf[1]); putc(buf[2]); putc(buf[3]);
 189              		.loc 1 30 5 is_stmt 1
 190 0138 1305D004 		li	a0,77
 191 013c 97000000 		call	putc
 191      E7800000 
 192              	.LVL22:
 193              		.loc 1 30 19
 194 0144 03C51400 		lbu	a0,1(s1)
 195 0148 97000000 		call	putc
 195      E7800000 
 196              	.LVL23:
 197              		.loc 1 30 33
 198 0150 03C52400 		lbu	a0,2(s1)
 199 0154 97000000 		call	putc
 199      E7800000 
 200              	.LVL24:
 201              		.loc 1 30 47
 202 015c 03C53400 		lbu	a0,3(s1)
 203 0160 97000000 		call	putc
 203      E7800000 
 204              	.LVL25:
  31:src/Tests/test_c.c ****     mem_free(buf);
 205              		.loc 1 31 5
 206 0168 13850400 		mv	a0,s1
 207 016c 97000000 		call	mem_free
 207      E7800000 
 208              	.LVL26:
  32:src/Tests/test_c.c **** 
  33:src/Tests/test_c.c ****     sem_open(&mutex, 1);
 209              		.loc 1 33 5
 210 0174 93051000 		li	a1,1
 211 0178 17050000 		lla	a0,mutex
 211      13050500 
 212 0180 97000000 		call	sem_open
 212      E7800000 
 213              	.LVL27:
  34:src/Tests/test_c.c ****     sem_open(&done, 0);
GAS LISTING /tmp/ccpAbfry.s 			page 6


 214              		.loc 1 34 5
 215 0188 93050000 		li	a1,0
 216 018c 17050000 		lla	a0,done
 216      13050500 
 217 0194 97000000 		call	sem_open
 217      E7800000 
 218              	.LVL28:
  35:src/Tests/test_c.c ****     thread_t t1, t2, t3;
 219              		.loc 1 35 5
  36:src/Tests/test_c.c ****     thread_create(&t1, worker, (void*)'A');
 220              		.loc 1 36 5
 221 019c 13061004 		li	a2,65
 222 01a0 97050000 		lla	a1,worker
 222      93850500 
 223 01a8 130584FD 		addi	a0,s0,-40
 224 01ac 97000000 		call	thread_create
 224      E7800000 
 225              	.LVL29:
  37:src/Tests/test_c.c ****     thread_create(&t2, worker, (void*)'B');
 226              		.loc 1 37 5
 227 01b4 13062004 		li	a2,66
 228 01b8 97050000 		lla	a1,worker
 228      93850500 
 229 01c0 130504FD 		addi	a0,s0,-48
 230 01c4 97000000 		call	thread_create
 230      E7800000 
 231              	.LVL30:
  38:src/Tests/test_c.c ****     thread_create(&t3, worker, (void*)'C');
 232              		.loc 1 38 5
 233 01cc 13063004 		li	a2,67
 234 01d0 97050000 		lla	a1,worker
 234      93850500 
 235 01d8 130584FC 		addi	a0,s0,-56
 236 01dc 97000000 		call	thread_create
 236      E7800000 
 237              	.LVL31:
  39:src/Tests/test_c.c ****     sem_wait_n(done, 3);
 238              		.loc 1 39 5
 239 01e4 97040000 		lla	s1,done
 239      93840400 
 240              	.LVL32:
 241 01ec 93053000 		li	a1,3
 242 01f0 03B50400 		ld	a0,0(s1)
 243 01f4 97000000 		call	sem_wait_n
 243      E7800000 
 244              	.LVL33:
  40:src/Tests/test_c.c ****     sem_close(mutex);
 245              		.loc 1 40 5
 246 01fc 17050000 		ld	a0,mutex
 246      03350500 
 247 0204 97000000 		call	sem_close
 247      E7800000 
 248              	.LVL34:
  41:src/Tests/test_c.c ****     sem_close(done);
 249              		.loc 1 41 5
 250 020c 03B50400 		ld	a0,0(s1)
 251 0210 97000000 		call	sem_close
GAS LISTING /tmp/ccpAbfry.s 			page 7


 251      E7800000 
 252              	.LVL35:
  42:src/Tests/test_c.c ****     putc('\n'); putc('O'); putc('K'); putc('\n');
 253              		.loc 1 42 5
 254 0218 1305A000 		li	a0,10
 255 021c 97000000 		call	putc
 255      E7800000 
 256              	.LVL36:
 257              		.loc 1 42 17
 258 0224 1305F004 		li	a0,79
 259 0228 97000000 		call	putc
 259      E7800000 
 260              	.LVL37:
 261              		.loc 1 42 28
 262 0230 1305B004 		li	a0,75
 263 0234 97000000 		call	putc
 263      E7800000 
 264              	.LVL38:
 265              		.loc 1 42 39
 266 023c 1305A000 		li	a0,10
 267 0240 97000000 		call	putc
 267      E7800000 
 268              	.LVL39:
  43:src/Tests/test_c.c **** 
  44:src/Tests/test_c.c ****     thread_t echo;
 269              		.loc 1 44 5
  45:src/Tests/test_c.c ****     thread_create(&echo, echoBody, 0);
 270              		.loc 1 45 5
 271 0248 13060000 		li	a2,0
 272 024c 97050000 		lla	a1,echoBody
 272      93850500 
 273 0254 130504FC 		addi	a0,s0,-64
 274 0258 97000000 		call	thread_create
 274      E7800000 
 275              	.LVL40:
 276              	.L11:
  46:src/Tests/test_c.c ****     while (1) {}
 277              		.loc 1 46 5 discriminator 1
 278              		.loc 1 46 16 discriminator 1
 279              		.loc 1 46 11 discriminator 1
 280 0260 6F000000 		j	.L11
 281              		.cfi_endproc
 282              	.LFE2:
 284              		.section	.sbss,"aw",@nobits
 285              		.align	3
 288              	done:
 289 0000 00000000 		.zero	8
 289      00000000 
 292              	mutex:
 293 0008 00000000 		.zero	8
 293      00000000 
 294              		.text
 295              	.Letext0:
 296              		.file 2 "src/Tests/../../lib/hw.h"
 297              		.file 3 "src/Tests/../syscall_c.h"
GAS LISTING /tmp/ccpAbfry.s 			page 8


DEFINED SYMBOLS
                            *ABS*:0000000000000000 test_c.c
     /tmp/ccpAbfry.s:9      .text:0000000000000000 echoBody
     /tmp/ccpAbfry.s:13     .text:0000000000000000 .L0 
     /tmp/ccpAbfry.s:15     .text:0000000000000000 .L0 
     /tmp/ccpAbfry.s:16     .text:0000000000000004 .L0 
     /tmp/ccpAbfry.s:19     .text:000000000000000c .L0 
     /tmp/ccpAbfry.s:20     .text:000000000000000c .L0 
     /tmp/ccpAbfry.s:22     .text:0000000000000010 .L0 
     /tmp/ccpAbfry.s:24     .text:0000000000000010 .L0 
     /tmp/ccpAbfry.s:25     .text:0000000000000010 .L0 
     /tmp/ccpAbfry.s:30     .text:000000000000001c .L0 
     /tmp/ccpAbfry.s:38     .text:000000000000002c .L0 
     /tmp/ccpAbfry.s:44     .text:0000000000000034 .L0 
     /tmp/ccpAbfry.s:45     .text:0000000000000034 .L0 
     /tmp/ccpAbfry.s:46     .text:0000000000000034 .L0 
     /tmp/ccpAbfry.s:49     .text:000000000000003c .L0 
     /tmp/ccpAbfry.s:50     .text:000000000000003c .L0 
     /tmp/ccpAbfry.s:54     .text:0000000000000048 .L0 
     /tmp/ccpAbfry.s:59     .text:0000000000000048 worker
     /tmp/ccpAbfry.s:62     .text:0000000000000048 .L0 
     /tmp/ccpAbfry.s:64     .text:0000000000000048 .L0 
     /tmp/ccpAbfry.s:65     .text:000000000000004c .L0 
     /tmp/ccpAbfry.s:71     .text:0000000000000060 .L0 
     /tmp/ccpAbfry.s:72     .text:0000000000000060 .L0 
     /tmp/ccpAbfry.s:73     .text:0000000000000060 .L0 
     /tmp/ccpAbfry.s:74     .text:0000000000000060 .L0 
     /tmp/ccpAbfry.s:75     .text:0000000000000060 .L0 
     /tmp/ccpAbfry.s:77     .text:0000000000000064 .L0 
     /tmp/ccpAbfry.s:79     .text:0000000000000064 .L0 
     /tmp/ccpAbfry.s:80     .text:0000000000000064 .L0 
     /tmp/ccpAbfry.s:84     .text:0000000000000068 .L0 
     /tmp/ccpAbfry.s:85     .text:0000000000000068 .L0 
     /tmp/ccpAbfry.s:86     .text:0000000000000068 .L0 
     /tmp/ccpAbfry.s:88     .text:000000000000006c .L0 
     /tmp/ccpAbfry.s:292    .sbss:0000000000000008 mutex
     /tmp/ccpAbfry.s:92     .text:0000000000000070 .L0 
     /tmp/ccpAbfry.s:97     .text:0000000000000084 .L0 
     /tmp/ccpAbfry.s:101    .text:0000000000000090 .L0 
     /tmp/ccpAbfry.s:105    .text:000000000000009c .L0 
     /tmp/ccpAbfry.s:109    .text:00000000000000a8 .L0 
     /tmp/ccpAbfry.s:113    .text:00000000000000b4 .L0 
     /tmp/ccpAbfry.s:117    .text:00000000000000c0 .L0 
     /tmp/ccpAbfry.s:118    .text:00000000000000c0 .L0 
     /tmp/ccpAbfry.s:122    .text:00000000000000c4 .L0 
     /tmp/ccpAbfry.s:123    .text:00000000000000c4 .L0 
     /tmp/ccpAbfry.s:288    .sbss:0000000000000000 done
     /tmp/ccpAbfry.s:127    .text:00000000000000cc .L0 
     /tmp/ccpAbfry.s:131    .text:00000000000000dc .L0 
     /tmp/ccpAbfry.s:132    .text:00000000000000e0 .L0 
     /tmp/ccpAbfry.s:134    .text:00000000000000e4 .L0 
     /tmp/ccpAbfry.s:135    .text:00000000000000e4 .L0 
     /tmp/ccpAbfry.s:137    .text:00000000000000e8 .L0 
     /tmp/ccpAbfry.s:140    .text:00000000000000ec .L0 
     /tmp/ccpAbfry.s:142    .text:00000000000000f0 .L0 
     /tmp/ccpAbfry.s:145    .text:00000000000000f4 .L0 
     /tmp/ccpAbfry.s:147    .text:00000000000000f8 .L0 
GAS LISTING /tmp/ccpAbfry.s 			page 9


     /tmp/ccpAbfry.s:153    .text:00000000000000f8 userMainC
     /tmp/ccpAbfry.s:156    .text:00000000000000f8 .L0 
     /tmp/ccpAbfry.s:157    .text:00000000000000f8 .L0 
     /tmp/ccpAbfry.s:158    .text:00000000000000fc .L0 
     /tmp/ccpAbfry.s:162    .text:0000000000000108 .L0 
     /tmp/ccpAbfry.s:163    .text:0000000000000108 .L0 
     /tmp/ccpAbfry.s:164    .text:0000000000000108 .L0 
     /tmp/ccpAbfry.s:166    .text:000000000000010c .L0 
     /tmp/ccpAbfry.s:168    .text:000000000000010c .L0 
     /tmp/ccpAbfry.s:169    .text:000000000000010c .L0 
     /tmp/ccpAbfry.s:175    .text:000000000000011c .L0 
     /tmp/ccpAbfry.s:176    .text:000000000000011c .L0 
     /tmp/ccpAbfry.s:179    .text:0000000000000124 .L0 
     /tmp/ccpAbfry.s:180    .text:0000000000000124 .L0 
     /tmp/ccpAbfry.s:183    .text:000000000000012c .L0 
     /tmp/ccpAbfry.s:184    .text:000000000000012c .L0 
     /tmp/ccpAbfry.s:186    .text:0000000000000130 .L0 
     /tmp/ccpAbfry.s:187    .text:0000000000000130 .L0 
     /tmp/ccpAbfry.s:190    .text:0000000000000138 .L0 
     /tmp/ccpAbfry.s:194    .text:0000000000000144 .L0 
     /tmp/ccpAbfry.s:198    .text:0000000000000150 .L0 
     /tmp/ccpAbfry.s:202    .text:000000000000015c .L0 
     /tmp/ccpAbfry.s:206    .text:0000000000000168 .L0 
     /tmp/ccpAbfry.s:210    .text:0000000000000174 .L0 
     /tmp/ccpAbfry.s:215    .text:0000000000000188 .L0 
     /tmp/ccpAbfry.s:220    .text:000000000000019c .L0 
     /tmp/ccpAbfry.s:221    .text:000000000000019c .L0 
     /tmp/ccpAbfry.s:227    .text:00000000000001b4 .L0 
     /tmp/ccpAbfry.s:233    .text:00000000000001cc .L0 
     /tmp/ccpAbfry.s:239    .text:00000000000001e4 .L0 
     /tmp/ccpAbfry.s:246    .text:00000000000001fc .L0 
     /tmp/ccpAbfry.s:250    .text:000000000000020c .L0 
     /tmp/ccpAbfry.s:254    .text:0000000000000218 .L0 
     /tmp/ccpAbfry.s:258    .text:0000000000000224 .L0 
     /tmp/ccpAbfry.s:262    .text:0000000000000230 .L0 
     /tmp/ccpAbfry.s:266    .text:000000000000023c .L0 
     /tmp/ccpAbfry.s:270    .text:0000000000000248 .L0 
     /tmp/ccpAbfry.s:271    .text:0000000000000248 .L0 
     /tmp/ccpAbfry.s:278    .text:0000000000000260 .L0 
     /tmp/ccpAbfry.s:279    .text:0000000000000260 .L0 
     /tmp/ccpAbfry.s:280    .text:0000000000000260 .L0 
     /tmp/ccpAbfry.s:281    .text:0000000000000264 .L0 
     /tmp/ccpAbfry.s:298    .text:0000000000000264 .L0 
                     .debug_frame:0000000000000000 .L0 
     /tmp/ccpAbfry.s:92     .text:0000000000000070 .L0 
     /tmp/ccpAbfry.s:127    .text:00000000000000cc .L0 
     /tmp/ccpAbfry.s:211    .text:0000000000000178 .L0 
     /tmp/ccpAbfry.s:216    .text:000000000000018c .L0 
     /tmp/ccpAbfry.s:222    .text:00000000000001a0 .L0 
     /tmp/ccpAbfry.s:228    .text:00000000000001b8 .L0 
     /tmp/ccpAbfry.s:234    .text:00000000000001d0 .L0 
     /tmp/ccpAbfry.s:239    .text:00000000000001e4 .L0 
     /tmp/ccpAbfry.s:246    .text:00000000000001fc .L0 
     /tmp/ccpAbfry.s:272    .text:000000000000024c .L0 
     /tmp/ccpAbfry.s:40     .text:0000000000000034 .L2
     /tmp/ccpAbfry.s:35     .text:000000000000002c .L5
     /tmp/ccpAbfry.s:120    .text:00000000000000c4 .L7
GAS LISTING /tmp/ccpAbfry.s 			page 10


     /tmp/ccpAbfry.s:90     .text:0000000000000070 .L8
     /tmp/ccpAbfry.s:276    .text:0000000000000260 .L11
     /tmp/ccpAbfry.s:949    .debug_abbrev:0000000000000000 .Ldebug_abbrev0
     /tmp/ccpAbfry.s:1424   .debug_str:0000000000000114 .LASF36
     /tmp/ccpAbfry.s:1384   .debug_str:000000000000000e .LASF37
     /tmp/ccpAbfry.s:1420   .debug_str:00000000000000e9 .LASF38
     /tmp/ccpAbfry.s:5      .text:0000000000000000 .Ltext0
     /tmp/ccpAbfry.s:295    .text:0000000000000264 .Letext0
     /tmp/ccpAbfry.s:1380   .debug_line:0000000000000000 .Ldebug_line0
     /tmp/ccpAbfry.s:1426   .debug_str:00000000000001b2 .LASF0
     /tmp/ccpAbfry.s:1408   .debug_str:00000000000000a1 .LASF1
     /tmp/ccpAbfry.s:1398   .debug_str:0000000000000075 .LASF2
     /tmp/ccpAbfry.s:1390   .debug_str:0000000000000036 .LASF4
     /tmp/ccpAbfry.s:1416   .debug_str:00000000000000d2 .LASF3
     /tmp/ccpAbfry.s:1410   .debug_str:00000000000000b4 .LASF5
     /tmp/ccpAbfry.s:1456   .debug_str:000000000000025d .LASF6
     /tmp/ccpAbfry.s:1394   .debug_str:0000000000000053 .LASF7
     /tmp/ccpAbfry.s:1434   .debug_str:00000000000001d9 .LASF8
     /tmp/ccpAbfry.s:1382   .debug_str:0000000000000000 .LASF9
     /tmp/ccpAbfry.s:1460   .debug_str:0000000000000275 .LASF10
     /tmp/ccpAbfry.s:1396   .debug_str:0000000000000066 .LASF11
     /tmp/ccpAbfry.s:1452   .debug_str:0000000000000243 .LASF12
     /tmp/ccpAbfry.s:1440   .debug_str:0000000000000208 .LASF13
     /tmp/ccpAbfry.s:1412   .debug_str:00000000000000bb .LASF14
     /tmp/ccpAbfry.s:1392   .debug_str:000000000000003d .LASF15
     /tmp/ccpAbfry.s:1436   .debug_str:00000000000001e9 .LASF16
     /tmp/ccpAbfry.s:1438   .debug_str:00000000000001ff .LASF17
     /tmp/ccpAbfry.s:1422   .debug_str:000000000000010e .LASF18
     /tmp/ccpAbfry.s:1444   .debug_str:0000000000000221 .LASF19
     /tmp/ccpAbfry.s:1418   .debug_str:00000000000000e4 .LASF20
     /tmp/ccpAbfry.s:1432   .debug_str:00000000000001cf .LASF39
     /tmp/ccpAbfry.s:154    .text:00000000000000f8 .LFB2
     /tmp/ccpAbfry.s:282    .text:0000000000000264 .LFE2
     /tmp/ccpAbfry.s:1287   .debug_loc:0000000000000000 .LLST5
     /tmp/ccpAbfry.s:1458   .debug_str:0000000000000270 .LASF21
     /tmp/ccpAbfry.s:171    .text:0000000000000118 .LVL20
     /tmp/ccpAbfry.s:192    .text:0000000000000144 .LVL22
     /tmp/ccpAbfry.s:196    .text:0000000000000150 .LVL23
     /tmp/ccpAbfry.s:200    .text:000000000000015c .LVL24
     /tmp/ccpAbfry.s:204    .text:0000000000000168 .LVL25
     /tmp/ccpAbfry.s:208    .text:0000000000000174 .LVL26
     /tmp/ccpAbfry.s:213    .text:0000000000000188 .LVL27
     /tmp/ccpAbfry.s:218    .text:000000000000019c .LVL28
     /tmp/ccpAbfry.s:225    .text:00000000000001b4 .LVL29
     /tmp/ccpAbfry.s:231    .text:00000000000001cc .LVL30
     /tmp/ccpAbfry.s:237    .text:00000000000001e4 .LVL31
     /tmp/ccpAbfry.s:244    .text:00000000000001fc .LVL33
     /tmp/ccpAbfry.s:248    .text:000000000000020c .LVL34
     /tmp/ccpAbfry.s:252    .text:0000000000000218 .LVL35
     /tmp/ccpAbfry.s:256    .text:0000000000000224 .LVL36
     /tmp/ccpAbfry.s:260    .text:0000000000000230 .LVL37
     /tmp/ccpAbfry.s:264    .text:000000000000023c .LVL38
     /tmp/ccpAbfry.s:268    .text:0000000000000248 .LVL39
     /tmp/ccpAbfry.s:275    .text:0000000000000260 .LVL40
     /tmp/ccpAbfry.s:1430   .debug_str:00000000000001ca .LASF22
     /tmp/ccpAbfry.s:1406   .debug_str:0000000000000098 .LASF23
     /tmp/ccpAbfry.s:10     .text:0000000000000000 .LFB1
GAS LISTING /tmp/ccpAbfry.s 			page 11


     /tmp/ccpAbfry.s:55     .text:0000000000000048 .LFE1
     /tmp/ccpAbfry.s:1294   .debug_loc:0000000000000023 .LLST0
     /tmp/ccpAbfry.s:1372   .debug_ranges:0000000000000000 .Ldebug_ranges0
     /tmp/ccpAbfry.s:1308   .debug_loc:000000000000005c .LLST1
     /tmp/ccpAbfry.s:39     .text:0000000000000034 .LVL5
     /tmp/ccpAbfry.s:47     .text:000000000000003c .LVL6
     /tmp/ccpAbfry.s:28     .text:000000000000001c .LVL2
     /tmp/ccpAbfry.s:32     .text:0000000000000028 .LVL3
     /tmp/ccpAbfry.s:1402   .debug_str:0000000000000088 .LASF24
     /tmp/ccpAbfry.s:60     .text:0000000000000048 .LFB0
     /tmp/ccpAbfry.s:148    .text:00000000000000f8 .LFE0
     /tmp/ccpAbfry.s:1319   .debug_loc:0000000000000092 .LLST2
     /tmp/ccpAbfry.s:1333   .debug_loc:00000000000000cb .LLST3
     /tmp/ccpAbfry.s:83     .text:0000000000000068 .LBB4
     /tmp/ccpAbfry.s:125    .text:00000000000000cc .LBE4
     /tmp/ccpAbfry.s:1347   .debug_loc:0000000000000104 .LLST4
     /tmp/ccpAbfry.s:95     .text:0000000000000084 .LVL10
     /tmp/ccpAbfry.s:99     .text:0000000000000090 .LVL11
     /tmp/ccpAbfry.s:103    .text:000000000000009c .LVL12
     /tmp/ccpAbfry.s:107    .text:00000000000000a8 .LVL13
     /tmp/ccpAbfry.s:111    .text:00000000000000b4 .LVL14
     /tmp/ccpAbfry.s:115    .text:00000000000000c0 .LVL15
     /tmp/ccpAbfry.s:129    .text:00000000000000dc .LVL17
     /tmp/ccpAbfry.s:1454   .debug_str:0000000000000253 .LASF25
     /tmp/ccpAbfry.s:1446   .debug_str:0000000000000227 .LASF26
     /tmp/ccpAbfry.s:1442   .debug_str:0000000000000218 .LASF27
     /tmp/ccpAbfry.s:1448   .debug_str:000000000000022c .LASF28
     /tmp/ccpAbfry.s:1450   .debug_str:0000000000000235 .LASF29
     /tmp/ccpAbfry.s:1386   .debug_str:0000000000000021 .LASF30
     /tmp/ccpAbfry.s:1388   .debug_str:000000000000002c .LASF31
     /tmp/ccpAbfry.s:1400   .debug_str:0000000000000083 .LASF32
     /tmp/ccpAbfry.s:1404   .debug_str:000000000000008f .LASF33
     /tmp/ccpAbfry.s:1414   .debug_str:00000000000000c7 .LASF34
     /tmp/ccpAbfry.s:1428   .debug_str:00000000000001bf .LASF35
     /tmp/ccpAbfry.s:173    .text:000000000000011c .LVL21
     /tmp/ccpAbfry.s:240    .text:00000000000001ec .LVL32
     /tmp/ccpAbfry.s:14     .text:0000000000000000 .LVL0
     /tmp/ccpAbfry.s:26     .text:0000000000000014 .LVL1
     /tmp/ccpAbfry.s:34     .text:000000000000002c .LVL4
     /tmp/ccpAbfry.s:63     .text:0000000000000048 .LVL7
     /tmp/ccpAbfry.s:89     .text:0000000000000070 .LVL9
     /tmp/ccpAbfry.s:81     .text:0000000000000068 .LVL8
     /tmp/ccpAbfry.s:143    .text:00000000000000f0 .LVL19
     /tmp/ccpAbfry.s:138    .text:00000000000000e8 .LVL18
     /tmp/ccpAbfry.s:299    .debug_info:0000000000000000 .Ldebug_info0
     /tmp/ccpAbfry.s:36     .text:000000000000002c .LBB2
     /tmp/ccpAbfry.s:41     .text:0000000000000034 .LBE2
     /tmp/ccpAbfry.s:43     .text:0000000000000034 .LBB3
     /tmp/ccpAbfry.s:53     .text:0000000000000048 .LBE3

UNDEFINED SYMBOLS
putc
getc
sem_wait
sem_signal
time_sleep
mem_alloc
GAS LISTING /tmp/ccpAbfry.s 			page 12


mem_free
sem_open
thread_create
sem_wait_n
sem_close
