GAS LISTING /tmp/ccyNqZin.s 			page 1


   1              		.file	"ABI.cpp"
   2              		.option pic
   3              		.option norelax
   4              		.text
   5              	.Ltext0:
   6              		.align	2
   7              		.globl	HandleInterupt
   9              	HandleInterupt:
  10              	.LFB3:
  11              		.file 1 "src/ABI.cpp"
   1:src/ABI.cpp   **** //
   2:src/ABI.cpp   **** // Created by os on 5/6/26.
   3:src/ABI.cpp   **** //
   4:src/ABI.cpp   **** #include "./MemoryAllocator.hpp"
   5:src/ABI.cpp   **** #include "Thread.hpp"
   6:src/ABI.cpp   **** #include "APIC.h"
   7:src/ABI.cpp   **** #include "Scheduler.hpp"
   8:src/ABI.cpp   **** #include "../lib/console.h"
   9:src/ABI.cpp   **** 
  10:src/ABI.cpp   **** extern "C" void HandleInterupt(uint64 code){
  12              		.loc 1 10 44
  13              		.cfi_startproc
  14              	.LVL0:
  15 0000 130101FE 		addi	sp,sp,-32
  16              		.cfi_def_cfa_offset 32
  17 0004 233C1100 		sd	ra,24(sp)
  18 0008 23388100 		sd	s0,16(sp)
  19 000c 23349100 		sd	s1,8(sp)
  20              		.cfi_offset 1, -8
  21              		.cfi_offset 8, -16
  22              		.cfi_offset 9, -24
  23 0010 13040102 		addi	s0,sp,32
  24              		.cfi_def_cfa 8, 0
  11:src/ABI.cpp   ****     __asm__ volatile("mv %[code],a0":[code]"=r"(code));
  25              		.loc 1 11 5
  26              		.loc 1 11 55 is_stmt 0
  27              	#APP
  28              	# 11 "src/ABI.cpp" 1
  12              	    uint64 scause=0;
  29              		mv a4,a0
  30              	# 0 "" 2
  31              	.LVL1:
  32              		.loc 1 12 5 is_stmt 1
  13:src/ABI.cpp   ****     __asm__ volatile("csrr %[scause],scause":[scause]"=r"(scause));
  33              		.loc 1 13 5
  34              		.loc 1 13 67 is_stmt 0
  35              	# 13 "src/ABI.cpp" 1
  14              	    if (scause !=8&&scause !=9) {
  36              		csrr a5,scause
  37              	# 0 "" 2
  38              	.LVL2:
  39              		.loc 1 14 5 is_stmt 1
  40              	#NO_APP
  41              	.LBB4:
  42              		.loc 1 14 19 is_stmt 0
  43 001c 938787FF 		addi	a5,a5,-8
  44              	.LVL3:
GAS LISTING /tmp/ccyNqZin.s 			page 2


  45              		.loc 1 14 5
  46 0020 93061000 		li	a3,1
  47 0024 63EEF602 		bgtu	a5,a3,.L7
  48              	.LBE4:
  15:src/ABI.cpp   ****         uint64 sepc;
  16:src/ABI.cpp   ****         __asm__ volatile("csrr %0, sepc" : "=r"(sepc));
  17:src/ABI.cpp   ****         __putc('!');
  18:src/ABI.cpp   ****         __asm__ volatile("csrw sepc, %0" :: "r"(sepc + 4));
  19:src/ABI.cpp   ****         return;
  20:src/ABI.cpp   **** 
  21:src/ABI.cpp   ****     }
  22:src/ABI.cpp   ****     uint64 sepc;
  49              		.loc 1 22 5 is_stmt 1
  23:src/ABI.cpp   ****     __asm__ volatile("csrr %0, sepc" : "=r"(sepc));
  50              		.loc 1 23 5
  51              		.loc 1 23 51 is_stmt 0
  52              	#APP
  53              	# 23 "src/ABI.cpp" 1
  24              	    __asm__ volatile("csrw sepc, %0" :: "r"(sepc + 4));
  54              		csrr a5, sepc
  55              	# 0 "" 2
  56              	.LVL4:
  57              		.loc 1 24 5 is_stmt 1
  58              		.loc 1 24 50 is_stmt 0
  59              	#NO_APP
  60 002c 93874700 		addi	a5,a5,4
  61              	.LVL5:
  62              		.loc 1 24 55
  63              	#APP
  64              	# 24 "src/ABI.cpp" 1
  25              	    switch (code) {
  65              		csrw sepc, a5
  66              	# 0 "" 2
  67              		.loc 1 25 5 is_stmt 1
  68              	#NO_APP
  69              	.LBB6:
  70 0034 93072000 		li	a5,2
  71              	.LVL6:
  72 0038 6302F706 		beq	a4,a5,.L4
  73 003c 93073000 		li	a5,3
  74 0040 630CF706 		beq	a4,a5,.L5
  75 0044 93071000 		li	a5,1
  76 0048 630AF702 		beq	a4,a5,.L8
  77              	.LVL7:
  78              	.L1:
  79              	.LBE6:
  26:src/ABI.cpp   ****         case 0x01: {
  27:src/ABI.cpp   ****             size_t size=0;
  28:src/ABI.cpp   ****             __asm__ volatile("mv %[size],a1":[size]"=r"(size));
  29:src/ABI.cpp   ****             void* ptr = MemoryAllocator::GetInstance().AllocateFragment(size);
  30:src/ABI.cpp   ****             __asm__ volatile("mv a0,%[res]"::[res]"r"(ptr));
  31:src/ABI.cpp   ****             break;
  32:src/ABI.cpp   ****         }
  33:src/ABI.cpp   ****         case 0x02: {
  34:src/ABI.cpp   ****             void* ptr=nullptr;
  35:src/ABI.cpp   ****             __asm__ volatile("mv %[ptr],a1":[ptr]"=r"(ptr));
  36:src/ABI.cpp   ****             MemoryAllocator::GetInstance().FreeFragment(ptr);
GAS LISTING /tmp/ccyNqZin.s 			page 3


  37:src/ABI.cpp   ****             break;
  38:src/ABI.cpp   ****         }
  39:src/ABI.cpp   ****         case 0x03: {//TODO:Check code
  40:src/ABI.cpp   ****             thread_t t = nullptr;
  41:src/ABI.cpp   ****             __asm__ volatile("mv %0, a1" : "=r"(t));
  42:src/ABI.cpp   ****             ((Thread*)t)->start();
  43:src/ABI.cpp   ****             break;
  44:src/ABI.cpp   ****         }
  45:src/ABI.cpp   **** 
  46:src/ABI.cpp   ****         default: {
  47:src/ABI.cpp   ****             break;
  48:src/ABI.cpp   ****         }
  49:src/ABI.cpp   ****     }
  50:src/ABI.cpp   ****     return;
  51:src/ABI.cpp   **** }
  80              		.loc 1 51 1 is_stmt 0
  81 004c 83308101 		ld	ra,24(sp)
  82              		.cfi_remember_state
  83              		.cfi_restore 1
  84 0050 03340101 		ld	s0,16(sp)
  85              		.cfi_restore 8
  86              		.cfi_def_cfa 2, 32
  87 0054 83348100 		ld	s1,8(sp)
  88              		.cfi_restore 9
  89 0058 13010102 		addi	sp,sp,32
  90              		.cfi_def_cfa_offset 0
  91 005c 67800000 		jr	ra
  92              	.LVL8:
  93              	.L7:
  94              		.cfi_restore_state
  95              	.LBB10:
  96              	.LBB5:
  15:src/ABI.cpp   ****         __asm__ volatile("csrr %0, sepc" : "=r"(sepc));
  97              		.loc 1 15 9 is_stmt 1
  16:src/ABI.cpp   ****         __putc('!');
  98              		.loc 1 16 9
  16:src/ABI.cpp   ****         __putc('!');
  99              		.loc 1 16 55 is_stmt 0
 100              	#APP
 101              	# 16 "src/ABI.cpp" 1
 102              		csrr s1, sepc
 103              	# 0 "" 2
 104              	.LVL9:
  17:src/ABI.cpp   ****         __asm__ volatile("csrw sepc, %0" :: "r"(sepc + 4));
 105              		.loc 1 17 9 is_stmt 1
  17:src/ABI.cpp   ****         __asm__ volatile("csrw sepc, %0" :: "r"(sepc + 4));
 106              		.loc 1 17 15 is_stmt 0
 107              	#NO_APP
 108 0064 13051002 		li	a0,33
 109 0068 97000000 		call	__putc@plt
 109      E7800000 
 110              	.LVL10:
  18:src/ABI.cpp   ****         return;
 111              		.loc 1 18 9 is_stmt 1
  18:src/ABI.cpp   ****         return;
 112              		.loc 1 18 54 is_stmt 0
 113 0070 93844400 		addi	s1,s1,4
GAS LISTING /tmp/ccyNqZin.s 			page 4


 114              	.LVL11:
  18:src/ABI.cpp   ****         return;
 115              		.loc 1 18 59
 116              	#APP
 117              	# 18 "src/ABI.cpp" 1
  19:src/ABI.cpp   **** 
 118              		csrw sepc, s1
 119              	# 0 "" 2
 120              		.loc 1 19 9 is_stmt 1
 121              	#NO_APP
 122 0078 6FF05FFD 		j	.L1
 123              	.LVL12:
 124              	.L8:
 125              	.LBE5:
 126              	.LBE10:
  26:src/ABI.cpp   ****             size_t size=0;
 127              		.loc 1 26 9
  26:src/ABI.cpp   ****             size_t size=0;
 128              		.loc 1 26 20
 129              	.LBB11:
 130              	.LBB7:
  27:src/ABI.cpp   ****             __asm__ volatile("mv %[size],a1":[size]"=r"(size));
 131              		.loc 1 27 13
  28:src/ABI.cpp   ****             void* ptr = MemoryAllocator::GetInstance().AllocateFragment(size);
 132              		.loc 1 28 13
  28:src/ABI.cpp   ****             void* ptr = MemoryAllocator::GetInstance().AllocateFragment(size);
 133              		.loc 1 28 63 is_stmt 0
 134              	#APP
 135              	# 28 "src/ABI.cpp" 1
 136              		mv s1,a1
 137              	# 0 "" 2
 138              	.LVL13:
  29:src/ABI.cpp   ****             __asm__ volatile("mv a0,%[res]"::[res]"r"(ptr));
 139              		.loc 1 29 13 is_stmt 1
  29:src/ABI.cpp   ****             __asm__ volatile("mv a0,%[res]"::[res]"r"(ptr));
 140              		.loc 1 29 54 is_stmt 0
 141              	#NO_APP
 142 0080 97000000 		call	_ZN15MemoryAllocator11GetInstanceEv@plt
 142      E7800000 
 143              	.LVL14:
  29:src/ABI.cpp   ****             __asm__ volatile("mv a0,%[res]"::[res]"r"(ptr));
 144              		.loc 1 29 72
 145 0088 93850400 		mv	a1,s1
 146 008c 97000000 		call	_ZN15MemoryAllocator16AllocateFragmentEm@plt
 146      E7800000 
 147              	.LVL15:
  30:src/ABI.cpp   ****             break;
 148              		.loc 1 30 13 is_stmt 1
  30:src/ABI.cpp   ****             break;
 149              		.loc 1 30 60 is_stmt 0
 150              	#APP
 151              	# 30 "src/ABI.cpp" 1
  31:src/ABI.cpp   ****         }
 152              		mv a0,a0
 153              	# 0 "" 2
 154              		.loc 1 31 13 is_stmt 1
 155              	#NO_APP
GAS LISTING /tmp/ccyNqZin.s 			page 5


 156 0098 6FF05FFB 		j	.L1
 157              	.LVL16:
 158              	.L4:
 159              	.LBE7:
 160              	.LBE11:
  33:src/ABI.cpp   ****             void* ptr=nullptr;
 161              		.loc 1 33 9
  33:src/ABI.cpp   ****             void* ptr=nullptr;
 162              		.loc 1 33 20
 163              	.LBB12:
 164              	.LBB8:
  34:src/ABI.cpp   ****             __asm__ volatile("mv %[ptr],a1":[ptr]"=r"(ptr));
 165              		.loc 1 34 13
  35:src/ABI.cpp   ****             MemoryAllocator::GetInstance().FreeFragment(ptr);
 166              		.loc 1 35 13
  35:src/ABI.cpp   ****             MemoryAllocator::GetInstance().FreeFragment(ptr);
 167              		.loc 1 35 60 is_stmt 0
 168              	#APP
 169              	# 35 "src/ABI.cpp" 1
 170              		mv s1,a1
 171              	# 0 "" 2
 172              	.LVL17:
  36:src/ABI.cpp   ****             break;
 173              		.loc 1 36 13 is_stmt 1
  36:src/ABI.cpp   ****             break;
 174              		.loc 1 36 42 is_stmt 0
 175              	#NO_APP
 176 00a0 97000000 		call	_ZN15MemoryAllocator11GetInstanceEv@plt
 176      E7800000 
 177              	.LVL18:
  36:src/ABI.cpp   ****             break;
 178              		.loc 1 36 56
 179 00a8 93850400 		mv	a1,s1
 180 00ac 97000000 		call	_ZN15MemoryAllocator12FreeFragmentEPv@plt
 180      E7800000 
 181              	.LVL19:
  37:src/ABI.cpp   ****         }
 182              		.loc 1 37 13 is_stmt 1
 183 00b4 6FF09FF9 		j	.L1
 184              	.LVL20:
 185              	.L5:
 186              	.LBE8:
 187              	.LBE12:
  39:src/ABI.cpp   ****             thread_t t = nullptr;
 188              		.loc 1 39 9
  39:src/ABI.cpp   ****             thread_t t = nullptr;
 189              		.loc 1 39 20
 190              	.LBB13:
 191              	.LBB9:
  40:src/ABI.cpp   ****             __asm__ volatile("mv %0, a1" : "=r"(t));
 192              		.loc 1 40 13
  41:src/ABI.cpp   ****             ((Thread*)t)->start();
 193              		.loc 1 41 13
  41:src/ABI.cpp   ****             ((Thread*)t)->start();
 194              		.loc 1 41 52 is_stmt 0
 195              	#APP
 196              	# 41 "src/ABI.cpp" 1
GAS LISTING /tmp/ccyNqZin.s 			page 6


 197              		mv a0, a1
 198              	# 0 "" 2
 199              	.LVL21:
  42:src/ABI.cpp   ****             break;
 200              		.loc 1 42 13 is_stmt 1
  42:src/ABI.cpp   ****             break;
 201              		.loc 1 42 32 is_stmt 0
 202              	#NO_APP
 203 00bc 97000000 		call	_ZN6Thread5startEv@plt
 203      E7800000 
 204              	.LVL22:
  43:src/ABI.cpp   ****         }
 205              		.loc 1 43 13 is_stmt 1
 206 00c4 6FF09FF8 		j	.L1
 207              	.LBE9:
 208              	.LBE13:
 209              		.cfi_endproc
 210              	.LFE3:
 212              		.align	2
 213              		.globl	thread_create
 215              	thread_create:
 216              	.LFB5:
  52:src/ABI.cpp   **** 
  53:src/ABI.cpp   **** inline void* operator new(size_t, void* p) { return p; }
  54:src/ABI.cpp   **** 
  55:src/ABI.cpp   **** 
  56:src/ABI.cpp   **** extern "C" {
  57:src/ABI.cpp   **** thread_t thread_create(void (*body)(void)) {
 217              		.loc 1 57 44
 218              		.cfi_startproc
 219              	.LVL23:
 220 00c8 130101FE 		addi	sp,sp,-32
 221              		.cfi_def_cfa_offset 32
 222 00cc 233C1100 		sd	ra,24(sp)
 223 00d0 23388100 		sd	s0,16(sp)
 224 00d4 23349100 		sd	s1,8(sp)
 225 00d8 23302101 		sd	s2,0(sp)
 226              		.cfi_offset 1, -8
 227              		.cfi_offset 8, -16
 228              		.cfi_offset 9, -24
 229              		.cfi_offset 18, -32
 230 00dc 13040102 		addi	s0,sp,32
 231              		.cfi_def_cfa 8, 0
 232 00e0 13090500 		mv	s2,a0
  58:src/ABI.cpp   ****     void* mem = mem_alloc(sizeof(Thread));
 233              		.loc 1 58 5
 234              		.loc 1 58 26 is_stmt 0
 235 00e4 37850000 		li	a0,32768
 236              	.LVL24:
 237 00e8 13058513 		addi	a0,a0,312
 238 00ec 97000000 		call	mem_alloc@plt
 238      E7800000 
 239              	.LVL25:
 240 00f4 93040500 		mv	s1,a0
 241              	.LVL26:
  59:src/ABI.cpp   ****     Thread* t = reinterpret_cast<Thread*>(mem);
 242              		.loc 1 59 5 is_stmt 1
GAS LISTING /tmp/ccyNqZin.s 			page 7


  60:src/ABI.cpp   ****     t->init();
 243              		.loc 1 60 5
 244              		.loc 1 60 12 is_stmt 0
 245 00f8 97000000 		call	_ZN6Thread4initEv@plt
 245      E7800000 
 246              	.LVL27:
  61:src/ABI.cpp   ****     t->setBody(body);
 247              		.loc 1 61 5 is_stmt 1
 248              	.LBB14:
 249              	.LBB15:
 250              		.file 2 "src/Thread.hpp"
   1:src/Thread.hpp **** //
   2:src/Thread.hpp **** // Created by os on 6/10/26.
   3:src/Thread.hpp **** //
   4:src/Thread.hpp **** 
   5:src/Thread.hpp **** #ifndef OSPROJEKAT_THREAD_H
   6:src/Thread.hpp **** #define OSPROJEKAT_THREAD_H
   7:src/Thread.hpp **** 
   8:src/Thread.hpp **** #include "../lib/hw.h"
   9:src/Thread.hpp **** struct Context {
  10:src/Thread.hpp ****     size_t x[32];    // x0-x31, offsets 0x00-0xF
  11:src/Thread.hpp ****     size_t sepc;     // offset 0x100
  12:src/Thread.hpp ****     size_t sstatus;  // offset 0x108
  13:src/Thread.hpp **** };
  14:src/Thread.hpp **** 
  15:src/Thread.hpp **** class Thread{
  16:src/Thread.hpp **** protected:
  17:src/Thread.hpp ****     static void threadTrampoline(Thread* t) {
  18:src/Thread.hpp ****         if (t->body)t->body();
  19:src/Thread.hpp ****     }
  20:src/Thread.hpp ****     void (*body)(void);
  21:src/Thread.hpp **** 
  22:src/Thread.hpp ****     Thread* prev;
  23:src/Thread.hpp ****     Thread* next;
  24:src/Thread.hpp ****     size_t* stackPtr;
  25:src/Thread.hpp ****     size_t stack[DEFAULT_STACK_SIZE];
  26:src/Thread.hpp ****     size_t* supervisorSp;
  27:src/Thread.hpp **** public:
  28:src/Thread.hpp ****     Context threadContext;
  29:src/Thread.hpp ****     Thread();
  30:src/Thread.hpp ****     void copyContext(size_t* ctx);
  31:src/Thread.hpp ****     void init();
  32:src/Thread.hpp ****     void setStackPtr(size_t* stackPtr);
  33:src/Thread.hpp ****     size_t* getStackTop() { return stack + DEFAULT_STACK_SIZE; }
  34:src/Thread.hpp ****     void setSupervisorSp(size_t* supervisorSp);
  35:src/Thread.hpp ****     size_t* getContext();
  36:src/Thread.hpp ****     Thread* getNextInQueue();
  37:src/Thread.hpp ****     Thread* getPrevInQueue();
  38:src/Thread.hpp ****     void setNextInQueue(Thread* next);
  39:src/Thread.hpp ****     void setPrevInQueue(Thread* prev);
  40:src/Thread.hpp ****     void setNextAndPrevInQueue(Thread* next, Thread* prev);
  41:src/Thread.hpp ****     void start();
  42:src/Thread.hpp ****     void setBody(void (*b)(void)) { body = b; }
 251              		.loc 2 42 37
 252              		.loc 2 42 42 is_stmt 0
 253 0100 23B02401 		sd	s2,0(s1)
 254              	.LVL28:
GAS LISTING /tmp/ccyNqZin.s 			page 8


 255              	.LBE15:
 256              	.LBE14:
  62:src/ABI.cpp   ****     return reinterpret_cast<thread_t>(t);
 257              		.loc 1 62 5 is_stmt 1
  63:src/ABI.cpp   **** }
 258              		.loc 1 63 1 is_stmt 0
 259 0104 13850400 		mv	a0,s1
 260 0108 83308101 		ld	ra,24(sp)
 261              		.cfi_restore 1
 262 010c 03340101 		ld	s0,16(sp)
 263              		.cfi_restore 8
 264              		.cfi_def_cfa 2, 32
 265 0110 83348100 		ld	s1,8(sp)
 266              		.cfi_restore 9
 267              	.LVL29:
 268 0114 03390100 		ld	s2,0(sp)
 269              		.cfi_restore 18
 270              	.LVL30:
 271 0118 13010102 		addi	sp,sp,32
 272              		.cfi_def_cfa_offset 0
 273 011c 67800000 		jr	ra
 274              		.cfi_endproc
 275              	.LFE5:
 277              		.align	2
 278              		.globl	thread_start
 280              	thread_start:
 281              	.LFB6:
  64:src/ABI.cpp   **** 
  65:src/ABI.cpp   **** int thread_start(thread_t handle) {//TODO:Change name
 282              		.loc 1 65 35 is_stmt 1
 283              		.cfi_startproc
 284              	.LVL31:
 285 0120 130101FF 		addi	sp,sp,-16
 286              		.cfi_def_cfa_offset 16
 287 0124 23348100 		sd	s0,8(sp)
 288              		.cfi_offset 8, -8
 289 0128 13040101 		addi	s0,sp,16
 290              		.cfi_def_cfa 8, 0
  66:src/ABI.cpp   ****     uint64 code = 0x03;
 291              		.loc 1 66 5
 292              	.LVL32:
  67:src/ABI.cpp   ****     __asm__ volatile("mv a1, %0" :: "r"(handle));
 293              		.loc 1 67 5
 294              		.loc 1 67 49 is_stmt 0
 295              	#APP
 296              	# 67 "src/ABI.cpp" 1
  68              	    __asm__ volatile("mv a0, %0" :: "r"(code));
 297              		mv a1, a0
 298              	# 0 "" 2
 299              		.loc 1 68 5 is_stmt 1
 300              		.loc 1 68 47 is_stmt 0
 301              	#NO_APP
 302 0130 93073000 		li	a5,3
 303              	#APP
 304              	# 68 "src/ABI.cpp" 1
  69              	    __asm__ volatile("ecall");
 305              		mv a0, a5
GAS LISTING /tmp/ccyNqZin.s 			page 9


 306              	# 0 "" 2
 307              		.loc 1 69 5 is_stmt 1
 308              		.loc 1 69 30 is_stmt 0
 309              	# 69 "src/ABI.cpp" 1
  70              	    return 0;
 310              		ecall
 311              	# 0 "" 2
 312              		.loc 1 70 5 is_stmt 1
  71:src/ABI.cpp   **** }
 313              		.loc 1 71 1 is_stmt 0
 314              	#NO_APP
 315 013c 13050000 		li	a0,0
 316              	.LVL33:
 317 0140 03348100 		ld	s0,8(sp)
 318              		.cfi_restore 8
 319              		.cfi_def_cfa 2, 16
 320 0144 13010101 		addi	sp,sp,16
 321              		.cfi_def_cfa_offset 0
 322 0148 67800000 		jr	ra
 323              		.cfi_endproc
 324              	.LFE6:
 326              		.align	2
 327              		.globl	thread_join
 329              	thread_join:
 330              	.LFB7:
  72:src/ABI.cpp   **** 
  73:src/ABI.cpp   **** int thread_join(thread_t t) {
 331              		.loc 1 73 29 is_stmt 1
 332              		.cfi_startproc
 333              	.LVL34:
 334 014c 130101FF 		addi	sp,sp,-16
 335              		.cfi_def_cfa_offset 16
 336 0150 23341100 		sd	ra,8(sp)
 337 0154 23308100 		sd	s0,0(sp)
 338              		.cfi_offset 1, -8
 339              		.cfi_offset 8, -16
 340 0158 13040101 		addi	s0,sp,16
 341              		.cfi_def_cfa 8, 0
  74:src/ABI.cpp   ****     ((Thread*)t)->join();
 342              		.loc 1 74 5
 343              		.loc 1 74 23 is_stmt 0
 344 015c 97000000 		call	_ZN6Thread4joinEv@plt
 344      E7800000 
 345              	.LVL35:
  75:src/ABI.cpp   ****     return 0;
 346              		.loc 1 75 5 is_stmt 1
  76:src/ABI.cpp   **** }
 347              		.loc 1 76 1 is_stmt 0
 348 0164 13050000 		li	a0,0
 349 0168 83308100 		ld	ra,8(sp)
 350              		.cfi_restore 1
 351 016c 03340100 		ld	s0,0(sp)
 352              		.cfi_restore 8
 353              		.cfi_def_cfa 2, 16
 354 0170 13010101 		addi	sp,sp,16
 355              		.cfi_def_cfa_offset 0
 356 0174 67800000 		jr	ra
GAS LISTING /tmp/ccyNqZin.s 			page 10


 357              		.cfi_endproc
 358              	.LFE7:
 360              		.align	2
 361              		.globl	start_main_thread
 363              	start_main_thread:
 364              	.LFB8:
  77:src/ABI.cpp   **** int start_main_thread() {
 365              		.loc 1 77 25 is_stmt 1
 366              		.cfi_startproc
 367 0178 130101FF 		addi	sp,sp,-16
 368              		.cfi_def_cfa_offset 16
 369 017c 23341100 		sd	ra,8(sp)
 370 0180 23308100 		sd	s0,0(sp)
 371              		.cfi_offset 1, -8
 372              		.cfi_offset 8, -16
 373 0184 13040101 		addi	s0,sp,16
 374              		.cfi_def_cfa 8, 0
  78:src/ABI.cpp   ****     Scheduler::SetupStartThread();
 375              		.loc 1 78 5
 376              		.loc 1 78 32 is_stmt 0
 377 0188 97000000 		call	_ZN9Scheduler16SetupStartThreadEv@plt
 377      E7800000 
 378              	.LVL36:
  79:src/ABI.cpp   ****     return 0;
 379              		.loc 1 79 5 is_stmt 1
  80:src/ABI.cpp   **** }
 380              		.loc 1 80 1 is_stmt 0
 381 0190 13050000 		li	a0,0
 382 0194 83308100 		ld	ra,8(sp)
 383              		.cfi_restore 1
 384 0198 03340100 		ld	s0,0(sp)
 385              		.cfi_restore 8
 386              		.cfi_def_cfa 2, 16
 387 019c 13010101 		addi	sp,sp,16
 388              		.cfi_def_cfa_offset 0
 389 01a0 67800000 		jr	ra
 390              		.cfi_endproc
 391              	.LFE8:
 393              	.Letext0:
 394              		.file 3 "src/./../lib/hw.h"
 395              		.file 4 "src/./MemoryAllocator.hpp"
 396              		.file 5 "src/APIC.h"
 397              		.file 6 "src/Scheduler.hpp"
 398              		.file 7 "src/../lib/console.h"
GAS LISTING /tmp/ccyNqZin.s 			page 11


DEFINED SYMBOLS
                            *ABS*:0000000000000000 ABI.cpp
     /tmp/ccyNqZin.s:9      .text:0000000000000000 HandleInterupt
     /tmp/ccyNqZin.s:13     .text:0000000000000000 .L0 
     /tmp/ccyNqZin.s:15     .text:0000000000000000 .L0 
     /tmp/ccyNqZin.s:16     .text:0000000000000004 .L0 
     /tmp/ccyNqZin.s:20     .text:0000000000000010 .L0 
     /tmp/ccyNqZin.s:21     .text:0000000000000010 .L0 
     /tmp/ccyNqZin.s:22     .text:0000000000000010 .L0 
     /tmp/ccyNqZin.s:24     .text:0000000000000014 .L0 
     /tmp/ccyNqZin.s:26     .text:0000000000000014 .L0 
         src/ABI.cpp:11     .text:0000000000000014 .L0 
     /tmp/ccyNqZin.s:33     .text:0000000000000018 .L0 
     /tmp/ccyNqZin.s:34     .text:0000000000000018 .L0 
         src/ABI.cpp:13     .text:0000000000000018 .L0 
     /tmp/ccyNqZin.s:42     .text:000000000000001c .L0 
     /tmp/ccyNqZin.s:43     .text:000000000000001c .L0 
     /tmp/ccyNqZin.s:46     .text:0000000000000020 .L0 
     /tmp/ccyNqZin.s:50     .text:0000000000000028 .L0 
     /tmp/ccyNqZin.s:51     .text:0000000000000028 .L0 
         src/ABI.cpp:23     .text:0000000000000028 .L0 
     /tmp/ccyNqZin.s:58     .text:000000000000002c .L0 
     /tmp/ccyNqZin.s:60     .text:000000000000002c .L0 
         src/ABI.cpp:24     .text:0000000000000030 .L0 
     /tmp/ccyNqZin.s:70     .text:0000000000000034 .L0 
     /tmp/ccyNqZin.s:81     .text:000000000000004c .L0 
     /tmp/ccyNqZin.s:82     .text:0000000000000050 .L0 
     /tmp/ccyNqZin.s:83     .text:0000000000000050 .L0 
     /tmp/ccyNqZin.s:85     .text:0000000000000054 .L0 
     /tmp/ccyNqZin.s:86     .text:0000000000000054 .L0 
     /tmp/ccyNqZin.s:88     .text:0000000000000058 .L0 
     /tmp/ccyNqZin.s:90     .text:000000000000005c .L0 
     /tmp/ccyNqZin.s:94     .text:0000000000000060 .L0 
     /tmp/ccyNqZin.s:98     .text:0000000000000060 .L0 
     /tmp/ccyNqZin.s:99     .text:0000000000000060 .L0 
         src/ABI.cpp:16     .text:0000000000000060 .L0 
     /tmp/ccyNqZin.s:106    .text:0000000000000064 .L0 
     /tmp/ccyNqZin.s:108    .text:0000000000000064 .L0 
     /tmp/ccyNqZin.s:112    .text:0000000000000070 .L0 
     /tmp/ccyNqZin.s:113    .text:0000000000000070 .L0 
         src/ABI.cpp:18     .text:0000000000000074 .L0 
     /tmp/ccyNqZin.s:122    .text:0000000000000078 .L0 
     /tmp/ccyNqZin.s:128    .text:000000000000007c .L0 
     /tmp/ccyNqZin.s:131    .text:000000000000007c .L0 
     /tmp/ccyNqZin.s:132    .text:000000000000007c .L0 
     /tmp/ccyNqZin.s:133    .text:000000000000007c .L0 
         src/ABI.cpp:28     .text:000000000000007c .L0 
     /tmp/ccyNqZin.s:140    .text:0000000000000080 .L0 
     /tmp/ccyNqZin.s:142    .text:0000000000000080 .L0 
     /tmp/ccyNqZin.s:145    .text:0000000000000088 .L0 
     /tmp/ccyNqZin.s:149    .text:0000000000000094 .L0 
         src/ABI.cpp:30     .text:0000000000000094 .L0 
     /tmp/ccyNqZin.s:156    .text:0000000000000098 .L0 
     /tmp/ccyNqZin.s:162    .text:000000000000009c .L0 
     /tmp/ccyNqZin.s:165    .text:000000000000009c .L0 
     /tmp/ccyNqZin.s:166    .text:000000000000009c .L0 
     /tmp/ccyNqZin.s:167    .text:000000000000009c .L0 
GAS LISTING /tmp/ccyNqZin.s 			page 12


         src/ABI.cpp:35     .text:000000000000009c .L0 
     /tmp/ccyNqZin.s:174    .text:00000000000000a0 .L0 
     /tmp/ccyNqZin.s:176    .text:00000000000000a0 .L0 
     /tmp/ccyNqZin.s:179    .text:00000000000000a8 .L0 
     /tmp/ccyNqZin.s:183    .text:00000000000000b4 .L0 
     /tmp/ccyNqZin.s:189    .text:00000000000000b8 .L0 
     /tmp/ccyNqZin.s:192    .text:00000000000000b8 .L0 
     /tmp/ccyNqZin.s:193    .text:00000000000000b8 .L0 
     /tmp/ccyNqZin.s:194    .text:00000000000000b8 .L0 
         src/ABI.cpp:41     .text:00000000000000b8 .L0 
     /tmp/ccyNqZin.s:201    .text:00000000000000bc .L0 
     /tmp/ccyNqZin.s:203    .text:00000000000000bc .L0 
     /tmp/ccyNqZin.s:206    .text:00000000000000c4 .L0 
     /tmp/ccyNqZin.s:209    .text:00000000000000c8 .L0 
     /tmp/ccyNqZin.s:215    .text:00000000000000c8 thread_create
     /tmp/ccyNqZin.s:218    .text:00000000000000c8 .L0 
     /tmp/ccyNqZin.s:220    .text:00000000000000c8 .L0 
     /tmp/ccyNqZin.s:221    .text:00000000000000cc .L0 
     /tmp/ccyNqZin.s:226    .text:00000000000000dc .L0 
     /tmp/ccyNqZin.s:227    .text:00000000000000dc .L0 
     /tmp/ccyNqZin.s:228    .text:00000000000000dc .L0 
     /tmp/ccyNqZin.s:229    .text:00000000000000dc .L0 
     /tmp/ccyNqZin.s:231    .text:00000000000000e0 .L0 
     /tmp/ccyNqZin.s:234    .text:00000000000000e4 .L0 
     /tmp/ccyNqZin.s:235    .text:00000000000000e4 .L0 
     /tmp/ccyNqZin.s:243    .text:00000000000000f8 .L0 
     /tmp/ccyNqZin.s:244    .text:00000000000000f8 .L0 
     /tmp/ccyNqZin.s:245    .text:00000000000000f8 .L0 
     /tmp/ccyNqZin.s:251    .text:0000000000000100 .L0 
     /tmp/ccyNqZin.s:252    .text:0000000000000100 .L0 
     /tmp/ccyNqZin.s:253    .text:0000000000000100 .L0 
     /tmp/ccyNqZin.s:258    .text:0000000000000104 .L0 
     /tmp/ccyNqZin.s:259    .text:0000000000000104 .L0 
     /tmp/ccyNqZin.s:261    .text:000000000000010c .L0 
     /tmp/ccyNqZin.s:263    .text:0000000000000110 .L0 
     /tmp/ccyNqZin.s:264    .text:0000000000000110 .L0 
     /tmp/ccyNqZin.s:266    .text:0000000000000114 .L0 
     /tmp/ccyNqZin.s:269    .text:0000000000000118 .L0 
     /tmp/ccyNqZin.s:272    .text:000000000000011c .L0 
     /tmp/ccyNqZin.s:274    .text:0000000000000120 .L0 
     /tmp/ccyNqZin.s:280    .text:0000000000000120 thread_start
     /tmp/ccyNqZin.s:283    .text:0000000000000120 .L0 
     /tmp/ccyNqZin.s:285    .text:0000000000000120 .L0 
     /tmp/ccyNqZin.s:286    .text:0000000000000124 .L0 
     /tmp/ccyNqZin.s:288    .text:0000000000000128 .L0 
     /tmp/ccyNqZin.s:290    .text:000000000000012c .L0 
     /tmp/ccyNqZin.s:293    .text:000000000000012c .L0 
     /tmp/ccyNqZin.s:294    .text:000000000000012c .L0 
         src/ABI.cpp:67     .text:000000000000012c .L0 
     /tmp/ccyNqZin.s:300    .text:0000000000000130 .L0 
     /tmp/ccyNqZin.s:302    .text:0000000000000130 .L0 
     /tmp/ccyNqZin.s:308    .text:0000000000000138 .L0 
         src/ABI.cpp:69     .text:0000000000000138 .L0 
     /tmp/ccyNqZin.s:313    .text:000000000000013c .L0 
     /tmp/ccyNqZin.s:315    .text:000000000000013c .L0 
     /tmp/ccyNqZin.s:318    .text:0000000000000144 .L0 
     /tmp/ccyNqZin.s:319    .text:0000000000000144 .L0 
GAS LISTING /tmp/ccyNqZin.s 			page 13


     /tmp/ccyNqZin.s:321    .text:0000000000000148 .L0 
     /tmp/ccyNqZin.s:323    .text:000000000000014c .L0 
     /tmp/ccyNqZin.s:329    .text:000000000000014c thread_join
     /tmp/ccyNqZin.s:332    .text:000000000000014c .L0 
     /tmp/ccyNqZin.s:334    .text:000000000000014c .L0 
     /tmp/ccyNqZin.s:335    .text:0000000000000150 .L0 
     /tmp/ccyNqZin.s:338    .text:0000000000000158 .L0 
     /tmp/ccyNqZin.s:339    .text:0000000000000158 .L0 
     /tmp/ccyNqZin.s:341    .text:000000000000015c .L0 
     /tmp/ccyNqZin.s:343    .text:000000000000015c .L0 
     /tmp/ccyNqZin.s:344    .text:000000000000015c .L0 
     /tmp/ccyNqZin.s:347    .text:0000000000000164 .L0 
     /tmp/ccyNqZin.s:348    .text:0000000000000164 .L0 
     /tmp/ccyNqZin.s:350    .text:000000000000016c .L0 
     /tmp/ccyNqZin.s:352    .text:0000000000000170 .L0 
     /tmp/ccyNqZin.s:353    .text:0000000000000170 .L0 
     /tmp/ccyNqZin.s:355    .text:0000000000000174 .L0 
     /tmp/ccyNqZin.s:357    .text:0000000000000178 .L0 
     /tmp/ccyNqZin.s:363    .text:0000000000000178 start_main_thread
     /tmp/ccyNqZin.s:366    .text:0000000000000178 .L0 
     /tmp/ccyNqZin.s:367    .text:0000000000000178 .L0 
     /tmp/ccyNqZin.s:368    .text:000000000000017c .L0 
     /tmp/ccyNqZin.s:371    .text:0000000000000184 .L0 
     /tmp/ccyNqZin.s:372    .text:0000000000000184 .L0 
     /tmp/ccyNqZin.s:374    .text:0000000000000188 .L0 
     /tmp/ccyNqZin.s:376    .text:0000000000000188 .L0 
     /tmp/ccyNqZin.s:377    .text:0000000000000188 .L0 
     /tmp/ccyNqZin.s:380    .text:0000000000000190 .L0 
     /tmp/ccyNqZin.s:381    .text:0000000000000190 .L0 
     /tmp/ccyNqZin.s:383    .text:0000000000000198 .L0 
     /tmp/ccyNqZin.s:385    .text:000000000000019c .L0 
     /tmp/ccyNqZin.s:386    .text:000000000000019c .L0 
     /tmp/ccyNqZin.s:388    .text:00000000000001a0 .L0 
     /tmp/ccyNqZin.s:390    .text:00000000000001a4 .L0 
     /tmp/ccyNqZin.s:399    .text:00000000000001a4 .L0 
     /tmp/ccyNqZin.s:93     .text:0000000000000060 .L7
     /tmp/ccyNqZin.s:158    .text:000000000000009c .L4
     /tmp/ccyNqZin.s:185    .text:00000000000000b8 .L5
     /tmp/ccyNqZin.s:124    .text:000000000000007c .L8
     /tmp/ccyNqZin.s:78     .text:000000000000004c .L1
     /tmp/ccyNqZin.s:1419   .debug_abbrev:0000000000000000 .Ldebug_abbrev0
     /tmp/ccyNqZin.s:2685   .debug_str:0000000000000617 .LASF106
     /tmp/ccyNqZin.s:2675   .debug_str:00000000000005e4 .LASF107
     /tmp/ccyNqZin.s:2673   .debug_str:00000000000005c6 .LASF108
     /tmp/ccyNqZin.s:5      .text:0000000000000000 .Ltext0
     /tmp/ccyNqZin.s:393    .text:00000000000001a4 .Letext0
     /tmp/ccyNqZin.s:2491   .debug_line:0000000000000000 .Ldebug_line0
     /tmp/ccyNqZin.s:2621   .debug_str:0000000000000455 .LASF0
     /tmp/ccyNqZin.s:2639   .debug_str:00000000000004bd .LASF1
     /tmp/ccyNqZin.s:2609   .debug_str:00000000000003db .LASF2
     /tmp/ccyNqZin.s:2551   .debug_str:00000000000001d7 .LASF3
     /tmp/ccyNqZin.s:2583   .debug_str:0000000000000302 .LASF4
     /tmp/ccyNqZin.s:2627   .debug_str:0000000000000477 .LASF5
     /tmp/ccyNqZin.s:2517   .debug_str:00000000000000bb .LASF6
     /tmp/ccyNqZin.s:2547   .debug_str:00000000000001b7 .LASF7
     /tmp/ccyNqZin.s:2643   .debug_str:00000000000004dd .LASF8
     /tmp/ccyNqZin.s:2619   .debug_str:0000000000000442 .LASF9
GAS LISTING /tmp/ccyNqZin.s 			page 14


     /tmp/ccyNqZin.s:2701   .debug_str:0000000000000758 .LASF10
     /tmp/ccyNqZin.s:2573   .debug_str:00000000000002aa .LASF11
     /tmp/ccyNqZin.s:2653   .debug_str:0000000000000516 .LASF12
     /tmp/ccyNqZin.s:2687   .debug_str:00000000000006db .LASF13
     /tmp/ccyNqZin.s:2521   .debug_str:00000000000000e9 .LASF14
     /tmp/ccyNqZin.s:2497   .debug_str:0000000000000012 .LASF15
     /tmp/ccyNqZin.s:2533   .debug_str:000000000000014d .LASF16
     /tmp/ccyNqZin.s:2665   .debug_str:000000000000058e .LASF17
     /tmp/ccyNqZin.s:2539   .debug_str:000000000000017e .LASF18
     /tmp/ccyNqZin.s:2589   .debug_str:000000000000031d .LASF23
     /tmp/ccyNqZin.s:2717   .debug_str:00000000000007f0 .LASF19
     /tmp/ccyNqZin.s:2709   .debug_str:00000000000007a4 .LASF20
     /tmp/ccyNqZin.s:2557   .debug_str:00000000000001f2 .LASF21
     /tmp/ccyNqZin.s:2681   .debug_str:0000000000000606 .LASF22
     /tmp/ccyNqZin.s:2603   .debug_str:00000000000003a0 .LASF24
     /tmp/ccyNqZin.s:2707   .debug_str:0000000000000798 .LASF86
     /tmp/ccyNqZin.s:2507   .debug_str:000000000000004c .LASF88
     /tmp/ccyNqZin.s:2691   .debug_str:00000000000006f2 .LASF25
     /tmp/ccyNqZin.s:2515   .debug_str:0000000000000092 .LASF27
     /tmp/ccyNqZin.s:2641   .debug_str:00000000000004d0 .LASF26
     /tmp/ccyNqZin.s:2705   .debug_str:0000000000000772 .LASF28
     /tmp/ccyNqZin.s:2545   .debug_str:00000000000001b2 .LASF29
     /tmp/ccyNqZin.s:2549   .debug_str:00000000000001be .LASF80
     /tmp/ccyNqZin.s:2669   .debug_str:00000000000005aa .LASF30
     /tmp/ccyNqZin.s:2651   .debug_str:000000000000050a .LASF31
     /tmp/ccyNqZin.s:2501   .debug_str:0000000000000029 .LASF109
     /tmp/ccyNqZin.s:2631   .debug_str:000000000000048e .LASF32
     /tmp/ccyNqZin.s:2661   .debug_str:000000000000057f .LASF33
     /tmp/ccyNqZin.s:2695   .debug_str:0000000000000720 .LASF34
     /tmp/ccyNqZin.s:2531   .debug_str:000000000000013c .LASF67
     /tmp/ccyNqZin.s:2617   .debug_str:0000000000000421 .LASF69
     /tmp/ccyNqZin.s:2585   .debug_str:0000000000000309 .LASF35
     /tmp/ccyNqZin.s:2509   .debug_str:0000000000000070 .LASF36
     /tmp/ccyNqZin.s:2625   .debug_str:0000000000000471 .LASF37
     /tmp/ccyNqZin.s:2495   .debug_str:0000000000000005 .LASF38
     /tmp/ccyNqZin.s:2513   .debug_str:0000000000000084 .LASF39
     /tmp/ccyNqZin.s:2571   .debug_str:000000000000029b .LASF41
     /tmp/ccyNqZin.s:2683   .debug_str:000000000000060b .LASF40
     /tmp/ccyNqZin.s:2593   .debug_str:000000000000032f .LASF42
     /tmp/ccyNqZin.s:2645   .debug_str:00000000000004f0 .LASF43
     /tmp/ccyNqZin.s:2635   .debug_str:00000000000004a5 .LASF44
     /tmp/ccyNqZin.s:2535   .debug_str:0000000000000159 .LASF45
     /tmp/ccyNqZin.s:2605   .debug_str:00000000000003b0 .LASF46
     /tmp/ccyNqZin.s:2615   .debug_str:0000000000000415 .LASF47
     /tmp/ccyNqZin.s:2655   .debug_str:0000000000000525 .LASF48
     /tmp/ccyNqZin.s:2607   .debug_str:00000000000003cb .LASF49
     /tmp/ccyNqZin.s:2523   .debug_str:00000000000000f9 .LASF50
     /tmp/ccyNqZin.s:2527   .debug_str:0000000000000124 .LASF51
     /tmp/ccyNqZin.s:2699   .debug_str:000000000000073f .LASF52
     /tmp/ccyNqZin.s:2587   .debug_str:000000000000030e .LASF53
     /tmp/ccyNqZin.s:2579   .debug_str:00000000000002d9 .LASF54
     /tmp/ccyNqZin.s:2677   .debug_str:00000000000005f0 .LASF55
     /tmp/ccyNqZin.s:2693   .debug_str:0000000000000703 .LASF56
     /tmp/ccyNqZin.s:2719   .debug_str:00000000000007f5 .LASF57
     /tmp/ccyNqZin.s:2611   .debug_str:00000000000003e9 .LASF58
     /tmp/ccyNqZin.s:2505   .debug_str:000000000000003d .LASF59
     /tmp/ccyNqZin.s:2659   .debug_str:0000000000000560 .LASF60
GAS LISTING /tmp/ccyNqZin.s 			page 15


     /tmp/ccyNqZin.s:2595   .debug_str:000000000000034a .LASF61
     /tmp/ccyNqZin.s:2561   .debug_str:0000000000000208 .LASF62
     /tmp/ccyNqZin.s:2637   .debug_str:00000000000004b7 .LASF63
     /tmp/ccyNqZin.s:2569   .debug_str:0000000000000288 .LASF64
     /tmp/ccyNqZin.s:2689   .debug_str:00000000000006ea .LASF65
     /tmp/ccyNqZin.s:2537   .debug_str:0000000000000165 .LASF66
     /tmp/ccyNqZin.s:2493   .debug_str:0000000000000000 .LASF68
     /tmp/ccyNqZin.s:2577   .debug_str:00000000000002c7 .LASF70
     /tmp/ccyNqZin.s:2591   .debug_str:0000000000000326 .LASF71
     /tmp/ccyNqZin.s:2649   .debug_str:0000000000000500 .LASF72
     /tmp/ccyNqZin.s:2565   .debug_str:0000000000000256 .LASF73
     /tmp/ccyNqZin.s:2553   .debug_str:00000000000001dd .LASF74
     /tmp/ccyNqZin.s:2511   .debug_str:0000000000000079 .LASF75
     /tmp/ccyNqZin.s:2671   .debug_str:00000000000005b8 .LASF76
     /tmp/ccyNqZin.s:2503   .debug_str:0000000000000031 .LASF77
     /tmp/ccyNqZin.s:2613   .debug_str:0000000000000408 .LASF78
     /tmp/ccyNqZin.s:2525   .debug_str:0000000000000118 .LASF110
     /tmp/ccyNqZin.s:2601   .debug_str:0000000000000383 .LASF111
     /tmp/ccyNqZin.s:2623   .debug_str:0000000000000462 .LASF79
     /tmp/ccyNqZin.s:2519   .debug_str:00000000000000c2 .LASF81
     /tmp/ccyNqZin.s:2541   .debug_str:0000000000000194 .LASF82
     /tmp/ccyNqZin.s:2657   .debug_str:000000000000053f .LASF84
     /tmp/ccyNqZin.s:2559   .debug_str:00000000000001f7 .LASF83
     /tmp/ccyNqZin.s:2715   .debug_str:00000000000007ce .LASF85
     /tmp/ccyNqZin.s:2647   .debug_str:00000000000004f5 .LASF87
     /tmp/ccyNqZin.s:2567   .debug_str:000000000000026c .LASF89
     /tmp/ccyNqZin.s:2667   .debug_str:00000000000005a4 .LASF90
     /tmp/ccyNqZin.s:2713   .debug_str:00000000000007ae .LASF91
     /tmp/ccyNqZin.s:2597   .debug_str:0000000000000360 .LASF92
     /tmp/ccyNqZin.s:2697   .debug_str:0000000000000727 .LASF93
     /tmp/ccyNqZin.s:2599   .debug_str:0000000000000368 .LASF112
     /tmp/ccyNqZin.s:2529   .debug_str:000000000000012f .LASF94
     /tmp/ccyNqZin.s:2563   .debug_str:0000000000000231 .LASF95
     /tmp/ccyNqZin.s:2633   .debug_str:0000000000000493 .LASF96
     /tmp/ccyNqZin.s:364    .text:0000000000000178 .LFB8
     /tmp/ccyNqZin.s:391    .text:00000000000001a4 .LFE8
     /tmp/ccyNqZin.s:378    .text:0000000000000190 .LVL36
     /tmp/ccyNqZin.s:2581   .debug_str:00000000000002f6 .LASF97
     /tmp/ccyNqZin.s:330    .text:000000000000014c .LFB7
     /tmp/ccyNqZin.s:358    .text:0000000000000178 .LFE7
     /tmp/ccyNqZin.s:2289   .debug_loc:0000000000000000 .LLST14
     /tmp/ccyNqZin.s:345    .text:0000000000000164 .LVL35
     /tmp/ccyNqZin.s:2555   .debug_str:00000000000001e5 .LASF98
     /tmp/ccyNqZin.s:281    .text:0000000000000120 .LFB6
     /tmp/ccyNqZin.s:324    .text:000000000000014c .LFE6
     /tmp/ccyNqZin.s:2679   .debug_str:00000000000005ff .LASF99
     /tmp/ccyNqZin.s:2303   .debug_loc:0000000000000039 .LLST13
     /tmp/ccyNqZin.s:2629   .debug_str:0000000000000489 .LASF100
     /tmp/ccyNqZin.s:2543   .debug_str:00000000000001a4 .LASF101
     /tmp/ccyNqZin.s:216    .text:00000000000000c8 .LFB5
     /tmp/ccyNqZin.s:275    .text:0000000000000120 .LFE5
     /tmp/ccyNqZin.s:2317   .debug_loc:0000000000000072 .LLST8
     /tmp/ccyNqZin.s:2333   .debug_loc:00000000000000bc .LLST9
     /tmp/ccyNqZin.s:248    .text:0000000000000100 .LBB14
     /tmp/ccyNqZin.s:256    .text:0000000000000104 .LBE14
     /tmp/ccyNqZin.s:2344   .debug_loc:00000000000000f2 .LLST11
     /tmp/ccyNqZin.s:2351   .debug_loc:0000000000000115 .LLST12
GAS LISTING /tmp/ccyNqZin.s 			page 16


     /tmp/ccyNqZin.s:239    .text:00000000000000f4 .LVL25
     /tmp/ccyNqZin.s:246    .text:0000000000000100 .LVL27
     /tmp/ccyNqZin.s:2575   .debug_str:00000000000002b8 .LASF102
     /tmp/ccyNqZin.s:10     .text:0000000000000000 .LFB3
     /tmp/ccyNqZin.s:210    .text:00000000000000c8 .LFE3
     /tmp/ccyNqZin.s:2358   .debug_loc:0000000000000138 .LLST0
     /tmp/ccyNqZin.s:2499   .debug_str:0000000000000022 .LASF103
     /tmp/ccyNqZin.s:2385   .debug_loc:00000000000001ba .LLST1
     /tmp/ccyNqZin.s:2409   .debug_loc:000000000000021b .LLST2
     /tmp/ccyNqZin.s:96     .text:0000000000000060 .LBB5
     /tmp/ccyNqZin.s:125    .text:000000000000007c .LBE5
     /tmp/ccyNqZin.s:2422   .debug_loc:0000000000000253 .LLST3
     /tmp/ccyNqZin.s:110    .text:0000000000000070 .LVL10
     /tmp/ccyNqZin.s:130    .text:000000000000007c .LBB7
     /tmp/ccyNqZin.s:159    .text:000000000000009c .LBE7
     /tmp/ccyNqZin.s:2435   .debug_loc:000000000000028b .LLST4
     /tmp/ccyNqZin.s:2447   .debug_loc:00000000000002c2 .LLST5
     /tmp/ccyNqZin.s:143    .text:0000000000000088 .LVL14
     /tmp/ccyNqZin.s:147    .text:0000000000000094 .LVL15
     /tmp/ccyNqZin.s:164    .text:000000000000009c .LBB8
     /tmp/ccyNqZin.s:186    .text:00000000000000b8 .LBE8
     /tmp/ccyNqZin.s:2454   .debug_loc:00000000000002e5 .LLST6
     /tmp/ccyNqZin.s:177    .text:00000000000000a8 .LVL18
     /tmp/ccyNqZin.s:181    .text:00000000000000b4 .LVL19
     /tmp/ccyNqZin.s:191    .text:00000000000000b8 .LBB9
     /tmp/ccyNqZin.s:207    .text:00000000000000c8 .LBE9
     /tmp/ccyNqZin.s:2466   .debug_loc:000000000000031c .LLST7
     /tmp/ccyNqZin.s:204    .text:00000000000000c4 .LVL22
     /tmp/ccyNqZin.s:2711   .debug_str:00000000000007a9 .LASF113
     /tmp/ccyNqZin.s:2703   .debug_str:0000000000000768 .LASF104
     /tmp/ccyNqZin.s:2663   .debug_str:0000000000000587 .LASF105
     /tmp/ccyNqZin.s:333    .text:000000000000014c .LVL34
     /tmp/ccyNqZin.s:284    .text:0000000000000120 .LVL31
     /tmp/ccyNqZin.s:316    .text:0000000000000140 .LVL33
     /tmp/ccyNqZin.s:219    .text:00000000000000c8 .LVL23
     /tmp/ccyNqZin.s:236    .text:00000000000000e8 .LVL24
     /tmp/ccyNqZin.s:270    .text:0000000000000118 .LVL30
     /tmp/ccyNqZin.s:241    .text:00000000000000f8 .LVL26
     /tmp/ccyNqZin.s:267    .text:0000000000000114 .LVL29
     /tmp/ccyNqZin.s:254    .text:0000000000000104 .LVL28
     /tmp/ccyNqZin.s:14     .text:0000000000000000 .LVL0
     /tmp/ccyNqZin.s:31     .text:0000000000000018 .LVL1
     /tmp/ccyNqZin.s:77     .text:000000000000004c .LVL7
     /tmp/ccyNqZin.s:92     .text:0000000000000060 .LVL8
     /tmp/ccyNqZin.s:123    .text:000000000000007c .LVL12
     /tmp/ccyNqZin.s:157    .text:000000000000009c .LVL16
     /tmp/ccyNqZin.s:184    .text:00000000000000b8 .LVL20
     /tmp/ccyNqZin.s:38     .text:000000000000001c .LVL2
     /tmp/ccyNqZin.s:44     .text:0000000000000020 .LVL3
     /tmp/ccyNqZin.s:56     .text:000000000000002c .LVL4
     /tmp/ccyNqZin.s:61     .text:0000000000000030 .LVL5
     /tmp/ccyNqZin.s:71     .text:0000000000000038 .LVL6
     /tmp/ccyNqZin.s:104    .text:0000000000000064 .LVL9
     /tmp/ccyNqZin.s:114    .text:0000000000000074 .LVL11
     /tmp/ccyNqZin.s:138    .text:0000000000000080 .LVL13
     /tmp/ccyNqZin.s:172    .text:00000000000000a0 .LVL17
     /tmp/ccyNqZin.s:199    .text:00000000000000bc .LVL21
GAS LISTING /tmp/ccyNqZin.s 			page 17


     /tmp/ccyNqZin.s:400    .debug_info:0000000000000000 .Ldebug_info0

UNDEFINED SYMBOLS
__putc
_ZN15MemoryAllocator11GetInstanceEv
_ZN15MemoryAllocator16AllocateFragmentEm
_ZN15MemoryAllocator12FreeFragmentEPv
_ZN6Thread5startEv
mem_alloc
_ZN6Thread4initEv
_ZN6Thread4joinEv
_ZN9Scheduler16SetupStartThreadEv
