GAS LISTING /tmp/cc8cjYtG.s 			page 1


   1              		.file	"ABI.cpp"
   2              		.option pic
   3              		.option norelax
   4              		.text
   5              	.Ltext0:
   6              		.align	2
   7              		.globl	HandleInterupt
   9              	HandleInterupt:
  10              	.LFB3:
  11              		.file 1 "src/ABI.cpp"
   1:src/ABI.cpp   **** //
   2:src/ABI.cpp   **** // Created by os on 5/6/26.
   3:src/ABI.cpp   **** //
   4:src/ABI.cpp   **** #include "./MemoryAllocator.hpp"
   5:src/ABI.cpp   **** #include "Thread.hpp"
   6:src/ABI.cpp   **** #include "APIC.h"
   7:src/ABI.cpp   **** #include "Scheduler.hpp"
   8:src/ABI.cpp   **** #include "Semaphore.hpp"
   9:src/ABI.cpp   **** #include "../lib/console.h"
  10:src/ABI.cpp   **** 
  11:src/ABI.cpp   **** extern "C" void restoreContext(size_t* ctx);
  12:src/ABI.cpp   **** 
  13:src/ABI.cpp   **** extern "C" void HandleInterupt(size_t* frame){
  12              		.loc 1 13 46
  13              		.cfi_startproc
  14              	.LVL0:
  15 0000 130101FC 		addi	sp,sp,-64
  16              		.cfi_def_cfa_offset 64
  17 0004 233C1102 		sd	ra,56(sp)
  18 0008 23388102 		sd	s0,48(sp)
  19 000c 23349102 		sd	s1,40(sp)
  20 0010 23302103 		sd	s2,32(sp)
  21 0014 233C3101 		sd	s3,24(sp)
  22 0018 23384101 		sd	s4,16(sp)
  23 001c 23345101 		sd	s5,8(sp)
  24 0020 23306101 		sd	s6,0(sp)
  25              		.cfi_offset 1, -8
  26              		.cfi_offset 8, -16
  27              		.cfi_offset 9, -24
  28              		.cfi_offset 18, -32
  29              		.cfi_offset 19, -40
  30              		.cfi_offset 20, -48
  31              		.cfi_offset 21, -56
  32              		.cfi_offset 22, -64
  33 0024 13040104 		addi	s0,sp,64
  34              		.cfi_def_cfa 8, 0
  35 0028 13090500 		mv	s2,a0
  14:src/ABI.cpp   ****     uint64 scause;
  36              		.loc 1 14 5
  15:src/ABI.cpp   ****     __asm__ volatile("csrr %0, scause" : "=r"(scause));
  37              		.loc 1 15 5
  38              		.loc 1 15 55 is_stmt 0
  39              	#APP
  40              	# 15 "src/ABI.cpp" 1
  16              	
  41              		csrr s3, scause
  42              	# 0 "" 2
GAS LISTING /tmp/cc8cjYtG.s 			page 2


  43              	.LVL1:
  17:src/ABI.cpp   ****     Thread* current = Scheduler::GetRunning();
  44              		.loc 1 17 5 is_stmt 1
  45              		.loc 1 17 44 is_stmt 0
  46              	#NO_APP
  47 0030 97000000 		call	_ZN9Scheduler10GetRunningEv@plt
  47      E7800000 
  48              	.LVL2:
  49 0038 93040500 		mv	s1,a0
  50              	.LVL3:
  18:src/ABI.cpp   ****     if (current != nullptr) {
  51              		.loc 1 18 5 is_stmt 1
  52              	.LBB25:
  53 003c 63080504 		beqz	a0,.L2
  54              	.LBB26:
  55              	.LBB27:
  19:src/ABI.cpp   ****         auto& ctx = current->threadContext;
  20:src/ABI.cpp   ****         for (int i = 0; i < 32; i++) ctx.x[i] = frame[i];
  56              		.loc 1 20 18 is_stmt 0
  57 0040 13070000 		li	a4,0
  58              	.L4:
  59              	.LVL4:
  60              		.loc 1 20 27 is_stmt 1 discriminator 3
  61 0044 9307F001 		li	a5,31
  62 0048 63C0E702 		bgt	a4,a5,.L3
  63              		.loc 1 20 38 discriminator 2
  64              		.loc 1 20 56 is_stmt 0 discriminator 2
  65 004c 93173700 		slli	a5,a4,3
  66 0050 B306F900 		add	a3,s2,a5
  67 0054 83B60600 		ld	a3,0(a3)
  68              		.loc 1 20 47 discriminator 2
  69 0058 B387F400 		add	a5,s1,a5
  70 005c 23B0D704 		sd	a3,64(a5)
  71              		.loc 1 20 9 is_stmt 1 discriminator 2
  72 0060 1B071700 		addiw	a4,a4,1
  73              	.LVL5:
  74 0064 6FF01FFE 		j	.L4
  75              	.LVL6:
  76              	.L3:
  77              	.LBE27:
  21:src/ABI.cpp   ****         ctx.x[2] = (size_t)frame + 256;
  78              		.loc 1 21 9
  79              		.loc 1 21 34 is_stmt 0
  80 0068 93070910 		addi	a5,s2,256
  81              		.loc 1 21 18
  82 006c 23B8F404 		sd	a5,80(s1)
  22:src/ABI.cpp   **** 
  23:src/ABI.cpp   ****         size_t sepc, sstatus;
  83              		.loc 1 23 9 is_stmt 1
  24:src/ABI.cpp   ****         __asm__ volatile("csrr %0, sepc"    : "=r"(sepc));
  84              		.loc 1 24 9
  85              		.loc 1 24 58 is_stmt 0
  86              	#APP
  87              	# 24 "src/ABI.cpp" 1
  25              	        __asm__ volatile("csrr %0, sstatus" : "=r"(sstatus));
  88              		csrr a4, sepc
  89              	# 0 "" 2
GAS LISTING /tmp/cc8cjYtG.s 			page 3


  90              	.LVL7:
  91              		.loc 1 25 9 is_stmt 1
  92              		.loc 1 25 61 is_stmt 0
  93              	# 25 "src/ABI.cpp" 1
  26              	        if (scause == 8 || scause == 9) sepc += 4;
  94              		csrr a3, sstatus
  95              	# 0 "" 2
  96              	.LVL8:
  97              		.loc 1 26 9 is_stmt 1
  98              		.loc 1 26 25 is_stmt 0
  99              	#NO_APP
 100 0078 938789FF 		addi	a5,s3,-8
 101              		.loc 1 26 9
 102 007c 13061000 		li	a2,1
 103 0080 637EF604 		bleu	a5,a2,.L40
 104              	.L5:
  27:src/ABI.cpp   ****         ctx.sepc    = sepc;
 105              		.loc 1 27 9 is_stmt 1
 106              		.loc 1 27 21 is_stmt 0
 107 0084 23B0E414 		sd	a4,320(s1)
  28:src/ABI.cpp   ****         ctx.sstatus = sstatus;
 108              		.loc 1 28 9 is_stmt 1
 109              		.loc 1 28 21 is_stmt 0
 110 0088 23B4D414 		sd	a3,328(s1)
 111              	.LVL9:
 112              	.L2:
 113              	.LBE26:
 114              	.LBE25:
  29:src/ABI.cpp   ****     }
  30:src/ABI.cpp   **** 
  31:src/ABI.cpp   ****     //Timerrrr
  32:src/ABI.cpp   ****     if (scause == 0x8000000000000001UL) {
 115              		.loc 1 32 5 is_stmt 1
 116 008c 9307F0FF 		li	a5,-1
 117 0090 9397F703 		slli	a5,a5,63
 118 0094 93871700 		addi	a5,a5,1
 119 0098 6386F904 		beq	s3,a5,.L41
  33:src/ABI.cpp   ****         Scheduler::timerTick(current);
  34:src/ABI.cpp   ****         return;
  35:src/ABI.cpp   ****     }
  36:src/ABI.cpp   **** 
  37:src/ABI.cpp   ****     if (scause != 8 && scause != 9) {
 120              		.loc 1 37 5
 121              	.LBB29:
 122              		.loc 1 37 21 is_stmt 0
 123 009c 938789FF 		addi	a5,s3,-8
 124              		.loc 1 37 5
 125 00a0 13071000 		li	a4,1
 126 00a4 6368F704 		bgtu	a5,a4,.L42
 127              	.LBE29:
  38:src/ABI.cpp   ****         if ((scause >> 63) == 0) {  // exception, not interrupt
  39:src/ABI.cpp   ****             uint64 sepc;
  40:src/ABI.cpp   ****             __asm__ volatile("csrr %0, sepc" : "=r"(sepc));
  41:src/ABI.cpp   ****             __putc('!');
  42:src/ABI.cpp   ****             __asm__ volatile("csrw sepc, %0" :: "r"(sepc + 4));
  43:src/ABI.cpp   ****         }
  44:src/ABI.cpp   ****         return;
GAS LISTING /tmp/cc8cjYtG.s 			page 4


  45:src/ABI.cpp   ****     }
  46:src/ABI.cpp   **** 
  47:src/ABI.cpp   ****     // ecall: advance CSR sepc past the ecall instruction
  48:src/ABI.cpp   ****     {
 128              		.loc 1 48 5 is_stmt 1
 129              	.LBB35:
  49:src/ABI.cpp   ****         uint64 sepc;
 130              		.loc 1 49 9
  50:src/ABI.cpp   ****         __asm__ volatile("csrr %0, sepc" : "=r"(sepc));
 131              		.loc 1 50 9
 132              		.loc 1 50 55 is_stmt 0
 133              	#APP
 134              	# 50 "src/ABI.cpp" 1
  51              	        __asm__ volatile("csrw sepc, %0" :: "r"(sepc + 4));
 135              		csrr a5, sepc
 136              	# 0 "" 2
 137              	.LVL10:
 138              		.loc 1 51 9 is_stmt 1
 139              		.loc 1 51 54 is_stmt 0
 140              	#NO_APP
 141 00ac 93874700 		addi	a5,a5,4
 142              	.LVL11:
 143              		.loc 1 51 59
 144              	#APP
 145              	# 51 "src/ABI.cpp" 1
  52              	    }
 146              		csrw sepc, a5
 147              	# 0 "" 2
 148              	#NO_APP
 149              	.LBE35:
  53:src/ABI.cpp   **** 
  54:src/ABI.cpp   ****     size_t code = frame[10];
 150              		.loc 1 54 5 is_stmt 1
 151              		.loc 1 54 12 is_stmt 0
 152 00b4 83370905 		ld	a5,80(s2)
 153              	.LVL12:
  55:src/ABI.cpp   ****     switch (code) {
 154              		.loc 1 55 5 is_stmt 1
 155 00b8 13071003 		li	a4,49
 156 00bc 636EF702 		bgtu	a5,a4,.L1
 157 00c0 93972700 		slli	a5,a5,2
 158              	.LVL13:
 159 00c4 17070000 		lla	a4,.L11
 159      13070700 
 160 00cc B387E700 		add	a5,a5,a4
 161 00d0 83A70700 		lw	a5,0(a5)
 162 00d4 B387E700 		add	a5,a5,a4
 163 00d8 67800700 		jr	a5
 164              		.section	.rodata
 165              		.align	2
 166              		.align	2
 167              	.L11:
 168 0000 00000000 		.word	.L1-.L11
 169 0004 00000000 		.word	.L22-.L11
 170 0008 00000000 		.word	.L21-.L11
 171 000c 00000000 		.word	.L1-.L11
 172 0010 00000000 		.word	.L1-.L11
GAS LISTING /tmp/cc8cjYtG.s 			page 5


 173 0014 00000000 		.word	.L1-.L11
 174 0018 00000000 		.word	.L1-.L11
 175 001c 00000000 		.word	.L1-.L11
 176 0020 00000000 		.word	.L1-.L11
 177 0024 00000000 		.word	.L1-.L11
 178 0028 00000000 		.word	.L1-.L11
 179 002c 00000000 		.word	.L1-.L11
 180 0030 00000000 		.word	.L1-.L11
 181 0034 00000000 		.word	.L1-.L11
 182 0038 00000000 		.word	.L1-.L11
 183 003c 00000000 		.word	.L1-.L11
 184 0040 00000000 		.word	.L1-.L11
 185 0044 00000000 		.word	.L20-.L11
 186 0048 00000000 		.word	.L19-.L11
 187 004c 00000000 		.word	.L18-.L11
 188 0050 00000000 		.word	.L1-.L11
 189 0054 00000000 		.word	.L1-.L11
 190 0058 00000000 		.word	.L1-.L11
 191 005c 00000000 		.word	.L1-.L11
 192 0060 00000000 		.word	.L1-.L11
 193 0064 00000000 		.word	.L1-.L11
 194 0068 00000000 		.word	.L1-.L11
 195 006c 00000000 		.word	.L1-.L11
 196 0070 00000000 		.word	.L1-.L11
 197 0074 00000000 		.word	.L1-.L11
 198 0078 00000000 		.word	.L1-.L11
 199 007c 00000000 		.word	.L1-.L11
 200 0080 00000000 		.word	.L1-.L11
 201 0084 00000000 		.word	.L17-.L11
 202 0088 00000000 		.word	.L16-.L11
 203 008c 00000000 		.word	.L15-.L11
 204 0090 00000000 		.word	.L14-.L11
 205 0094 00000000 		.word	.L13-.L11
 206 0098 00000000 		.word	.L12-.L11
 207 009c 00000000 		.word	.L1-.L11
 208 00a0 00000000 		.word	.L1-.L11
 209 00a4 00000000 		.word	.L1-.L11
 210 00a8 00000000 		.word	.L1-.L11
 211 00ac 00000000 		.word	.L1-.L11
 212 00b0 00000000 		.word	.L1-.L11
 213 00b4 00000000 		.word	.L1-.L11
 214 00b8 00000000 		.word	.L1-.L11
 215 00bc 00000000 		.word	.L1-.L11
 216 00c0 00000000 		.word	.L1-.L11
 217 00c4 00000000 		.word	.L10-.L11
 218              		.text
 219              	.LVL14:
 220              	.L40:
 221              	.LBB36:
 222              	.LBB28:
  26:src/ABI.cpp   ****         ctx.sepc    = sepc;
 223              		.loc 1 26 41 discriminator 1
  26:src/ABI.cpp   ****         ctx.sepc    = sepc;
 224              		.loc 1 26 46 is_stmt 0 discriminator 1
 225 00dc 13074700 		addi	a4,a4,4
 226              	.LVL15:
 227 00e0 6FF05FFA 		j	.L5
GAS LISTING /tmp/cc8cjYtG.s 			page 6


 228              	.LVL16:
 229              	.L41:
 230              	.LBE28:
 231              	.LBE36:
  33:src/ABI.cpp   ****         return;
 232              		.loc 1 33 9 is_stmt 1
  33:src/ABI.cpp   ****         return;
 233              		.loc 1 33 29 is_stmt 0
 234 00e4 13850400 		mv	a0,s1
 235 00e8 97000000 		call	_ZN9Scheduler9timerTickEP6Thread@plt
 235      E7800000 
 236              	.LVL17:
  34:src/ABI.cpp   ****     }
 237              		.loc 1 34 9 is_stmt 1
 238 00f0 6F008000 		j	.L1
 239              	.L42:
 240              	.LBB37:
 241              	.LBB30:
  38:src/ABI.cpp   ****             uint64 sepc;
 242              		.loc 1 38 9
 243              	.LBB31:
 244 00f4 63D60902 		bgez	s3,.L43
 245              	.LVL18:
 246              	.L1:
 247              	.LBE31:
 248              	.LBE30:
 249              	.LBE37:
  56:src/ABI.cpp   ****         case 0x01: {
  57:src/ABI.cpp   ****             size_t size = frame[11];
  58:src/ABI.cpp   ****             void* ptr = MemoryAllocator::GetInstance().AllocateFragment(size);
  59:src/ABI.cpp   ****             __asm__ volatile("mv a0,%[res]"::[res]"r"(ptr));
  60:src/ABI.cpp   ****             break;
  61:src/ABI.cpp   ****         }
  62:src/ABI.cpp   ****         case 0x02: {
  63:src/ABI.cpp   ****             void* ptr = (void*)frame[11];
  64:src/ABI.cpp   ****             MemoryAllocator::GetInstance().FreeFragment(ptr);
  65:src/ABI.cpp   ****             break;
  66:src/ABI.cpp   ****         }
  67:src/ABI.cpp   ****         case 0x11: {
  68:src/ABI.cpp   ****             // thread_create: a1=handle*, a2=start_routine, a3=arg, a4=stack_space (top of pre-allo
  69:src/ABI.cpp   ****             thread_t* handle             = reinterpret_cast<thread_t*>(frame[11]);
  70:src/ABI.cpp   ****             void (*start_routine)(void*) = reinterpret_cast<void(*)(void*)>(frame[12]);
  71:src/ABI.cpp   ****             void* threadArg              = reinterpret_cast<void*>(frame[13]);
  72:src/ABI.cpp   ****             size_t* stack_space          = reinterpret_cast<size_t*>(frame[14]);
  73:src/ABI.cpp   **** 
  74:src/ABI.cpp   ****             void* mem = MemoryAllocator::GetInstance().AllocateFragment(sizeof(Thread));
  75:src/ABI.cpp   ****             if (!mem) {
  76:src/ABI.cpp   ****                 if (current) {
  77:src/ABI.cpp   ****                     current->threadContext.x[10] = (size_t)-1;
  78:src/ABI.cpp   ****                     restoreContext(current->getContext());
  79:src/ABI.cpp   ****                 }
  80:src/ABI.cpp   ****                 return;
  81:src/ABI.cpp   ****             }
  82:src/ABI.cpp   ****             Thread* t = reinterpret_cast<Thread*>(mem);
  83:src/ABI.cpp   ****             t->init();
  84:src/ABI.cpp   ****             t->setBody(start_routine, threadArg);
  85:src/ABI.cpp   ****             t->setup(current, stack_space);
GAS LISTING /tmp/cc8cjYtG.s 			page 7


  86:src/ABI.cpp   **** 
  87:src/ABI.cpp   ****             *handle = reinterpret_cast<thread_t>(t);
  88:src/ABI.cpp   ****             Scheduler::Put(t);
  89:src/ABI.cpp   ****             if (current) current->threadContext.x[10] = 0;
  90:src/ABI.cpp   ****             __asm__ volatile("li a0, 0");
  91:src/ABI.cpp   ****             break;
  92:src/ABI.cpp   ****         }
  93:src/ABI.cpp   ****         case 0x12: {
  94:src/ABI.cpp   ****             Scheduler::ThreadExit(current);
  95:src/ABI.cpp   ****             break;
  96:src/ABI.cpp   ****         }
  97:src/ABI.cpp   ****         case 0x13: {
  98:src/ABI.cpp   ****             Thread* next = Scheduler::GetNext();
  99:src/ABI.cpp   ****             if (next == nullptr) {
 100:src/ABI.cpp   ****                 __asm__ volatile("li a0, 0");
 101:src/ABI.cpp   ****                 break;
 102:src/ABI.cpp   ****             }
 103:src/ABI.cpp   ****             if (current) current->threadContext.x[10] = 0;
 104:src/ABI.cpp   ****             Scheduler::Put(current);
 105:src/ABI.cpp   ****             Scheduler::yield(current, next);
 106:src/ABI.cpp   ****             break;
 107:src/ABI.cpp   ****         }
 108:src/ABI.cpp   ****         case 0x21: {
 109:src/ABI.cpp   ****             sem_t* handle = reinterpret_cast<sem_t*>(frame[11]);
 110:src/ABI.cpp   ****             unsigned initialValue = (unsigned)frame[12];
 111:src/ABI.cpp   ****             void* mem = MemoryAllocator::GetInstance().AllocateFragment(sizeof(Semaphore));
 112:src/ABI.cpp   ****             if (!mem) { __asm__ volatile("li a0, -1"); break; }
 113:src/ABI.cpp   ****             Semaphore* semaphore = reinterpret_cast<Semaphore*>(mem);
 114:src/ABI.cpp   ****             semaphore->init(initialValue);
 115:src/ABI.cpp   ****             *handle = reinterpret_cast<sem_t>(semaphore);
 116:src/ABI.cpp   ****             __asm__ volatile("li a0, 0");
 117:src/ABI.cpp   ****             break;
 118:src/ABI.cpp   ****         }
 119:src/ABI.cpp   ****         case 0x22: {
 120:src/ABI.cpp   ****             Semaphore* semaphore = reinterpret_cast<Semaphore*>(frame[11]);
 121:src/ABI.cpp   ****             semaphore->close();
 122:src/ABI.cpp   ****             MemoryAllocator::GetInstance().FreeFragment(semaphore);
 123:src/ABI.cpp   ****             __asm__ volatile("li a0, 0");
 124:src/ABI.cpp   ****             break;
 125:src/ABI.cpp   ****         }
 126:src/ABI.cpp   ****         case 0x23: {
 127:src/ABI.cpp   ****             Semaphore* semaphore = reinterpret_cast<Semaphore*>(frame[11]);
 128:src/ABI.cpp   ****             int result = semaphore->wait(current);
 129:src/ABI.cpp   ****             if (result <= 0) { __asm__ volatile("mv a0, %0" :: "r"((size_t)result)); break; }
 130:src/ABI.cpp   ****             Thread* next = Scheduler::GetNext();
 131:src/ABI.cpp   ****             if (next == nullptr) { while(true){} }
 132:src/ABI.cpp   ****             Scheduler::yield(current, next);
 133:src/ABI.cpp   ****             break;
 134:src/ABI.cpp   ****         }
 135:src/ABI.cpp   ****         case 0x24: {
 136:src/ABI.cpp   ****             Semaphore* semaphore = reinterpret_cast<Semaphore*>(frame[11]);
 137:src/ABI.cpp   ****             semaphore->signal();
 138:src/ABI.cpp   ****             __asm__ volatile("li a0, 0");
 139:src/ABI.cpp   ****             break;
 140:src/ABI.cpp   ****         }
 141:src/ABI.cpp   ****         case 0x25: {
 142:src/ABI.cpp   ****             Semaphore* semaphore = reinterpret_cast<Semaphore*>(frame[11]);
GAS LISTING /tmp/cc8cjYtG.s 			page 8


 143:src/ABI.cpp   ****             unsigned n = (unsigned)frame[12];
 144:src/ABI.cpp   ****             int result = semaphore->waitN(current, n);
 145:src/ABI.cpp   ****             if (result <= 0) { __asm__ volatile("mv a0, %0" :: "r"((size_t)result)); break; }
 146:src/ABI.cpp   ****             Thread* next = Scheduler::GetNext();
 147:src/ABI.cpp   ****             if (next == nullptr) { while(true){} }
 148:src/ABI.cpp   ****             Scheduler::yield(current, next);
 149:src/ABI.cpp   ****             break;
 150:src/ABI.cpp   ****         }
 151:src/ABI.cpp   ****         case 0x26: {
 152:src/ABI.cpp   ****             Semaphore* semaphore = reinterpret_cast<Semaphore*>(frame[11]);
 153:src/ABI.cpp   ****             unsigned n = (unsigned)frame[12];
 154:src/ABI.cpp   ****             semaphore->signalN(n);
 155:src/ABI.cpp   ****             __asm__ volatile("li a0, 0");
 156:src/ABI.cpp   ****             break;
 157:src/ABI.cpp   ****         }
 158:src/ABI.cpp   ****         case 0x31: {
 159:src/ABI.cpp   ****             // time_sleep: a1=duration (in timer periods)
 160:src/ABI.cpp   ****             time_t dur = (time_t)frame[11];
 161:src/ABI.cpp   ****             if (current) current->threadContext.x[10] = 0;
 162:src/ABI.cpp   ****             if (dur == 0) { __asm__ volatile("li a0, 0"); break; }
 163:src/ABI.cpp   ****             Scheduler::sleep(current, dur);
 164:src/ABI.cpp   ****             Thread* next = Scheduler::GetNext();
 165:src/ABI.cpp   ****             if (next == nullptr) { while(true){} }
 166:src/ABI.cpp   ****             Scheduler::yield(current, next);
 167:src/ABI.cpp   ****             break;
 168:src/ABI.cpp   ****         }
 169:src/ABI.cpp   ****         default: {
 170:src/ABI.cpp   ****             break;
 171:src/ABI.cpp   ****         }
 172:src/ABI.cpp   ****     }
 173:src/ABI.cpp   ****     return;
 174:src/ABI.cpp   **** }
 250              		.loc 1 174 1 is_stmt 0
 251 00f8 83308103 		ld	ra,56(sp)
 252              		.cfi_remember_state
 253              		.cfi_restore 1
 254 00fc 03340103 		ld	s0,48(sp)
 255              		.cfi_restore 8
 256              		.cfi_def_cfa 2, 64
 257 0100 83348102 		ld	s1,40(sp)
 258              		.cfi_restore 9
 259 0104 03390102 		ld	s2,32(sp)
 260              		.cfi_restore 18
 261 0108 83398101 		ld	s3,24(sp)
 262              		.cfi_restore 19
 263 010c 033A0101 		ld	s4,16(sp)
 264              		.cfi_restore 20
 265 0110 833A8100 		ld	s5,8(sp)
 266              		.cfi_restore 21
 267 0114 033B0100 		ld	s6,0(sp)
 268              		.cfi_restore 22
 269 0118 13010104 		addi	sp,sp,64
 270              		.cfi_def_cfa_offset 0
 271 011c 67800000 		jr	ra
 272              	.LVL19:
 273              	.L43:
 274              		.cfi_restore_state
GAS LISTING /tmp/cc8cjYtG.s 			page 9


 275              	.LBB38:
 276              	.LBB34:
 277              	.LBB33:
 278              	.LBB32:
  39:src/ABI.cpp   ****             __asm__ volatile("csrr %0, sepc" : "=r"(sepc));
 279              		.loc 1 39 13 is_stmt 1
  40:src/ABI.cpp   ****             __putc('!');
 280              		.loc 1 40 13
  40:src/ABI.cpp   ****             __putc('!');
 281              		.loc 1 40 59 is_stmt 0
 282              	#APP
 283              	# 40 "src/ABI.cpp" 1
 284              		csrr s1, sepc
 285              	# 0 "" 2
 286              	.LVL20:
  41:src/ABI.cpp   ****             __asm__ volatile("csrw sepc, %0" :: "r"(sepc + 4));
 287              		.loc 1 41 13 is_stmt 1
  41:src/ABI.cpp   ****             __asm__ volatile("csrw sepc, %0" :: "r"(sepc + 4));
 288              		.loc 1 41 19 is_stmt 0
 289              	#NO_APP
 290 0124 13051002 		li	a0,33
 291              	.LVL21:
 292 0128 97000000 		call	__putc@plt
 292      E7800000 
 293              	.LVL22:
  42:src/ABI.cpp   ****         }
 294              		.loc 1 42 13 is_stmt 1
  42:src/ABI.cpp   ****         }
 295              		.loc 1 42 58 is_stmt 0
 296 0130 93844400 		addi	s1,s1,4
 297              	.LVL23:
  42:src/ABI.cpp   ****         }
 298              		.loc 1 42 63
 299              	#APP
 300              	# 42 "src/ABI.cpp" 1
 301              		csrw sepc, s1
 302              	# 0 "" 2
 303              	#NO_APP
 304              	.LBE32:
 305              	.LBE33:
  44:src/ABI.cpp   ****     }
 306              		.loc 1 44 9 is_stmt 1
 307 0138 6FF01FFC 		j	.L1
 308              	.LVL24:
 309              	.L22:
 310              	.LBE34:
 311              	.LBE38:
 312              	.LBB39:
  56:src/ABI.cpp   ****             size_t size = frame[11];
 313              		.loc 1 56 9
  56:src/ABI.cpp   ****             size_t size = frame[11];
 314              		.loc 1 56 20
 315              	.LBB40:
  57:src/ABI.cpp   ****             void* ptr = MemoryAllocator::GetInstance().AllocateFragment(size);
 316              		.loc 1 57 13
  57:src/ABI.cpp   ****             void* ptr = MemoryAllocator::GetInstance().AllocateFragment(size);
 317              		.loc 1 57 20 is_stmt 0
GAS LISTING /tmp/cc8cjYtG.s 			page 10


 318 013c 83348905 		ld	s1,88(s2)
 319              	.LVL25:
  58:src/ABI.cpp   ****             __asm__ volatile("mv a0,%[res]"::[res]"r"(ptr));
 320              		.loc 1 58 13 is_stmt 1
  58:src/ABI.cpp   ****             __asm__ volatile("mv a0,%[res]"::[res]"r"(ptr));
 321              		.loc 1 58 54 is_stmt 0
 322 0140 97000000 		call	_ZN15MemoryAllocator11GetInstanceEv@plt
 322      E7800000 
 323              	.LVL26:
  58:src/ABI.cpp   ****             __asm__ volatile("mv a0,%[res]"::[res]"r"(ptr));
 324              		.loc 1 58 72
 325 0148 93850400 		mv	a1,s1
 326 014c 97000000 		call	_ZN15MemoryAllocator16AllocateFragmentEm@plt
 326      E7800000 
 327              	.LVL27:
  59:src/ABI.cpp   ****             break;
 328              		.loc 1 59 13 is_stmt 1
  59:src/ABI.cpp   ****             break;
 329              		.loc 1 59 60 is_stmt 0
 330              	#APP
 331              	# 59 "src/ABI.cpp" 1
  60:src/ABI.cpp   ****         }
 332              		mv a0,a0
 333              	# 0 "" 2
 334              		.loc 1 60 13 is_stmt 1
 335              	#NO_APP
 336 0158 6FF01FFA 		j	.L1
 337              	.LVL28:
 338              	.L21:
 339              	.LBE40:
  62:src/ABI.cpp   ****             void* ptr = (void*)frame[11];
 340              		.loc 1 62 9
  62:src/ABI.cpp   ****             void* ptr = (void*)frame[11];
 341              		.loc 1 62 20
 342              	.LBB41:
  63:src/ABI.cpp   ****             MemoryAllocator::GetInstance().FreeFragment(ptr);
 343              		.loc 1 63 13
  63:src/ABI.cpp   ****             MemoryAllocator::GetInstance().FreeFragment(ptr);
 344              		.loc 1 63 40 is_stmt 0
 345 015c 83348905 		ld	s1,88(s2)
 346              	.LVL29:
  64:src/ABI.cpp   ****             break;
 347              		.loc 1 64 13 is_stmt 1
  64:src/ABI.cpp   ****             break;
 348              		.loc 1 64 42 is_stmt 0
 349 0160 97000000 		call	_ZN15MemoryAllocator11GetInstanceEv@plt
 349      E7800000 
 350              	.LVL30:
  64:src/ABI.cpp   ****             break;
 351              		.loc 1 64 56
 352 0168 93850400 		mv	a1,s1
 353 016c 97000000 		call	_ZN15MemoryAllocator12FreeFragmentEPv@plt
 353      E7800000 
 354              	.LVL31:
  65:src/ABI.cpp   ****         }
 355              		.loc 1 65 13 is_stmt 1
 356 0174 6FF05FF8 		j	.L1
GAS LISTING /tmp/cc8cjYtG.s 			page 11


 357              	.LVL32:
 358              	.L20:
 359              	.LBE41:
  67:src/ABI.cpp   ****             // thread_create: a1=handle*, a2=start_routine, a3=arg, a4=stack_space (top of pre-allo
 360              		.loc 1 67 9
  67:src/ABI.cpp   ****             // thread_create: a1=handle*, a2=start_routine, a3=arg, a4=stack_space (top of pre-allo
 361              		.loc 1 67 20
 362              	.LBB42:
  69:src/ABI.cpp   ****             void (*start_routine)(void*) = reinterpret_cast<void(*)(void*)>(frame[12]);
 363              		.loc 1 69 13
  69:src/ABI.cpp   ****             void (*start_routine)(void*) = reinterpret_cast<void(*)(void*)>(frame[12]);
 364              		.loc 1 69 80 is_stmt 0
 365 0178 83398905 		ld	s3,88(s2)
 366              	.LVL33:
  70:src/ABI.cpp   ****             void* threadArg              = reinterpret_cast<void*>(frame[13]);
 367              		.loc 1 70 13 is_stmt 1
  70:src/ABI.cpp   ****             void* threadArg              = reinterpret_cast<void*>(frame[13]);
 368              		.loc 1 70 85 is_stmt 0
 369 017c 833A0906 		ld	s5,96(s2)
 370              	.LVL34:
  71:src/ABI.cpp   ****             size_t* stack_space          = reinterpret_cast<size_t*>(frame[14]);
 371              		.loc 1 71 13 is_stmt 1
  71:src/ABI.cpp   ****             size_t* stack_space          = reinterpret_cast<size_t*>(frame[14]);
 372              		.loc 1 71 76 is_stmt 0
 373 0180 033A8906 		ld	s4,104(s2)
 374              	.LVL35:
  72:src/ABI.cpp   **** 
 375              		.loc 1 72 13 is_stmt 1
  72:src/ABI.cpp   **** 
 376              		.loc 1 72 78 is_stmt 0
 377 0184 033B0907 		ld	s6,112(s2)
 378              	.LVL36:
  74:src/ABI.cpp   ****             if (!mem) {
 379              		.loc 1 74 13 is_stmt 1
  74:src/ABI.cpp   ****             if (!mem) {
 380              		.loc 1 74 54 is_stmt 0
 381 0188 97000000 		call	_ZN15MemoryAllocator11GetInstanceEv@plt
 381      E7800000 
 382              	.LVL37:
  74:src/ABI.cpp   ****             if (!mem) {
 383              		.loc 1 74 72
 384 0190 93058015 		li	a1,344
 385 0194 97000000 		call	_ZN15MemoryAllocator16AllocateFragmentEm@plt
 385      E7800000 
 386              	.LVL38:
 387 019c 13090500 		mv	s2,a0
 388              	.LVL39:
  75:src/ABI.cpp   ****                 if (current) {
 389              		.loc 1 75 13 is_stmt 1
 390 01a0 63040504 		beqz	a0,.L44
  82:src/ABI.cpp   ****             t->init();
 391              		.loc 1 82 13
 392              	.LVL40:
  83:src/ABI.cpp   ****             t->setBody(start_routine, threadArg);
 393              		.loc 1 83 13
  83:src/ABI.cpp   ****             t->setBody(start_routine, threadArg);
 394              		.loc 1 83 20 is_stmt 0
GAS LISTING /tmp/cc8cjYtG.s 			page 12


 395 01a4 97000000 		call	_ZN6Thread4initEv@plt
 395      E7800000 
 396              	.LVL41:
  84:src/ABI.cpp   ****             t->setup(current, stack_space);
 397              		.loc 1 84 13 is_stmt 1
 398              	.LBB43:
 399              	.LBB44:
 400              		.file 2 "src/Thread.hpp"
   1:src/Thread.hpp **** //
   2:src/Thread.hpp **** // Created by os on 6/10/26.
   3:src/Thread.hpp **** //
   4:src/Thread.hpp **** 
   5:src/Thread.hpp **** #ifndef OSPROJEKAT_THREAD_H
   6:src/Thread.hpp **** #define OSPROJEKAT_THREAD_H
   7:src/Thread.hpp **** 
   8:src/Thread.hpp **** #include "../lib/hw.h"
   9:src/Thread.hpp **** struct Context {
  10:src/Thread.hpp ****     size_t x[32];    // x0-x31, offsets 0x00-0xF8
  11:src/Thread.hpp ****     size_t sepc;     // offset 0x100
  12:src/Thread.hpp ****     size_t sstatus;  // offset 0x108
  13:src/Thread.hpp ****     size_t pc;
  14:src/Thread.hpp **** };
  15:src/Thread.hpp **** 
  16:src/Thread.hpp **** class Thread{
  17:src/Thread.hpp ****     friend class Scheduler;
  18:src/Thread.hpp ****     friend class Semaphore;
  19:src/Thread.hpp **** protected:
  20:src/Thread.hpp ****     static void threadTrampoline(Thread* t);
  21:src/Thread.hpp ****     void (*body)(void*);
  22:src/Thread.hpp ****     void* arg;
  23:src/Thread.hpp ****     Thread* parent;
  24:src/Thread.hpp **** 
  25:src/Thread.hpp ****     Thread* prev;
  26:src/Thread.hpp ****     Thread* next;
  27:src/Thread.hpp ****     size_t* stackPtr;
  28:src/Thread.hpp ****     size_t* supervisorSp;
  29:src/Thread.hpp ****     time_t sleepDelta;
  30:src/Thread.hpp **** public:
  31:src/Thread.hpp ****     Context threadContext;
  32:src/Thread.hpp ****     Thread();
  33:src/Thread.hpp ****     void copyContext(size_t* ctx);
  34:src/Thread.hpp ****     void init();
  35:src/Thread.hpp ****     size_t* getStackTop() { return stackPtr; }
  36:src/Thread.hpp ****     size_t* getContext();
  37:src/Thread.hpp ****     Thread* getParent() { return parent; }
  38:src/Thread.hpp ****     Thread* getNextInQueue();
  39:src/Thread.hpp ****     Thread* getPrevInQueue();
  40:src/Thread.hpp ****     void setNextInQueue(Thread* next);
  41:src/Thread.hpp ****     void setPrevInQueue(Thread* prev);
  42:src/Thread.hpp ****     void setNextAndPrevInQueue(Thread* next, Thread* prev);
  43:src/Thread.hpp ****     void setup(Thread* parentThread, size_t* stack_top);
  44:src/Thread.hpp ****     void setBody(void (*b)(void*), void* a) { body = b; arg = a; }
 401              		.loc 2 44 47
 402              		.loc 2 44 52 is_stmt 0
 403 01ac 23305901 		sd	s5,0(s2)
 404              		.loc 2 44 57 is_stmt 1
 405              		.loc 2 44 61 is_stmt 0
GAS LISTING /tmp/cc8cjYtG.s 			page 13


 406 01b0 23344901 		sd	s4,8(s2)
 407              	.LVL42:
 408              	.LBE44:
 409              	.LBE43:
  85:src/ABI.cpp   **** 
 410              		.loc 1 85 13 is_stmt 1
  85:src/ABI.cpp   **** 
 411              		.loc 1 85 21 is_stmt 0
 412 01b4 13060B00 		mv	a2,s6
 413 01b8 93850400 		mv	a1,s1
 414 01bc 13050900 		mv	a0,s2
 415 01c0 97000000 		call	_ZN6Thread5setupEPS_Pm@plt
 415      E7800000 
 416              	.LVL43:
  87:src/ABI.cpp   ****             Scheduler::Put(t);
 417              		.loc 1 87 13 is_stmt 1
  87:src/ABI.cpp   ****             Scheduler::Put(t);
 418              		.loc 1 87 21 is_stmt 0
 419 01c8 23B02901 		sd	s2,0(s3)
  88:src/ABI.cpp   ****             if (current) current->threadContext.x[10] = 0;
 420              		.loc 1 88 13 is_stmt 1
  88:src/ABI.cpp   ****             if (current) current->threadContext.x[10] = 0;
 421              		.loc 1 88 27 is_stmt 0
 422 01cc 13050900 		mv	a0,s2
 423 01d0 97000000 		call	_ZN9Scheduler3PutEP6Thread@plt
 423      E7800000 
 424              	.LVL44:
  89:src/ABI.cpp   ****             __asm__ volatile("li a0, 0");
 425              		.loc 1 89 13 is_stmt 1
 426 01d8 63840400 		beqz	s1,.L25
  89:src/ABI.cpp   ****             __asm__ volatile("li a0, 0");
 427              		.loc 1 89 26 discriminator 1
  89:src/ABI.cpp   ****             __asm__ volatile("li a0, 0");
 428              		.loc 1 89 55 is_stmt 0 discriminator 1
 429 01dc 23B80408 		sd	zero,144(s1)
 430              	.L25:
  90:src/ABI.cpp   ****             break;
 431              		.loc 1 90 13 is_stmt 1
  90:src/ABI.cpp   ****             break;
 432              		.loc 1 90 41 is_stmt 0
 433              	#APP
 434              	# 90 "src/ABI.cpp" 1
  91:src/ABI.cpp   ****         }
 435              		li a0, 0
 436              	# 0 "" 2
 437              		.loc 1 91 13 is_stmt 1
 438              	#NO_APP
 439 01e4 6FF05FF1 		j	.L1
 440              	.LVL45:
 441              	.L44:
  76:src/ABI.cpp   ****                     current->threadContext.x[10] = (size_t)-1;
 442              		.loc 1 76 17
 443 01e8 E38804F0 		beqz	s1,.L1
  77:src/ABI.cpp   ****                     restoreContext(current->getContext());
 444              		.loc 1 77 21
  77:src/ABI.cpp   ****                     restoreContext(current->getContext());
 445              		.loc 1 77 50 is_stmt 0
GAS LISTING /tmp/cc8cjYtG.s 			page 14


 446 01ec 9307F0FF 		li	a5,-1
 447 01f0 23B8F408 		sd	a5,144(s1)
  78:src/ABI.cpp   ****                 }
 448              		.loc 1 78 21 is_stmt 1
  78:src/ABI.cpp   ****                 }
 449              		.loc 1 78 35 is_stmt 0
 450 01f4 13850400 		mv	a0,s1
 451              	.LVL46:
 452 01f8 97000000 		call	_ZN6Thread10getContextEv@plt
 452      E7800000 
 453              	.LVL47:
 454 0200 97000000 		call	restoreContext@plt
 454      E7800000 
 455              	.LVL48:
  80:src/ABI.cpp   ****             }
 456              		.loc 1 80 17 is_stmt 1
 457 0208 6FF01FEF 		j	.L1
 458              	.LVL49:
 459              	.L19:
 460              	.LBE42:
  93:src/ABI.cpp   ****             Scheduler::ThreadExit(current);
 461              		.loc 1 93 9
  93:src/ABI.cpp   ****             Scheduler::ThreadExit(current);
 462              		.loc 1 93 20
  94:src/ABI.cpp   ****             break;
 463              		.loc 1 94 13
  94:src/ABI.cpp   ****             break;
 464              		.loc 1 94 34 is_stmt 0
 465 020c 13850400 		mv	a0,s1
 466 0210 97000000 		call	_ZN9Scheduler10ThreadExitEP6Thread@plt
 466      E7800000 
 467              	.LVL50:
  95:src/ABI.cpp   ****         }
 468              		.loc 1 95 13 is_stmt 1
 469 0218 6FF01FEE 		j	.L1
 470              	.LVL51:
 471              	.L18:
  97:src/ABI.cpp   ****             Thread* next = Scheduler::GetNext();
 472              		.loc 1 97 9
  97:src/ABI.cpp   ****             Thread* next = Scheduler::GetNext();
 473              		.loc 1 97 20
 474              	.LBB45:
  98:src/ABI.cpp   ****             if (next == nullptr) {
 475              		.loc 1 98 13
  98:src/ABI.cpp   ****             if (next == nullptr) {
 476              		.loc 1 98 46 is_stmt 0
 477 021c 97000000 		call	_ZN9Scheduler7GetNextEv@plt
 477      E7800000 
 478              	.LVL52:
 479 0224 13090500 		mv	s2,a0
 480              	.LVL53:
  99:src/ABI.cpp   ****                 __asm__ volatile("li a0, 0");
 481              		.loc 1 99 13 is_stmt 1
 482 0228 63060502 		beqz	a0,.L45
 103:src/ABI.cpp   ****             Scheduler::Put(current);
 483              		.loc 1 103 13
 484 022c 63840400 		beqz	s1,.L27
GAS LISTING /tmp/cc8cjYtG.s 			page 15


 103:src/ABI.cpp   ****             Scheduler::Put(current);
 485              		.loc 1 103 26 discriminator 1
 103:src/ABI.cpp   ****             Scheduler::Put(current);
 486              		.loc 1 103 55 is_stmt 0 discriminator 1
 487 0230 23B80408 		sd	zero,144(s1)
 488              	.L27:
 104:src/ABI.cpp   ****             Scheduler::yield(current, next);
 489              		.loc 1 104 13 is_stmt 1
 104:src/ABI.cpp   ****             Scheduler::yield(current, next);
 490              		.loc 1 104 27 is_stmt 0
 491 0234 13850400 		mv	a0,s1
 492              	.LVL54:
 493 0238 97000000 		call	_ZN9Scheduler3PutEP6Thread@plt
 493      E7800000 
 494              	.LVL55:
 105:src/ABI.cpp   ****             break;
 495              		.loc 1 105 13 is_stmt 1
 105:src/ABI.cpp   ****             break;
 496              		.loc 1 105 29 is_stmt 0
 497 0240 93050900 		mv	a1,s2
 498 0244 13850400 		mv	a0,s1
 499 0248 97000000 		call	_ZN9Scheduler5yieldEP6ThreadS1_@plt
 499      E7800000 
 500              	.LVL56:
 106:src/ABI.cpp   ****         }
 501              		.loc 1 106 13 is_stmt 1
 502 0250 6FF09FEA 		j	.L1
 503              	.LVL57:
 504              	.L45:
 100:src/ABI.cpp   ****                 break;
 505              		.loc 1 100 17
 100:src/ABI.cpp   ****                 break;
 506              		.loc 1 100 45 is_stmt 0
 507              	#APP
 508              	# 100 "src/ABI.cpp" 1
 101:src/ABI.cpp   ****             }
 509              		li a0, 0
 510              	# 0 "" 2
 511              		.loc 1 101 17 is_stmt 1
 512              	#NO_APP
 513 0258 6FF01FEA 		j	.L1
 514              	.LVL58:
 515              	.L17:
 516              	.LBE45:
 108:src/ABI.cpp   ****             sem_t* handle = reinterpret_cast<sem_t*>(frame[11]);
 517              		.loc 1 108 9
 108:src/ABI.cpp   ****             sem_t* handle = reinterpret_cast<sem_t*>(frame[11]);
 518              		.loc 1 108 20
 519              	.LBB46:
 109:src/ABI.cpp   ****             unsigned initialValue = (unsigned)frame[12];
 520              		.loc 1 109 13
 109:src/ABI.cpp   ****             unsigned initialValue = (unsigned)frame[12];
 521              		.loc 1 109 62 is_stmt 0
 522 025c 83398905 		ld	s3,88(s2)
 523              	.LVL59:
 110:src/ABI.cpp   ****             void* mem = MemoryAllocator::GetInstance().AllocateFragment(sizeof(Semaphore));
 524              		.loc 1 110 13 is_stmt 1
GAS LISTING /tmp/cc8cjYtG.s 			page 16


 110:src/ABI.cpp   ****             void* mem = MemoryAllocator::GetInstance().AllocateFragment(sizeof(Semaphore));
 525              		.loc 1 110 22 is_stmt 0
 526 0260 03290906 		lw	s2,96(s2)
 527              	.LVL60:
 111:src/ABI.cpp   ****             if (!mem) { __asm__ volatile("li a0, -1"); break; }
 528              		.loc 1 111 13 is_stmt 1
 111:src/ABI.cpp   ****             if (!mem) { __asm__ volatile("li a0, -1"); break; }
 529              		.loc 1 111 54 is_stmt 0
 530 0264 97000000 		call	_ZN15MemoryAllocator11GetInstanceEv@plt
 530      E7800000 
 531              	.LVL61:
 111:src/ABI.cpp   ****             if (!mem) { __asm__ volatile("li a0, -1"); break; }
 532              		.loc 1 111 72
 533 026c 93058001 		li	a1,24
 534 0270 97000000 		call	_ZN15MemoryAllocator16AllocateFragmentEm@plt
 534      E7800000 
 535              	.LVL62:
 536 0278 93040500 		mv	s1,a0
 537              	.LVL63:
 112:src/ABI.cpp   ****             Semaphore* semaphore = reinterpret_cast<Semaphore*>(mem);
 538              		.loc 1 112 13 is_stmt 1
 539 027c 630E0500 		beqz	a0,.L46
 113:src/ABI.cpp   ****             semaphore->init(initialValue);
 540              		.loc 1 113 13
 541              	.LVL64:
 114:src/ABI.cpp   ****             *handle = reinterpret_cast<sem_t>(semaphore);
 542              		.loc 1 114 13
 114:src/ABI.cpp   ****             *handle = reinterpret_cast<sem_t>(semaphore);
 543              		.loc 1 114 28 is_stmt 0
 544 0280 93050900 		mv	a1,s2
 545 0284 97000000 		call	_ZN9Semaphore4initEj@plt
 545      E7800000 
 546              	.LVL65:
 115:src/ABI.cpp   ****             __asm__ volatile("li a0, 0");
 547              		.loc 1 115 13 is_stmt 1
 115:src/ABI.cpp   ****             __asm__ volatile("li a0, 0");
 548              		.loc 1 115 21 is_stmt 0
 549 028c 23B09900 		sd	s1,0(s3)
 116:src/ABI.cpp   ****             break;
 550              		.loc 1 116 13 is_stmt 1
 116:src/ABI.cpp   ****             break;
 551              		.loc 1 116 41 is_stmt 0
 552              	#APP
 553              	# 116 "src/ABI.cpp" 1
 117:src/ABI.cpp   ****         }
 554              		li a0, 0
 555              	# 0 "" 2
 556              		.loc 1 117 13 is_stmt 1
 557              	#NO_APP
 558 0294 6FF05FE6 		j	.L1
 559              	.LVL66:
 560              	.L46:
 112:src/ABI.cpp   ****             Semaphore* semaphore = reinterpret_cast<Semaphore*>(mem);
 561              		.loc 1 112 25 discriminator 1
 112:src/ABI.cpp   ****             Semaphore* semaphore = reinterpret_cast<Semaphore*>(mem);
 562              		.loc 1 112 54 is_stmt 0 discriminator 1
 563              	#APP
GAS LISTING /tmp/cc8cjYtG.s 			page 17


 564              	# 112 "src/ABI.cpp" 1
 112:src/ABI.cpp   ****             Semaphore* semaphore = reinterpret_cast<Semaphore*>(mem);
 565              		li a0, -1
 566              	# 0 "" 2
 567              		.loc 1 112 56 is_stmt 1 discriminator 1
 568              	#NO_APP
 569 029c 6FF0DFE5 		j	.L1
 570              	.LVL67:
 571              	.L16:
 572              	.LBE46:
 119:src/ABI.cpp   ****             Semaphore* semaphore = reinterpret_cast<Semaphore*>(frame[11]);
 573              		.loc 1 119 9
 119:src/ABI.cpp   ****             Semaphore* semaphore = reinterpret_cast<Semaphore*>(frame[11]);
 574              		.loc 1 119 20
 575              	.LBB47:
 120:src/ABI.cpp   ****             semaphore->close();
 576              		.loc 1 120 13
 120:src/ABI.cpp   ****             semaphore->close();
 577              		.loc 1 120 73 is_stmt 0
 578 02a0 83348905 		ld	s1,88(s2)
 579              	.LVL68:
 121:src/ABI.cpp   ****             MemoryAllocator::GetInstance().FreeFragment(semaphore);
 580              		.loc 1 121 13 is_stmt 1
 121:src/ABI.cpp   ****             MemoryAllocator::GetInstance().FreeFragment(semaphore);
 581              		.loc 1 121 29 is_stmt 0
 582 02a4 13850400 		mv	a0,s1
 583              	.LVL69:
 584 02a8 97000000 		call	_ZN9Semaphore5closeEv@plt
 584      E7800000 
 585              	.LVL70:
 122:src/ABI.cpp   ****             __asm__ volatile("li a0, 0");
 586              		.loc 1 122 13 is_stmt 1
 122:src/ABI.cpp   ****             __asm__ volatile("li a0, 0");
 587              		.loc 1 122 42 is_stmt 0
 588 02b0 97000000 		call	_ZN15MemoryAllocator11GetInstanceEv@plt
 588      E7800000 
 589              	.LVL71:
 122:src/ABI.cpp   ****             __asm__ volatile("li a0, 0");
 590              		.loc 1 122 56
 591 02b8 93850400 		mv	a1,s1
 592 02bc 97000000 		call	_ZN15MemoryAllocator12FreeFragmentEPv@plt
 592      E7800000 
 593              	.LVL72:
 123:src/ABI.cpp   ****             break;
 594              		.loc 1 123 13 is_stmt 1
 123:src/ABI.cpp   ****             break;
 595              		.loc 1 123 41 is_stmt 0
 596              	#APP
 597              	# 123 "src/ABI.cpp" 1
 124:src/ABI.cpp   ****         }
 598              		li a0, 0
 599              	# 0 "" 2
 600              		.loc 1 124 13 is_stmt 1
 601              	#NO_APP
 602 02c8 6FF01FE3 		j	.L1
 603              	.LVL73:
 604              	.L15:
GAS LISTING /tmp/cc8cjYtG.s 			page 18


 605              	.LBE47:
 126:src/ABI.cpp   ****             Semaphore* semaphore = reinterpret_cast<Semaphore*>(frame[11]);
 606              		.loc 1 126 9
 126:src/ABI.cpp   ****             Semaphore* semaphore = reinterpret_cast<Semaphore*>(frame[11]);
 607              		.loc 1 126 20
 608              	.LBB48:
 127:src/ABI.cpp   ****             int result = semaphore->wait(current);
 609              		.loc 1 127 13
 128:src/ABI.cpp   ****             if (result <= 0) { __asm__ volatile("mv a0, %0" :: "r"((size_t)result)); break; }
 610              		.loc 1 128 13
 128:src/ABI.cpp   ****             if (result <= 0) { __asm__ volatile("mv a0, %0" :: "r"((size_t)result)); break; }
 611              		.loc 1 128 41 is_stmt 0
 612 02cc 93850400 		mv	a1,s1
 613 02d0 03358905 		ld	a0,88(s2)
 614 02d4 97000000 		call	_ZN9Semaphore4waitEP6Thread@plt
 614      E7800000 
 615              	.LVL74:
 129:src/ABI.cpp   ****             Thread* next = Scheduler::GetNext();
 616              		.loc 1 129 13 is_stmt 1
 617 02dc 6346A000 		bgtz	a0,.L29
 129:src/ABI.cpp   ****             Thread* next = Scheduler::GetNext();
 618              		.loc 1 129 32 discriminator 1
 129:src/ABI.cpp   ****             Thread* next = Scheduler::GetNext();
 619              		.loc 1 129 84 is_stmt 0 discriminator 1
 620              	#APP
 621              	# 129 "src/ABI.cpp" 1
 129:src/ABI.cpp   ****             Thread* next = Scheduler::GetNext();
 622              		mv a0, a0
 623              	# 0 "" 2
 624              		.loc 1 129 86 is_stmt 1 discriminator 1
 625              	#NO_APP
 626 02e4 6FF05FE1 		j	.L1
 627              	.L29:
 130:src/ABI.cpp   ****             if (next == nullptr) { while(true){} }
 628              		.loc 1 130 13
 130:src/ABI.cpp   ****             if (next == nullptr) { while(true){} }
 629              		.loc 1 130 46 is_stmt 0
 630 02e8 97000000 		call	_ZN9Scheduler7GetNextEv@plt
 630      E7800000 
 631              	.LVL75:
 632 02f0 93050500 		mv	a1,a0
 633              	.LVL76:
 131:src/ABI.cpp   ****             Scheduler::yield(current, next);
 634              		.loc 1 131 13 is_stmt 1
 635 02f4 630A0500 		beqz	a0,.L31
 132:src/ABI.cpp   ****             break;
 636              		.loc 1 132 13
 132:src/ABI.cpp   ****             break;
 637              		.loc 1 132 29 is_stmt 0
 638 02f8 13850400 		mv	a0,s1
 639              	.LVL77:
 640 02fc 97000000 		call	_ZN9Scheduler5yieldEP6ThreadS1_@plt
 640      E7800000 
 641              	.LVL78:
 133:src/ABI.cpp   ****         }
 642              		.loc 1 133 13 is_stmt 1
 643 0304 6FF05FDF 		j	.L1
GAS LISTING /tmp/cc8cjYtG.s 			page 19


 644              	.LVL79:
 645              	.L31:
 131:src/ABI.cpp   ****             Scheduler::yield(current, next);
 646              		.loc 1 131 36 discriminator 1
 131:src/ABI.cpp   ****             Scheduler::yield(current, next);
 647              		.loc 1 131 36 discriminator 1
 648 0308 6F000000 		j	.L31
 649              	.LVL80:
 650              	.L14:
 651              	.LBE48:
 135:src/ABI.cpp   ****             Semaphore* semaphore = reinterpret_cast<Semaphore*>(frame[11]);
 652              		.loc 1 135 9
 135:src/ABI.cpp   ****             Semaphore* semaphore = reinterpret_cast<Semaphore*>(frame[11]);
 653              		.loc 1 135 20
 654              	.LBB49:
 136:src/ABI.cpp   ****             semaphore->signal();
 655              		.loc 1 136 13
 137:src/ABI.cpp   ****             __asm__ volatile("li a0, 0");
 656              		.loc 1 137 13
 137:src/ABI.cpp   ****             __asm__ volatile("li a0, 0");
 657              		.loc 1 137 30 is_stmt 0
 658 030c 03358905 		ld	a0,88(s2)
 659 0310 97000000 		call	_ZN9Semaphore6signalEv@plt
 659      E7800000 
 660              	.LVL81:
 138:src/ABI.cpp   ****             break;
 661              		.loc 1 138 13 is_stmt 1
 138:src/ABI.cpp   ****             break;
 662              		.loc 1 138 41 is_stmt 0
 663              	#APP
 664              	# 138 "src/ABI.cpp" 1
 139:src/ABI.cpp   ****         }
 665              		li a0, 0
 666              	# 0 "" 2
 667              		.loc 1 139 13 is_stmt 1
 668              	#NO_APP
 669 031c 6FF0DFDD 		j	.L1
 670              	.LVL82:
 671              	.L13:
 672              	.LBE49:
 141:src/ABI.cpp   ****             Semaphore* semaphore = reinterpret_cast<Semaphore*>(frame[11]);
 673              		.loc 1 141 9
 141:src/ABI.cpp   ****             Semaphore* semaphore = reinterpret_cast<Semaphore*>(frame[11]);
 674              		.loc 1 141 20
 675              	.LBB50:
 142:src/ABI.cpp   ****             unsigned n = (unsigned)frame[12];
 676              		.loc 1 142 13
 143:src/ABI.cpp   ****             int result = semaphore->waitN(current, n);
 677              		.loc 1 143 13
 144:src/ABI.cpp   ****             if (result <= 0) { __asm__ volatile("mv a0, %0" :: "r"((size_t)result)); break; }
 678              		.loc 1 144 13
 144:src/ABI.cpp   ****             if (result <= 0) { __asm__ volatile("mv a0, %0" :: "r"((size_t)result)); break; }
 679              		.loc 1 144 42 is_stmt 0
 680 0320 03260906 		lw	a2,96(s2)
 681 0324 93850400 		mv	a1,s1
 682 0328 03358905 		ld	a0,88(s2)
 683 032c 97000000 		call	_ZN9Semaphore5waitNEP6Threadj@plt
GAS LISTING /tmp/cc8cjYtG.s 			page 20


 683      E7800000 
 684              	.LVL83:
 145:src/ABI.cpp   ****             Thread* next = Scheduler::GetNext();
 685              		.loc 1 145 13 is_stmt 1
 686 0334 6346A000 		bgtz	a0,.L32
 145:src/ABI.cpp   ****             Thread* next = Scheduler::GetNext();
 687              		.loc 1 145 32 discriminator 1
 145:src/ABI.cpp   ****             Thread* next = Scheduler::GetNext();
 688              		.loc 1 145 84 is_stmt 0 discriminator 1
 689              	#APP
 690              	# 145 "src/ABI.cpp" 1
 145:src/ABI.cpp   ****             Thread* next = Scheduler::GetNext();
 691              		mv a0, a0
 692              	# 0 "" 2
 693              		.loc 1 145 86 is_stmt 1 discriminator 1
 694              	#NO_APP
 695 033c 6FF0DFDB 		j	.L1
 696              	.L32:
 146:src/ABI.cpp   ****             if (next == nullptr) { while(true){} }
 697              		.loc 1 146 13
 146:src/ABI.cpp   ****             if (next == nullptr) { while(true){} }
 698              		.loc 1 146 46 is_stmt 0
 699 0340 97000000 		call	_ZN9Scheduler7GetNextEv@plt
 699      E7800000 
 700              	.LVL84:
 701 0348 93050500 		mv	a1,a0
 702              	.LVL85:
 147:src/ABI.cpp   ****             Scheduler::yield(current, next);
 703              		.loc 1 147 13 is_stmt 1
 704 034c 630A0500 		beqz	a0,.L34
 148:src/ABI.cpp   ****             break;
 705              		.loc 1 148 13
 148:src/ABI.cpp   ****             break;
 706              		.loc 1 148 29 is_stmt 0
 707 0350 13850400 		mv	a0,s1
 708              	.LVL86:
 709 0354 97000000 		call	_ZN9Scheduler5yieldEP6ThreadS1_@plt
 709      E7800000 
 710              	.LVL87:
 149:src/ABI.cpp   ****         }
 711              		.loc 1 149 13 is_stmt 1
 712 035c 6FF0DFD9 		j	.L1
 713              	.LVL88:
 714              	.L34:
 147:src/ABI.cpp   ****             Scheduler::yield(current, next);
 715              		.loc 1 147 36 discriminator 2
 147:src/ABI.cpp   ****             Scheduler::yield(current, next);
 716              		.loc 1 147 36 discriminator 2
 717 0360 6F000000 		j	.L34
 718              	.LVL89:
 719              	.L12:
 720              	.LBE50:
 151:src/ABI.cpp   ****             Semaphore* semaphore = reinterpret_cast<Semaphore*>(frame[11]);
 721              		.loc 1 151 9
 151:src/ABI.cpp   ****             Semaphore* semaphore = reinterpret_cast<Semaphore*>(frame[11]);
 722              		.loc 1 151 20
 723              	.LBB51:
GAS LISTING /tmp/cc8cjYtG.s 			page 21


 152:src/ABI.cpp   ****             unsigned n = (unsigned)frame[12];
 724              		.loc 1 152 13
 153:src/ABI.cpp   ****             semaphore->signalN(n);
 725              		.loc 1 153 13
 154:src/ABI.cpp   ****             __asm__ volatile("li a0, 0");
 726              		.loc 1 154 13
 154:src/ABI.cpp   ****             __asm__ volatile("li a0, 0");
 727              		.loc 1 154 31 is_stmt 0
 728 0364 83250906 		lw	a1,96(s2)
 729 0368 03358905 		ld	a0,88(s2)
 730 036c 97000000 		call	_ZN9Semaphore7signalNEj@plt
 730      E7800000 
 731              	.LVL90:
 155:src/ABI.cpp   ****             break;
 732              		.loc 1 155 13 is_stmt 1
 155:src/ABI.cpp   ****             break;
 733              		.loc 1 155 41 is_stmt 0
 734              	#APP
 735              	# 155 "src/ABI.cpp" 1
 156:src/ABI.cpp   ****         }
 736              		li a0, 0
 737              	# 0 "" 2
 738              		.loc 1 156 13 is_stmt 1
 739              	#NO_APP
 740 0378 6FF01FD8 		j	.L1
 741              	.LVL91:
 742              	.L10:
 743              	.LBE51:
 158:src/ABI.cpp   ****             // time_sleep: a1=duration (in timer periods)
 744              		.loc 1 158 9
 158:src/ABI.cpp   ****             // time_sleep: a1=duration (in timer periods)
 745              		.loc 1 158 20
 746              	.LBB52:
 160:src/ABI.cpp   ****             if (current) current->threadContext.x[10] = 0;
 747              		.loc 1 160 13
 160:src/ABI.cpp   ****             if (current) current->threadContext.x[10] = 0;
 748              		.loc 1 160 20 is_stmt 0
 749 037c 83358905 		ld	a1,88(s2)
 750              	.LVL92:
 161:src/ABI.cpp   ****             if (dur == 0) { __asm__ volatile("li a0, 0"); break; }
 751              		.loc 1 161 13 is_stmt 1
 752 0380 63840400 		beqz	s1,.L35
 161:src/ABI.cpp   ****             if (dur == 0) { __asm__ volatile("li a0, 0"); break; }
 753              		.loc 1 161 26 discriminator 1
 161:src/ABI.cpp   ****             if (dur == 0) { __asm__ volatile("li a0, 0"); break; }
 754              		.loc 1 161 55 is_stmt 0 discriminator 1
 755 0384 23B80408 		sd	zero,144(s1)
 756              	.LVL93:
 757              	.L35:
 162:src/ABI.cpp   ****             Scheduler::sleep(current, dur);
 758              		.loc 1 162 13 is_stmt 1
 759 0388 63960500 		bnez	a1,.L36
 162:src/ABI.cpp   ****             Scheduler::sleep(current, dur);
 760              		.loc 1 162 29 discriminator 1
 162:src/ABI.cpp   ****             Scheduler::sleep(current, dur);
 761              		.loc 1 162 57 is_stmt 0 discriminator 1
 762              	#APP
GAS LISTING /tmp/cc8cjYtG.s 			page 22


 763              	# 162 "src/ABI.cpp" 1
 162:src/ABI.cpp   ****             Scheduler::sleep(current, dur);
 764              		li a0, 0
 765              	# 0 "" 2
 766              		.loc 1 162 59 is_stmt 1 discriminator 1
 767              	#NO_APP
 768 0390 6FF09FD6 		j	.L1
 769              	.L36:
 163:src/ABI.cpp   ****             Thread* next = Scheduler::GetNext();
 770              		.loc 1 163 13
 163:src/ABI.cpp   ****             Thread* next = Scheduler::GetNext();
 771              		.loc 1 163 29 is_stmt 0
 772 0394 13850400 		mv	a0,s1
 773 0398 97000000 		call	_ZN9Scheduler5sleepEP6Threadm@plt
 773      E7800000 
 774              	.LVL94:
 164:src/ABI.cpp   ****             if (next == nullptr) { while(true){} }
 775              		.loc 1 164 13 is_stmt 1
 164:src/ABI.cpp   ****             if (next == nullptr) { while(true){} }
 776              		.loc 1 164 46 is_stmt 0
 777 03a0 97000000 		call	_ZN9Scheduler7GetNextEv@plt
 777      E7800000 
 778              	.LVL95:
 779 03a8 93050500 		mv	a1,a0
 780              	.LVL96:
 165:src/ABI.cpp   ****             Scheduler::yield(current, next);
 781              		.loc 1 165 13 is_stmt 1
 782 03ac 630A0500 		beqz	a0,.L38
 166:src/ABI.cpp   ****             break;
 783              		.loc 1 166 13
 166:src/ABI.cpp   ****             break;
 784              		.loc 1 166 29 is_stmt 0
 785 03b0 13850400 		mv	a0,s1
 786              	.LVL97:
 787 03b4 97000000 		call	_ZN9Scheduler5yieldEP6ThreadS1_@plt
 787      E7800000 
 788              	.LVL98:
 167:src/ABI.cpp   ****         }
 789              		.loc 1 167 13 is_stmt 1
 790 03bc 6FF0DFD3 		j	.L1
 791              	.LVL99:
 792              	.L38:
 165:src/ABI.cpp   ****             Scheduler::yield(current, next);
 793              		.loc 1 165 36 discriminator 3
 165:src/ABI.cpp   ****             Scheduler::yield(current, next);
 794              		.loc 1 165 36 discriminator 3
 795 03c0 6F000000 		j	.L38
 796              	.LBE52:
 797              	.LBE39:
 798              		.cfi_endproc
 799              	.LFE3:
 801              		.align	2
 802              		.globl	start_main_thread
 804              	start_main_thread:
 805              	.LFB4:
 175:src/ABI.cpp   **** 
 176:src/ABI.cpp   **** extern "C" {
GAS LISTING /tmp/cc8cjYtG.s 			page 23


 177:src/ABI.cpp   **** int start_main_thread() {
 806              		.loc 1 177 25
 807              		.cfi_startproc
 808 03c4 130101FF 		addi	sp,sp,-16
 809              		.cfi_def_cfa_offset 16
 810 03c8 23341100 		sd	ra,8(sp)
 811 03cc 23308100 		sd	s0,0(sp)
 812              		.cfi_offset 1, -8
 813              		.cfi_offset 8, -16
 814 03d0 13040101 		addi	s0,sp,16
 815              		.cfi_def_cfa 8, 0
 178:src/ABI.cpp   ****     Scheduler::SetupStartThread();
 816              		.loc 1 178 5
 817              		.loc 1 178 32 is_stmt 0
 818 03d4 97000000 		call	_ZN9Scheduler16SetupStartThreadEv@plt
 818      E7800000 
 819              	.LVL100:
 179:src/ABI.cpp   ****     return 0;
 820              		.loc 1 179 5 is_stmt 1
 180:src/ABI.cpp   **** }
 821              		.loc 1 180 1 is_stmt 0
 822 03dc 13050000 		li	a0,0
 823 03e0 83308100 		ld	ra,8(sp)
 824              		.cfi_restore 1
 825 03e4 03340100 		ld	s0,0(sp)
 826              		.cfi_restore 8
 827              		.cfi_def_cfa 2, 16
 828 03e8 13010101 		addi	sp,sp,16
 829              		.cfi_def_cfa_offset 0
 830 03ec 67800000 		jr	ra
 831              		.cfi_endproc
 832              	.LFE4:
 834              	.Letext0:
 835              		.file 3 "src/./../lib/hw.h"
 836              		.file 4 "src/./MemoryAllocator.hpp"
 837              		.file 5 "src/APIC.h"
 838              		.file 6 "src/Semaphore.hpp"
 839              		.file 7 "src/Scheduler.hpp"
 840              		.file 8 "src/../lib/console.h"
GAS LISTING /tmp/cc8cjYtG.s 			page 24


DEFINED SYMBOLS
                            *ABS*:0000000000000000 ABI.cpp
     /tmp/cc8cjYtG.s:9      .text:0000000000000000 HandleInterupt
     /tmp/cc8cjYtG.s:13     .text:0000000000000000 .L0 
     /tmp/cc8cjYtG.s:15     .text:0000000000000000 .L0 
     /tmp/cc8cjYtG.s:16     .text:0000000000000004 .L0 
     /tmp/cc8cjYtG.s:25     .text:0000000000000024 .L0 
     /tmp/cc8cjYtG.s:26     .text:0000000000000024 .L0 
     /tmp/cc8cjYtG.s:27     .text:0000000000000024 .L0 
     /tmp/cc8cjYtG.s:28     .text:0000000000000024 .L0 
     /tmp/cc8cjYtG.s:29     .text:0000000000000024 .L0 
     /tmp/cc8cjYtG.s:30     .text:0000000000000024 .L0 
     /tmp/cc8cjYtG.s:31     .text:0000000000000024 .L0 
     /tmp/cc8cjYtG.s:32     .text:0000000000000024 .L0 
     /tmp/cc8cjYtG.s:34     .text:0000000000000028 .L0 
     /tmp/cc8cjYtG.s:37     .text:000000000000002c .L0 
     /tmp/cc8cjYtG.s:38     .text:000000000000002c .L0 
         src/ABI.cpp:15     .text:000000000000002c .L0 
     /tmp/cc8cjYtG.s:45     .text:0000000000000030 .L0 
     /tmp/cc8cjYtG.s:47     .text:0000000000000030 .L0 
     /tmp/cc8cjYtG.s:53     .text:000000000000003c .L0 
     /tmp/cc8cjYtG.s:57     .text:0000000000000040 .L0 
     /tmp/cc8cjYtG.s:61     .text:0000000000000044 .L0 
     /tmp/cc8cjYtG.s:64     .text:000000000000004c .L0 
     /tmp/cc8cjYtG.s:65     .text:000000000000004c .L0 
     /tmp/cc8cjYtG.s:69     .text:0000000000000058 .L0 
     /tmp/cc8cjYtG.s:72     .text:0000000000000060 .L0 
     /tmp/cc8cjYtG.s:79     .text:0000000000000068 .L0 
     /tmp/cc8cjYtG.s:80     .text:0000000000000068 .L0 
     /tmp/cc8cjYtG.s:82     .text:000000000000006c .L0 
     /tmp/cc8cjYtG.s:84     .text:0000000000000070 .L0 
     /tmp/cc8cjYtG.s:85     .text:0000000000000070 .L0 
         src/ABI.cpp:24     .text:0000000000000070 .L0 
     /tmp/cc8cjYtG.s:92     .text:0000000000000074 .L0 
         src/ABI.cpp:25     .text:0000000000000074 .L0 
     /tmp/cc8cjYtG.s:98     .text:0000000000000078 .L0 
     /tmp/cc8cjYtG.s:100    .text:0000000000000078 .L0 
     /tmp/cc8cjYtG.s:102    .text:000000000000007c .L0 
     /tmp/cc8cjYtG.s:106    .text:0000000000000084 .L0 
     /tmp/cc8cjYtG.s:107    .text:0000000000000084 .L0 
     /tmp/cc8cjYtG.s:109    .text:0000000000000088 .L0 
     /tmp/cc8cjYtG.s:110    .text:0000000000000088 .L0 
     /tmp/cc8cjYtG.s:116    .text:000000000000008c .L0 
     /tmp/cc8cjYtG.s:122    .text:000000000000009c .L0 
     /tmp/cc8cjYtG.s:123    .text:000000000000009c .L0 
     /tmp/cc8cjYtG.s:125    .text:00000000000000a0 .L0 
     /tmp/cc8cjYtG.s:130    .text:00000000000000a8 .L0 
     /tmp/cc8cjYtG.s:131    .text:00000000000000a8 .L0 
     /tmp/cc8cjYtG.s:132    .text:00000000000000a8 .L0 
         src/ABI.cpp:50     .text:00000000000000a8 .L0 
     /tmp/cc8cjYtG.s:139    .text:00000000000000ac .L0 
     /tmp/cc8cjYtG.s:141    .text:00000000000000ac .L0 
         src/ABI.cpp:51     .text:00000000000000b0 .L0 
     /tmp/cc8cjYtG.s:151    .text:00000000000000b4 .L0 
     /tmp/cc8cjYtG.s:152    .text:00000000000000b4 .L0 
     /tmp/cc8cjYtG.s:155    .text:00000000000000b8 .L0 
     /tmp/cc8cjYtG.s:224    .text:00000000000000dc .L0 
GAS LISTING /tmp/cc8cjYtG.s 			page 25


     /tmp/cc8cjYtG.s:225    .text:00000000000000dc .L0 
     /tmp/cc8cjYtG.s:233    .text:00000000000000e4 .L0 
     /tmp/cc8cjYtG.s:234    .text:00000000000000e4 .L0 
     /tmp/cc8cjYtG.s:238    .text:00000000000000f0 .L0 
     /tmp/cc8cjYtG.s:244    .text:00000000000000f4 .L0 
     /tmp/cc8cjYtG.s:251    .text:00000000000000f8 .L0 
     /tmp/cc8cjYtG.s:252    .text:00000000000000fc .L0 
     /tmp/cc8cjYtG.s:253    .text:00000000000000fc .L0 
     /tmp/cc8cjYtG.s:255    .text:0000000000000100 .L0 
     /tmp/cc8cjYtG.s:256    .text:0000000000000100 .L0 
     /tmp/cc8cjYtG.s:258    .text:0000000000000104 .L0 
     /tmp/cc8cjYtG.s:260    .text:0000000000000108 .L0 
     /tmp/cc8cjYtG.s:262    .text:000000000000010c .L0 
     /tmp/cc8cjYtG.s:264    .text:0000000000000110 .L0 
     /tmp/cc8cjYtG.s:266    .text:0000000000000114 .L0 
     /tmp/cc8cjYtG.s:268    .text:0000000000000118 .L0 
     /tmp/cc8cjYtG.s:270    .text:000000000000011c .L0 
     /tmp/cc8cjYtG.s:274    .text:0000000000000120 .L0 
     /tmp/cc8cjYtG.s:280    .text:0000000000000120 .L0 
     /tmp/cc8cjYtG.s:281    .text:0000000000000120 .L0 
         src/ABI.cpp:40     .text:0000000000000120 .L0 
     /tmp/cc8cjYtG.s:288    .text:0000000000000124 .L0 
     /tmp/cc8cjYtG.s:290    .text:0000000000000124 .L0 
     /tmp/cc8cjYtG.s:295    .text:0000000000000130 .L0 
     /tmp/cc8cjYtG.s:296    .text:0000000000000130 .L0 
         src/ABI.cpp:42     .text:0000000000000134 .L0 
     /tmp/cc8cjYtG.s:307    .text:0000000000000138 .L0 
     /tmp/cc8cjYtG.s:314    .text:000000000000013c .L0 
     /tmp/cc8cjYtG.s:316    .text:000000000000013c .L0 
     /tmp/cc8cjYtG.s:317    .text:000000000000013c .L0 
     /tmp/cc8cjYtG.s:318    .text:000000000000013c .L0 
     /tmp/cc8cjYtG.s:321    .text:0000000000000140 .L0 
     /tmp/cc8cjYtG.s:322    .text:0000000000000140 .L0 
     /tmp/cc8cjYtG.s:325    .text:0000000000000148 .L0 
     /tmp/cc8cjYtG.s:329    .text:0000000000000154 .L0 
         src/ABI.cpp:59     .text:0000000000000154 .L0 
     /tmp/cc8cjYtG.s:336    .text:0000000000000158 .L0 
     /tmp/cc8cjYtG.s:341    .text:000000000000015c .L0 
     /tmp/cc8cjYtG.s:343    .text:000000000000015c .L0 
     /tmp/cc8cjYtG.s:344    .text:000000000000015c .L0 
     /tmp/cc8cjYtG.s:345    .text:000000000000015c .L0 
     /tmp/cc8cjYtG.s:348    .text:0000000000000160 .L0 
     /tmp/cc8cjYtG.s:349    .text:0000000000000160 .L0 
     /tmp/cc8cjYtG.s:352    .text:0000000000000168 .L0 
     /tmp/cc8cjYtG.s:356    .text:0000000000000174 .L0 
     /tmp/cc8cjYtG.s:361    .text:0000000000000178 .L0 
     /tmp/cc8cjYtG.s:363    .text:0000000000000178 .L0 
     /tmp/cc8cjYtG.s:364    .text:0000000000000178 .L0 
     /tmp/cc8cjYtG.s:365    .text:0000000000000178 .L0 
     /tmp/cc8cjYtG.s:368    .text:000000000000017c .L0 
     /tmp/cc8cjYtG.s:369    .text:000000000000017c .L0 
     /tmp/cc8cjYtG.s:372    .text:0000000000000180 .L0 
     /tmp/cc8cjYtG.s:373    .text:0000000000000180 .L0 
     /tmp/cc8cjYtG.s:376    .text:0000000000000184 .L0 
     /tmp/cc8cjYtG.s:377    .text:0000000000000184 .L0 
     /tmp/cc8cjYtG.s:380    .text:0000000000000188 .L0 
     /tmp/cc8cjYtG.s:381    .text:0000000000000188 .L0 
GAS LISTING /tmp/cc8cjYtG.s 			page 26


     /tmp/cc8cjYtG.s:384    .text:0000000000000190 .L0 
     /tmp/cc8cjYtG.s:390    .text:00000000000001a0 .L0 
     /tmp/cc8cjYtG.s:393    .text:00000000000001a4 .L0 
     /tmp/cc8cjYtG.s:394    .text:00000000000001a4 .L0 
     /tmp/cc8cjYtG.s:395    .text:00000000000001a4 .L0 
     /tmp/cc8cjYtG.s:401    .text:00000000000001ac .L0 
     /tmp/cc8cjYtG.s:402    .text:00000000000001ac .L0 
     /tmp/cc8cjYtG.s:403    .text:00000000000001ac .L0 
     /tmp/cc8cjYtG.s:405    .text:00000000000001b0 .L0 
     /tmp/cc8cjYtG.s:406    .text:00000000000001b0 .L0 
     /tmp/cc8cjYtG.s:411    .text:00000000000001b4 .L0 
     /tmp/cc8cjYtG.s:412    .text:00000000000001b4 .L0 
     /tmp/cc8cjYtG.s:418    .text:00000000000001c8 .L0 
     /tmp/cc8cjYtG.s:419    .text:00000000000001c8 .L0 
     /tmp/cc8cjYtG.s:421    .text:00000000000001cc .L0 
     /tmp/cc8cjYtG.s:422    .text:00000000000001cc .L0 
     /tmp/cc8cjYtG.s:426    .text:00000000000001d8 .L0 
     /tmp/cc8cjYtG.s:428    .text:00000000000001dc .L0 
     /tmp/cc8cjYtG.s:429    .text:00000000000001dc .L0 
     /tmp/cc8cjYtG.s:432    .text:00000000000001e0 .L0 
         src/ABI.cpp:90     .text:00000000000001e0 .L0 
     /tmp/cc8cjYtG.s:439    .text:00000000000001e4 .L0 
     /tmp/cc8cjYtG.s:443    .text:00000000000001e8 .L0 
     /tmp/cc8cjYtG.s:445    .text:00000000000001ec .L0 
     /tmp/cc8cjYtG.s:446    .text:00000000000001ec .L0 
     /tmp/cc8cjYtG.s:449    .text:00000000000001f4 .L0 
     /tmp/cc8cjYtG.s:450    .text:00000000000001f4 .L0 
     /tmp/cc8cjYtG.s:457    .text:0000000000000208 .L0 
     /tmp/cc8cjYtG.s:462    .text:000000000000020c .L0 
     /tmp/cc8cjYtG.s:463    .text:000000000000020c .L0 
     /tmp/cc8cjYtG.s:464    .text:000000000000020c .L0 
     /tmp/cc8cjYtG.s:465    .text:000000000000020c .L0 
     /tmp/cc8cjYtG.s:469    .text:0000000000000218 .L0 
     /tmp/cc8cjYtG.s:473    .text:000000000000021c .L0 
     /tmp/cc8cjYtG.s:475    .text:000000000000021c .L0 
     /tmp/cc8cjYtG.s:476    .text:000000000000021c .L0 
     /tmp/cc8cjYtG.s:477    .text:000000000000021c .L0 
     /tmp/cc8cjYtG.s:482    .text:0000000000000228 .L0 
     /tmp/cc8cjYtG.s:484    .text:000000000000022c .L0 
     /tmp/cc8cjYtG.s:486    .text:0000000000000230 .L0 
     /tmp/cc8cjYtG.s:487    .text:0000000000000230 .L0 
     /tmp/cc8cjYtG.s:490    .text:0000000000000234 .L0 
     /tmp/cc8cjYtG.s:491    .text:0000000000000234 .L0 
     /tmp/cc8cjYtG.s:496    .text:0000000000000240 .L0 
     /tmp/cc8cjYtG.s:497    .text:0000000000000240 .L0 
     /tmp/cc8cjYtG.s:502    .text:0000000000000250 .L0 
     /tmp/cc8cjYtG.s:506    .text:0000000000000254 .L0 
         src/ABI.cpp:100    .text:0000000000000254 .L0 
     /tmp/cc8cjYtG.s:513    .text:0000000000000258 .L0 
     /tmp/cc8cjYtG.s:518    .text:000000000000025c .L0 
     /tmp/cc8cjYtG.s:520    .text:000000000000025c .L0 
     /tmp/cc8cjYtG.s:521    .text:000000000000025c .L0 
     /tmp/cc8cjYtG.s:522    .text:000000000000025c .L0 
     /tmp/cc8cjYtG.s:525    .text:0000000000000260 .L0 
     /tmp/cc8cjYtG.s:526    .text:0000000000000260 .L0 
     /tmp/cc8cjYtG.s:529    .text:0000000000000264 .L0 
     /tmp/cc8cjYtG.s:530    .text:0000000000000264 .L0 
GAS LISTING /tmp/cc8cjYtG.s 			page 27


     /tmp/cc8cjYtG.s:533    .text:000000000000026c .L0 
     /tmp/cc8cjYtG.s:539    .text:000000000000027c .L0 
     /tmp/cc8cjYtG.s:542    .text:0000000000000280 .L0 
     /tmp/cc8cjYtG.s:543    .text:0000000000000280 .L0 
     /tmp/cc8cjYtG.s:544    .text:0000000000000280 .L0 
     /tmp/cc8cjYtG.s:548    .text:000000000000028c .L0 
     /tmp/cc8cjYtG.s:549    .text:000000000000028c .L0 
     /tmp/cc8cjYtG.s:551    .text:0000000000000290 .L0 
         src/ABI.cpp:116    .text:0000000000000290 .L0 
     /tmp/cc8cjYtG.s:558    .text:0000000000000294 .L0 
     /tmp/cc8cjYtG.s:562    .text:0000000000000298 .L0 
         src/ABI.cpp:112    .text:0000000000000298 .L0 
     /tmp/cc8cjYtG.s:569    .text:000000000000029c .L0 
     /tmp/cc8cjYtG.s:574    .text:00000000000002a0 .L0 
     /tmp/cc8cjYtG.s:576    .text:00000000000002a0 .L0 
     /tmp/cc8cjYtG.s:577    .text:00000000000002a0 .L0 
     /tmp/cc8cjYtG.s:578    .text:00000000000002a0 .L0 
     /tmp/cc8cjYtG.s:581    .text:00000000000002a4 .L0 
     /tmp/cc8cjYtG.s:582    .text:00000000000002a4 .L0 
     /tmp/cc8cjYtG.s:587    .text:00000000000002b0 .L0 
     /tmp/cc8cjYtG.s:588    .text:00000000000002b0 .L0 
     /tmp/cc8cjYtG.s:591    .text:00000000000002b8 .L0 
     /tmp/cc8cjYtG.s:595    .text:00000000000002c4 .L0 
         src/ABI.cpp:123    .text:00000000000002c4 .L0 
     /tmp/cc8cjYtG.s:602    .text:00000000000002c8 .L0 
     /tmp/cc8cjYtG.s:607    .text:00000000000002cc .L0 
     /tmp/cc8cjYtG.s:609    .text:00000000000002cc .L0 
     /tmp/cc8cjYtG.s:610    .text:00000000000002cc .L0 
     /tmp/cc8cjYtG.s:611    .text:00000000000002cc .L0 
     /tmp/cc8cjYtG.s:612    .text:00000000000002cc .L0 
     /tmp/cc8cjYtG.s:617    .text:00000000000002dc .L0 
     /tmp/cc8cjYtG.s:619    .text:00000000000002e0 .L0 
         src/ABI.cpp:129    .text:00000000000002e0 .L0 
     /tmp/cc8cjYtG.s:626    .text:00000000000002e4 .L0 
     /tmp/cc8cjYtG.s:629    .text:00000000000002e8 .L0 
     /tmp/cc8cjYtG.s:630    .text:00000000000002e8 .L0 
     /tmp/cc8cjYtG.s:635    .text:00000000000002f4 .L0 
     /tmp/cc8cjYtG.s:637    .text:00000000000002f8 .L0 
     /tmp/cc8cjYtG.s:638    .text:00000000000002f8 .L0 
     /tmp/cc8cjYtG.s:643    .text:0000000000000304 .L0 
     /tmp/cc8cjYtG.s:647    .text:0000000000000308 .L0 
     /tmp/cc8cjYtG.s:648    .text:0000000000000308 .L0 
     /tmp/cc8cjYtG.s:653    .text:000000000000030c .L0 
     /tmp/cc8cjYtG.s:655    .text:000000000000030c .L0 
     /tmp/cc8cjYtG.s:656    .text:000000000000030c .L0 
     /tmp/cc8cjYtG.s:657    .text:000000000000030c .L0 
     /tmp/cc8cjYtG.s:658    .text:000000000000030c .L0 
     /tmp/cc8cjYtG.s:662    .text:0000000000000318 .L0 
         src/ABI.cpp:138    .text:0000000000000318 .L0 
     /tmp/cc8cjYtG.s:669    .text:000000000000031c .L0 
     /tmp/cc8cjYtG.s:674    .text:0000000000000320 .L0 
     /tmp/cc8cjYtG.s:676    .text:0000000000000320 .L0 
     /tmp/cc8cjYtG.s:677    .text:0000000000000320 .L0 
     /tmp/cc8cjYtG.s:678    .text:0000000000000320 .L0 
     /tmp/cc8cjYtG.s:679    .text:0000000000000320 .L0 
     /tmp/cc8cjYtG.s:680    .text:0000000000000320 .L0 
     /tmp/cc8cjYtG.s:686    .text:0000000000000334 .L0 
GAS LISTING /tmp/cc8cjYtG.s 			page 28


     /tmp/cc8cjYtG.s:688    .text:0000000000000338 .L0 
         src/ABI.cpp:145    .text:0000000000000338 .L0 
     /tmp/cc8cjYtG.s:695    .text:000000000000033c .L0 
     /tmp/cc8cjYtG.s:698    .text:0000000000000340 .L0 
     /tmp/cc8cjYtG.s:699    .text:0000000000000340 .L0 
     /tmp/cc8cjYtG.s:704    .text:000000000000034c .L0 
     /tmp/cc8cjYtG.s:706    .text:0000000000000350 .L0 
     /tmp/cc8cjYtG.s:707    .text:0000000000000350 .L0 
     /tmp/cc8cjYtG.s:712    .text:000000000000035c .L0 
     /tmp/cc8cjYtG.s:716    .text:0000000000000360 .L0 
     /tmp/cc8cjYtG.s:717    .text:0000000000000360 .L0 
     /tmp/cc8cjYtG.s:722    .text:0000000000000364 .L0 
     /tmp/cc8cjYtG.s:724    .text:0000000000000364 .L0 
     /tmp/cc8cjYtG.s:725    .text:0000000000000364 .L0 
     /tmp/cc8cjYtG.s:726    .text:0000000000000364 .L0 
     /tmp/cc8cjYtG.s:727    .text:0000000000000364 .L0 
     /tmp/cc8cjYtG.s:728    .text:0000000000000364 .L0 
     /tmp/cc8cjYtG.s:733    .text:0000000000000374 .L0 
         src/ABI.cpp:155    .text:0000000000000374 .L0 
     /tmp/cc8cjYtG.s:740    .text:0000000000000378 .L0 
     /tmp/cc8cjYtG.s:745    .text:000000000000037c .L0 
     /tmp/cc8cjYtG.s:747    .text:000000000000037c .L0 
     /tmp/cc8cjYtG.s:748    .text:000000000000037c .L0 
     /tmp/cc8cjYtG.s:749    .text:000000000000037c .L0 
     /tmp/cc8cjYtG.s:752    .text:0000000000000380 .L0 
     /tmp/cc8cjYtG.s:754    .text:0000000000000384 .L0 
     /tmp/cc8cjYtG.s:755    .text:0000000000000384 .L0 
     /tmp/cc8cjYtG.s:759    .text:0000000000000388 .L0 
     /tmp/cc8cjYtG.s:761    .text:000000000000038c .L0 
         src/ABI.cpp:162    .text:000000000000038c .L0 
     /tmp/cc8cjYtG.s:768    .text:0000000000000390 .L0 
     /tmp/cc8cjYtG.s:771    .text:0000000000000394 .L0 
     /tmp/cc8cjYtG.s:772    .text:0000000000000394 .L0 
     /tmp/cc8cjYtG.s:776    .text:00000000000003a0 .L0 
     /tmp/cc8cjYtG.s:777    .text:00000000000003a0 .L0 
     /tmp/cc8cjYtG.s:782    .text:00000000000003ac .L0 
     /tmp/cc8cjYtG.s:784    .text:00000000000003b0 .L0 
     /tmp/cc8cjYtG.s:785    .text:00000000000003b0 .L0 
     /tmp/cc8cjYtG.s:790    .text:00000000000003bc .L0 
     /tmp/cc8cjYtG.s:794    .text:00000000000003c0 .L0 
     /tmp/cc8cjYtG.s:795    .text:00000000000003c0 .L0 
     /tmp/cc8cjYtG.s:798    .text:00000000000003c4 .L0 
     /tmp/cc8cjYtG.s:804    .text:00000000000003c4 start_main_thread
     /tmp/cc8cjYtG.s:807    .text:00000000000003c4 .L0 
     /tmp/cc8cjYtG.s:808    .text:00000000000003c4 .L0 
     /tmp/cc8cjYtG.s:809    .text:00000000000003c8 .L0 
     /tmp/cc8cjYtG.s:812    .text:00000000000003d0 .L0 
     /tmp/cc8cjYtG.s:813    .text:00000000000003d0 .L0 
     /tmp/cc8cjYtG.s:815    .text:00000000000003d4 .L0 
     /tmp/cc8cjYtG.s:817    .text:00000000000003d4 .L0 
     /tmp/cc8cjYtG.s:818    .text:00000000000003d4 .L0 
     /tmp/cc8cjYtG.s:821    .text:00000000000003dc .L0 
     /tmp/cc8cjYtG.s:822    .text:00000000000003dc .L0 
     /tmp/cc8cjYtG.s:824    .text:00000000000003e4 .L0 
     /tmp/cc8cjYtG.s:826    .text:00000000000003e8 .L0 
     /tmp/cc8cjYtG.s:827    .text:00000000000003e8 .L0 
     /tmp/cc8cjYtG.s:829    .text:00000000000003ec .L0 
GAS LISTING /tmp/cc8cjYtG.s 			page 29


     /tmp/cc8cjYtG.s:831    .text:00000000000003f0 .L0 
     /tmp/cc8cjYtG.s:841    .text:00000000000003f0 .L0 
     /tmp/cc8cjYtG.s:167    .rodata:0000000000000000 .L11
     /tmp/cc8cjYtG.s:159    .text:00000000000000c4 .L0 
     /tmp/cc8cjYtG.s:112    .text:000000000000008c .L2
     /tmp/cc8cjYtG.s:76     .text:0000000000000068 .L3
     /tmp/cc8cjYtG.s:58     .text:0000000000000044 .L4
     /tmp/cc8cjYtG.s:220    .text:00000000000000dc .L40
     /tmp/cc8cjYtG.s:229    .text:00000000000000e4 .L41
     /tmp/cc8cjYtG.s:239    .text:00000000000000f4 .L42
     /tmp/cc8cjYtG.s:246    .text:00000000000000f8 .L1
     /tmp/cc8cjYtG.s:104    .text:0000000000000084 .L5
     /tmp/cc8cjYtG.s:273    .text:0000000000000120 .L43
     /tmp/cc8cjYtG.s:441    .text:00000000000001e8 .L44
     /tmp/cc8cjYtG.s:430    .text:00000000000001e0 .L25
     /tmp/cc8cjYtG.s:504    .text:0000000000000254 .L45
     /tmp/cc8cjYtG.s:488    .text:0000000000000234 .L27
     /tmp/cc8cjYtG.s:560    .text:0000000000000298 .L46
     /tmp/cc8cjYtG.s:627    .text:00000000000002e8 .L29
     /tmp/cc8cjYtG.s:645    .text:0000000000000308 .L31
     /tmp/cc8cjYtG.s:696    .text:0000000000000340 .L32
     /tmp/cc8cjYtG.s:714    .text:0000000000000360 .L34
     /tmp/cc8cjYtG.s:757    .text:0000000000000388 .L35
     /tmp/cc8cjYtG.s:769    .text:0000000000000394 .L36
     /tmp/cc8cjYtG.s:792    .text:00000000000003c0 .L38
     /tmp/cc8cjYtG.s:309    .text:000000000000013c .L22
     /tmp/cc8cjYtG.s:338    .text:000000000000015c .L21
     /tmp/cc8cjYtG.s:358    .text:0000000000000178 .L20
     /tmp/cc8cjYtG.s:459    .text:000000000000020c .L19
     /tmp/cc8cjYtG.s:471    .text:000000000000021c .L18
     /tmp/cc8cjYtG.s:515    .text:000000000000025c .L17
     /tmp/cc8cjYtG.s:571    .text:00000000000002a0 .L16
     /tmp/cc8cjYtG.s:604    .text:00000000000002cc .L15
     /tmp/cc8cjYtG.s:650    .text:000000000000030c .L14
     /tmp/cc8cjYtG.s:671    .text:0000000000000320 .L13
     /tmp/cc8cjYtG.s:719    .text:0000000000000364 .L12
     /tmp/cc8cjYtG.s:742    .text:000000000000037c .L10
     /tmp/cc8cjYtG.s:2498   .debug_abbrev:0000000000000000 .Ldebug_abbrev0
     /tmp/cc8cjYtG.s:4262   .debug_str:0000000000000766 .LASF138
     /tmp/cc8cjYtG.s:4246   .debug_str:0000000000000707 .LASF139
     /tmp/cc8cjYtG.s:4244   .debug_str:00000000000006e9 .LASF140
     /tmp/cc8cjYtG.s:5      .text:0000000000000000 .Ltext0
     /tmp/cc8cjYtG.s:834    .text:00000000000003f0 .Letext0
     /tmp/cc8cjYtG.s:4020   .debug_line:0000000000000000 .Ldebug_line0
     /tmp/cc8cjYtG.s:4190   .debug_str:0000000000000536 .LASF0
     /tmp/cc8cjYtG.s:4204   .debug_str:00000000000005a4 .LASF1
     /tmp/cc8cjYtG.s:4172   .debug_str:0000000000000484 .LASF2
     /tmp/cc8cjYtG.s:4098   .debug_str:0000000000000243 .LASF3
     /tmp/cc8cjYtG.s:4140   .debug_str:00000000000003a8 .LASF4
     /tmp/cc8cjYtG.s:4194   .debug_str:0000000000000552 .LASF5
     /tmp/cc8cjYtG.s:4058   .debug_str:0000000000000121 .LASF6
     /tmp/cc8cjYtG.s:4092   .debug_str:000000000000021c .LASF7
     /tmp/cc8cjYtG.s:4208   .debug_str:00000000000005c4 .LASF8
     /tmp/cc8cjYtG.s:4188   .debug_str:0000000000000523 .LASF9
     /tmp/cc8cjYtG.s:4284   .debug_str:00000000000008da .LASF10
     /tmp/cc8cjYtG.s:4126   .debug_str:0000000000000334 .LASF11
     /tmp/cc8cjYtG.s:4222   .debug_str:0000000000000621 .LASF12
GAS LISTING /tmp/cc8cjYtG.s 			page 30


     /tmp/cc8cjYtG.s:4268   .debug_str:000000000000084d .LASF13
     /tmp/cc8cjYtG.s:4064   .debug_str:0000000000000159 .LASF14
     /tmp/cc8cjYtG.s:4034   .debug_str:0000000000000067 .LASF15
     /tmp/cc8cjYtG.s:4076   .debug_str:00000000000001a8 .LASF16
     /tmp/cc8cjYtG.s:4236   .debug_str:00000000000006b1 .LASF17
     /tmp/cc8cjYtG.s:4084   .debug_str:00000000000001e3 .LASF18
     /tmp/cc8cjYtG.s:4150   .debug_str:00000000000003e1 .LASF23
     /tmp/cc8cjYtG.s:4310   .debug_str:0000000000000999 .LASF19
     /tmp/cc8cjYtG.s:4300   .debug_str:0000000000000946 .LASF20
     /tmp/cc8cjYtG.s:4104   .debug_str:0000000000000257 .LASF21
     /tmp/cc8cjYtG.s:4258   .debug_str:0000000000000755 .LASF22
     /tmp/cc8cjYtG.s:4168   .debug_str:000000000000046d .LASF24
     /tmp/cc8cjYtG.s:4294   .debug_str:000000000000092b .LASF107
     /tmp/cc8cjYtG.s:4046   .debug_str:00000000000000a7 .LASF109
     /tmp/cc8cjYtG.s:4272   .debug_str:0000000000000864 .LASF25
     /tmp/cc8cjYtG.s:4056   .debug_str:00000000000000f8 .LASF27
     /tmp/cc8cjYtG.s:4206   .debug_str:00000000000005b7 .LASF26
     /tmp/cc8cjYtG.s:4288   .debug_str:00000000000008f7 .LASF28
     /tmp/cc8cjYtG.s:4088   .debug_str:00000000000001ff .LASF29
     /tmp/cc8cjYtG.s:4094   .debug_str:0000000000000223 .LASF101
     /tmp/cc8cjYtG.s:4240   .debug_str:00000000000006cd .LASF30
     /tmp/cc8cjYtG.s:4220   .debug_str:0000000000000615 .LASF31
     /tmp/cc8cjYtG.s:4040   .debug_str:0000000000000084 .LASF141
     /tmp/cc8cjYtG.s:4198   .debug_str:0000000000000587 .LASF32
     /tmp/cc8cjYtG.s:4230   .debug_str:000000000000068a .LASF33
     /tmp/cc8cjYtG.s:4276   .debug_str:0000000000000892 .LASF34
     /tmp/cc8cjYtG.s:4072   .debug_str:000000000000018d .LASF64
     /tmp/cc8cjYtG.s:4186   .debug_str:0000000000000502 .LASF66
     /tmp/cc8cjYtG.s:4144   .debug_str:00000000000003b6 .LASF35
     /tmp/cc8cjYtG.s:4096   .debug_str:000000000000023c .LASF36
     /tmp/cc8cjYtG.s:4048   .debug_str:00000000000000cb .LASF37
     /tmp/cc8cjYtG.s:4026   .debug_str:0000000000000013 .LASF38
     /tmp/cc8cjYtG.s:4154   .debug_str:00000000000003f6 .LASF39
     /tmp/cc8cjYtG.s:4054   .debug_str:00000000000000ea .LASF40
     /tmp/cc8cjYtG.s:4124   .debug_str:0000000000000325 .LASF42
     /tmp/cc8cjYtG.s:4260   .debug_str:000000000000075a .LASF41
     /tmp/cc8cjYtG.s:4156   .debug_str:0000000000000401 .LASF43
     /tmp/cc8cjYtG.s:4210   .debug_str:00000000000005d7 .LASF44
     /tmp/cc8cjYtG.s:4202   .debug_str:0000000000000592 .LASF45
     /tmp/cc8cjYtG.s:4182   .debug_str:00000000000004eb .LASF46
     /tmp/cc8cjYtG.s:4224   .debug_str:0000000000000630 .LASF47
     /tmp/cc8cjYtG.s:4068   .debug_str:0000000000000175 .LASF48
     /tmp/cc8cjYtG.s:4282   .debug_str:00000000000008c1 .LASF49
     /tmp/cc8cjYtG.s:4060   .debug_str:0000000000000128 .LASF50
     /tmp/cc8cjYtG.s:4146   .debug_str:00000000000003bb .LASF51
     /tmp/cc8cjYtG.s:4148   .debug_str:00000000000003d2 .LASF52
     /tmp/cc8cjYtG.s:4134   .debug_str:000000000000037e .LASF53
     /tmp/cc8cjYtG.s:4248   .debug_str:0000000000000713 .LASF54
     /tmp/cc8cjYtG.s:4274   .debug_str:0000000000000875 .LASF55
     /tmp/cc8cjYtG.s:4314   .debug_str:00000000000009b5 .LASF56
     /tmp/cc8cjYtG.s:4174   .debug_str:0000000000000492 .LASF57
     /tmp/cc8cjYtG.s:4044   .debug_str:0000000000000098 .LASF58
     /tmp/cc8cjYtG.s:4228   .debug_str:000000000000066b .LASF59
     /tmp/cc8cjYtG.s:4158   .debug_str:000000000000041c .LASF60
     /tmp/cc8cjYtG.s:4110   .debug_str:0000000000000272 .LASF61
     /tmp/cc8cjYtG.s:4118   .debug_str:00000000000002f4 .LASF62
     /tmp/cc8cjYtG.s:4312   .debug_str:000000000000099e .LASF63
GAS LISTING /tmp/cc8cjYtG.s 			page 31


     /tmp/cc8cjYtG.s:4270   .debug_str:000000000000085c .LASF65
     /tmp/cc8cjYtG.s:4214   .debug_str:00000000000005e7 .LASF67
     /tmp/cc8cjYtG.s:4136   .debug_str:000000000000039b .LASF68
     /tmp/cc8cjYtG.s:4022   .debug_str:0000000000000000 .LASF69
     /tmp/cc8cjYtG.s:4138   .debug_str:00000000000003a3 .LASF70
     /tmp/cc8cjYtG.s:4024   .debug_str:0000000000000009 .LASF71
     /tmp/cc8cjYtG.s:4086   .debug_str:00000000000001f9 .LASF72
     /tmp/cc8cjYtG.s:4170   .debug_str:000000000000047d .LASF73
     /tmp/cc8cjYtG.s:4028   .debug_str:0000000000000020 .LASF74
     /tmp/cc8cjYtG.s:4152   .debug_str:00000000000003ea .LASF75
     /tmp/cc8cjYtG.s:4162   .debug_str:000000000000043a .LASF76
     /tmp/cc8cjYtG.s:4032   .debug_str:0000000000000048 .LASF77
     /tmp/cc8cjYtG.s:4308   .debug_str:0000000000000991 .LASF78
     /tmp/cc8cjYtG.s:4114   .debug_str:00000000000002b7 .LASF79
     /tmp/cc8cjYtG.s:4122   .debug_str:0000000000000310 .LASF80
     /tmp/cc8cjYtG.s:4106   .debug_str:000000000000025c .LASF81
     /tmp/cc8cjYtG.s:4112   .debug_str:000000000000029b .LASF82
     /tmp/cc8cjYtG.s:4080   .debug_str:00000000000001d6 .LASF83
     /tmp/cc8cjYtG.s:4232   .debug_str:0000000000000692 .LASF84
     /tmp/cc8cjYtG.s:4036   .debug_str:0000000000000077 .LASF85
     /tmp/cc8cjYtG.s:4264   .debug_str:000000000000082a .LASF86
     /tmp/cc8cjYtG.s:4234   .debug_str:00000000000006a9 .LASF87
     /tmp/cc8cjYtG.s:4090   .debug_str:0000000000000204 .LASF88
     /tmp/cc8cjYtG.s:4292   .debug_str:0000000000000925 .LASF89
     /tmp/cc8cjYtG.s:4120   .debug_str:00000000000002fa .LASF90
     /tmp/cc8cjYtG.s:4100   .debug_str:0000000000000249 .LASF91
     /tmp/cc8cjYtG.s:4218   .debug_str:000000000000060b .LASF92
     /tmp/cc8cjYtG.s:4254   .debug_str:0000000000000738 .LASF93
     /tmp/cc8cjYtG.s:4102   .debug_str:000000000000024f .LASF94
     /tmp/cc8cjYtG.s:4050   .debug_str:00000000000000d4 .LASF95
     /tmp/cc8cjYtG.s:4242   .debug_str:00000000000006db .LASF96
     /tmp/cc8cjYtG.s:4184   .debug_str:00000000000004f7 .LASF97
     /tmp/cc8cjYtG.s:4042   .debug_str:000000000000008c .LASF98
     /tmp/cc8cjYtG.s:4178   .debug_str:00000000000004c0 .LASF99
     /tmp/cc8cjYtG.s:4066   .debug_str:0000000000000169 .LASF142
     /tmp/cc8cjYtG.s:4164   .debug_str:0000000000000442 .LASF143
     /tmp/cc8cjYtG.s:4192   .debug_str:0000000000000543 .LASF100
     /tmp/cc8cjYtG.s:4062   .debug_str:0000000000000132 .LASF102
     /tmp/cc8cjYtG.s:4280   .debug_str:00000000000008b1 .LASF103
     /tmp/cc8cjYtG.s:4226   .debug_str:000000000000064a .LASF105
     /tmp/cc8cjYtG.s:4108   .debug_str:0000000000000261 .LASF104
     /tmp/cc8cjYtG.s:4078   .debug_str:00000000000001b4 .LASF106
     /tmp/cc8cjYtG.s:4212   .debug_str:00000000000005dc .LASF108
     /tmp/cc8cjYtG.s:4030   .debug_str:000000000000002c .LASF110
     /tmp/cc8cjYtG.s:4238   .debug_str:00000000000006c7 .LASF111
     /tmp/cc8cjYtG.s:4304   .debug_str:0000000000000950 .LASF112
     /tmp/cc8cjYtG.s:4052   .debug_str:00000000000000df .LASF113
     /tmp/cc8cjYtG.s:4196   .debug_str:0000000000000564 .LASF114
     /tmp/cc8cjYtG.s:4160   .debug_str:0000000000000432 .LASF115
     /tmp/cc8cjYtG.s:4278   .debug_str:0000000000000899 .LASF116
     /tmp/cc8cjYtG.s:4132   .debug_str:0000000000000363 .LASF144
     /tmp/cc8cjYtG.s:4070   .debug_str:0000000000000180 .LASF117
     /tmp/cc8cjYtG.s:4116   .debug_str:00000000000002cf .LASF118
     /tmp/cc8cjYtG.s:4250   .debug_str:0000000000000722 .LASF119
     /tmp/cc8cjYtG.s:4306   .debug_str:0000000000000970 .LASF120
     /tmp/cc8cjYtG.s:4200   .debug_str:000000000000058c .LASF121
     /tmp/cc8cjYtG.s:4180   .debug_str:00000000000004cd .LASF122
GAS LISTING /tmp/cc8cjYtG.s 			page 32


     /tmp/cc8cjYtG.s:4266   .debug_str:0000000000000848 .LASF123
     /tmp/cc8cjYtG.s:4130   .debug_str:0000000000000351 .LASF124
     /tmp/cc8cjYtG.s:805    .text:00000000000003c4 .LFB4
     /tmp/cc8cjYtG.s:832    .text:00000000000003f0 .LFE4
     /tmp/cc8cjYtG.s:819    .text:00000000000003dc .LVL100
     /tmp/cc8cjYtG.s:4128   .debug_str:0000000000000342 .LASF125
     /tmp/cc8cjYtG.s:10     .text:0000000000000000 .LFB3
     /tmp/cc8cjYtG.s:799    .text:00000000000003c4 .LFE3
     /tmp/cc8cjYtG.s:4082   .debug_str:00000000000001dd .LASF145
     /tmp/cc8cjYtG.s:3475   .debug_loc:0000000000000000 .LLST0
     /tmp/cc8cjYtG.s:4038   .debug_str:000000000000007d .LASF126
     /tmp/cc8cjYtG.s:3530   .debug_loc:00000000000000da .LLST1
     /tmp/cc8cjYtG.s:4290   .debug_str:000000000000091d .LASF127
     /tmp/cc8cjYtG.s:3549   .debug_loc:0000000000000136 .LLST2
     /tmp/cc8cjYtG.s:4296   .debug_str:0000000000000937 .LASF128
     /tmp/cc8cjYtG.s:3596   .debug_loc:0000000000000217 .LLST3
     /tmp/cc8cjYtG.s:4012   .debug_ranges:0000000000000000 .Ldebug_ranges0
     /tmp/cc8cjYtG.s:3676   .debug_loc:0000000000000362 .LLST4
     /tmp/cc8cjYtG.s:3687   .debug_loc:0000000000000398 .LLST5
     /tmp/cc8cjYtG.s:55     .text:0000000000000040 .LBB27
     /tmp/cc8cjYtG.s:77     .text:0000000000000068 .LBE27
     /tmp/cc8cjYtG.s:3698   .debug_loc:00000000000003ce .LLST6
     /tmp/cc8cjYtG.s:278    .text:0000000000000120 .LBB32
     /tmp/cc8cjYtG.s:304    .text:0000000000000138 .LBE32
     /tmp/cc8cjYtG.s:3709   .debug_loc:0000000000000404 .LLST7
     /tmp/cc8cjYtG.s:293    .text:0000000000000130 .LVL22
     /tmp/cc8cjYtG.s:129    .text:00000000000000a8 .LBB35
     /tmp/cc8cjYtG.s:149    .text:00000000000000b4 .LBE35
     /tmp/cc8cjYtG.s:3722   .debug_loc:000000000000043c .LLST8
     /tmp/cc8cjYtG.s:315    .text:000000000000013c .LBB40
     /tmp/cc8cjYtG.s:339    .text:000000000000015c .LBE40
     /tmp/cc8cjYtG.s:3735   .debug_loc:0000000000000474 .LLST9
     /tmp/cc8cjYtG.s:3742   .debug_loc:0000000000000497 .LLST10
     /tmp/cc8cjYtG.s:323    .text:0000000000000148 .LVL26
     /tmp/cc8cjYtG.s:327    .text:0000000000000154 .LVL27
     /tmp/cc8cjYtG.s:342    .text:000000000000015c .LBB41
     /tmp/cc8cjYtG.s:359    .text:0000000000000178 .LBE41
     /tmp/cc8cjYtG.s:3749   .debug_loc:00000000000004ba .LLST11
     /tmp/cc8cjYtG.s:350    .text:0000000000000168 .LVL30
     /tmp/cc8cjYtG.s:354    .text:0000000000000174 .LVL31
     /tmp/cc8cjYtG.s:362    .text:0000000000000178 .LBB42
     /tmp/cc8cjYtG.s:460    .text:000000000000020c .LBE42
     /tmp/cc8cjYtG.s:4256   .debug_str:000000000000074e .LASF129
     /tmp/cc8cjYtG.s:3756   .debug_loc:00000000000004dd .LLST12
     /tmp/cc8cjYtG.s:4166   .debug_str:000000000000045f .LASF130
     /tmp/cc8cjYtG.s:3763   .debug_loc:0000000000000500 .LLST13
     /tmp/cc8cjYtG.s:4298   .debug_str:000000000000093c .LASF131
     /tmp/cc8cjYtG.s:3770   .debug_loc:0000000000000523 .LLST14
     /tmp/cc8cjYtG.s:4252   .debug_str:000000000000072c .LASF132
     /tmp/cc8cjYtG.s:3777   .debug_loc:0000000000000546 .LLST15
     /tmp/cc8cjYtG.s:3784   .debug_loc:0000000000000569 .LLST16
     /tmp/cc8cjYtG.s:3803   .debug_loc:00000000000005c5 .LLST17
     /tmp/cc8cjYtG.s:398    .text:00000000000001ac .LBB43
     /tmp/cc8cjYtG.s:409    .text:00000000000001b4 .LBE43
     /tmp/cc8cjYtG.s:3814   .debug_loc:00000000000005fb .LLST18
     /tmp/cc8cjYtG.s:3821   .debug_loc:000000000000061e .LLST19
     /tmp/cc8cjYtG.s:3828   .debug_loc:0000000000000641 .LLST20
GAS LISTING /tmp/cc8cjYtG.s 			page 33


     /tmp/cc8cjYtG.s:382    .text:0000000000000190 .LVL37
     /tmp/cc8cjYtG.s:386    .text:000000000000019c .LVL38
     /tmp/cc8cjYtG.s:396    .text:00000000000001ac .LVL41
     /tmp/cc8cjYtG.s:416    .text:00000000000001c8 .LVL43
     /tmp/cc8cjYtG.s:424    .text:00000000000001d8 .LVL44
     /tmp/cc8cjYtG.s:453    .text:0000000000000200 .LVL47
     /tmp/cc8cjYtG.s:455    .text:0000000000000208 .LVL48
     /tmp/cc8cjYtG.s:474    .text:000000000000021c .LBB45
     /tmp/cc8cjYtG.s:516    .text:000000000000025c .LBE45
     /tmp/cc8cjYtG.s:3835   .debug_loc:0000000000000664 .LLST21
     /tmp/cc8cjYtG.s:478    .text:0000000000000224 .LVL52
     /tmp/cc8cjYtG.s:494    .text:0000000000000240 .LVL55
     /tmp/cc8cjYtG.s:500    .text:0000000000000250 .LVL56
     /tmp/cc8cjYtG.s:519    .text:000000000000025c .LBB46
     /tmp/cc8cjYtG.s:572    .text:00000000000002a0 .LBE46
     /tmp/cc8cjYtG.s:3850   .debug_loc:00000000000006ad .LLST22
     /tmp/cc8cjYtG.s:4286   .debug_str:00000000000008ea .LASF133
     /tmp/cc8cjYtG.s:3857   .debug_loc:00000000000006d0 .LLST23
     /tmp/cc8cjYtG.s:3864   .debug_loc:00000000000006f3 .LLST24
     /tmp/cc8cjYtG.s:4074   .debug_str:000000000000019e .LASF134
     /tmp/cc8cjYtG.s:3871   .debug_loc:0000000000000716 .LLST25
     /tmp/cc8cjYtG.s:531    .text:000000000000026c .LVL61
     /tmp/cc8cjYtG.s:535    .text:0000000000000278 .LVL62
     /tmp/cc8cjYtG.s:546    .text:000000000000028c .LVL65
     /tmp/cc8cjYtG.s:575    .text:00000000000002a0 .LBB47
     /tmp/cc8cjYtG.s:605    .text:00000000000002cc .LBE47
     /tmp/cc8cjYtG.s:3878   .debug_loc:0000000000000739 .LLST26
     /tmp/cc8cjYtG.s:585    .text:00000000000002b0 .LVL70
     /tmp/cc8cjYtG.s:589    .text:00000000000002b8 .LVL71
     /tmp/cc8cjYtG.s:593    .text:00000000000002c4 .LVL72
     /tmp/cc8cjYtG.s:608    .text:00000000000002cc .LBB48
     /tmp/cc8cjYtG.s:651    .text:000000000000030c .LBE48
     /tmp/cc8cjYtG.s:3885   .debug_loc:000000000000075c .LLST27
     /tmp/cc8cjYtG.s:4142   .debug_str:00000000000003af .LASF135
     /tmp/cc8cjYtG.s:3893   .debug_loc:0000000000000781 .LLST28
     /tmp/cc8cjYtG.s:3900   .debug_loc:00000000000007a4 .LLST29
     /tmp/cc8cjYtG.s:615    .text:00000000000002dc .LVL74
     /tmp/cc8cjYtG.s:631    .text:00000000000002f0 .LVL75
     /tmp/cc8cjYtG.s:641    .text:0000000000000304 .LVL78
     /tmp/cc8cjYtG.s:654    .text:000000000000030c .LBB49
     /tmp/cc8cjYtG.s:672    .text:0000000000000320 .LBE49
     /tmp/cc8cjYtG.s:3915   .debug_loc:00000000000007ed .LLST30
     /tmp/cc8cjYtG.s:660    .text:0000000000000318 .LVL81
     /tmp/cc8cjYtG.s:675    .text:0000000000000320 .LBB50
     /tmp/cc8cjYtG.s:720    .text:0000000000000364 .LBE50
     /tmp/cc8cjYtG.s:3923   .debug_loc:0000000000000812 .LLST31
     /tmp/cc8cjYtG.s:3931   .debug_loc:0000000000000837 .LLST32
     /tmp/cc8cjYtG.s:3939   .debug_loc:000000000000085c .LLST33
     /tmp/cc8cjYtG.s:3946   .debug_loc:000000000000087f .LLST34
     /tmp/cc8cjYtG.s:684    .text:0000000000000334 .LVL83
     /tmp/cc8cjYtG.s:700    .text:0000000000000348 .LVL84
     /tmp/cc8cjYtG.s:710    .text:000000000000035c .LVL87
     /tmp/cc8cjYtG.s:723    .text:0000000000000364 .LBB51
     /tmp/cc8cjYtG.s:743    .text:000000000000037c .LBE51
     /tmp/cc8cjYtG.s:3961   .debug_loc:00000000000008c8 .LLST35
     /tmp/cc8cjYtG.s:3969   .debug_loc:00000000000008ed .LLST36
     /tmp/cc8cjYtG.s:731    .text:0000000000000374 .LVL90
GAS LISTING /tmp/cc8cjYtG.s 			page 34


     /tmp/cc8cjYtG.s:746    .text:000000000000037c .LBB52
     /tmp/cc8cjYtG.s:796    .text:00000000000003c4 .LBE52
     /tmp/cc8cjYtG.s:3977   .debug_loc:0000000000000912 .LLST37
     /tmp/cc8cjYtG.s:3984   .debug_loc:0000000000000935 .LLST38
     /tmp/cc8cjYtG.s:774    .text:00000000000003a0 .LVL94
     /tmp/cc8cjYtG.s:778    .text:00000000000003a8 .LVL95
     /tmp/cc8cjYtG.s:788    .text:00000000000003bc .LVL98
     /tmp/cc8cjYtG.s:48     .text:0000000000000038 .LVL2
     /tmp/cc8cjYtG.s:236    .text:00000000000000f0 .LVL17
     /tmp/cc8cjYtG.s:467    .text:0000000000000218 .LVL50
     /tmp/cc8cjYtG.s:4302   .debug_str:000000000000094b .LASF146
     /tmp/cc8cjYtG.s:4216   .debug_str:0000000000000604 .LASF136
     /tmp/cc8cjYtG.s:4176   .debug_str:00000000000004b1 .LASF137
     /tmp/cc8cjYtG.s:14     .text:0000000000000000 .LVL0
     /tmp/cc8cjYtG.s:245    .text:00000000000000f8 .LVL18
     /tmp/cc8cjYtG.s:272    .text:0000000000000120 .LVL19
     /tmp/cc8cjYtG.s:388    .text:00000000000001a0 .LVL39
     /tmp/cc8cjYtG.s:458    .text:000000000000020c .LVL49
     /tmp/cc8cjYtG.s:480    .text:0000000000000228 .LVL53
     /tmp/cc8cjYtG.s:514    .text:000000000000025c .LVL58
     /tmp/cc8cjYtG.s:527    .text:0000000000000264 .LVL60
     /tmp/cc8cjYtG.s:570    .text:00000000000002a0 .LVL67
     /tmp/cc8cjYtG.s:43     .text:0000000000000030 .LVL1
     /tmp/cc8cjYtG.s:366    .text:000000000000017c .LVL33
     /tmp/cc8cjYtG.s:523    .text:0000000000000260 .LVL59
     /tmp/cc8cjYtG.s:50     .text:000000000000003c .LVL3
     /tmp/cc8cjYtG.s:286    .text:0000000000000124 .LVL20
     /tmp/cc8cjYtG.s:291    .text:0000000000000128 .LVL21
     /tmp/cc8cjYtG.s:308    .text:000000000000013c .LVL24
     /tmp/cc8cjYtG.s:319    .text:0000000000000140 .LVL25
     /tmp/cc8cjYtG.s:337    .text:000000000000015c .LVL28
     /tmp/cc8cjYtG.s:346    .text:0000000000000160 .LVL29
     /tmp/cc8cjYtG.s:357    .text:0000000000000178 .LVL32
     /tmp/cc8cjYtG.s:537    .text:000000000000027c .LVL63
     /tmp/cc8cjYtG.s:579    .text:00000000000002a4 .LVL68
     /tmp/cc8cjYtG.s:583    .text:00000000000002a8 .LVL69
     /tmp/cc8cjYtG.s:603    .text:00000000000002cc .LVL73
     /tmp/cc8cjYtG.s:153    .text:00000000000000b8 .LVL12
     /tmp/cc8cjYtG.s:158    .text:00000000000000c4 .LVL13
     /tmp/cc8cjYtG.s:219    .text:00000000000000dc .LVL14
     /tmp/cc8cjYtG.s:470    .text:000000000000021c .LVL51
     /tmp/cc8cjYtG.s:649    .text:000000000000030c .LVL80
     /tmp/cc8cjYtG.s:670    .text:0000000000000320 .LVL82
     /tmp/cc8cjYtG.s:718    .text:0000000000000364 .LVL89
     /tmp/cc8cjYtG.s:741    .text:000000000000037c .LVL91
     /tmp/cc8cjYtG.s:756    .text:0000000000000388 .LVL93
     /tmp/cc8cjYtG.s:90     .text:0000000000000074 .LVL7
     /tmp/cc8cjYtG.s:111    .text:000000000000008c .LVL9
     /tmp/cc8cjYtG.s:228    .text:00000000000000e4 .LVL16
     /tmp/cc8cjYtG.s:96     .text:0000000000000078 .LVL8
     /tmp/cc8cjYtG.s:59     .text:0000000000000044 .LVL4
     /tmp/cc8cjYtG.s:73     .text:0000000000000064 .LVL5
     /tmp/cc8cjYtG.s:75     .text:0000000000000068 .LVL6
     /tmp/cc8cjYtG.s:297    .text:0000000000000134 .LVL23
     /tmp/cc8cjYtG.s:137    .text:00000000000000ac .LVL10
     /tmp/cc8cjYtG.s:142    .text:00000000000000b0 .LVL11
     /tmp/cc8cjYtG.s:370    .text:0000000000000180 .LVL34
GAS LISTING /tmp/cc8cjYtG.s 			page 35


     /tmp/cc8cjYtG.s:374    .text:0000000000000184 .LVL35
     /tmp/cc8cjYtG.s:378    .text:0000000000000188 .LVL36
     /tmp/cc8cjYtG.s:440    .text:00000000000001e8 .LVL45
     /tmp/cc8cjYtG.s:451    .text:00000000000001f8 .LVL46
     /tmp/cc8cjYtG.s:392    .text:00000000000001a4 .LVL40
     /tmp/cc8cjYtG.s:407    .text:00000000000001b4 .LVL42
     /tmp/cc8cjYtG.s:492    .text:0000000000000238 .LVL54
     /tmp/cc8cjYtG.s:503    .text:0000000000000254 .LVL57
     /tmp/cc8cjYtG.s:541    .text:0000000000000280 .LVL64
     /tmp/cc8cjYtG.s:559    .text:0000000000000298 .LVL66
     /tmp/cc8cjYtG.s:633    .text:00000000000002f4 .LVL76
     /tmp/cc8cjYtG.s:639    .text:00000000000002fc .LVL77
     /tmp/cc8cjYtG.s:644    .text:0000000000000308 .LVL79
     /tmp/cc8cjYtG.s:702    .text:000000000000034c .LVL85
     /tmp/cc8cjYtG.s:708    .text:0000000000000354 .LVL86
     /tmp/cc8cjYtG.s:713    .text:0000000000000360 .LVL88
     /tmp/cc8cjYtG.s:750    .text:0000000000000380 .LVL92
     /tmp/cc8cjYtG.s:780    .text:00000000000003ac .LVL96
     /tmp/cc8cjYtG.s:786    .text:00000000000003b4 .LVL97
     /tmp/cc8cjYtG.s:791    .text:00000000000003c0 .LVL99
     /tmp/cc8cjYtG.s:842    .debug_info:0000000000000000 .Ldebug_info0
     /tmp/cc8cjYtG.s:54     .text:0000000000000040 .LBB26
     /tmp/cc8cjYtG.s:113    .text:000000000000008c .LBE26
     /tmp/cc8cjYtG.s:222    .text:00000000000000dc .LBB28
     /tmp/cc8cjYtG.s:230    .text:00000000000000e4 .LBE28

UNDEFINED SYMBOLS
_ZN9Scheduler10GetRunningEv
_ZN9Scheduler9timerTickEP6Thread
__putc
_ZN15MemoryAllocator11GetInstanceEv
_ZN15MemoryAllocator16AllocateFragmentEm
_ZN15MemoryAllocator12FreeFragmentEPv
_ZN6Thread4initEv
_ZN6Thread5setupEPS_Pm
_ZN9Scheduler3PutEP6Thread
_ZN6Thread10getContextEv
restoreContext
_ZN9Scheduler10ThreadExitEP6Thread
_ZN9Scheduler7GetNextEv
_ZN9Scheduler5yieldEP6ThreadS1_
_ZN9Semaphore4initEj
_ZN9Semaphore5closeEv
_ZN9Semaphore4waitEP6Thread
_ZN9Semaphore6signalEv
_ZN9Semaphore5waitNEP6Threadj
_ZN9Semaphore7signalNEj
_ZN9Scheduler5sleepEP6Threadm
_ZN9Scheduler16SetupStartThreadEv
