GAS LISTING /tmp/cc5cnFrO.s 			page 1


   1              		.file	"ABI.cpp"
   2              		.option pic
   3              		.option norelax
   4              		.text
   5              	.Ltext0:
   6              		.align	2
   7              		.globl	HandleInterupt
   9              	HandleInterupt:
  10              	.LFB3:
  11              		.file 1 "src/ABI.cpp"
   1:src/ABI.cpp   **** //
   2:src/ABI.cpp   **** // Created by os on 5/6/26.
   3:src/ABI.cpp   **** //
   4:src/ABI.cpp   **** #include "./MemoryAllocator.hpp"
   5:src/ABI.cpp   **** #include "Thread.hpp"
   6:src/ABI.cpp   **** #include "syscall_c.h"
   7:src/ABI.cpp   **** #include "Scheduler.hpp"
   8:src/ABI.cpp   **** #include "Semaphore.hpp"
   9:src/ABI.cpp   **** #include "Konsole.hpp"
  10:src/ABI.cpp   **** #include "../lib/console.h"
  11:src/ABI.cpp   **** 
  12:src/ABI.cpp   **** extern "C" void restoreContext(size_t* ctx);
  13:src/ABI.cpp   **** 
  14:src/ABI.cpp   **** extern "C" void HandleInterupt(size_t* frame){
  12              		.loc 1 14 46
  13              		.cfi_startproc
  14              	.LVL0:
  15 0000 130101FB 		addi	sp,sp,-80
  16              		.cfi_def_cfa_offset 80
  17 0004 23341104 		sd	ra,72(sp)
  18 0008 23308104 		sd	s0,64(sp)
  19 000c 233C9102 		sd	s1,56(sp)
  20 0010 23382103 		sd	s2,48(sp)
  21 0014 23343103 		sd	s3,40(sp)
  22 0018 23304103 		sd	s4,32(sp)
  23 001c 233C5101 		sd	s5,24(sp)
  24 0020 23386101 		sd	s6,16(sp)
  25 0024 23347101 		sd	s7,8(sp)
  26              		.cfi_offset 1, -8
  27              		.cfi_offset 8, -16
  28              		.cfi_offset 9, -24
  29              		.cfi_offset 18, -32
  30              		.cfi_offset 19, -40
  31              		.cfi_offset 20, -48
  32              		.cfi_offset 21, -56
  33              		.cfi_offset 22, -64
  34              		.cfi_offset 23, -72
  35 0028 13040105 		addi	s0,sp,80
  36              		.cfi_def_cfa 8, 0
  37 002c 13090500 		mv	s2,a0
  15:src/ABI.cpp   ****     uint64 scause;
  38              		.loc 1 15 5
  16:src/ABI.cpp   ****     __asm__ volatile("csrr %0, scause" : "=r"(scause));
  39              		.loc 1 16 5
  40              		.loc 1 16 55 is_stmt 0
  41              	#APP
  42              	# 16 "src/ABI.cpp" 1
GAS LISTING /tmp/cc5cnFrO.s 			page 2


  17              	
  43              		csrr s3, scause
  44              	# 0 "" 2
  45              	.LVL1:
  18:src/ABI.cpp   ****     Scheduler::freeDead();
  46              		.loc 1 18 5 is_stmt 1
  47              		.loc 1 18 24 is_stmt 0
  48              	#NO_APP
  49 0034 97000000 		call	_ZN9Scheduler8freeDeadEv@plt
  49      E7800000 
  50              	.LVL2:
  19:src/ABI.cpp   **** 
  20:src/ABI.cpp   ****     KThread* current = Scheduler::GetRunning();
  51              		.loc 1 20 5 is_stmt 1
  52              		.loc 1 20 45 is_stmt 0
  53 003c 97000000 		call	_ZN9Scheduler10GetRunningEv@plt
  53      E7800000 
  54              	.LVL3:
  55 0044 93040500 		mv	s1,a0
  56              	.LVL4:
  21:src/ABI.cpp   ****     if (current != nullptr) {
  57              		.loc 1 21 5 is_stmt 1
  58              	.LBB25:
  59 0048 63080504 		beqz	a0,.L2
  60              	.LBB26:
  61              	.LBB27:
  22:src/ABI.cpp   ****         auto& ctx = current->threadContext;
  23:src/ABI.cpp   ****         for (int i = 0; i < 32; i++) ctx.x[i] = frame[i];
  62              		.loc 1 23 18 is_stmt 0
  63 004c 13070000 		li	a4,0
  64              	.L4:
  65              	.LVL5:
  66              		.loc 1 23 27 is_stmt 1 discriminator 3
  67 0050 9307F001 		li	a5,31
  68 0054 63C0E702 		bgt	a4,a5,.L3
  69              		.loc 1 23 38 discriminator 2
  70              		.loc 1 23 56 is_stmt 0 discriminator 2
  71 0058 93173700 		slli	a5,a4,3
  72 005c B306F900 		add	a3,s2,a5
  73 0060 83B60600 		ld	a3,0(a3)
  74              		.loc 1 23 47 discriminator 2
  75 0064 B387F400 		add	a5,s1,a5
  76 0068 23B8D704 		sd	a3,80(a5)
  77              		.loc 1 23 9 is_stmt 1 discriminator 2
  78 006c 1B071700 		addiw	a4,a4,1
  79              	.LVL6:
  80 0070 6FF01FFE 		j	.L4
  81              	.LVL7:
  82              	.L3:
  83              	.LBE27:
  24:src/ABI.cpp   ****         ctx.x[2] = (size_t)frame + 256;
  84              		.loc 1 24 9
  85              		.loc 1 24 34 is_stmt 0
  86 0074 93070910 		addi	a5,s2,256
  87              		.loc 1 24 18
  88 0078 23B0F406 		sd	a5,96(s1)
  25:src/ABI.cpp   **** 
GAS LISTING /tmp/cc5cnFrO.s 			page 3


  26:src/ABI.cpp   ****         size_t sepc, sstatus;
  89              		.loc 1 26 9 is_stmt 1
  27:src/ABI.cpp   ****         __asm__ volatile("csrr %0, sepc"    : "=r"(sepc));
  90              		.loc 1 27 9
  91              		.loc 1 27 58 is_stmt 0
  92              	#APP
  93              	# 27 "src/ABI.cpp" 1
  28              	        __asm__ volatile("csrr %0, sstatus" : "=r"(sstatus));
  94              		csrr a4, sepc
  95              	# 0 "" 2
  96              	.LVL8:
  97              		.loc 1 28 9 is_stmt 1
  98              		.loc 1 28 61 is_stmt 0
  99              	# 28 "src/ABI.cpp" 1
  29              	        if (scause == 8 || scause == 9) sepc += 4;
 100              		csrr a3, sstatus
 101              	# 0 "" 2
 102              	.LVL9:
 103              		.loc 1 29 9 is_stmt 1
 104              		.loc 1 29 25 is_stmt 0
 105              	#NO_APP
 106 0084 938789FF 		addi	a5,s3,-8
 107              		.loc 1 29 9
 108 0088 13061000 		li	a2,1
 109 008c 637AF606 		bleu	a5,a2,.L49
 110              	.L5:
  30:src/ABI.cpp   ****         ctx.sepc    = sepc;
 111              		.loc 1 30 9 is_stmt 1
 112              		.loc 1 30 21 is_stmt 0
 113 0090 23B8E414 		sd	a4,336(s1)
  31:src/ABI.cpp   ****         ctx.sstatus = sstatus;
 114              		.loc 1 31 9 is_stmt 1
 115              		.loc 1 31 21 is_stmt 0
 116 0094 23BCD414 		sd	a3,344(s1)
 117              	.LVL10:
 118              	.L2:
 119              	.LBE26:
 120              	.LBE25:
  32:src/ABI.cpp   ****     }
  33:src/ABI.cpp   **** 
  34:src/ABI.cpp   ****     // timer (supervisor software interrupt: MSB+LSB both 1)
  35:src/ABI.cpp   ****     if (scause == 0x8000000000000001UL) {
 121              		.loc 1 35 5 is_stmt 1
 122 0098 9307F0FF 		li	a5,-1
 123 009c 9397F703 		slli	a5,a5,63
 124 00a0 93871700 		addi	a5,a5,1
 125 00a4 6382F906 		beq	s3,a5,.L50
  36:src/ABI.cpp   ****         Scheduler::timerTick(current);
  37:src/ABI.cpp   ****         if (current) __asm__ volatile("mv a0, %0" :: "r"(current->threadContext.x[10]));
  38:src/ABI.cpp   ****         return;
  39:src/ABI.cpp   ****     }
  40:src/ABI.cpp   **** 
  41:src/ABI.cpp   ****     if (scause == 0x8000000000000009UL) {
 126              		.loc 1 41 5
 127 00a8 9307F0FF 		li	a5,-1
 128 00ac 9397F703 		slli	a5,a5,63
 129 00b0 93879700 		addi	a5,a5,9
GAS LISTING /tmp/cc5cnFrO.s 			page 4


 130 00b4 6388F906 		beq	s3,a5,.L51
  42:src/ABI.cpp   ****         Konsole::handleInterrupt();
  43:src/ABI.cpp   ****         if (current) __asm__ volatile("mv a0, %0" :: "r"(current->threadContext.x[10]));
  44:src/ABI.cpp   ****         return;
  45:src/ABI.cpp   ****     }
  46:src/ABI.cpp   **** 
  47:src/ABI.cpp   ****     if (scause != 8 && scause != 9) {
 131              		.loc 1 47 5
 132              		.loc 1 47 21 is_stmt 0
 133 00b8 938789FF 		addi	a5,s3,-8
 134              		.loc 1 47 5
 135 00bc 13071000 		li	a4,1
 136 00c0 636EF706 		bgtu	a5,a4,.L52
  48:src/ABI.cpp   ****         if ((scause >> 63) == 0 && current != nullptr) {
  49:src/ABI.cpp   ****             Scheduler::ThreadExit(current);
  50:src/ABI.cpp   ****         }
  51:src/ABI.cpp   ****         return;
  52:src/ABI.cpp   ****     }
  53:src/ABI.cpp   **** 
  54:src/ABI.cpp   ****     // ecall: advance CSR sepc past the ecall instruction
  55:src/ABI.cpp   ****     {
 137              		.loc 1 55 5 is_stmt 1
 138              	.LBB29:
  56:src/ABI.cpp   ****         uint64 sepc;
 139              		.loc 1 56 9
  57:src/ABI.cpp   ****         __asm__ volatile("csrr %0, sepc" : "=r"(sepc));
 140              		.loc 1 57 9
 141              		.loc 1 57 55 is_stmt 0
 142              	#APP
 143              	# 57 "src/ABI.cpp" 1
  58              	        __asm__ volatile("csrw sepc, %0" :: "r"(sepc + 4));
 144              		csrr a5, sepc
 145              	# 0 "" 2
 146              	.LVL11:
 147              		.loc 1 58 9 is_stmt 1
 148              		.loc 1 58 54 is_stmt 0
 149              	#NO_APP
 150 00c8 93874700 		addi	a5,a5,4
 151              	.LVL12:
 152              		.loc 1 58 59
 153              	#APP
 154              	# 58 "src/ABI.cpp" 1
  59              	    }
 155              		csrw sepc, a5
 156              	# 0 "" 2
 157              	#NO_APP
 158              	.LBE29:
  60:src/ABI.cpp   **** 
  61:src/ABI.cpp   ****     size_t code = frame[10];
 159              		.loc 1 61 5 is_stmt 1
 160              		.loc 1 61 12 is_stmt 0
 161 00d0 83370905 		ld	a5,80(s2)
 162              	.LVL13:
  62:src/ABI.cpp   ****     switch (code) {
 163              		.loc 1 62 5 is_stmt 1
 164              	.LBB30:
 165 00d4 13072004 		li	a4,66
GAS LISTING /tmp/cc5cnFrO.s 			page 5


 166 00d8 6362F70A 		bgtu	a5,a4,.L11
 167 00dc 638A0706 		beqz	a5,.L1
 168 00e0 6368F706 		bgtu	a5,a4,.L1
 169 00e4 93972700 		slli	a5,a5,2
 170              	.LVL14:
 171 00e8 17070000 		lla	a4,.L13
 171      13070700 
 172 00f0 B387E700 		add	a5,a5,a4
 173 00f4 83A70700 		lw	a5,0(a5)
 174 00f8 B387E700 		add	a5,a5,a4
 175 00fc 67800700 		jr	a5
 176              		.section	.rodata
 177              		.align	2
 178              		.align	2
 179              	.L13:
 180 0000 00000000 		.word	.L1-.L13
 181 0004 00000000 		.word	.L26-.L13
 182 0008 00000000 		.word	.L25-.L13
 183 000c 00000000 		.word	.L1-.L13
 184 0010 00000000 		.word	.L1-.L13
 185 0014 00000000 		.word	.L1-.L13
 186 0018 00000000 		.word	.L1-.L13
 187 001c 00000000 		.word	.L1-.L13
 188 0020 00000000 		.word	.L1-.L13
 189 0024 00000000 		.word	.L1-.L13
 190 0028 00000000 		.word	.L1-.L13
 191 002c 00000000 		.word	.L1-.L13
 192 0030 00000000 		.word	.L1-.L13
 193 0034 00000000 		.word	.L1-.L13
 194 0038 00000000 		.word	.L1-.L13
 195 003c 00000000 		.word	.L1-.L13
 196 0040 00000000 		.word	.L1-.L13
 197 0044 00000000 		.word	.L24-.L13
 198 0048 00000000 		.word	.L23-.L13
 199 004c 00000000 		.word	.L22-.L13
 200 0050 00000000 		.word	.L1-.L13
 201 0054 00000000 		.word	.L1-.L13
 202 0058 00000000 		.word	.L1-.L13
 203 005c 00000000 		.word	.L1-.L13
 204 0060 00000000 		.word	.L1-.L13
 205 0064 00000000 		.word	.L1-.L13
 206 0068 00000000 		.word	.L1-.L13
 207 006c 00000000 		.word	.L1-.L13
 208 0070 00000000 		.word	.L1-.L13
 209 0074 00000000 		.word	.L1-.L13
 210 0078 00000000 		.word	.L1-.L13
 211 007c 00000000 		.word	.L1-.L13
 212 0080 00000000 		.word	.L1-.L13
 213 0084 00000000 		.word	.L21-.L13
 214 0088 00000000 		.word	.L20-.L13
 215 008c 00000000 		.word	.L19-.L13
 216 0090 00000000 		.word	.L18-.L13
 217 0094 00000000 		.word	.L17-.L13
 218 0098 00000000 		.word	.L16-.L13
 219 009c 00000000 		.word	.L1-.L13
 220 00a0 00000000 		.word	.L1-.L13
 221 00a4 00000000 		.word	.L1-.L13
GAS LISTING /tmp/cc5cnFrO.s 			page 6


 222 00a8 00000000 		.word	.L1-.L13
 223 00ac 00000000 		.word	.L1-.L13
 224 00b0 00000000 		.word	.L1-.L13
 225 00b4 00000000 		.word	.L1-.L13
 226 00b8 00000000 		.word	.L1-.L13
 227 00bc 00000000 		.word	.L1-.L13
 228 00c0 00000000 		.word	.L1-.L13
 229 00c4 00000000 		.word	.L15-.L13
 230 00c8 00000000 		.word	.L1-.L13
 231 00cc 00000000 		.word	.L1-.L13
 232 00d0 00000000 		.word	.L1-.L13
 233 00d4 00000000 		.word	.L1-.L13
 234 00d8 00000000 		.word	.L1-.L13
 235 00dc 00000000 		.word	.L1-.L13
 236 00e0 00000000 		.word	.L1-.L13
 237 00e4 00000000 		.word	.L1-.L13
 238 00e8 00000000 		.word	.L1-.L13
 239 00ec 00000000 		.word	.L1-.L13
 240 00f0 00000000 		.word	.L1-.L13
 241 00f4 00000000 		.word	.L1-.L13
 242 00f8 00000000 		.word	.L1-.L13
 243 00fc 00000000 		.word	.L1-.L13
 244 0100 00000000 		.word	.L1-.L13
 245 0104 00000000 		.word	.L14-.L13
 246 0108 00000000 		.word	.L12-.L13
 247              		.text
 248              	.LVL15:
 249              	.L49:
 250              	.LBE30:
 251              	.LBB50:
 252              	.LBB28:
  29:src/ABI.cpp   ****         ctx.sepc    = sepc;
 253              		.loc 1 29 41 discriminator 1
  29:src/ABI.cpp   ****         ctx.sepc    = sepc;
 254              		.loc 1 29 46 is_stmt 0 discriminator 1
 255 0100 13074700 		addi	a4,a4,4
 256              	.LVL16:
 257 0104 6FF0DFF8 		j	.L5
 258              	.LVL17:
 259              	.L50:
 260              	.LBE28:
 261              	.LBE50:
  36:src/ABI.cpp   ****         if (current) __asm__ volatile("mv a0, %0" :: "r"(current->threadContext.x[10]));
 262              		.loc 1 36 9 is_stmt 1
  36:src/ABI.cpp   ****         if (current) __asm__ volatile("mv a0, %0" :: "r"(current->threadContext.x[10]));
 263              		.loc 1 36 29 is_stmt 0
 264 0108 13850400 		mv	a0,s1
 265 010c 97000000 		call	_ZN9Scheduler9timerTickEP7KThread@plt
 265      E7800000 
 266              	.LVL18:
  37:src/ABI.cpp   ****         return;
 267              		.loc 1 37 9 is_stmt 1
 268 0114 638E0402 		beqz	s1,.L1
  37:src/ABI.cpp   ****         return;
 269              		.loc 1 37 22 discriminator 1
  37:src/ABI.cpp   ****         return;
 270              		.loc 1 37 85 is_stmt 0 discriminator 1
GAS LISTING /tmp/cc5cnFrO.s 			page 7


 271 0118 83B7040A 		ld	a5,160(s1)
  37:src/ABI.cpp   ****         return;
 272              		.loc 1 37 88 discriminator 1
 273              	#APP
 274              	# 37 "src/ABI.cpp" 1
 275              		mv a0, a5
 276              	# 0 "" 2
 277              	#NO_APP
 278 0120 6F000003 		j	.L1
 279              	.L51:
  42:src/ABI.cpp   ****         if (current) __asm__ volatile("mv a0, %0" :: "r"(current->threadContext.x[10]));
 280              		.loc 1 42 9 is_stmt 1
  42:src/ABI.cpp   ****         if (current) __asm__ volatile("mv a0, %0" :: "r"(current->threadContext.x[10]));
 281              		.loc 1 42 33 is_stmt 0
 282 0124 97000000 		call	_ZN7Konsole15handleInterruptEv@plt
 282      E7800000 
 283              	.LVL19:
  43:src/ABI.cpp   ****         return;
 284              		.loc 1 43 9 is_stmt 1
 285 012c 63820402 		beqz	s1,.L1
  43:src/ABI.cpp   ****         return;
 286              		.loc 1 43 22 discriminator 1
  43:src/ABI.cpp   ****         return;
 287              		.loc 1 43 85 is_stmt 0 discriminator 1
 288 0130 83B7040A 		ld	a5,160(s1)
  43:src/ABI.cpp   ****         return;
 289              		.loc 1 43 88 discriminator 1
 290              	#APP
 291              	# 43 "src/ABI.cpp" 1
 292              		mv a0, a5
 293              	# 0 "" 2
 294              	#NO_APP
 295 0138 6F008001 		j	.L1
 296              	.L52:
  48:src/ABI.cpp   ****             Scheduler::ThreadExit(current);
 297              		.loc 1 48 9 is_stmt 1
 298 013c 63CA0900 		bltz	s3,.L1
  48:src/ABI.cpp   ****             Scheduler::ThreadExit(current);
 299              		.loc 1 48 33 is_stmt 0 discriminator 1
 300 0140 63880400 		beqz	s1,.L1
  49:src/ABI.cpp   ****         }
 301              		.loc 1 49 13 is_stmt 1
  49:src/ABI.cpp   ****         }
 302              		.loc 1 49 34 is_stmt 0
 303 0144 13850400 		mv	a0,s1
 304 0148 97000000 		call	_ZN9Scheduler10ThreadExitEP7KThread@plt
 304      E7800000 
 305              	.LVL20:
  51:src/ABI.cpp   ****     }
 306              		.loc 1 51 9 is_stmt 1
 307              	.L1:
  63:src/ABI.cpp   ****         case 0x01: {
  64:src/ABI.cpp   ****             size_t size = frame[11];
  65:src/ABI.cpp   ****             void* ptr = MemoryAllocator::GetInstance().AllocateFragment(size);
  66:src/ABI.cpp   ****             __asm__ volatile("mv a0,%[res]"::[res]"r"(ptr));
  67:src/ABI.cpp   ****             break;
  68:src/ABI.cpp   ****         }
GAS LISTING /tmp/cc5cnFrO.s 			page 8


  69:src/ABI.cpp   ****         case 0x02: {
  70:src/ABI.cpp   ****             void* ptr = (void*)frame[11];
  71:src/ABI.cpp   ****             MemoryAllocator::GetInstance().FreeFragment(ptr);
  72:src/ABI.cpp   ****             break;
  73:src/ABI.cpp   ****         }
  74:src/ABI.cpp   ****         case 0x11: {
  75:src/ABI.cpp   ****             thread_t* handle             = reinterpret_cast<thread_t*>(frame[11]);
  76:src/ABI.cpp   ****             void (*start_routine)(void*) = reinterpret_cast<void(*)(void*)>(frame[12]);
  77:src/ABI.cpp   ****             void* threadArg              = reinterpret_cast<void*>(frame[13]);
  78:src/ABI.cpp   ****             size_t* stack_space          = reinterpret_cast<size_t*>(frame[14]);
  79:src/ABI.cpp   **** 
  80:src/ABI.cpp   ****             void* mem = MemoryAllocator::GetInstance().AllocateFragment(sizeof(KThread));
  81:src/ABI.cpp   ****             if (!mem) {
  82:src/ABI.cpp   ****                 if (current) {
  83:src/ABI.cpp   ****                     current->threadContext.x[10] = (size_t)-1;
  84:src/ABI.cpp   ****                     restoreContext(current->getContext());
  85:src/ABI.cpp   ****                 }
  86:src/ABI.cpp   ****                 return;
  87:src/ABI.cpp   ****             }
  88:src/ABI.cpp   ****             KThread* t = reinterpret_cast<KThread*>(mem);
  89:src/ABI.cpp   ****             t->init();
  90:src/ABI.cpp   ****             t->setBody(start_routine, threadArg);
  91:src/ABI.cpp   ****             t->setup(current, stack_space);
  92:src/ABI.cpp   ****             t->stackBase = reinterpret_cast<void*>(frame[15]);
  93:src/ABI.cpp   **** 
  94:src/ABI.cpp   ****             *handle = reinterpret_cast<thread_t>(t);
  95:src/ABI.cpp   ****             Scheduler::Put(t);
  96:src/ABI.cpp   ****             if (current) current->threadContext.x[10] = 0;
  97:src/ABI.cpp   ****             __asm__ volatile("li a0, 0");
  98:src/ABI.cpp   ****             break;
  99:src/ABI.cpp   ****         }
 100:src/ABI.cpp   ****         case 0x12: {
 101:src/ABI.cpp   ****             Scheduler::ThreadExit(current);
 102:src/ABI.cpp   ****             break;
 103:src/ABI.cpp   ****         }
 104:src/ABI.cpp   ****         case 0x13: {
 105:src/ABI.cpp   ****             KThread* next = Scheduler::GetNext();
 106:src/ABI.cpp   ****             if (next == nullptr) {
 107:src/ABI.cpp   ****                 __asm__ volatile("li a0, 0");
 108:src/ABI.cpp   ****                 break;
 109:src/ABI.cpp   ****             }
 110:src/ABI.cpp   ****             if (current) current->threadContext.x[10] = 0;
 111:src/ABI.cpp   ****             Scheduler::Put(current);
 112:src/ABI.cpp   ****             Scheduler::yield(current, next);
 113:src/ABI.cpp   ****             break;
 114:src/ABI.cpp   ****         }
 115:src/ABI.cpp   ****         case 0x21: {
 116:src/ABI.cpp   ****             sem_t* handle = reinterpret_cast<sem_t*>(frame[11]);
 117:src/ABI.cpp   ****             unsigned initialValue = (unsigned)frame[12];
 118:src/ABI.cpp   ****             void* mem = MemoryAllocator::GetInstance().AllocateFragment(sizeof(KSemaphore));
 119:src/ABI.cpp   ****             if (!mem) { __asm__ volatile("li a0, -1"); break; }
 120:src/ABI.cpp   ****             KSemaphore* semaphore = reinterpret_cast<KSemaphore*>(mem);
 121:src/ABI.cpp   ****             semaphore->init(initialValue);
 122:src/ABI.cpp   ****             *handle = reinterpret_cast<sem_t>(semaphore);
 123:src/ABI.cpp   ****             __asm__ volatile("li a0, 0");
 124:src/ABI.cpp   ****             break;
 125:src/ABI.cpp   ****         }
GAS LISTING /tmp/cc5cnFrO.s 			page 9


 126:src/ABI.cpp   ****         case 0x22: {
 127:src/ABI.cpp   ****             KSemaphore* semaphore = reinterpret_cast<KSemaphore*>(frame[11]);
 128:src/ABI.cpp   ****             semaphore->close();
 129:src/ABI.cpp   ****             MemoryAllocator::GetInstance().FreeFragment(semaphore);
 130:src/ABI.cpp   ****             __asm__ volatile("li a0, 0");
 131:src/ABI.cpp   ****             break;
 132:src/ABI.cpp   ****         }
 133:src/ABI.cpp   ****         case 0x23: {
 134:src/ABI.cpp   ****             KSemaphore* semaphore = reinterpret_cast<KSemaphore*>(frame[11]);
 135:src/ABI.cpp   ****             int result = semaphore->wait(current);
 136:src/ABI.cpp   ****             if (result <= 0) { __asm__ volatile("mv a0, %0" :: "r"((size_t)result)); break; }
 137:src/ABI.cpp   ****             KThread* next = Scheduler::GetNext();
 138:src/ABI.cpp   ****             if (next == nullptr) { while(true){} }
 139:src/ABI.cpp   ****             Scheduler::yield(current, next);
 140:src/ABI.cpp   ****             break;
 141:src/ABI.cpp   ****         }
 142:src/ABI.cpp   ****         case 0x24: {
 143:src/ABI.cpp   ****             KSemaphore* semaphore = reinterpret_cast<KSemaphore*>(frame[11]);
 144:src/ABI.cpp   ****             semaphore->signal();
 145:src/ABI.cpp   ****             __asm__ volatile("li a0, 0");
 146:src/ABI.cpp   ****             break;
 147:src/ABI.cpp   ****         }
 148:src/ABI.cpp   ****         case 0x25: {
 149:src/ABI.cpp   ****             KSemaphore* semaphore = reinterpret_cast<KSemaphore*>(frame[11]);
 150:src/ABI.cpp   ****             unsigned n = (unsigned)frame[12];
 151:src/ABI.cpp   ****             int result = semaphore->waitN(current, n);
 152:src/ABI.cpp   ****             if (result <= 0) { __asm__ volatile("mv a0, %0" :: "r"((size_t)result)); break; }
 153:src/ABI.cpp   ****             KThread* next = Scheduler::GetNext();
 154:src/ABI.cpp   ****             if (next == nullptr) { while(true){} }
 155:src/ABI.cpp   ****             Scheduler::yield(current, next);
 156:src/ABI.cpp   ****             break;
 157:src/ABI.cpp   ****         }
 158:src/ABI.cpp   ****         case 0x26: {
 159:src/ABI.cpp   ****             KSemaphore* semaphore = reinterpret_cast<KSemaphore*>(frame[11]);
 160:src/ABI.cpp   ****             unsigned n = (unsigned)frame[12];
 161:src/ABI.cpp   ****             semaphore->signalN(n);
 162:src/ABI.cpp   ****             __asm__ volatile("li a0, 0");
 163:src/ABI.cpp   ****             break;
 164:src/ABI.cpp   ****         }
 165:src/ABI.cpp   **** 
 166:src/ABI.cpp   ****         case 0x31: {
 167:src/ABI.cpp   ****             time_t dur = (time_t)frame[11];
 168:src/ABI.cpp   ****             if (current) current->threadContext.x[10] = 0;
 169:src/ABI.cpp   ****             if (dur == 0) { __asm__ volatile("li a0, 0"); break; }
 170:src/ABI.cpp   ****             Scheduler::sleep(current, dur);
 171:src/ABI.cpp   ****             KThread* next = Scheduler::GetNext();
 172:src/ABI.cpp   ****             if (next == nullptr) { while(true){} }
 173:src/ABI.cpp   ****             Scheduler::yield(current, next);
 174:src/ABI.cpp   ****             break;
 175:src/ABI.cpp   ****         }
 176:src/ABI.cpp   ****         case 0x41: {
 177:src/ABI.cpp   ****             int result = Konsole::getcKernel(current);
 178:src/ABI.cpp   ****             if (result == -2) {
 179:src/ABI.cpp   ****                 KThread* next = Scheduler::GetNext();
 180:src/ABI.cpp   ****                 if (next == nullptr) { while(true){} }
 181:src/ABI.cpp   ****                 Scheduler::yield(current, next);
 182:src/ABI.cpp   ****             } else {
GAS LISTING /tmp/cc5cnFrO.s 			page 10


 183:src/ABI.cpp   ****                 __asm__ volatile("mv a0, %0" :: "r"((size_t)(unsigned char)result));
 184:src/ABI.cpp   ****             }
 185:src/ABI.cpp   ****             break;
 186:src/ABI.cpp   ****         }
 187:src/ABI.cpp   ****         case 0x42: {
 188:src/ABI.cpp   ****             char c = (char)frame[11];
 189:src/ABI.cpp   ****             int result = Konsole::putcKernel(current, c);
 190:src/ABI.cpp   ****             __asm__ volatile("mv a0, %0" :: "r"((size_t)result));
 191:src/ABI.cpp   ****             break;
 192:src/ABI.cpp   ****         }
 193:src/ABI.cpp   ****         case 0xFF: {
 194:src/ABI.cpp   ****             *((volatile uint32*)0x100000UL) = 0x5555;
 195:src/ABI.cpp   ****             while (true) {}
 196:src/ABI.cpp   ****             break;
 197:src/ABI.cpp   ****         }
 198:src/ABI.cpp   ****         default: {
 199:src/ABI.cpp   ****             break;
 200:src/ABI.cpp   ****         }
 201:src/ABI.cpp   ****     }
 202:src/ABI.cpp   ****     return;
 203:src/ABI.cpp   **** }
 308              		.loc 1 203 1 is_stmt 0
 309 0150 83308104 		ld	ra,72(sp)
 310              		.cfi_remember_state
 311              		.cfi_restore 1
 312 0154 03340104 		ld	s0,64(sp)
 313              		.cfi_restore 8
 314              		.cfi_def_cfa 2, 80
 315 0158 83348103 		ld	s1,56(sp)
 316              		.cfi_restore 9
 317 015c 03390103 		ld	s2,48(sp)
 318              		.cfi_restore 18
 319 0160 83398102 		ld	s3,40(sp)
 320              		.cfi_restore 19
 321 0164 033A0102 		ld	s4,32(sp)
 322              		.cfi_restore 20
 323 0168 833A8101 		ld	s5,24(sp)
 324              		.cfi_restore 21
 325 016c 033B0101 		ld	s6,16(sp)
 326              		.cfi_restore 22
 327 0170 833B8100 		ld	s7,8(sp)
 328              		.cfi_restore 23
 329 0174 13010105 		addi	sp,sp,80
 330              		.cfi_def_cfa_offset 0
 331 0178 67800000 		jr	ra
 332              	.LVL21:
 333              	.L11:
 334              		.cfi_restore_state
 335              	.LBB51:
  62:src/ABI.cpp   ****         case 0x01: {
 336              		.loc 1 62 5
 337 017c 1307F00F 		li	a4,255
 338 0180 E398E7FC 		bne	a5,a4,.L1
 339              	.LBB31:
 193:src/ABI.cpp   ****             *((volatile uint32*)0x100000UL) = 0x5555;
 340              		.loc 1 193 9 is_stmt 1
 193:src/ABI.cpp   ****             *((volatile uint32*)0x100000UL) = 0x5555;
GAS LISTING /tmp/cc5cnFrO.s 			page 11


 341              		.loc 1 193 20
 194:src/ABI.cpp   ****             while (true) {}
 342              		.loc 1 194 13
 194:src/ABI.cpp   ****             while (true) {}
 343              		.loc 1 194 45 is_stmt 0
 344 0184 37071000 		li	a4,1048576
 345 0188 B7570000 		li	a5,20480
 346              	.LVL22:
 347 018c 9B875755 		addiw	a5,a5,1365
 348 0190 2320F700 		sw	a5,0(a4)
 349              	.LVL23:
 350              	.L47:
 195:src/ABI.cpp   ****             break;
 351              		.loc 1 195 13 is_stmt 1 discriminator 6
 195:src/ABI.cpp   ****             break;
 352              		.loc 1 195 13 discriminator 6
 353 0194 6F000000 		j	.L47
 354              	.LVL24:
 355              	.L26:
  63:src/ABI.cpp   ****             size_t size = frame[11];
 356              		.loc 1 63 9
  63:src/ABI.cpp   ****             size_t size = frame[11];
 357              		.loc 1 63 20
 358              	.LBB32:
  64:src/ABI.cpp   ****             void* ptr = MemoryAllocator::GetInstance().AllocateFragment(size);
 359              		.loc 1 64 13
  64:src/ABI.cpp   ****             void* ptr = MemoryAllocator::GetInstance().AllocateFragment(size);
 360              		.loc 1 64 20 is_stmt 0
 361 0198 83348905 		ld	s1,88(s2)
 362              	.LVL25:
  65:src/ABI.cpp   ****             __asm__ volatile("mv a0,%[res]"::[res]"r"(ptr));
 363              		.loc 1 65 13 is_stmt 1
  65:src/ABI.cpp   ****             __asm__ volatile("mv a0,%[res]"::[res]"r"(ptr));
 364              		.loc 1 65 54 is_stmt 0
 365 019c 97000000 		call	_ZN15MemoryAllocator11GetInstanceEv@plt
 365      E7800000 
 366              	.LVL26:
  65:src/ABI.cpp   ****             __asm__ volatile("mv a0,%[res]"::[res]"r"(ptr));
 367              		.loc 1 65 72
 368 01a4 93850400 		mv	a1,s1
 369 01a8 97000000 		call	_ZN15MemoryAllocator16AllocateFragmentEm@plt
 369      E7800000 
 370              	.LVL27:
  66:src/ABI.cpp   ****             break;
 371              		.loc 1 66 13 is_stmt 1
  66:src/ABI.cpp   ****             break;
 372              		.loc 1 66 60 is_stmt 0
 373              	#APP
 374              	# 66 "src/ABI.cpp" 1
  67:src/ABI.cpp   ****         }
 375              		mv a0,a0
 376              	# 0 "" 2
 377              		.loc 1 67 13 is_stmt 1
 378              	#NO_APP
 379 01b4 6FF0DFF9 		j	.L1
 380              	.LVL28:
 381              	.L25:
GAS LISTING /tmp/cc5cnFrO.s 			page 12


 382              	.LBE32:
  69:src/ABI.cpp   ****             void* ptr = (void*)frame[11];
 383              		.loc 1 69 9
  69:src/ABI.cpp   ****             void* ptr = (void*)frame[11];
 384              		.loc 1 69 20
 385              	.LBB33:
  70:src/ABI.cpp   ****             MemoryAllocator::GetInstance().FreeFragment(ptr);
 386              		.loc 1 70 13
  70:src/ABI.cpp   ****             MemoryAllocator::GetInstance().FreeFragment(ptr);
 387              		.loc 1 70 40 is_stmt 0
 388 01b8 83348905 		ld	s1,88(s2)
 389              	.LVL29:
  71:src/ABI.cpp   ****             break;
 390              		.loc 1 71 13 is_stmt 1
  71:src/ABI.cpp   ****             break;
 391              		.loc 1 71 42 is_stmt 0
 392 01bc 97000000 		call	_ZN15MemoryAllocator11GetInstanceEv@plt
 392      E7800000 
 393              	.LVL30:
  71:src/ABI.cpp   ****             break;
 394              		.loc 1 71 56
 395 01c4 93850400 		mv	a1,s1
 396 01c8 97000000 		call	_ZN15MemoryAllocator12FreeFragmentEPv@plt
 396      E7800000 
 397              	.LVL31:
  72:src/ABI.cpp   ****         }
 398              		.loc 1 72 13 is_stmt 1
 399 01d0 6FF01FF8 		j	.L1
 400              	.LVL32:
 401              	.L24:
 402              	.LBE33:
  74:src/ABI.cpp   ****             thread_t* handle             = reinterpret_cast<thread_t*>(frame[11]);
 403              		.loc 1 74 9
  74:src/ABI.cpp   ****             thread_t* handle             = reinterpret_cast<thread_t*>(frame[11]);
 404              		.loc 1 74 20
 405              	.LBB34:
  75:src/ABI.cpp   ****             void (*start_routine)(void*) = reinterpret_cast<void(*)(void*)>(frame[12]);
 406              		.loc 1 75 13
  75:src/ABI.cpp   ****             void (*start_routine)(void*) = reinterpret_cast<void(*)(void*)>(frame[12]);
 407              		.loc 1 75 80 is_stmt 0
 408 01d4 033A8905 		ld	s4,88(s2)
 409              	.LVL33:
  76:src/ABI.cpp   ****             void* threadArg              = reinterpret_cast<void*>(frame[13]);
 410              		.loc 1 76 13 is_stmt 1
  76:src/ABI.cpp   ****             void* threadArg              = reinterpret_cast<void*>(frame[13]);
 411              		.loc 1 76 85 is_stmt 0
 412 01d8 033B0906 		ld	s6,96(s2)
 413              	.LVL34:
  77:src/ABI.cpp   ****             size_t* stack_space          = reinterpret_cast<size_t*>(frame[14]);
 414              		.loc 1 77 13 is_stmt 1
  77:src/ABI.cpp   ****             size_t* stack_space          = reinterpret_cast<size_t*>(frame[14]);
 415              		.loc 1 77 76 is_stmt 0
 416 01dc 833A8906 		ld	s5,104(s2)
 417              	.LVL35:
  78:src/ABI.cpp   **** 
 418              		.loc 1 78 13 is_stmt 1
  78:src/ABI.cpp   **** 
GAS LISTING /tmp/cc5cnFrO.s 			page 13


 419              		.loc 1 78 78 is_stmt 0
 420 01e0 833B0907 		ld	s7,112(s2)
 421              	.LVL36:
  80:src/ABI.cpp   ****             if (!mem) {
 422              		.loc 1 80 13 is_stmt 1
  80:src/ABI.cpp   ****             if (!mem) {
 423              		.loc 1 80 54 is_stmt 0
 424 01e4 97000000 		call	_ZN15MemoryAllocator11GetInstanceEv@plt
 424      E7800000 
 425              	.LVL37:
  80:src/ABI.cpp   ****             if (!mem) {
 426              		.loc 1 80 72
 427 01ec 93058016 		li	a1,360
 428 01f0 97000000 		call	_ZN15MemoryAllocator16AllocateFragmentEm@plt
 428      E7800000 
 429              	.LVL38:
 430 01f8 93090500 		mv	s3,a0
 431              	.LVL39:
  81:src/ABI.cpp   ****                 if (current) {
 432              		.loc 1 81 13 is_stmt 1
 433 01fc 63080504 		beqz	a0,.L53
  88:src/ABI.cpp   ****             t->init();
 434              		.loc 1 88 13
 435              	.LVL40:
  89:src/ABI.cpp   ****             t->setBody(start_routine, threadArg);
 436              		.loc 1 89 13
  89:src/ABI.cpp   ****             t->setBody(start_routine, threadArg);
 437              		.loc 1 89 20 is_stmt 0
 438 0200 97000000 		call	_ZN7KThread4initEv@plt
 438      E7800000 
 439              	.LVL41:
  90:src/ABI.cpp   ****             t->setup(current, stack_space);
 440              		.loc 1 90 13 is_stmt 1
 441              	.LBB35:
 442              	.LBB36:
 443              		.file 2 "src/Thread.hpp"
   1:src/Thread.hpp **** //
   2:src/Thread.hpp **** // Created by os on 6/10/26.
   3:src/Thread.hpp **** //
   4:src/Thread.hpp **** 
   5:src/Thread.hpp **** #ifndef OSPROJEKAT_THREAD_H
   6:src/Thread.hpp **** #define OSPROJEKAT_THREAD_H
   7:src/Thread.hpp **** 
   8:src/Thread.hpp **** #include "../lib/hw.h"
   9:src/Thread.hpp **** struct Context {
  10:src/Thread.hpp ****     size_t x[32];    // x0-x31, offsets 0x00-0xF8
  11:src/Thread.hpp ****     size_t sepc;     // offset 0x100
  12:src/Thread.hpp ****     size_t sstatus;  // offset 0x108
  13:src/Thread.hpp ****     size_t pc;
  14:src/Thread.hpp **** };
  15:src/Thread.hpp **** 
  16:src/Thread.hpp **** class KThread{
  17:src/Thread.hpp ****     friend class Scheduler;
  18:src/Thread.hpp ****     friend class KSemaphore;
  19:src/Thread.hpp **** protected:
  20:src/Thread.hpp ****     static void threadTrampoline(KThread* t);
  21:src/Thread.hpp ****     void (*body)(void*);
GAS LISTING /tmp/cc5cnFrO.s 			page 14


  22:src/Thread.hpp ****     void* arg;
  23:src/Thread.hpp ****     KThread* parent;
  24:src/Thread.hpp **** 
  25:src/Thread.hpp ****     KThread* prev;
  26:src/Thread.hpp ****     KThread* next;
  27:src/Thread.hpp ****     size_t* stackPtr;
  28:src/Thread.hpp ****     size_t* supervisorSp;
  29:src/Thread.hpp ****     time_t sleepDelta;
  30:src/Thread.hpp ****     uint8  priority;
  31:src/Thread.hpp **** public:
  32:src/Thread.hpp ****     void* stackBase;
  33:src/Thread.hpp ****     Context threadContext;
  34:src/Thread.hpp ****     KThread();
  35:src/Thread.hpp ****     void copyContext(size_t* ctx);
  36:src/Thread.hpp ****     void init();
  37:src/Thread.hpp ****     size_t* getStackTop() { return stackPtr; }
  38:src/Thread.hpp ****     size_t* getContext();
  39:src/Thread.hpp ****     KThread* getParent() { return parent; }
  40:src/Thread.hpp ****     KThread* getNextInQueue();
  41:src/Thread.hpp ****     KThread* getPrevInQueue();
  42:src/Thread.hpp ****     void setNextInQueue(KThread* next);
  43:src/Thread.hpp ****     void setPrevInQueue(KThread* prev);
  44:src/Thread.hpp ****     void setNextAndPrevInQueue(KThread* next, KThread* prev);
  45:src/Thread.hpp ****     void setup(KThread* parentThread, size_t* stack_top);
  46:src/Thread.hpp ****     void setBody(void (*b)(void*), void* a) { body = b; arg = a; }
 444              		.loc 2 46 47
 445              		.loc 2 46 52 is_stmt 0
 446 0208 23B06901 		sd	s6,0(s3)
 447              		.loc 2 46 57 is_stmt 1
 448              		.loc 2 46 61 is_stmt 0
 449 020c 23B45901 		sd	s5,8(s3)
 450              	.LVL42:
 451              	.LBE36:
 452              	.LBE35:
  91:src/ABI.cpp   ****             t->stackBase = reinterpret_cast<void*>(frame[15]);
 453              		.loc 1 91 13 is_stmt 1
  91:src/ABI.cpp   ****             t->stackBase = reinterpret_cast<void*>(frame[15]);
 454              		.loc 1 91 21 is_stmt 0
 455 0210 13860B00 		mv	a2,s7
 456 0214 93850400 		mv	a1,s1
 457 0218 13850900 		mv	a0,s3
 458 021c 97000000 		call	_ZN7KThread5setupEPS_Pm@plt
 458      E7800000 
 459              	.LVL43:
  92:src/ABI.cpp   **** 
 460              		.loc 1 92 13 is_stmt 1
  92:src/ABI.cpp   **** 
 461              		.loc 1 92 60 is_stmt 0
 462 0224 83378907 		ld	a5,120(s2)
  92:src/ABI.cpp   **** 
 463              		.loc 1 92 26
 464 0228 23B4F904 		sd	a5,72(s3)
  94:src/ABI.cpp   ****             Scheduler::Put(t);
 465              		.loc 1 94 13 is_stmt 1
  94:src/ABI.cpp   ****             Scheduler::Put(t);
 466              		.loc 1 94 21 is_stmt 0
 467 022c 23303A01 		sd	s3,0(s4)
GAS LISTING /tmp/cc5cnFrO.s 			page 15


  95:src/ABI.cpp   ****             if (current) current->threadContext.x[10] = 0;
 468              		.loc 1 95 13 is_stmt 1
  95:src/ABI.cpp   ****             if (current) current->threadContext.x[10] = 0;
 469              		.loc 1 95 27 is_stmt 0
 470 0230 13850900 		mv	a0,s3
 471 0234 97000000 		call	_ZN9Scheduler3PutEP7KThread@plt
 471      E7800000 
 472              	.LVL44:
  96:src/ABI.cpp   ****             __asm__ volatile("li a0, 0");
 473              		.loc 1 96 13 is_stmt 1
 474 023c 63840400 		beqz	s1,.L30
  96:src/ABI.cpp   ****             __asm__ volatile("li a0, 0");
 475              		.loc 1 96 26 discriminator 1
  96:src/ABI.cpp   ****             __asm__ volatile("li a0, 0");
 476              		.loc 1 96 55 is_stmt 0 discriminator 1
 477 0240 23B0040A 		sd	zero,160(s1)
 478              	.L30:
  97:src/ABI.cpp   ****             break;
 479              		.loc 1 97 13 is_stmt 1
  97:src/ABI.cpp   ****             break;
 480              		.loc 1 97 41 is_stmt 0
 481              	#APP
 482              	# 97 "src/ABI.cpp" 1
  98:src/ABI.cpp   ****         }
 483              		li a0, 0
 484              	# 0 "" 2
 485              		.loc 1 98 13 is_stmt 1
 486              	#NO_APP
 487 0248 6FF09FF0 		j	.L1
 488              	.LVL45:
 489              	.L53:
  82:src/ABI.cpp   ****                     current->threadContext.x[10] = (size_t)-1;
 490              		.loc 1 82 17
 491 024c E38204F0 		beqz	s1,.L1
  83:src/ABI.cpp   ****                     restoreContext(current->getContext());
 492              		.loc 1 83 21
  83:src/ABI.cpp   ****                     restoreContext(current->getContext());
 493              		.loc 1 83 50 is_stmt 0
 494 0250 9307F0FF 		li	a5,-1
 495 0254 23B0F40A 		sd	a5,160(s1)
  84:src/ABI.cpp   ****                 }
 496              		.loc 1 84 21 is_stmt 1
  84:src/ABI.cpp   ****                 }
 497              		.loc 1 84 35 is_stmt 0
 498 0258 13850400 		mv	a0,s1
 499              	.LVL46:
 500 025c 97000000 		call	_ZN7KThread10getContextEv@plt
 500      E7800000 
 501              	.LVL47:
 502 0264 97000000 		call	restoreContext@plt
 502      E7800000 
 503              	.LVL48:
  86:src/ABI.cpp   ****             }
 504              		.loc 1 86 17 is_stmt 1
 505 026c 6FF05FEE 		j	.L1
 506              	.LVL49:
 507              	.L23:
GAS LISTING /tmp/cc5cnFrO.s 			page 16


 508              	.LBE34:
 100:src/ABI.cpp   ****             Scheduler::ThreadExit(current);
 509              		.loc 1 100 9
 100:src/ABI.cpp   ****             Scheduler::ThreadExit(current);
 510              		.loc 1 100 20
 101:src/ABI.cpp   ****             break;
 511              		.loc 1 101 13
 101:src/ABI.cpp   ****             break;
 512              		.loc 1 101 34 is_stmt 0
 513 0270 13850400 		mv	a0,s1
 514 0274 97000000 		call	_ZN9Scheduler10ThreadExitEP7KThread@plt
 514      E7800000 
 515              	.LVL50:
 102:src/ABI.cpp   ****         }
 516              		.loc 1 102 13 is_stmt 1
 517 027c 6FF05FED 		j	.L1
 518              	.LVL51:
 519              	.L22:
 104:src/ABI.cpp   ****             KThread* next = Scheduler::GetNext();
 520              		.loc 1 104 9
 104:src/ABI.cpp   ****             KThread* next = Scheduler::GetNext();
 521              		.loc 1 104 20
 522              	.LBB37:
 105:src/ABI.cpp   ****             if (next == nullptr) {
 523              		.loc 1 105 13
 105:src/ABI.cpp   ****             if (next == nullptr) {
 524              		.loc 1 105 47 is_stmt 0
 525 0280 97000000 		call	_ZN9Scheduler7GetNextEv@plt
 525      E7800000 
 526              	.LVL52:
 527 0288 13090500 		mv	s2,a0
 528              	.LVL53:
 106:src/ABI.cpp   ****                 __asm__ volatile("li a0, 0");
 529              		.loc 1 106 13 is_stmt 1
 530 028c 63060502 		beqz	a0,.L54
 110:src/ABI.cpp   ****             Scheduler::Put(current);
 531              		.loc 1 110 13
 532 0290 63840400 		beqz	s1,.L32
 110:src/ABI.cpp   ****             Scheduler::Put(current);
 533              		.loc 1 110 26 discriminator 1
 110:src/ABI.cpp   ****             Scheduler::Put(current);
 534              		.loc 1 110 55 is_stmt 0 discriminator 1
 535 0294 23B0040A 		sd	zero,160(s1)
 536              	.L32:
 111:src/ABI.cpp   ****             Scheduler::yield(current, next);
 537              		.loc 1 111 13 is_stmt 1
 111:src/ABI.cpp   ****             Scheduler::yield(current, next);
 538              		.loc 1 111 27 is_stmt 0
 539 0298 13850400 		mv	a0,s1
 540              	.LVL54:
 541 029c 97000000 		call	_ZN9Scheduler3PutEP7KThread@plt
 541      E7800000 
 542              	.LVL55:
 112:src/ABI.cpp   ****             break;
 543              		.loc 1 112 13 is_stmt 1
 112:src/ABI.cpp   ****             break;
 544              		.loc 1 112 29 is_stmt 0
GAS LISTING /tmp/cc5cnFrO.s 			page 17


 545 02a4 93050900 		mv	a1,s2
 546 02a8 13850400 		mv	a0,s1
 547 02ac 97000000 		call	_ZN9Scheduler5yieldEP7KThreadS1_@plt
 547      E7800000 
 548              	.LVL56:
 113:src/ABI.cpp   ****         }
 549              		.loc 1 113 13 is_stmt 1
 550 02b4 6FF0DFE9 		j	.L1
 551              	.LVL57:
 552              	.L54:
 107:src/ABI.cpp   ****                 break;
 553              		.loc 1 107 17
 107:src/ABI.cpp   ****                 break;
 554              		.loc 1 107 45 is_stmt 0
 555              	#APP
 556              	# 107 "src/ABI.cpp" 1
 108:src/ABI.cpp   ****             }
 557              		li a0, 0
 558              	# 0 "" 2
 559              		.loc 1 108 17 is_stmt 1
 560              	#NO_APP
 561 02bc 6FF05FE9 		j	.L1
 562              	.LVL58:
 563              	.L21:
 564              	.LBE37:
 115:src/ABI.cpp   ****             sem_t* handle = reinterpret_cast<sem_t*>(frame[11]);
 565              		.loc 1 115 9
 115:src/ABI.cpp   ****             sem_t* handle = reinterpret_cast<sem_t*>(frame[11]);
 566              		.loc 1 115 20
 567              	.LBB38:
 116:src/ABI.cpp   ****             unsigned initialValue = (unsigned)frame[12];
 568              		.loc 1 116 13
 116:src/ABI.cpp   ****             unsigned initialValue = (unsigned)frame[12];
 569              		.loc 1 116 62 is_stmt 0
 570 02c0 83398905 		ld	s3,88(s2)
 571              	.LVL59:
 117:src/ABI.cpp   ****             void* mem = MemoryAllocator::GetInstance().AllocateFragment(sizeof(KSemaphore));
 572              		.loc 1 117 13 is_stmt 1
 117:src/ABI.cpp   ****             void* mem = MemoryAllocator::GetInstance().AllocateFragment(sizeof(KSemaphore));
 573              		.loc 1 117 22 is_stmt 0
 574 02c4 03290906 		lw	s2,96(s2)
 575              	.LVL60:
 118:src/ABI.cpp   ****             if (!mem) { __asm__ volatile("li a0, -1"); break; }
 576              		.loc 1 118 13 is_stmt 1
 118:src/ABI.cpp   ****             if (!mem) { __asm__ volatile("li a0, -1"); break; }
 577              		.loc 1 118 54 is_stmt 0
 578 02c8 97000000 		call	_ZN15MemoryAllocator11GetInstanceEv@plt
 578      E7800000 
 579              	.LVL61:
 118:src/ABI.cpp   ****             if (!mem) { __asm__ volatile("li a0, -1"); break; }
 580              		.loc 1 118 72
 581 02d0 93058001 		li	a1,24
 582 02d4 97000000 		call	_ZN15MemoryAllocator16AllocateFragmentEm@plt
 582      E7800000 
 583              	.LVL62:
 584 02dc 93040500 		mv	s1,a0
 585              	.LVL63:
GAS LISTING /tmp/cc5cnFrO.s 			page 18


 119:src/ABI.cpp   ****             KSemaphore* semaphore = reinterpret_cast<KSemaphore*>(mem);
 586              		.loc 1 119 13 is_stmt 1
 587 02e0 630E0500 		beqz	a0,.L55
 120:src/ABI.cpp   ****             semaphore->init(initialValue);
 588              		.loc 1 120 13
 589              	.LVL64:
 121:src/ABI.cpp   ****             *handle = reinterpret_cast<sem_t>(semaphore);
 590              		.loc 1 121 13
 121:src/ABI.cpp   ****             *handle = reinterpret_cast<sem_t>(semaphore);
 591              		.loc 1 121 28 is_stmt 0
 592 02e4 93050900 		mv	a1,s2
 593 02e8 97000000 		call	_ZN10KSemaphore4initEj@plt
 593      E7800000 
 594              	.LVL65:
 122:src/ABI.cpp   ****             __asm__ volatile("li a0, 0");
 595              		.loc 1 122 13 is_stmt 1
 122:src/ABI.cpp   ****             __asm__ volatile("li a0, 0");
 596              		.loc 1 122 21 is_stmt 0
 597 02f0 23B09900 		sd	s1,0(s3)
 123:src/ABI.cpp   ****             break;
 598              		.loc 1 123 13 is_stmt 1
 123:src/ABI.cpp   ****             break;
 599              		.loc 1 123 41 is_stmt 0
 600              	#APP
 601              	# 123 "src/ABI.cpp" 1
 124:src/ABI.cpp   ****         }
 602              		li a0, 0
 603              	# 0 "" 2
 604              		.loc 1 124 13 is_stmt 1
 605              	#NO_APP
 606 02f8 6FF09FE5 		j	.L1
 607              	.LVL66:
 608              	.L55:
 119:src/ABI.cpp   ****             KSemaphore* semaphore = reinterpret_cast<KSemaphore*>(mem);
 609              		.loc 1 119 25 discriminator 1
 119:src/ABI.cpp   ****             KSemaphore* semaphore = reinterpret_cast<KSemaphore*>(mem);
 610              		.loc 1 119 54 is_stmt 0 discriminator 1
 611              	#APP
 612              	# 119 "src/ABI.cpp" 1
 119:src/ABI.cpp   ****             KSemaphore* semaphore = reinterpret_cast<KSemaphore*>(mem);
 613              		li a0, -1
 614              	# 0 "" 2
 615              		.loc 1 119 56 is_stmt 1 discriminator 1
 616              	#NO_APP
 617 0300 6FF01FE5 		j	.L1
 618              	.LVL67:
 619              	.L20:
 620              	.LBE38:
 126:src/ABI.cpp   ****             KSemaphore* semaphore = reinterpret_cast<KSemaphore*>(frame[11]);
 621              		.loc 1 126 9
 126:src/ABI.cpp   ****             KSemaphore* semaphore = reinterpret_cast<KSemaphore*>(frame[11]);
 622              		.loc 1 126 20
 623              	.LBB39:
 127:src/ABI.cpp   ****             semaphore->close();
 624              		.loc 1 127 13
 127:src/ABI.cpp   ****             semaphore->close();
 625              		.loc 1 127 75 is_stmt 0
GAS LISTING /tmp/cc5cnFrO.s 			page 19


 626 0304 83348905 		ld	s1,88(s2)
 627              	.LVL68:
 128:src/ABI.cpp   ****             MemoryAllocator::GetInstance().FreeFragment(semaphore);
 628              		.loc 1 128 13 is_stmt 1
 128:src/ABI.cpp   ****             MemoryAllocator::GetInstance().FreeFragment(semaphore);
 629              		.loc 1 128 29 is_stmt 0
 630 0308 13850400 		mv	a0,s1
 631              	.LVL69:
 632 030c 97000000 		call	_ZN10KSemaphore5closeEv@plt
 632      E7800000 
 633              	.LVL70:
 129:src/ABI.cpp   ****             __asm__ volatile("li a0, 0");
 634              		.loc 1 129 13 is_stmt 1
 129:src/ABI.cpp   ****             __asm__ volatile("li a0, 0");
 635              		.loc 1 129 42 is_stmt 0
 636 0314 97000000 		call	_ZN15MemoryAllocator11GetInstanceEv@plt
 636      E7800000 
 637              	.LVL71:
 129:src/ABI.cpp   ****             __asm__ volatile("li a0, 0");
 638              		.loc 1 129 56
 639 031c 93850400 		mv	a1,s1
 640 0320 97000000 		call	_ZN15MemoryAllocator12FreeFragmentEPv@plt
 640      E7800000 
 641              	.LVL72:
 130:src/ABI.cpp   ****             break;
 642              		.loc 1 130 13 is_stmt 1
 130:src/ABI.cpp   ****             break;
 643              		.loc 1 130 41 is_stmt 0
 644              	#APP
 645              	# 130 "src/ABI.cpp" 1
 131:src/ABI.cpp   ****         }
 646              		li a0, 0
 647              	# 0 "" 2
 648              		.loc 1 131 13 is_stmt 1
 649              	#NO_APP
 650 032c 6FF05FE2 		j	.L1
 651              	.LVL73:
 652              	.L19:
 653              	.LBE39:
 133:src/ABI.cpp   ****             KSemaphore* semaphore = reinterpret_cast<KSemaphore*>(frame[11]);
 654              		.loc 1 133 9
 133:src/ABI.cpp   ****             KSemaphore* semaphore = reinterpret_cast<KSemaphore*>(frame[11]);
 655              		.loc 1 133 20
 656              	.LBB40:
 134:src/ABI.cpp   ****             int result = semaphore->wait(current);
 657              		.loc 1 134 13
 135:src/ABI.cpp   ****             if (result <= 0) { __asm__ volatile("mv a0, %0" :: "r"((size_t)result)); break; }
 658              		.loc 1 135 13
 135:src/ABI.cpp   ****             if (result <= 0) { __asm__ volatile("mv a0, %0" :: "r"((size_t)result)); break; }
 659              		.loc 1 135 41 is_stmt 0
 660 0330 93850400 		mv	a1,s1
 661 0334 03358905 		ld	a0,88(s2)
 662 0338 97000000 		call	_ZN10KSemaphore4waitEP7KThread@plt
 662      E7800000 
 663              	.LVL74:
 136:src/ABI.cpp   ****             KThread* next = Scheduler::GetNext();
 664              		.loc 1 136 13 is_stmt 1
GAS LISTING /tmp/cc5cnFrO.s 			page 20


 665 0340 6346A000 		bgtz	a0,.L34
 136:src/ABI.cpp   ****             KThread* next = Scheduler::GetNext();
 666              		.loc 1 136 32 discriminator 1
 136:src/ABI.cpp   ****             KThread* next = Scheduler::GetNext();
 667              		.loc 1 136 84 is_stmt 0 discriminator 1
 668              	#APP
 669              	# 136 "src/ABI.cpp" 1
 136:src/ABI.cpp   ****             KThread* next = Scheduler::GetNext();
 670              		mv a0, a0
 671              	# 0 "" 2
 672              		.loc 1 136 86 is_stmt 1 discriminator 1
 673              	#NO_APP
 674 0348 6FF09FE0 		j	.L1
 675              	.L34:
 137:src/ABI.cpp   ****             if (next == nullptr) { while(true){} }
 676              		.loc 1 137 13
 137:src/ABI.cpp   ****             if (next == nullptr) { while(true){} }
 677              		.loc 1 137 47 is_stmt 0
 678 034c 97000000 		call	_ZN9Scheduler7GetNextEv@plt
 678      E7800000 
 679              	.LVL75:
 680 0354 93050500 		mv	a1,a0
 681              	.LVL76:
 138:src/ABI.cpp   ****             Scheduler::yield(current, next);
 682              		.loc 1 138 13 is_stmt 1
 683 0358 630A0500 		beqz	a0,.L36
 139:src/ABI.cpp   ****             break;
 684              		.loc 1 139 13
 139:src/ABI.cpp   ****             break;
 685              		.loc 1 139 29 is_stmt 0
 686 035c 13850400 		mv	a0,s1
 687              	.LVL77:
 688 0360 97000000 		call	_ZN9Scheduler5yieldEP7KThreadS1_@plt
 688      E7800000 
 689              	.LVL78:
 140:src/ABI.cpp   ****         }
 690              		.loc 1 140 13 is_stmt 1
 691 0368 6FF09FDE 		j	.L1
 692              	.LVL79:
 693              	.L36:
 138:src/ABI.cpp   ****             Scheduler::yield(current, next);
 694              		.loc 1 138 36 discriminator 1
 138:src/ABI.cpp   ****             Scheduler::yield(current, next);
 695              		.loc 1 138 36 discriminator 1
 696 036c 6F000000 		j	.L36
 697              	.LVL80:
 698              	.L18:
 699              	.LBE40:
 142:src/ABI.cpp   ****             KSemaphore* semaphore = reinterpret_cast<KSemaphore*>(frame[11]);
 700              		.loc 1 142 9
 142:src/ABI.cpp   ****             KSemaphore* semaphore = reinterpret_cast<KSemaphore*>(frame[11]);
 701              		.loc 1 142 20
 702              	.LBB41:
 143:src/ABI.cpp   ****             semaphore->signal();
 703              		.loc 1 143 13
 144:src/ABI.cpp   ****             __asm__ volatile("li a0, 0");
 704              		.loc 1 144 13
GAS LISTING /tmp/cc5cnFrO.s 			page 21


 144:src/ABI.cpp   ****             __asm__ volatile("li a0, 0");
 705              		.loc 1 144 30 is_stmt 0
 706 0370 03358905 		ld	a0,88(s2)
 707 0374 97000000 		call	_ZN10KSemaphore6signalEv@plt
 707      E7800000 
 708              	.LVL81:
 145:src/ABI.cpp   ****             break;
 709              		.loc 1 145 13 is_stmt 1
 145:src/ABI.cpp   ****             break;
 710              		.loc 1 145 41 is_stmt 0
 711              	#APP
 712              	# 145 "src/ABI.cpp" 1
 146:src/ABI.cpp   ****         }
 713              		li a0, 0
 714              	# 0 "" 2
 715              		.loc 1 146 13 is_stmt 1
 716              	#NO_APP
 717 0380 6FF01FDD 		j	.L1
 718              	.LVL82:
 719              	.L17:
 720              	.LBE41:
 148:src/ABI.cpp   ****             KSemaphore* semaphore = reinterpret_cast<KSemaphore*>(frame[11]);
 721              		.loc 1 148 9
 148:src/ABI.cpp   ****             KSemaphore* semaphore = reinterpret_cast<KSemaphore*>(frame[11]);
 722              		.loc 1 148 20
 723              	.LBB42:
 149:src/ABI.cpp   ****             unsigned n = (unsigned)frame[12];
 724              		.loc 1 149 13
 150:src/ABI.cpp   ****             int result = semaphore->waitN(current, n);
 725              		.loc 1 150 13
 151:src/ABI.cpp   ****             if (result <= 0) { __asm__ volatile("mv a0, %0" :: "r"((size_t)result)); break; }
 726              		.loc 1 151 13
 151:src/ABI.cpp   ****             if (result <= 0) { __asm__ volatile("mv a0, %0" :: "r"((size_t)result)); break; }
 727              		.loc 1 151 42 is_stmt 0
 728 0384 03260906 		lw	a2,96(s2)
 729 0388 93850400 		mv	a1,s1
 730 038c 03358905 		ld	a0,88(s2)
 731 0390 97000000 		call	_ZN10KSemaphore5waitNEP7KThreadj@plt
 731      E7800000 
 732              	.LVL83:
 152:src/ABI.cpp   ****             KThread* next = Scheduler::GetNext();
 733              		.loc 1 152 13 is_stmt 1
 734 0398 6346A000 		bgtz	a0,.L37
 152:src/ABI.cpp   ****             KThread* next = Scheduler::GetNext();
 735              		.loc 1 152 32 discriminator 1
 152:src/ABI.cpp   ****             KThread* next = Scheduler::GetNext();
 736              		.loc 1 152 84 is_stmt 0 discriminator 1
 737              	#APP
 738              	# 152 "src/ABI.cpp" 1
 152:src/ABI.cpp   ****             KThread* next = Scheduler::GetNext();
 739              		mv a0, a0
 740              	# 0 "" 2
 741              		.loc 1 152 86 is_stmt 1 discriminator 1
 742              	#NO_APP
 743 03a0 6FF01FDB 		j	.L1
 744              	.L37:
 153:src/ABI.cpp   ****             if (next == nullptr) { while(true){} }
GAS LISTING /tmp/cc5cnFrO.s 			page 22


 745              		.loc 1 153 13
 153:src/ABI.cpp   ****             if (next == nullptr) { while(true){} }
 746              		.loc 1 153 47 is_stmt 0
 747 03a4 97000000 		call	_ZN9Scheduler7GetNextEv@plt
 747      E7800000 
 748              	.LVL84:
 749 03ac 93050500 		mv	a1,a0
 750              	.LVL85:
 154:src/ABI.cpp   ****             Scheduler::yield(current, next);
 751              		.loc 1 154 13 is_stmt 1
 752 03b0 630A0500 		beqz	a0,.L39
 155:src/ABI.cpp   ****             break;
 753              		.loc 1 155 13
 155:src/ABI.cpp   ****             break;
 754              		.loc 1 155 29 is_stmt 0
 755 03b4 13850400 		mv	a0,s1
 756              	.LVL86:
 757 03b8 97000000 		call	_ZN9Scheduler5yieldEP7KThreadS1_@plt
 757      E7800000 
 758              	.LVL87:
 156:src/ABI.cpp   ****         }
 759              		.loc 1 156 13 is_stmt 1
 760 03c0 6FF01FD9 		j	.L1
 761              	.LVL88:
 762              	.L39:
 154:src/ABI.cpp   ****             Scheduler::yield(current, next);
 763              		.loc 1 154 36 discriminator 2
 154:src/ABI.cpp   ****             Scheduler::yield(current, next);
 764              		.loc 1 154 36 discriminator 2
 765 03c4 6F000000 		j	.L39
 766              	.LVL89:
 767              	.L16:
 768              	.LBE42:
 158:src/ABI.cpp   ****             KSemaphore* semaphore = reinterpret_cast<KSemaphore*>(frame[11]);
 769              		.loc 1 158 9
 158:src/ABI.cpp   ****             KSemaphore* semaphore = reinterpret_cast<KSemaphore*>(frame[11]);
 770              		.loc 1 158 20
 771              	.LBB43:
 159:src/ABI.cpp   ****             unsigned n = (unsigned)frame[12];
 772              		.loc 1 159 13
 160:src/ABI.cpp   ****             semaphore->signalN(n);
 773              		.loc 1 160 13
 161:src/ABI.cpp   ****             __asm__ volatile("li a0, 0");
 774              		.loc 1 161 13
 161:src/ABI.cpp   ****             __asm__ volatile("li a0, 0");
 775              		.loc 1 161 31 is_stmt 0
 776 03c8 83250906 		lw	a1,96(s2)
 777 03cc 03358905 		ld	a0,88(s2)
 778 03d0 97000000 		call	_ZN10KSemaphore7signalNEj@plt
 778      E7800000 
 779              	.LVL90:
 162:src/ABI.cpp   ****             break;
 780              		.loc 1 162 13 is_stmt 1
 162:src/ABI.cpp   ****             break;
 781              		.loc 1 162 41 is_stmt 0
 782              	#APP
 783              	# 162 "src/ABI.cpp" 1
GAS LISTING /tmp/cc5cnFrO.s 			page 23


 163:src/ABI.cpp   ****         }
 784              		li a0, 0
 785              	# 0 "" 2
 786              		.loc 1 163 13 is_stmt 1
 787              	#NO_APP
 788 03dc 6FF05FD7 		j	.L1
 789              	.LVL91:
 790              	.L15:
 791              	.LBE43:
 166:src/ABI.cpp   ****             time_t dur = (time_t)frame[11];
 792              		.loc 1 166 9
 166:src/ABI.cpp   ****             time_t dur = (time_t)frame[11];
 793              		.loc 1 166 20
 794              	.LBB44:
 167:src/ABI.cpp   ****             if (current) current->threadContext.x[10] = 0;
 795              		.loc 1 167 13
 167:src/ABI.cpp   ****             if (current) current->threadContext.x[10] = 0;
 796              		.loc 1 167 20 is_stmt 0
 797 03e0 83358905 		ld	a1,88(s2)
 798              	.LVL92:
 168:src/ABI.cpp   ****             if (dur == 0) { __asm__ volatile("li a0, 0"); break; }
 799              		.loc 1 168 13 is_stmt 1
 800 03e4 63840400 		beqz	s1,.L40
 168:src/ABI.cpp   ****             if (dur == 0) { __asm__ volatile("li a0, 0"); break; }
 801              		.loc 1 168 26 discriminator 1
 168:src/ABI.cpp   ****             if (dur == 0) { __asm__ volatile("li a0, 0"); break; }
 802              		.loc 1 168 55 is_stmt 0 discriminator 1
 803 03e8 23B0040A 		sd	zero,160(s1)
 804              	.LVL93:
 805              	.L40:
 169:src/ABI.cpp   ****             Scheduler::sleep(current, dur);
 806              		.loc 1 169 13 is_stmt 1
 807 03ec 63960500 		bnez	a1,.L41
 169:src/ABI.cpp   ****             Scheduler::sleep(current, dur);
 808              		.loc 1 169 29 discriminator 1
 169:src/ABI.cpp   ****             Scheduler::sleep(current, dur);
 809              		.loc 1 169 57 is_stmt 0 discriminator 1
 810              	#APP
 811              	# 169 "src/ABI.cpp" 1
 169:src/ABI.cpp   ****             Scheduler::sleep(current, dur);
 812              		li a0, 0
 813              	# 0 "" 2
 814              		.loc 1 169 59 is_stmt 1 discriminator 1
 815              	#NO_APP
 816 03f4 6FF0DFD5 		j	.L1
 817              	.L41:
 170:src/ABI.cpp   ****             KThread* next = Scheduler::GetNext();
 818              		.loc 1 170 13
 170:src/ABI.cpp   ****             KThread* next = Scheduler::GetNext();
 819              		.loc 1 170 29 is_stmt 0
 820 03f8 13850400 		mv	a0,s1
 821 03fc 97000000 		call	_ZN9Scheduler5sleepEP7KThreadm@plt
 821      E7800000 
 822              	.LVL94:
 171:src/ABI.cpp   ****             if (next == nullptr) { while(true){} }
 823              		.loc 1 171 13 is_stmt 1
 171:src/ABI.cpp   ****             if (next == nullptr) { while(true){} }
GAS LISTING /tmp/cc5cnFrO.s 			page 24


 824              		.loc 1 171 47 is_stmt 0
 825 0404 97000000 		call	_ZN9Scheduler7GetNextEv@plt
 825      E7800000 
 826              	.LVL95:
 827 040c 93050500 		mv	a1,a0
 828              	.LVL96:
 172:src/ABI.cpp   ****             Scheduler::yield(current, next);
 829              		.loc 1 172 13 is_stmt 1
 830 0410 630A0500 		beqz	a0,.L43
 173:src/ABI.cpp   ****             break;
 831              		.loc 1 173 13
 173:src/ABI.cpp   ****             break;
 832              		.loc 1 173 29 is_stmt 0
 833 0414 13850400 		mv	a0,s1
 834              	.LVL97:
 835 0418 97000000 		call	_ZN9Scheduler5yieldEP7KThreadS1_@plt
 835      E7800000 
 836              	.LVL98:
 174:src/ABI.cpp   ****         }
 837              		.loc 1 174 13 is_stmt 1
 838 0420 6FF01FD3 		j	.L1
 839              	.LVL99:
 840              	.L43:
 172:src/ABI.cpp   ****             Scheduler::yield(current, next);
 841              		.loc 1 172 36 discriminator 3
 172:src/ABI.cpp   ****             Scheduler::yield(current, next);
 842              		.loc 1 172 36 discriminator 3
 843 0424 6F000000 		j	.L43
 844              	.LVL100:
 845              	.L14:
 846              	.LBE44:
 176:src/ABI.cpp   ****             int result = Konsole::getcKernel(current);
 847              		.loc 1 176 9
 176:src/ABI.cpp   ****             int result = Konsole::getcKernel(current);
 848              		.loc 1 176 20
 849              	.LBB45:
 177:src/ABI.cpp   ****             if (result == -2) {
 850              		.loc 1 177 13
 177:src/ABI.cpp   ****             if (result == -2) {
 851              		.loc 1 177 45 is_stmt 0
 852 0428 13850400 		mv	a0,s1
 853 042c 97000000 		call	_ZN7Konsole10getcKernelEP7KThread@plt
 853      E7800000 
 854              	.LVL101:
 178:src/ABI.cpp   ****                 KThread* next = Scheduler::GetNext();
 855              		.loc 1 178 13 is_stmt 1
 856              	.LBB46:
 857 0434 1307E0FF 		li	a4,-2
 858 0438 6308E500 		beq	a0,a4,.L56
 183:src/ABI.cpp   ****             }
 859              		.loc 1 183 17
 183:src/ABI.cpp   ****             }
 860              		.loc 1 183 53 is_stmt 0
 861 043c 9377F50F 		andi	a5,a0,0xff
 183:src/ABI.cpp   ****             }
 862              		.loc 1 183 84
 863              	#APP
GAS LISTING /tmp/cc5cnFrO.s 			page 25


 864              	# 183 "src/ABI.cpp" 1
 865              		mv a0, a5
 866              	# 0 "" 2
 867              	#NO_APP
 868 0444 6FF0DFD0 		j	.L1
 869              	.L56:
 870              	.LBB47:
 179:src/ABI.cpp   ****                 if (next == nullptr) { while(true){} }
 871              		.loc 1 179 17 is_stmt 1
 179:src/ABI.cpp   ****                 if (next == nullptr) { while(true){} }
 872              		.loc 1 179 51 is_stmt 0
 873 0448 97000000 		call	_ZN9Scheduler7GetNextEv@plt
 873      E7800000 
 874              	.LVL102:
 875 0450 93050500 		mv	a1,a0
 876              	.LVL103:
 180:src/ABI.cpp   ****                 Scheduler::yield(current, next);
 877              		.loc 1 180 17 is_stmt 1
 878 0454 630A0500 		beqz	a0,.L46
 181:src/ABI.cpp   ****             } else {
 879              		.loc 1 181 17
 181:src/ABI.cpp   ****             } else {
 880              		.loc 1 181 33 is_stmt 0
 881 0458 13850400 		mv	a0,s1
 882              	.LVL104:
 883 045c 97000000 		call	_ZN9Scheduler5yieldEP7KThreadS1_@plt
 883      E7800000 
 884              	.LVL105:
 885              	.LBE47:
 886 0464 6FF0DFCE 		j	.L1
 887              	.LVL106:
 888              	.L46:
 889              	.LBB48:
 180:src/ABI.cpp   ****                 Scheduler::yield(current, next);
 890              		.loc 1 180 40 is_stmt 1 discriminator 4
 180:src/ABI.cpp   ****                 Scheduler::yield(current, next);
 891              		.loc 1 180 40 discriminator 4
 892 0468 6F000000 		j	.L46
 893              	.LVL107:
 894              	.L12:
 895              	.LBE48:
 896              	.LBE46:
 897              	.LBE45:
 187:src/ABI.cpp   ****             char c = (char)frame[11];
 898              		.loc 1 187 9
 187:src/ABI.cpp   ****             char c = (char)frame[11];
 899              		.loc 1 187 20
 900              	.LBB49:
 188:src/ABI.cpp   ****             int result = Konsole::putcKernel(current, c);
 901              		.loc 1 188 13
 189:src/ABI.cpp   ****             __asm__ volatile("mv a0, %0" :: "r"((size_t)result));
 902              		.loc 1 189 13
 189:src/ABI.cpp   ****             __asm__ volatile("mv a0, %0" :: "r"((size_t)result));
 903              		.loc 1 189 45 is_stmt 0
 904 046c 83458905 		lbu	a1,88(s2)
 905 0470 13850400 		mv	a0,s1
 906 0474 97000000 		call	_ZN7Konsole10putcKernelEP7KThreadc@plt
GAS LISTING /tmp/cc5cnFrO.s 			page 26


 906      E7800000 
 907              	.LVL108:
 190:src/ABI.cpp   ****             break;
 908              		.loc 1 190 13 is_stmt 1
 190:src/ABI.cpp   ****             break;
 909              		.loc 1 190 65 is_stmt 0
 910              	#APP
 911              	# 190 "src/ABI.cpp" 1
 191:src/ABI.cpp   ****         }
 912              		mv a0, a0
 913              	# 0 "" 2
 914              		.loc 1 191 13 is_stmt 1
 915              	#NO_APP
 916 0480 6FF01FCD 		j	.L1
 917              	.LBE49:
 918              	.LBE31:
 919              	.LBE51:
 920              		.cfi_endproc
 921              	.LFE3:
 923              		.align	2
 924              		.globl	start_main_thread
 926              	start_main_thread:
 927              	.LFB4:
 204:src/ABI.cpp   **** 
 205:src/ABI.cpp   **** extern "C" {
 206:src/ABI.cpp   **** int start_main_thread() {
 928              		.loc 1 206 25
 929              		.cfi_startproc
 930 0484 130101FF 		addi	sp,sp,-16
 931              		.cfi_def_cfa_offset 16
 932 0488 23341100 		sd	ra,8(sp)
 933 048c 23308100 		sd	s0,0(sp)
 934              		.cfi_offset 1, -8
 935              		.cfi_offset 8, -16
 936 0490 13040101 		addi	s0,sp,16
 937              		.cfi_def_cfa 8, 0
 207:src/ABI.cpp   ****     Scheduler::SetupStartThread();
 938              		.loc 1 207 5
 939              		.loc 1 207 32 is_stmt 0
 940 0494 97000000 		call	_ZN9Scheduler16SetupStartThreadEv@plt
 940      E7800000 
 941              	.LVL109:
 208:src/ABI.cpp   ****     Konsole::init();
 942              		.loc 1 208 5 is_stmt 1
 943              		.loc 1 208 18 is_stmt 0
 944 049c 97000000 		call	_ZN7Konsole4initEv@plt
 944      E7800000 
 945              	.LVL110:
 209:src/ABI.cpp   ****     return 0;
 946              		.loc 1 209 5 is_stmt 1
 210:src/ABI.cpp   **** }
 947              		.loc 1 210 1 is_stmt 0
 948 04a4 13050000 		li	a0,0
 949 04a8 83308100 		ld	ra,8(sp)
 950              		.cfi_restore 1
 951 04ac 03340100 		ld	s0,0(sp)
 952              		.cfi_restore 8
GAS LISTING /tmp/cc5cnFrO.s 			page 27


 953              		.cfi_def_cfa 2, 16
 954 04b0 13010101 		addi	sp,sp,16
 955              		.cfi_def_cfa_offset 0
 956 04b4 67800000 		jr	ra
 957              		.cfi_endproc
 958              	.LFE4:
 960              	.Letext0:
 961              		.file 3 "src/./../lib/hw.h"
 962              		.file 4 "src/./MemoryAllocator.hpp"
 963              		.file 5 "src/syscall_c.h"
 964              		.file 6 "src/Scheduler.hpp"
 965              		.file 7 "src/Semaphore.hpp"
 966              		.file 8 "src/Konsole.hpp"
GAS LISTING /tmp/cc5cnFrO.s 			page 28


DEFINED SYMBOLS
                            *ABS*:0000000000000000 ABI.cpp
     /tmp/cc5cnFrO.s:9      .text:0000000000000000 HandleInterupt
     /tmp/cc5cnFrO.s:13     .text:0000000000000000 .L0 
     /tmp/cc5cnFrO.s:15     .text:0000000000000000 .L0 
     /tmp/cc5cnFrO.s:16     .text:0000000000000004 .L0 
     /tmp/cc5cnFrO.s:26     .text:0000000000000028 .L0 
     /tmp/cc5cnFrO.s:27     .text:0000000000000028 .L0 
     /tmp/cc5cnFrO.s:28     .text:0000000000000028 .L0 
     /tmp/cc5cnFrO.s:29     .text:0000000000000028 .L0 
     /tmp/cc5cnFrO.s:30     .text:0000000000000028 .L0 
     /tmp/cc5cnFrO.s:31     .text:0000000000000028 .L0 
     /tmp/cc5cnFrO.s:32     .text:0000000000000028 .L0 
     /tmp/cc5cnFrO.s:33     .text:0000000000000028 .L0 
     /tmp/cc5cnFrO.s:34     .text:0000000000000028 .L0 
     /tmp/cc5cnFrO.s:36     .text:000000000000002c .L0 
     /tmp/cc5cnFrO.s:39     .text:0000000000000030 .L0 
     /tmp/cc5cnFrO.s:40     .text:0000000000000030 .L0 
         src/ABI.cpp:16     .text:0000000000000030 .L0 
     /tmp/cc5cnFrO.s:47     .text:0000000000000034 .L0 
     /tmp/cc5cnFrO.s:49     .text:0000000000000034 .L0 
     /tmp/cc5cnFrO.s:52     .text:000000000000003c .L0 
     /tmp/cc5cnFrO.s:53     .text:000000000000003c .L0 
     /tmp/cc5cnFrO.s:59     .text:0000000000000048 .L0 
     /tmp/cc5cnFrO.s:63     .text:000000000000004c .L0 
     /tmp/cc5cnFrO.s:67     .text:0000000000000050 .L0 
     /tmp/cc5cnFrO.s:70     .text:0000000000000058 .L0 
     /tmp/cc5cnFrO.s:71     .text:0000000000000058 .L0 
     /tmp/cc5cnFrO.s:75     .text:0000000000000064 .L0 
     /tmp/cc5cnFrO.s:78     .text:000000000000006c .L0 
     /tmp/cc5cnFrO.s:85     .text:0000000000000074 .L0 
     /tmp/cc5cnFrO.s:86     .text:0000000000000074 .L0 
     /tmp/cc5cnFrO.s:88     .text:0000000000000078 .L0 
     /tmp/cc5cnFrO.s:90     .text:000000000000007c .L0 
     /tmp/cc5cnFrO.s:91     .text:000000000000007c .L0 
         src/ABI.cpp:27     .text:000000000000007c .L0 
     /tmp/cc5cnFrO.s:98     .text:0000000000000080 .L0 
         src/ABI.cpp:28     .text:0000000000000080 .L0 
     /tmp/cc5cnFrO.s:104    .text:0000000000000084 .L0 
     /tmp/cc5cnFrO.s:106    .text:0000000000000084 .L0 
     /tmp/cc5cnFrO.s:108    .text:0000000000000088 .L0 
     /tmp/cc5cnFrO.s:112    .text:0000000000000090 .L0 
     /tmp/cc5cnFrO.s:113    .text:0000000000000090 .L0 
     /tmp/cc5cnFrO.s:115    .text:0000000000000094 .L0 
     /tmp/cc5cnFrO.s:116    .text:0000000000000094 .L0 
     /tmp/cc5cnFrO.s:122    .text:0000000000000098 .L0 
     /tmp/cc5cnFrO.s:127    .text:00000000000000a8 .L0 
     /tmp/cc5cnFrO.s:132    .text:00000000000000b8 .L0 
     /tmp/cc5cnFrO.s:133    .text:00000000000000b8 .L0 
     /tmp/cc5cnFrO.s:135    .text:00000000000000bc .L0 
     /tmp/cc5cnFrO.s:139    .text:00000000000000c4 .L0 
     /tmp/cc5cnFrO.s:140    .text:00000000000000c4 .L0 
     /tmp/cc5cnFrO.s:141    .text:00000000000000c4 .L0 
         src/ABI.cpp:57     .text:00000000000000c4 .L0 
     /tmp/cc5cnFrO.s:148    .text:00000000000000c8 .L0 
     /tmp/cc5cnFrO.s:150    .text:00000000000000c8 .L0 
         src/ABI.cpp:58     .text:00000000000000cc .L0 
GAS LISTING /tmp/cc5cnFrO.s 			page 29


     /tmp/cc5cnFrO.s:160    .text:00000000000000d0 .L0 
     /tmp/cc5cnFrO.s:161    .text:00000000000000d0 .L0 
     /tmp/cc5cnFrO.s:165    .text:00000000000000d4 .L0 
     /tmp/cc5cnFrO.s:254    .text:0000000000000100 .L0 
     /tmp/cc5cnFrO.s:255    .text:0000000000000100 .L0 
     /tmp/cc5cnFrO.s:263    .text:0000000000000108 .L0 
     /tmp/cc5cnFrO.s:264    .text:0000000000000108 .L0 
     /tmp/cc5cnFrO.s:268    .text:0000000000000114 .L0 
     /tmp/cc5cnFrO.s:270    .text:0000000000000118 .L0 
     /tmp/cc5cnFrO.s:271    .text:0000000000000118 .L0 
         src/ABI.cpp:37     .text:000000000000011c .L0 
     /tmp/cc5cnFrO.s:281    .text:0000000000000124 .L0 
     /tmp/cc5cnFrO.s:282    .text:0000000000000124 .L0 
     /tmp/cc5cnFrO.s:285    .text:000000000000012c .L0 
     /tmp/cc5cnFrO.s:287    .text:0000000000000130 .L0 
     /tmp/cc5cnFrO.s:288    .text:0000000000000130 .L0 
         src/ABI.cpp:43     .text:0000000000000134 .L0 
     /tmp/cc5cnFrO.s:298    .text:000000000000013c .L0 
     /tmp/cc5cnFrO.s:300    .text:0000000000000140 .L0 
     /tmp/cc5cnFrO.s:302    .text:0000000000000144 .L0 
     /tmp/cc5cnFrO.s:303    .text:0000000000000144 .L0 
     /tmp/cc5cnFrO.s:308    .text:0000000000000150 .L0 
     /tmp/cc5cnFrO.s:309    .text:0000000000000150 .L0 
     /tmp/cc5cnFrO.s:310    .text:0000000000000154 .L0 
     /tmp/cc5cnFrO.s:311    .text:0000000000000154 .L0 
     /tmp/cc5cnFrO.s:313    .text:0000000000000158 .L0 
     /tmp/cc5cnFrO.s:314    .text:0000000000000158 .L0 
     /tmp/cc5cnFrO.s:316    .text:000000000000015c .L0 
     /tmp/cc5cnFrO.s:318    .text:0000000000000160 .L0 
     /tmp/cc5cnFrO.s:320    .text:0000000000000164 .L0 
     /tmp/cc5cnFrO.s:322    .text:0000000000000168 .L0 
     /tmp/cc5cnFrO.s:324    .text:000000000000016c .L0 
     /tmp/cc5cnFrO.s:326    .text:0000000000000170 .L0 
     /tmp/cc5cnFrO.s:328    .text:0000000000000174 .L0 
     /tmp/cc5cnFrO.s:330    .text:0000000000000178 .L0 
     /tmp/cc5cnFrO.s:334    .text:000000000000017c .L0 
     /tmp/cc5cnFrO.s:337    .text:000000000000017c .L0 
     /tmp/cc5cnFrO.s:341    .text:0000000000000184 .L0 
     /tmp/cc5cnFrO.s:342    .text:0000000000000184 .L0 
     /tmp/cc5cnFrO.s:343    .text:0000000000000184 .L0 
     /tmp/cc5cnFrO.s:344    .text:0000000000000184 .L0 
     /tmp/cc5cnFrO.s:352    .text:0000000000000194 .L0 
     /tmp/cc5cnFrO.s:353    .text:0000000000000194 .L0 
     /tmp/cc5cnFrO.s:357    .text:0000000000000198 .L0 
     /tmp/cc5cnFrO.s:359    .text:0000000000000198 .L0 
     /tmp/cc5cnFrO.s:360    .text:0000000000000198 .L0 
     /tmp/cc5cnFrO.s:361    .text:0000000000000198 .L0 
     /tmp/cc5cnFrO.s:364    .text:000000000000019c .L0 
     /tmp/cc5cnFrO.s:365    .text:000000000000019c .L0 
     /tmp/cc5cnFrO.s:368    .text:00000000000001a4 .L0 
     /tmp/cc5cnFrO.s:372    .text:00000000000001b0 .L0 
         src/ABI.cpp:66     .text:00000000000001b0 .L0 
     /tmp/cc5cnFrO.s:379    .text:00000000000001b4 .L0 
     /tmp/cc5cnFrO.s:384    .text:00000000000001b8 .L0 
     /tmp/cc5cnFrO.s:386    .text:00000000000001b8 .L0 
     /tmp/cc5cnFrO.s:387    .text:00000000000001b8 .L0 
     /tmp/cc5cnFrO.s:388    .text:00000000000001b8 .L0 
GAS LISTING /tmp/cc5cnFrO.s 			page 30


     /tmp/cc5cnFrO.s:391    .text:00000000000001bc .L0 
     /tmp/cc5cnFrO.s:392    .text:00000000000001bc .L0 
     /tmp/cc5cnFrO.s:395    .text:00000000000001c4 .L0 
     /tmp/cc5cnFrO.s:399    .text:00000000000001d0 .L0 
     /tmp/cc5cnFrO.s:404    .text:00000000000001d4 .L0 
     /tmp/cc5cnFrO.s:406    .text:00000000000001d4 .L0 
     /tmp/cc5cnFrO.s:407    .text:00000000000001d4 .L0 
     /tmp/cc5cnFrO.s:408    .text:00000000000001d4 .L0 
     /tmp/cc5cnFrO.s:411    .text:00000000000001d8 .L0 
     /tmp/cc5cnFrO.s:412    .text:00000000000001d8 .L0 
     /tmp/cc5cnFrO.s:415    .text:00000000000001dc .L0 
     /tmp/cc5cnFrO.s:416    .text:00000000000001dc .L0 
     /tmp/cc5cnFrO.s:419    .text:00000000000001e0 .L0 
     /tmp/cc5cnFrO.s:420    .text:00000000000001e0 .L0 
     /tmp/cc5cnFrO.s:423    .text:00000000000001e4 .L0 
     /tmp/cc5cnFrO.s:424    .text:00000000000001e4 .L0 
     /tmp/cc5cnFrO.s:427    .text:00000000000001ec .L0 
     /tmp/cc5cnFrO.s:433    .text:00000000000001fc .L0 
     /tmp/cc5cnFrO.s:436    .text:0000000000000200 .L0 
     /tmp/cc5cnFrO.s:437    .text:0000000000000200 .L0 
     /tmp/cc5cnFrO.s:438    .text:0000000000000200 .L0 
     /tmp/cc5cnFrO.s:444    .text:0000000000000208 .L0 
     /tmp/cc5cnFrO.s:445    .text:0000000000000208 .L0 
     /tmp/cc5cnFrO.s:446    .text:0000000000000208 .L0 
     /tmp/cc5cnFrO.s:448    .text:000000000000020c .L0 
     /tmp/cc5cnFrO.s:449    .text:000000000000020c .L0 
     /tmp/cc5cnFrO.s:454    .text:0000000000000210 .L0 
     /tmp/cc5cnFrO.s:455    .text:0000000000000210 .L0 
     /tmp/cc5cnFrO.s:461    .text:0000000000000224 .L0 
     /tmp/cc5cnFrO.s:462    .text:0000000000000224 .L0 
     /tmp/cc5cnFrO.s:464    .text:0000000000000228 .L0 
     /tmp/cc5cnFrO.s:466    .text:000000000000022c .L0 
     /tmp/cc5cnFrO.s:467    .text:000000000000022c .L0 
     /tmp/cc5cnFrO.s:469    .text:0000000000000230 .L0 
     /tmp/cc5cnFrO.s:470    .text:0000000000000230 .L0 
     /tmp/cc5cnFrO.s:474    .text:000000000000023c .L0 
     /tmp/cc5cnFrO.s:476    .text:0000000000000240 .L0 
     /tmp/cc5cnFrO.s:477    .text:0000000000000240 .L0 
     /tmp/cc5cnFrO.s:480    .text:0000000000000244 .L0 
         src/ABI.cpp:97     .text:0000000000000244 .L0 
     /tmp/cc5cnFrO.s:487    .text:0000000000000248 .L0 
     /tmp/cc5cnFrO.s:491    .text:000000000000024c .L0 
     /tmp/cc5cnFrO.s:493    .text:0000000000000250 .L0 
     /tmp/cc5cnFrO.s:494    .text:0000000000000250 .L0 
     /tmp/cc5cnFrO.s:497    .text:0000000000000258 .L0 
     /tmp/cc5cnFrO.s:498    .text:0000000000000258 .L0 
     /tmp/cc5cnFrO.s:505    .text:000000000000026c .L0 
     /tmp/cc5cnFrO.s:510    .text:0000000000000270 .L0 
     /tmp/cc5cnFrO.s:511    .text:0000000000000270 .L0 
     /tmp/cc5cnFrO.s:512    .text:0000000000000270 .L0 
     /tmp/cc5cnFrO.s:513    .text:0000000000000270 .L0 
     /tmp/cc5cnFrO.s:517    .text:000000000000027c .L0 
     /tmp/cc5cnFrO.s:521    .text:0000000000000280 .L0 
     /tmp/cc5cnFrO.s:523    .text:0000000000000280 .L0 
     /tmp/cc5cnFrO.s:524    .text:0000000000000280 .L0 
     /tmp/cc5cnFrO.s:525    .text:0000000000000280 .L0 
     /tmp/cc5cnFrO.s:530    .text:000000000000028c .L0 
GAS LISTING /tmp/cc5cnFrO.s 			page 31


     /tmp/cc5cnFrO.s:532    .text:0000000000000290 .L0 
     /tmp/cc5cnFrO.s:534    .text:0000000000000294 .L0 
     /tmp/cc5cnFrO.s:535    .text:0000000000000294 .L0 
     /tmp/cc5cnFrO.s:538    .text:0000000000000298 .L0 
     /tmp/cc5cnFrO.s:539    .text:0000000000000298 .L0 
     /tmp/cc5cnFrO.s:544    .text:00000000000002a4 .L0 
     /tmp/cc5cnFrO.s:545    .text:00000000000002a4 .L0 
     /tmp/cc5cnFrO.s:550    .text:00000000000002b4 .L0 
     /tmp/cc5cnFrO.s:554    .text:00000000000002b8 .L0 
         src/ABI.cpp:107    .text:00000000000002b8 .L0 
     /tmp/cc5cnFrO.s:561    .text:00000000000002bc .L0 
     /tmp/cc5cnFrO.s:566    .text:00000000000002c0 .L0 
     /tmp/cc5cnFrO.s:568    .text:00000000000002c0 .L0 
     /tmp/cc5cnFrO.s:569    .text:00000000000002c0 .L0 
     /tmp/cc5cnFrO.s:570    .text:00000000000002c0 .L0 
     /tmp/cc5cnFrO.s:573    .text:00000000000002c4 .L0 
     /tmp/cc5cnFrO.s:574    .text:00000000000002c4 .L0 
     /tmp/cc5cnFrO.s:577    .text:00000000000002c8 .L0 
     /tmp/cc5cnFrO.s:578    .text:00000000000002c8 .L0 
     /tmp/cc5cnFrO.s:581    .text:00000000000002d0 .L0 
     /tmp/cc5cnFrO.s:587    .text:00000000000002e0 .L0 
     /tmp/cc5cnFrO.s:590    .text:00000000000002e4 .L0 
     /tmp/cc5cnFrO.s:591    .text:00000000000002e4 .L0 
     /tmp/cc5cnFrO.s:592    .text:00000000000002e4 .L0 
     /tmp/cc5cnFrO.s:596    .text:00000000000002f0 .L0 
     /tmp/cc5cnFrO.s:597    .text:00000000000002f0 .L0 
     /tmp/cc5cnFrO.s:599    .text:00000000000002f4 .L0 
         src/ABI.cpp:123    .text:00000000000002f4 .L0 
     /tmp/cc5cnFrO.s:606    .text:00000000000002f8 .L0 
     /tmp/cc5cnFrO.s:610    .text:00000000000002fc .L0 
         src/ABI.cpp:119    .text:00000000000002fc .L0 
     /tmp/cc5cnFrO.s:617    .text:0000000000000300 .L0 
     /tmp/cc5cnFrO.s:622    .text:0000000000000304 .L0 
     /tmp/cc5cnFrO.s:624    .text:0000000000000304 .L0 
     /tmp/cc5cnFrO.s:625    .text:0000000000000304 .L0 
     /tmp/cc5cnFrO.s:626    .text:0000000000000304 .L0 
     /tmp/cc5cnFrO.s:629    .text:0000000000000308 .L0 
     /tmp/cc5cnFrO.s:630    .text:0000000000000308 .L0 
     /tmp/cc5cnFrO.s:635    .text:0000000000000314 .L0 
     /tmp/cc5cnFrO.s:636    .text:0000000000000314 .L0 
     /tmp/cc5cnFrO.s:639    .text:000000000000031c .L0 
     /tmp/cc5cnFrO.s:643    .text:0000000000000328 .L0 
         src/ABI.cpp:130    .text:0000000000000328 .L0 
     /tmp/cc5cnFrO.s:650    .text:000000000000032c .L0 
     /tmp/cc5cnFrO.s:655    .text:0000000000000330 .L0 
     /tmp/cc5cnFrO.s:657    .text:0000000000000330 .L0 
     /tmp/cc5cnFrO.s:658    .text:0000000000000330 .L0 
     /tmp/cc5cnFrO.s:659    .text:0000000000000330 .L0 
     /tmp/cc5cnFrO.s:660    .text:0000000000000330 .L0 
     /tmp/cc5cnFrO.s:665    .text:0000000000000340 .L0 
     /tmp/cc5cnFrO.s:667    .text:0000000000000344 .L0 
         src/ABI.cpp:136    .text:0000000000000344 .L0 
     /tmp/cc5cnFrO.s:674    .text:0000000000000348 .L0 
     /tmp/cc5cnFrO.s:677    .text:000000000000034c .L0 
     /tmp/cc5cnFrO.s:678    .text:000000000000034c .L0 
     /tmp/cc5cnFrO.s:683    .text:0000000000000358 .L0 
     /tmp/cc5cnFrO.s:685    .text:000000000000035c .L0 
GAS LISTING /tmp/cc5cnFrO.s 			page 32


     /tmp/cc5cnFrO.s:686    .text:000000000000035c .L0 
     /tmp/cc5cnFrO.s:691    .text:0000000000000368 .L0 
     /tmp/cc5cnFrO.s:695    .text:000000000000036c .L0 
     /tmp/cc5cnFrO.s:696    .text:000000000000036c .L0 
     /tmp/cc5cnFrO.s:701    .text:0000000000000370 .L0 
     /tmp/cc5cnFrO.s:703    .text:0000000000000370 .L0 
     /tmp/cc5cnFrO.s:704    .text:0000000000000370 .L0 
     /tmp/cc5cnFrO.s:705    .text:0000000000000370 .L0 
     /tmp/cc5cnFrO.s:706    .text:0000000000000370 .L0 
     /tmp/cc5cnFrO.s:710    .text:000000000000037c .L0 
         src/ABI.cpp:145    .text:000000000000037c .L0 
     /tmp/cc5cnFrO.s:717    .text:0000000000000380 .L0 
     /tmp/cc5cnFrO.s:722    .text:0000000000000384 .L0 
     /tmp/cc5cnFrO.s:724    .text:0000000000000384 .L0 
     /tmp/cc5cnFrO.s:725    .text:0000000000000384 .L0 
     /tmp/cc5cnFrO.s:726    .text:0000000000000384 .L0 
     /tmp/cc5cnFrO.s:727    .text:0000000000000384 .L0 
     /tmp/cc5cnFrO.s:728    .text:0000000000000384 .L0 
     /tmp/cc5cnFrO.s:734    .text:0000000000000398 .L0 
     /tmp/cc5cnFrO.s:736    .text:000000000000039c .L0 
         src/ABI.cpp:152    .text:000000000000039c .L0 
     /tmp/cc5cnFrO.s:743    .text:00000000000003a0 .L0 
     /tmp/cc5cnFrO.s:746    .text:00000000000003a4 .L0 
     /tmp/cc5cnFrO.s:747    .text:00000000000003a4 .L0 
     /tmp/cc5cnFrO.s:752    .text:00000000000003b0 .L0 
     /tmp/cc5cnFrO.s:754    .text:00000000000003b4 .L0 
     /tmp/cc5cnFrO.s:755    .text:00000000000003b4 .L0 
     /tmp/cc5cnFrO.s:760    .text:00000000000003c0 .L0 
     /tmp/cc5cnFrO.s:764    .text:00000000000003c4 .L0 
     /tmp/cc5cnFrO.s:765    .text:00000000000003c4 .L0 
     /tmp/cc5cnFrO.s:770    .text:00000000000003c8 .L0 
     /tmp/cc5cnFrO.s:772    .text:00000000000003c8 .L0 
     /tmp/cc5cnFrO.s:773    .text:00000000000003c8 .L0 
     /tmp/cc5cnFrO.s:774    .text:00000000000003c8 .L0 
     /tmp/cc5cnFrO.s:775    .text:00000000000003c8 .L0 
     /tmp/cc5cnFrO.s:776    .text:00000000000003c8 .L0 
     /tmp/cc5cnFrO.s:781    .text:00000000000003d8 .L0 
         src/ABI.cpp:162    .text:00000000000003d8 .L0 
     /tmp/cc5cnFrO.s:788    .text:00000000000003dc .L0 
     /tmp/cc5cnFrO.s:793    .text:00000000000003e0 .L0 
     /tmp/cc5cnFrO.s:795    .text:00000000000003e0 .L0 
     /tmp/cc5cnFrO.s:796    .text:00000000000003e0 .L0 
     /tmp/cc5cnFrO.s:797    .text:00000000000003e0 .L0 
     /tmp/cc5cnFrO.s:800    .text:00000000000003e4 .L0 
     /tmp/cc5cnFrO.s:802    .text:00000000000003e8 .L0 
     /tmp/cc5cnFrO.s:803    .text:00000000000003e8 .L0 
     /tmp/cc5cnFrO.s:807    .text:00000000000003ec .L0 
     /tmp/cc5cnFrO.s:809    .text:00000000000003f0 .L0 
         src/ABI.cpp:169    .text:00000000000003f0 .L0 
     /tmp/cc5cnFrO.s:816    .text:00000000000003f4 .L0 
     /tmp/cc5cnFrO.s:819    .text:00000000000003f8 .L0 
     /tmp/cc5cnFrO.s:820    .text:00000000000003f8 .L0 
     /tmp/cc5cnFrO.s:824    .text:0000000000000404 .L0 
     /tmp/cc5cnFrO.s:825    .text:0000000000000404 .L0 
     /tmp/cc5cnFrO.s:830    .text:0000000000000410 .L0 
     /tmp/cc5cnFrO.s:832    .text:0000000000000414 .L0 
     /tmp/cc5cnFrO.s:833    .text:0000000000000414 .L0 
GAS LISTING /tmp/cc5cnFrO.s 			page 33


     /tmp/cc5cnFrO.s:838    .text:0000000000000420 .L0 
     /tmp/cc5cnFrO.s:842    .text:0000000000000424 .L0 
     /tmp/cc5cnFrO.s:843    .text:0000000000000424 .L0 
     /tmp/cc5cnFrO.s:848    .text:0000000000000428 .L0 
     /tmp/cc5cnFrO.s:850    .text:0000000000000428 .L0 
     /tmp/cc5cnFrO.s:851    .text:0000000000000428 .L0 
     /tmp/cc5cnFrO.s:852    .text:0000000000000428 .L0 
     /tmp/cc5cnFrO.s:857    .text:0000000000000434 .L0 
     /tmp/cc5cnFrO.s:860    .text:000000000000043c .L0 
     /tmp/cc5cnFrO.s:861    .text:000000000000043c .L0 
         src/ABI.cpp:183    .text:0000000000000440 .L0 
     /tmp/cc5cnFrO.s:872    .text:0000000000000448 .L0 
     /tmp/cc5cnFrO.s:873    .text:0000000000000448 .L0 
     /tmp/cc5cnFrO.s:878    .text:0000000000000454 .L0 
     /tmp/cc5cnFrO.s:880    .text:0000000000000458 .L0 
     /tmp/cc5cnFrO.s:881    .text:0000000000000458 .L0 
     /tmp/cc5cnFrO.s:891    .text:0000000000000468 .L0 
     /tmp/cc5cnFrO.s:892    .text:0000000000000468 .L0 
     /tmp/cc5cnFrO.s:899    .text:000000000000046c .L0 
     /tmp/cc5cnFrO.s:901    .text:000000000000046c .L0 
     /tmp/cc5cnFrO.s:902    .text:000000000000046c .L0 
     /tmp/cc5cnFrO.s:903    .text:000000000000046c .L0 
     /tmp/cc5cnFrO.s:904    .text:000000000000046c .L0 
     /tmp/cc5cnFrO.s:909    .text:000000000000047c .L0 
         src/ABI.cpp:190    .text:000000000000047c .L0 
     /tmp/cc5cnFrO.s:916    .text:0000000000000480 .L0 
     /tmp/cc5cnFrO.s:920    .text:0000000000000484 .L0 
     /tmp/cc5cnFrO.s:926    .text:0000000000000484 start_main_thread
     /tmp/cc5cnFrO.s:929    .text:0000000000000484 .L0 
     /tmp/cc5cnFrO.s:930    .text:0000000000000484 .L0 
     /tmp/cc5cnFrO.s:931    .text:0000000000000488 .L0 
     /tmp/cc5cnFrO.s:934    .text:0000000000000490 .L0 
     /tmp/cc5cnFrO.s:935    .text:0000000000000490 .L0 
     /tmp/cc5cnFrO.s:937    .text:0000000000000494 .L0 
     /tmp/cc5cnFrO.s:939    .text:0000000000000494 .L0 
     /tmp/cc5cnFrO.s:940    .text:0000000000000494 .L0 
     /tmp/cc5cnFrO.s:943    .text:000000000000049c .L0 
     /tmp/cc5cnFrO.s:944    .text:000000000000049c .L0 
     /tmp/cc5cnFrO.s:947    .text:00000000000004a4 .L0 
     /tmp/cc5cnFrO.s:948    .text:00000000000004a4 .L0 
     /tmp/cc5cnFrO.s:950    .text:00000000000004ac .L0 
     /tmp/cc5cnFrO.s:952    .text:00000000000004b0 .L0 
     /tmp/cc5cnFrO.s:953    .text:00000000000004b0 .L0 
     /tmp/cc5cnFrO.s:955    .text:00000000000004b4 .L0 
     /tmp/cc5cnFrO.s:957    .text:00000000000004b8 .L0 
     /tmp/cc5cnFrO.s:967    .text:00000000000004b8 .L0 
     /tmp/cc5cnFrO.s:179    .rodata:0000000000000000 .L13
     /tmp/cc5cnFrO.s:171    .text:00000000000000e8 .L0 
     /tmp/cc5cnFrO.s:118    .text:0000000000000098 .L2
     /tmp/cc5cnFrO.s:82     .text:0000000000000074 .L3
     /tmp/cc5cnFrO.s:64     .text:0000000000000050 .L4
     /tmp/cc5cnFrO.s:249    .text:0000000000000100 .L49
     /tmp/cc5cnFrO.s:259    .text:0000000000000108 .L50
     /tmp/cc5cnFrO.s:279    .text:0000000000000124 .L51
     /tmp/cc5cnFrO.s:296    .text:000000000000013c .L52
     /tmp/cc5cnFrO.s:333    .text:000000000000017c .L11
     /tmp/cc5cnFrO.s:307    .text:0000000000000150 .L1
GAS LISTING /tmp/cc5cnFrO.s 			page 34


     /tmp/cc5cnFrO.s:110    .text:0000000000000090 .L5
     /tmp/cc5cnFrO.s:350    .text:0000000000000194 .L47
     /tmp/cc5cnFrO.s:489    .text:000000000000024c .L53
     /tmp/cc5cnFrO.s:478    .text:0000000000000244 .L30
     /tmp/cc5cnFrO.s:552    .text:00000000000002b8 .L54
     /tmp/cc5cnFrO.s:536    .text:0000000000000298 .L32
     /tmp/cc5cnFrO.s:608    .text:00000000000002fc .L55
     /tmp/cc5cnFrO.s:675    .text:000000000000034c .L34
     /tmp/cc5cnFrO.s:693    .text:000000000000036c .L36
     /tmp/cc5cnFrO.s:744    .text:00000000000003a4 .L37
     /tmp/cc5cnFrO.s:762    .text:00000000000003c4 .L39
     /tmp/cc5cnFrO.s:805    .text:00000000000003ec .L40
     /tmp/cc5cnFrO.s:817    .text:00000000000003f8 .L41
     /tmp/cc5cnFrO.s:840    .text:0000000000000424 .L43
     /tmp/cc5cnFrO.s:869    .text:0000000000000448 .L56
     /tmp/cc5cnFrO.s:888    .text:0000000000000468 .L46
     /tmp/cc5cnFrO.s:355    .text:0000000000000198 .L26
     /tmp/cc5cnFrO.s:381    .text:00000000000001b8 .L25
     /tmp/cc5cnFrO.s:401    .text:00000000000001d4 .L24
     /tmp/cc5cnFrO.s:507    .text:0000000000000270 .L23
     /tmp/cc5cnFrO.s:519    .text:0000000000000280 .L22
     /tmp/cc5cnFrO.s:563    .text:00000000000002c0 .L21
     /tmp/cc5cnFrO.s:619    .text:0000000000000304 .L20
     /tmp/cc5cnFrO.s:652    .text:0000000000000330 .L19
     /tmp/cc5cnFrO.s:698    .text:0000000000000370 .L18
     /tmp/cc5cnFrO.s:719    .text:0000000000000384 .L17
     /tmp/cc5cnFrO.s:767    .text:00000000000003c8 .L16
     /tmp/cc5cnFrO.s:790    .text:00000000000003e0 .L15
     /tmp/cc5cnFrO.s:845    .text:0000000000000428 .L14
     /tmp/cc5cnFrO.s:894    .text:000000000000046c .L12
     /tmp/cc5cnFrO.s:2904   .debug_abbrev:0000000000000000 .Ldebug_abbrev0
     /tmp/cc5cnFrO.s:4861   .debug_str:0000000000000954 .LASF170
     /tmp/cc5cnFrO.s:4605   .debug_str:00000000000000d4 .LASF171
     /tmp/cc5cnFrO.s:4841   .debug_str:00000000000008c5 .LASF172
     /tmp/cc5cnFrO.s:5      .text:0000000000000000 .Ltext0
     /tmp/cc5cnFrO.s:960    .text:00000000000004b8 .Letext0
     /tmp/cc5cnFrO.s:4567   .debug_line:0000000000000000 .Ldebug_line0
     /tmp/cc5cnFrO.s:4699   .debug_str:0000000000000420 .LASF0
     /tmp/cc5cnFrO.s:4721   .debug_str:00000000000004cb .LASF1
     /tmp/cc5cnFrO.s:4809   .debug_str:00000000000007d4 .LASF2
     /tmp/cc5cnFrO.s:4651   .debug_str:0000000000000243 .LASF3
     /tmp/cc5cnFrO.s:4811   .debug_str:00000000000007e2 .LASF4
     /tmp/cc5cnFrO.s:4709   .debug_str:0000000000000471 .LASF5
     /tmp/cc5cnFrO.s:4577   .debug_str:0000000000000035 .LASF6
     /tmp/cc5cnFrO.s:4791   .debug_str:0000000000000770 .LASF7
     /tmp/cc5cnFrO.s:4781   .debug_str:000000000000073b .LASF8
     /tmp/cc5cnFrO.s:4713   .debug_str:000000000000048b .LASF9
     /tmp/cc5cnFrO.s:4669   .debug_str:00000000000002df .LASF10
     /tmp/cc5cnFrO.s:4675   .debug_str:0000000000000307 .LASF11
     /tmp/cc5cnFrO.s:4613   .debug_str:0000000000000107 .LASF12
     /tmp/cc5cnFrO.s:4657   .debug_str:0000000000000277 .LASF13
     /tmp/cc5cnFrO.s:4621   .debug_str:0000000000000149 .LASF14
     /tmp/cc5cnFrO.s:4611   .debug_str:00000000000000f7 .LASF15
     /tmp/cc5cnFrO.s:4839   .debug_str:00000000000008b9 .LASF16
     /tmp/cc5cnFrO.s:4643   .debug_str:00000000000001f9 .LASF17
     /tmp/cc5cnFrO.s:4827   .debug_str:0000000000000867 .LASF18
     /tmp/cc5cnFrO.s:4635   .debug_str:00000000000001d4 .LASF23
GAS LISTING /tmp/cc5cnFrO.s 			page 35


     /tmp/cc5cnFrO.s:4615   .debug_str:0000000000000116 .LASF19
     /tmp/cc5cnFrO.s:4591   .debug_str:00000000000000a1 .LASF20
     /tmp/cc5cnFrO.s:4873   .debug_str:0000000000000a77 .LASF21
     /tmp/cc5cnFrO.s:4719   .debug_str:00000000000004c6 .LASF22
     /tmp/cc5cnFrO.s:4773   .debug_str:00000000000006ef .LASF24
     /tmp/cc5cnFrO.s:4787   .debug_str:000000000000075c .LASF95
     /tmp/cc5cnFrO.s:4649   .debug_str:000000000000021f .LASF97
     /tmp/cc5cnFrO.s:4729   .debug_str:000000000000052b .LASF25
     /tmp/cc5cnFrO.s:4703   .debug_str:0000000000000437 .LASF27
     /tmp/cc5cnFrO.s:4607   .debug_str:00000000000000e0 .LASF26
     /tmp/cc5cnFrO.s:4679   .debug_str:000000000000033b .LASF28
     /tmp/cc5cnFrO.s:4833   .debug_str:000000000000088f .LASF29
     /tmp/cc5cnFrO.s:4587   .debug_str:000000000000007a .LASF87
     /tmp/cc5cnFrO.s:4745   .debug_str:00000000000005cc .LASF30
     /tmp/cc5cnFrO.s:4733   .debug_str:0000000000000565 .LASF31
     /tmp/cc5cnFrO.s:4849   .debug_str:000000000000090c .LASF173
     /tmp/cc5cnFrO.s:4863   .debug_str:0000000000000a18 .LASF32
     /tmp/cc5cnFrO.s:4903   .debug_str:0000000000000b5b .LASF33
     /tmp/cc5cnFrO.s:4795   .debug_str:0000000000000785 .LASF34
     /tmp/cc5cnFrO.s:4845   .debug_str:00000000000008f4 .LASF66
     /tmp/cc5cnFrO.s:4717   .debug_str:00000000000004a4 .LASF68
     /tmp/cc5cnFrO.s:4707   .debug_str:000000000000046c .LASF35
     /tmp/cc5cnFrO.s:4639   .debug_str:00000000000001e2 .LASF36
     /tmp/cc5cnFrO.s:4823   .debug_str:0000000000000846 .LASF37
     /tmp/cc5cnFrO.s:4855   .debug_str:0000000000000924 .LASF38
     /tmp/cc5cnFrO.s:4925   .debug_str:0000000000000c02 .LASF39
     /tmp/cc5cnFrO.s:4737   .debug_str:000000000000057b .LASF40
     /tmp/cc5cnFrO.s:4631   .debug_str:00000000000001be .LASF41
     /tmp/cc5cnFrO.s:4589   .debug_str:0000000000000093 .LASF42
     /tmp/cc5cnFrO.s:4641   .debug_str:00000000000001e9 .LASF44
     /tmp/cc5cnFrO.s:4929   .debug_str:0000000000000c14 .LASF43
     /tmp/cc5cnFrO.s:4693   .debug_str:00000000000003be .LASF45
     /tmp/cc5cnFrO.s:4597   .debug_str:00000000000000b4 .LASF46
     /tmp/cc5cnFrO.s:4779   .debug_str:0000000000000728 .LASF47
     /tmp/cc5cnFrO.s:4907   .debug_str:0000000000000b81 .LASF48
     /tmp/cc5cnFrO.s:4857   .debug_str:0000000000000931 .LASF49
     /tmp/cc5cnFrO.s:4691   .debug_str:00000000000003b3 .LASF50
     /tmp/cc5cnFrO.s:4683   .debug_str:000000000000037d .LASF51
     /tmp/cc5cnFrO.s:4807   .debug_str:00000000000007ca .LASF52
     /tmp/cc5cnFrO.s:4619   .debug_str:0000000000000131 .LASF53
     /tmp/cc5cnFrO.s:4755   .debug_str:000000000000061f .LASF54
     /tmp/cc5cnFrO.s:4905   .debug_str:0000000000000b63 .LASF55
     /tmp/cc5cnFrO.s:4761   .debug_str:0000000000000656 .LASF56
     /tmp/cc5cnFrO.s:4665   .debug_str:00000000000002b7 .LASF57
     /tmp/cc5cnFrO.s:4869   .debug_str:0000000000000a50 .LASF58
     /tmp/cc5cnFrO.s:4837   .debug_str:0000000000000899 .LASF59
     /tmp/cc5cnFrO.s:4687   .debug_str:000000000000039e .LASF60
     /tmp/cc5cnFrO.s:4581   .debug_str:0000000000000049 .LASF61
     /tmp/cc5cnFrO.s:4617   .debug_str:000000000000011b .LASF62
     /tmp/cc5cnFrO.s:4723   .debug_str:00000000000004de .LASF63
     /tmp/cc5cnFrO.s:4783   .debug_str:000000000000074e .LASF64
     /tmp/cc5cnFrO.s:4825   .debug_str:000000000000084f .LASF65
     /tmp/cc5cnFrO.s:4599   .debug_str:00000000000000b9 .LASF67
     /tmp/cc5cnFrO.s:4627   .debug_str:0000000000000194 .LASF69
     /tmp/cc5cnFrO.s:4593   .debug_str:00000000000000a6 .LASF70
     /tmp/cc5cnFrO.s:4685   .debug_str:0000000000000397 .LASF73
     /tmp/cc5cnFrO.s:4893   .debug_str:0000000000000b0e .LASF71
GAS LISTING /tmp/cc5cnFrO.s 			page 36


     /tmp/cc5cnFrO.s:4835   .debug_str:0000000000000894 .LASF72
     /tmp/cc5cnFrO.s:4881   .debug_str:0000000000000aa7 .LASF74
     /tmp/cc5cnFrO.s:4913   .debug_str:0000000000000bab .LASF75
     /tmp/cc5cnFrO.s:4667   .debug_str:00000000000002d5 .LASF76
     /tmp/cc5cnFrO.s:4739   .debug_str:0000000000000584 .LASF77
     /tmp/cc5cnFrO.s:4859   .debug_str:000000000000094c .LASF78
     /tmp/cc5cnFrO.s:4927   .debug_str:0000000000000c0d .LASF174
     /tmp/cc5cnFrO.s:4735   .debug_str:0000000000000571 .LASF79
     /tmp/cc5cnFrO.s:4897   .debug_str:0000000000000b24 .LASF80
     /tmp/cc5cnFrO.s:4843   .debug_str:00000000000008ea .LASF81
     /tmp/cc5cnFrO.s:4867   .debug_str:0000000000000a45 .LASF82
     /tmp/cc5cnFrO.s:4751   .debug_str:0000000000000606 .LASF83
     /tmp/cc5cnFrO.s:4579   .debug_str:000000000000003c .LASF84
     /tmp/cc5cnFrO.s:4829   .debug_str:000000000000087d .LASF85
     /tmp/cc5cnFrO.s:4899   .debug_str:0000000000000b2e .LASF175
     /tmp/cc5cnFrO.s:4725   .debug_str:0000000000000508 .LASF176
     /tmp/cc5cnFrO.s:4815   .debug_str:00000000000007f9 .LASF86
     /tmp/cc5cnFrO.s:4865   .debug_str:0000000000000a1d .LASF88
     /tmp/cc5cnFrO.s:4655   .debug_str:000000000000026a .LASF89
     /tmp/cc5cnFrO.s:4677   .debug_str:0000000000000315 .LASF90
     /tmp/cc5cnFrO.s:4883   .debug_str:0000000000000ab1 .LASF91
     /tmp/cc5cnFrO.s:4653   .debug_str:0000000000000249 .LASF93
     /tmp/cc5cnFrO.s:4573   .debug_str:0000000000000018 .LASF92
     /tmp/cc5cnFrO.s:4695   .debug_str:00000000000003da .LASF94
     /tmp/cc5cnFrO.s:4585   .debug_str:000000000000006f .LASF96
     /tmp/cc5cnFrO.s:4769   .debug_str:00000000000006b0 .LASF98
     /tmp/cc5cnFrO.s:4727   .debug_str:0000000000000525 .LASF99
     /tmp/cc5cnFrO.s:4931   .debug_str:0000000000000c20 .LASF100
     /tmp/cc5cnFrO.s:4921   .debug_str:0000000000000bd8 .LASF101
     /tmp/cc5cnFrO.s:4697   .debug_str:00000000000003fc .LASF102
     /tmp/cc5cnFrO.s:4803   .debug_str:00000000000007aa .LASF103
     /tmp/cc5cnFrO.s:4805   .debug_str:00000000000007b2 .LASF104
     /tmp/cc5cnFrO.s:4681   .debug_str:0000000000000361 .LASF177
     /tmp/cc5cnFrO.s:4797   .debug_str:000000000000078d .LASF105
     /tmp/cc5cnFrO.s:4741   .debug_str:000000000000059a .LASF106
     /tmp/cc5cnFrO.s:4661   .debug_str:00000000000002a8 .LASF107
     /tmp/cc5cnFrO.s:4659   .debug_str:0000000000000286 .LASF108
     /tmp/cc5cnFrO.s:4715   .debug_str:000000000000049e .LASF109
     /tmp/cc5cnFrO.s:4819   .debug_str:000000000000081b .LASF110
     /tmp/cc5cnFrO.s:4569   .debug_str:0000000000000000 .LASF111
     /tmp/cc5cnFrO.s:4889   .debug_str:0000000000000aeb .LASF112
     /tmp/cc5cnFrO.s:4799   .debug_str:000000000000079a .LASF113
     /tmp/cc5cnFrO.s:4689   .debug_str:00000000000003ad .LASF114
     /tmp/cc5cnFrO.s:4877   .debug_str:0000000000000a8e .LASF115
     /tmp/cc5cnFrO.s:4821   .debug_str:000000000000083a .LASF116
     /tmp/cc5cnFrO.s:4633   .debug_str:00000000000001c8 .LASF117
     /tmp/cc5cnFrO.s:4601   .debug_str:00000000000000c1 .LASF118
     /tmp/cc5cnFrO.s:4747   .debug_str:00000000000005da .LASF119
     /tmp/cc5cnFrO.s:4785   .debug_str:0000000000000754 .LASF120
     /tmp/cc5cnFrO.s:4623   .debug_str:0000000000000159 .LASF121
     /tmp/cc5cnFrO.s:4909   .debug_str:0000000000000b8d .LASF122
     /tmp/cc5cnFrO.s:4637   .debug_str:00000000000001dd .LASF123
     /tmp/cc5cnFrO.s:4923   .debug_str:0000000000000be3 .LASF124
     /tmp/cc5cnFrO.s:4847   .debug_str:0000000000000905 .LASF125
     /tmp/cc5cnFrO.s:4757   .debug_str:000000000000062e .LASF126
     /tmp/cc5cnFrO.s:4595   .debug_str:00000000000000ae .LASF127
     /tmp/cc5cnFrO.s:4901   .debug_str:0000000000000b3a .LASF128
GAS LISTING /tmp/cc5cnFrO.s 			page 37


     /tmp/cc5cnFrO.s:4711   .debug_str:0000000000000483 .LASF129
     /tmp/cc5cnFrO.s:4775   .debug_str:00000000000006ff .LASF130
     /tmp/cc5cnFrO.s:4583   .debug_str:0000000000000069 .LASF131
     /tmp/cc5cnFrO.s:4871   .debug_str:0000000000000a5f .LASF132
     /tmp/cc5cnFrO.s:4801   .debug_str:00000000000007a5 .LASF133
     /tmp/cc5cnFrO.s:4885   .debug_str:0000000000000ac1 .LASF134
     /tmp/cc5cnFrO.s:4575   .debug_str:0000000000000029 .LASF178
     /tmp/cc5cnFrO.s:4705   .debug_str:0000000000000460 .LASF135
     /tmp/cc5cnFrO.s:4701   .debug_str:000000000000042d .LASF136
     /tmp/cc5cnFrO.s:4609   .debug_str:00000000000000ed .LASF137
     /tmp/cc5cnFrO.s:4895   .debug_str:0000000000000b17 .LASF138
     /tmp/cc5cnFrO.s:4851   .debug_str:0000000000000914 .LASF139
     /tmp/cc5cnFrO.s:4767   .debug_str:00000000000006a5 .LASF140
     /tmp/cc5cnFrO.s:4629   .debug_str:00000000000001b2 .LASF141
     /tmp/cc5cnFrO.s:4777   .debug_str:0000000000000719 .LASF142
     /tmp/cc5cnFrO.s:4571   .debug_str:0000000000000009 .LASF143
     /tmp/cc5cnFrO.s:4673   .debug_str:00000000000002f5 .LASF144
     /tmp/cc5cnFrO.s:4731   .debug_str:000000000000053c .LASF145
     /tmp/cc5cnFrO.s:4879   .debug_str:0000000000000a95 .LASF146
     /tmp/cc5cnFrO.s:4765   .debug_str:0000000000000684 .LASF147
     /tmp/cc5cnFrO.s:4915   .debug_str:0000000000000bb1 .LASF148
     /tmp/cc5cnFrO.s:4625   .debug_str:0000000000000173 .LASF149
     /tmp/cc5cnFrO.s:4817   .debug_str:0000000000000808 .LASF150
     /tmp/cc5cnFrO.s:4813   .debug_str:00000000000007e9 .LASF151
     /tmp/cc5cnFrO.s:4763   .debug_str:0000000000000665 .LASF152
     /tmp/cc5cnFrO.s:4647   .debug_str:0000000000000214 .LASF153
     /tmp/cc5cnFrO.s:4771   .debug_str:00000000000006cc .LASF154
     /tmp/cc5cnFrO.s:4603   .debug_str:00000000000000c9 .LASF155
     /tmp/cc5cnFrO.s:4887   .debug_str:0000000000000ac9 .LASF156
     /tmp/cc5cnFrO.s:4853   .debug_str:000000000000091f .LASF157
     /tmp/cc5cnFrO.s:4875   .debug_str:0000000000000a7c .LASF158
     /tmp/cc5cnFrO.s:927    .text:0000000000000484 .LFB4
     /tmp/cc5cnFrO.s:958    .text:00000000000004b8 .LFE4
     /tmp/cc5cnFrO.s:941    .text:000000000000049c .LVL109
     /tmp/cc5cnFrO.s:945    .text:00000000000004a4 .LVL110
     /tmp/cc5cnFrO.s:4759   .debug_str:0000000000000647 .LASF159
     /tmp/cc5cnFrO.s:10     .text:0000000000000000 .LFB3
     /tmp/cc5cnFrO.s:921    .text:0000000000000484 .LFE3
     /tmp/cc5cnFrO.s:4671   .debug_str:00000000000002ef .LASF179
     /tmp/cc5cnFrO.s:3999   .debug_loc:0000000000000000 .LLST0
     /tmp/cc5cnFrO.s:4831   .debug_str:0000000000000888 .LASF160
     /tmp/cc5cnFrO.s:4043   .debug_loc:00000000000000b1 .LLST1
     /tmp/cc5cnFrO.s:4789   .debug_str:0000000000000768 .LASF161
     /tmp/cc5cnFrO.s:4062   .debug_loc:000000000000010d .LLST2
     /tmp/cc5cnFrO.s:4645   .debug_str:000000000000020f .LASF162
     /tmp/cc5cnFrO.s:4101   .debug_loc:00000000000001c8 .LLST3
     /tmp/cc5cnFrO.s:4553   .debug_ranges:0000000000000000 .Ldebug_ranges0
     /tmp/cc5cnFrO.s:4200   .debug_loc:0000000000000365 .LLST4
     /tmp/cc5cnFrO.s:4211   .debug_loc:000000000000039b .LLST5
     /tmp/cc5cnFrO.s:61     .text:000000000000004c .LBB27
     /tmp/cc5cnFrO.s:83     .text:0000000000000074 .LBE27
     /tmp/cc5cnFrO.s:4222   .debug_loc:00000000000003d1 .LLST6
     /tmp/cc5cnFrO.s:138    .text:00000000000000c4 .LBB29
     /tmp/cc5cnFrO.s:158    .text:00000000000000d0 .LBE29
     /tmp/cc5cnFrO.s:4233   .debug_loc:0000000000000407 .LLST7
     /tmp/cc5cnFrO.s:358    .text:0000000000000198 .LBB32
     /tmp/cc5cnFrO.s:382    .text:00000000000001b8 .LBE32
GAS LISTING /tmp/cc5cnFrO.s 			page 38


     /tmp/cc5cnFrO.s:4246   .debug_loc:000000000000043f .LLST8
     /tmp/cc5cnFrO.s:4253   .debug_loc:0000000000000462 .LLST9
     /tmp/cc5cnFrO.s:366    .text:00000000000001a4 .LVL26
     /tmp/cc5cnFrO.s:370    .text:00000000000001b0 .LVL27
     /tmp/cc5cnFrO.s:385    .text:00000000000001b8 .LBB33
     /tmp/cc5cnFrO.s:402    .text:00000000000001d4 .LBE33
     /tmp/cc5cnFrO.s:4260   .debug_loc:0000000000000485 .LLST10
     /tmp/cc5cnFrO.s:393    .text:00000000000001c4 .LVL30
     /tmp/cc5cnFrO.s:397    .text:00000000000001d0 .LVL31
     /tmp/cc5cnFrO.s:405    .text:00000000000001d4 .LBB34
     /tmp/cc5cnFrO.s:508    .text:0000000000000270 .LBE34
     /tmp/cc5cnFrO.s:4911   .debug_str:0000000000000ba4 .LASF163
     /tmp/cc5cnFrO.s:4267   .debug_loc:00000000000004a8 .LLST11
     /tmp/cc5cnFrO.s:4793   .debug_str:0000000000000777 .LASF164
     /tmp/cc5cnFrO.s:4274   .debug_loc:00000000000004cb .LLST12
     /tmp/cc5cnFrO.s:4891   .debug_str:0000000000000b04 .LASF165
     /tmp/cc5cnFrO.s:4281   .debug_loc:00000000000004ee .LLST13
     /tmp/cc5cnFrO.s:4743   .debug_str:00000000000005c0 .LASF166
     /tmp/cc5cnFrO.s:4288   .debug_loc:0000000000000511 .LLST14
     /tmp/cc5cnFrO.s:4295   .debug_loc:0000000000000534 .LLST15
     /tmp/cc5cnFrO.s:4314   .debug_loc:0000000000000590 .LLST16
     /tmp/cc5cnFrO.s:441    .text:0000000000000208 .LBB35
     /tmp/cc5cnFrO.s:452    .text:0000000000000210 .LBE35
     /tmp/cc5cnFrO.s:4325   .debug_loc:00000000000005c6 .LLST17
     /tmp/cc5cnFrO.s:4332   .debug_loc:00000000000005e9 .LLST18
     /tmp/cc5cnFrO.s:4339   .debug_loc:000000000000060c .LLST19
     /tmp/cc5cnFrO.s:425    .text:00000000000001ec .LVL37
     /tmp/cc5cnFrO.s:429    .text:00000000000001f8 .LVL38
     /tmp/cc5cnFrO.s:439    .text:0000000000000208 .LVL41
     /tmp/cc5cnFrO.s:459    .text:0000000000000224 .LVL43
     /tmp/cc5cnFrO.s:472    .text:000000000000023c .LVL44
     /tmp/cc5cnFrO.s:501    .text:0000000000000264 .LVL47
     /tmp/cc5cnFrO.s:503    .text:000000000000026c .LVL48
     /tmp/cc5cnFrO.s:522    .text:0000000000000280 .LBB37
     /tmp/cc5cnFrO.s:564    .text:00000000000002c0 .LBE37
     /tmp/cc5cnFrO.s:4346   .debug_loc:000000000000062f .LLST20
     /tmp/cc5cnFrO.s:526    .text:0000000000000288 .LVL52
     /tmp/cc5cnFrO.s:542    .text:00000000000002a4 .LVL55
     /tmp/cc5cnFrO.s:548    .text:00000000000002b4 .LVL56
     /tmp/cc5cnFrO.s:567    .text:00000000000002c0 .LBB38
     /tmp/cc5cnFrO.s:620    .text:0000000000000304 .LBE38
     /tmp/cc5cnFrO.s:4361   .debug_loc:0000000000000678 .LLST21
     /tmp/cc5cnFrO.s:4753   .debug_str:0000000000000612 .LASF167
     /tmp/cc5cnFrO.s:4368   .debug_loc:000000000000069b .LLST22
     /tmp/cc5cnFrO.s:4375   .debug_loc:00000000000006be .LLST23
     /tmp/cc5cnFrO.s:4749   .debug_str:00000000000005fc .LASF168
     /tmp/cc5cnFrO.s:4382   .debug_loc:00000000000006e1 .LLST24
     /tmp/cc5cnFrO.s:579    .text:00000000000002d0 .LVL61
     /tmp/cc5cnFrO.s:583    .text:00000000000002dc .LVL62
     /tmp/cc5cnFrO.s:594    .text:00000000000002f0 .LVL65
     /tmp/cc5cnFrO.s:623    .text:0000000000000304 .LBB39
     /tmp/cc5cnFrO.s:653    .text:0000000000000330 .LBE39
     /tmp/cc5cnFrO.s:4389   .debug_loc:0000000000000704 .LLST25
     /tmp/cc5cnFrO.s:633    .text:0000000000000314 .LVL70
     /tmp/cc5cnFrO.s:637    .text:000000000000031c .LVL71
     /tmp/cc5cnFrO.s:641    .text:0000000000000328 .LVL72
     /tmp/cc5cnFrO.s:656    .text:0000000000000330 .LBB40
GAS LISTING /tmp/cc5cnFrO.s 			page 39


     /tmp/cc5cnFrO.s:699    .text:0000000000000370 .LBE40
     /tmp/cc5cnFrO.s:4396   .debug_loc:0000000000000727 .LLST26
     /tmp/cc5cnFrO.s:4919   .debug_str:0000000000000bd1 .LASF169
     /tmp/cc5cnFrO.s:4404   .debug_loc:000000000000074c .LLST27
     /tmp/cc5cnFrO.s:4411   .debug_loc:000000000000076f .LLST28
     /tmp/cc5cnFrO.s:663    .text:0000000000000340 .LVL74
     /tmp/cc5cnFrO.s:679    .text:0000000000000354 .LVL75
     /tmp/cc5cnFrO.s:689    .text:0000000000000368 .LVL78
     /tmp/cc5cnFrO.s:702    .text:0000000000000370 .LBB41
     /tmp/cc5cnFrO.s:720    .text:0000000000000384 .LBE41
     /tmp/cc5cnFrO.s:4426   .debug_loc:00000000000007b8 .LLST29
     /tmp/cc5cnFrO.s:708    .text:000000000000037c .LVL81
     /tmp/cc5cnFrO.s:723    .text:0000000000000384 .LBB42
     /tmp/cc5cnFrO.s:768    .text:00000000000003c8 .LBE42
     /tmp/cc5cnFrO.s:4434   .debug_loc:00000000000007dd .LLST30
     /tmp/cc5cnFrO.s:4442   .debug_loc:0000000000000802 .LLST31
     /tmp/cc5cnFrO.s:4450   .debug_loc:0000000000000827 .LLST32
     /tmp/cc5cnFrO.s:4457   .debug_loc:000000000000084a .LLST33
     /tmp/cc5cnFrO.s:732    .text:0000000000000398 .LVL83
     /tmp/cc5cnFrO.s:748    .text:00000000000003ac .LVL84
     /tmp/cc5cnFrO.s:758    .text:00000000000003c0 .LVL87
     /tmp/cc5cnFrO.s:771    .text:00000000000003c8 .LBB43
     /tmp/cc5cnFrO.s:791    .text:00000000000003e0 .LBE43
     /tmp/cc5cnFrO.s:4472   .debug_loc:0000000000000893 .LLST34
     /tmp/cc5cnFrO.s:4480   .debug_loc:00000000000008b8 .LLST35
     /tmp/cc5cnFrO.s:779    .text:00000000000003d8 .LVL90
     /tmp/cc5cnFrO.s:794    .text:00000000000003e0 .LBB44
     /tmp/cc5cnFrO.s:846    .text:0000000000000428 .LBE44
     /tmp/cc5cnFrO.s:4488   .debug_loc:00000000000008dd .LLST36
     /tmp/cc5cnFrO.s:4495   .debug_loc:0000000000000900 .LLST37
     /tmp/cc5cnFrO.s:822    .text:0000000000000404 .LVL94
     /tmp/cc5cnFrO.s:826    .text:000000000000040c .LVL95
     /tmp/cc5cnFrO.s:836    .text:0000000000000420 .LVL98
     /tmp/cc5cnFrO.s:849    .text:0000000000000428 .LBB45
     /tmp/cc5cnFrO.s:897    .text:000000000000046c .LBE45
     /tmp/cc5cnFrO.s:4510   .debug_loc:0000000000000949 .LLST38
     /tmp/cc5cnFrO.s:4517   .debug_loc:000000000000096c .LLST39
     /tmp/cc5cnFrO.s:874    .text:0000000000000450 .LVL102
     /tmp/cc5cnFrO.s:884    .text:0000000000000464 .LVL105
     /tmp/cc5cnFrO.s:854    .text:0000000000000434 .LVL101
     /tmp/cc5cnFrO.s:900    .text:000000000000046c .LBB49
     /tmp/cc5cnFrO.s:917    .text:0000000000000484 .LBE49
     /tmp/cc5cnFrO.s:4532   .debug_loc:00000000000009b5 .LLST40
     /tmp/cc5cnFrO.s:907    .text:000000000000047c .LVL108
     /tmp/cc5cnFrO.s:50     .text:000000000000003c .LVL2
     /tmp/cc5cnFrO.s:54     .text:0000000000000044 .LVL3
     /tmp/cc5cnFrO.s:266    .text:0000000000000114 .LVL18
     /tmp/cc5cnFrO.s:283    .text:000000000000012c .LVL19
     /tmp/cc5cnFrO.s:305    .text:0000000000000150 .LVL20
     /tmp/cc5cnFrO.s:515    .text:000000000000027c .LVL50
     /tmp/cc5cnFrO.s:4663   .debug_str:00000000000002b2 .LASF180
     /tmp/cc5cnFrO.s:4917   .debug_str:0000000000000bc2 .LASF181
     /tmp/cc5cnFrO.s:14     .text:0000000000000000 .LVL0
     /tmp/cc5cnFrO.s:332    .text:000000000000017c .LVL21
     /tmp/cc5cnFrO.s:528    .text:000000000000028c .LVL53
     /tmp/cc5cnFrO.s:562    .text:00000000000002c0 .LVL58
     /tmp/cc5cnFrO.s:575    .text:00000000000002c8 .LVL60
GAS LISTING /tmp/cc5cnFrO.s 			page 40


     /tmp/cc5cnFrO.s:618    .text:0000000000000304 .LVL67
     /tmp/cc5cnFrO.s:45     .text:0000000000000034 .LVL1
     /tmp/cc5cnFrO.s:431    .text:00000000000001fc .LVL39
     /tmp/cc5cnFrO.s:506    .text:0000000000000270 .LVL49
     /tmp/cc5cnFrO.s:571    .text:00000000000002c4 .LVL59
     /tmp/cc5cnFrO.s:56     .text:0000000000000048 .LVL4
     /tmp/cc5cnFrO.s:362    .text:000000000000019c .LVL25
     /tmp/cc5cnFrO.s:380    .text:00000000000001b8 .LVL28
     /tmp/cc5cnFrO.s:389    .text:00000000000001bc .LVL29
     /tmp/cc5cnFrO.s:400    .text:00000000000001d4 .LVL32
     /tmp/cc5cnFrO.s:585    .text:00000000000002e0 .LVL63
     /tmp/cc5cnFrO.s:627    .text:0000000000000308 .LVL68
     /tmp/cc5cnFrO.s:631    .text:000000000000030c .LVL69
     /tmp/cc5cnFrO.s:651    .text:0000000000000330 .LVL73
     /tmp/cc5cnFrO.s:162    .text:00000000000000d4 .LVL13
     /tmp/cc5cnFrO.s:170    .text:00000000000000e8 .LVL14
     /tmp/cc5cnFrO.s:248    .text:0000000000000100 .LVL15
     /tmp/cc5cnFrO.s:346    .text:000000000000018c .LVL22
     /tmp/cc5cnFrO.s:349    .text:0000000000000194 .LVL23
     /tmp/cc5cnFrO.s:354    .text:0000000000000198 .LVL24
     /tmp/cc5cnFrO.s:518    .text:0000000000000280 .LVL51
     /tmp/cc5cnFrO.s:697    .text:0000000000000370 .LVL80
     /tmp/cc5cnFrO.s:718    .text:0000000000000384 .LVL82
     /tmp/cc5cnFrO.s:766    .text:00000000000003c8 .LVL89
     /tmp/cc5cnFrO.s:789    .text:00000000000003e0 .LVL91
     /tmp/cc5cnFrO.s:804    .text:00000000000003ec .LVL93
     /tmp/cc5cnFrO.s:844    .text:0000000000000428 .LVL100
     /tmp/cc5cnFrO.s:893    .text:000000000000046c .LVL107
     /tmp/cc5cnFrO.s:96     .text:0000000000000080 .LVL8
     /tmp/cc5cnFrO.s:117    .text:0000000000000098 .LVL10
     /tmp/cc5cnFrO.s:258    .text:0000000000000108 .LVL17
     /tmp/cc5cnFrO.s:102    .text:0000000000000084 .LVL9
     /tmp/cc5cnFrO.s:65     .text:0000000000000050 .LVL5
     /tmp/cc5cnFrO.s:79     .text:0000000000000070 .LVL6
     /tmp/cc5cnFrO.s:81     .text:0000000000000074 .LVL7
     /tmp/cc5cnFrO.s:146    .text:00000000000000c8 .LVL11
     /tmp/cc5cnFrO.s:151    .text:00000000000000cc .LVL12
     /tmp/cc5cnFrO.s:409    .text:00000000000001d8 .LVL33
     /tmp/cc5cnFrO.s:413    .text:00000000000001dc .LVL34
     /tmp/cc5cnFrO.s:417    .text:00000000000001e0 .LVL35
     /tmp/cc5cnFrO.s:421    .text:00000000000001e4 .LVL36
     /tmp/cc5cnFrO.s:488    .text:000000000000024c .LVL45
     /tmp/cc5cnFrO.s:499    .text:000000000000025c .LVL46
     /tmp/cc5cnFrO.s:435    .text:0000000000000200 .LVL40
     /tmp/cc5cnFrO.s:450    .text:0000000000000210 .LVL42
     /tmp/cc5cnFrO.s:540    .text:000000000000029c .LVL54
     /tmp/cc5cnFrO.s:551    .text:00000000000002b8 .LVL57
     /tmp/cc5cnFrO.s:589    .text:00000000000002e4 .LVL64
     /tmp/cc5cnFrO.s:607    .text:00000000000002fc .LVL66
     /tmp/cc5cnFrO.s:681    .text:0000000000000358 .LVL76
     /tmp/cc5cnFrO.s:687    .text:0000000000000360 .LVL77
     /tmp/cc5cnFrO.s:692    .text:000000000000036c .LVL79
     /tmp/cc5cnFrO.s:750    .text:00000000000003b0 .LVL85
     /tmp/cc5cnFrO.s:756    .text:00000000000003b8 .LVL86
     /tmp/cc5cnFrO.s:761    .text:00000000000003c4 .LVL88
     /tmp/cc5cnFrO.s:798    .text:00000000000003e4 .LVL92
     /tmp/cc5cnFrO.s:828    .text:0000000000000410 .LVL96
GAS LISTING /tmp/cc5cnFrO.s 			page 41


     /tmp/cc5cnFrO.s:834    .text:0000000000000418 .LVL97
     /tmp/cc5cnFrO.s:839    .text:0000000000000424 .LVL99
     /tmp/cc5cnFrO.s:876    .text:0000000000000454 .LVL103
     /tmp/cc5cnFrO.s:882    .text:000000000000045c .LVL104
     /tmp/cc5cnFrO.s:887    .text:0000000000000468 .LVL106
     /tmp/cc5cnFrO.s:968    .debug_info:0000000000000000 .Ldebug_info0
     /tmp/cc5cnFrO.s:60     .text:000000000000004c .LBB26
     /tmp/cc5cnFrO.s:119    .text:0000000000000098 .LBE26
     /tmp/cc5cnFrO.s:252    .text:0000000000000100 .LBB28
     /tmp/cc5cnFrO.s:260    .text:0000000000000108 .LBE28
     /tmp/cc5cnFrO.s:870    .text:0000000000000448 .LBB47
     /tmp/cc5cnFrO.s:885    .text:0000000000000464 .LBE47
     /tmp/cc5cnFrO.s:889    .text:0000000000000468 .LBB48
     /tmp/cc5cnFrO.s:895    .text:000000000000046c .LBE48

UNDEFINED SYMBOLS
_ZN9Scheduler8freeDeadEv
_ZN9Scheduler10GetRunningEv
_ZN9Scheduler9timerTickEP7KThread
_ZN7Konsole15handleInterruptEv
_ZN9Scheduler10ThreadExitEP7KThread
_ZN15MemoryAllocator11GetInstanceEv
_ZN15MemoryAllocator16AllocateFragmentEm
_ZN15MemoryAllocator12FreeFragmentEPv
_ZN7KThread4initEv
_ZN7KThread5setupEPS_Pm
_ZN9Scheduler3PutEP7KThread
_ZN7KThread10getContextEv
restoreContext
_ZN9Scheduler7GetNextEv
_ZN9Scheduler5yieldEP7KThreadS1_
_ZN10KSemaphore4initEj
_ZN10KSemaphore5closeEv
_ZN10KSemaphore4waitEP7KThread
_ZN10KSemaphore6signalEv
_ZN10KSemaphore5waitNEP7KThreadj
_ZN10KSemaphore7signalNEj
_ZN9Scheduler5sleepEP7KThreadm
_ZN7Konsole10getcKernelEP7KThread
_ZN7Konsole10putcKernelEP7KThreadc
_ZN9Scheduler16SetupStartThreadEv
_ZN7Konsole4initEv
