GAS LISTING /tmp/ccm56XBe.s 			page 1


   1              		.file	"ABI.cpp"
   2              		.option pic
   3              		.option norelax
   4              		.text
   5              	.Ltext0:
   6              		.section	.text._ZN14FunctionThread3runEv,"axG",@progbits,_ZN14FunctionThread3runEv,comdat
   7              		.align	2
   8              		.weak	_ZN14FunctionThread3runEv
  10              	_ZN14FunctionThread3runEv:
  11              	.LFB6:
  12              		.file 1 "src/ABI.cpp"
   1:src/ABI.cpp   **** //
   2:src/ABI.cpp   **** // Created by os on 5/6/26.
   3:src/ABI.cpp   **** //
   4:src/ABI.cpp   **** #include "./MemoryAllocator.hpp"
   5:src/ABI.cpp   **** #include "Thread.hpp"
   6:src/ABI.cpp   **** #include "APIC.h"
   7:src/ABI.cpp   **** 
   8:src/ABI.cpp   **** extern "C" void HandleInterupt(uint64 code){
   9:src/ABI.cpp   ****     __asm__ volatile("mv %[code],a0":[code]"=r"(code));
  10:src/ABI.cpp   ****     uint64 scause=0;
  11:src/ABI.cpp   ****     __asm__ volatile("csrr %[scause],scause":[scause]"=r"(scause));
  12:src/ABI.cpp   ****     if (scause !=8&&scause !=9) {
  13:src/ABI.cpp   ****         __asm__ volatile("csrw scause,0");
  14:src/ABI.cpp   ****         return;
  15:src/ABI.cpp   ****     }
  16:src/ABI.cpp   ****     uint64 sepc;
  17:src/ABI.cpp   ****     __asm__ volatile("csrr %0, sepc" : "=r"(sepc));
  18:src/ABI.cpp   ****     __asm__ volatile("csrw sepc, %0" :: "r"(sepc + 4));
  19:src/ABI.cpp   ****     switch (code) {
  20:src/ABI.cpp   ****         case 0x01: {
  21:src/ABI.cpp   ****             size_t size=0;
  22:src/ABI.cpp   ****             __asm__ volatile("mv %[size],a1":[size]"=r"(size));
  23:src/ABI.cpp   ****             void* ptr = MemoryAllocator::GetInstance().AllocateFragment(size);
  24:src/ABI.cpp   ****             __asm__ volatile("mv a0,%[res]"::[res]"r"(ptr));
  25:src/ABI.cpp   ****             break;
  26:src/ABI.cpp   ****         }
  27:src/ABI.cpp   ****         case 0x02: {
  28:src/ABI.cpp   ****             void* ptr=nullptr;
  29:src/ABI.cpp   ****             __asm__ volatile("mv %[ptr],a1":[ptr]"=r"(ptr));
  30:src/ABI.cpp   ****             MemoryAllocator::GetInstance().FreeFragment(ptr);
  31:src/ABI.cpp   ****             break;
  32:src/ABI.cpp   ****         }
  33:src/ABI.cpp   ****         default: {
  34:src/ABI.cpp   ****             break;
  35:src/ABI.cpp   ****         }
  36:src/ABI.cpp   ****     }
  37:src/ABI.cpp   ****     return;
  38:src/ABI.cpp   **** }
  39:src/ABI.cpp   **** 
  40:src/ABI.cpp   **** inline void* operator new(size_t, void* p) { return p; }
  41:src/ABI.cpp   **** 
  42:src/ABI.cpp   **** class FunctionThread : public Thread {
  43:src/ABI.cpp   **** public:
  44:src/ABI.cpp   ****     FunctionThread(void (*f)(void)) : func(f) {}
  45:src/ABI.cpp   ****     void run() override { func(); }
  13              		.loc 1 45 10
GAS LISTING /tmp/ccm56XBe.s 			page 2


  14              		.cfi_startproc
  15              	.LVL0:
  16 0000 130101FF 		addi	sp,sp,-16
  17              		.cfi_def_cfa_offset 16
  18 0004 23341100 		sd	ra,8(sp)
  19 0008 23308100 		sd	s0,0(sp)
  20              		.cfi_offset 1, -8
  21              		.cfi_offset 8, -16
  22 000c 13040101 		addi	s0,sp,16
  23              		.cfi_def_cfa 8, 0
  24              		.loc 1 45 27
  25 0010 B7870000 		li	a5,32768
  26 0014 3305F500 		add	a0,a0,a5
  27              	.LVL1:
  28 0018 83378513 		ld	a5,312(a0)
  29              		.loc 1 45 31 is_stmt 0
  30 001c E7800700 		jalr	a5
  31              	.LVL2:
  32              		.loc 1 45 35
  33 0020 83308100 		ld	ra,8(sp)
  34              		.cfi_restore 1
  35 0024 03340100 		ld	s0,0(sp)
  36              		.cfi_restore 8
  37              		.cfi_def_cfa 2, 16
  38 0028 13010101 		addi	sp,sp,16
  39              		.cfi_def_cfa_offset 0
  40 002c 67800000 		jr	ra
  41              		.cfi_endproc
  42              	.LFE6:
  44              		.text
  45              		.align	2
  46              		.globl	HandleInterupt
  48              	HandleInterupt:
  49              	.LFB1:
   8:src/ABI.cpp   ****     __asm__ volatile("mv %[code],a0":[code]"=r"(code));
  50              		.loc 1 8 44 is_stmt 1
  51              		.cfi_startproc
  52              	.LVL3:
   9:src/ABI.cpp   ****     uint64 scause=0;
  53              		.loc 1 9 5
   9:src/ABI.cpp   ****     uint64 scause=0;
  54              		.loc 1 9 55 is_stmt 0
  55              	#APP
  56              	# 9 "src/ABI.cpp" 1
  57              		mv a4,a0
  58              	# 0 "" 2
  59              	.LVL4:
  10:src/ABI.cpp   ****     __asm__ volatile("csrr %[scause],scause":[scause]"=r"(scause));
  60              		.loc 1 10 5 is_stmt 1
  11:src/ABI.cpp   ****     if (scause !=8&&scause !=9) {
  61              		.loc 1 11 5
  11:src/ABI.cpp   ****     if (scause !=8&&scause !=9) {
  62              		.loc 1 11 67 is_stmt 0
  63              	# 11 "src/ABI.cpp" 1
  64              		csrr a5,scause
  65              	# 0 "" 2
  66              	.LVL5:
GAS LISTING /tmp/ccm56XBe.s 			page 3


  12:src/ABI.cpp   ****         __asm__ volatile("csrw scause,0");
  67              		.loc 1 12 5 is_stmt 1
  12:src/ABI.cpp   ****         __asm__ volatile("csrw scause,0");
  68              		.loc 1 12 19 is_stmt 0
  69              	#NO_APP
  70 0008 938787FF 		addi	a5,a5,-8
  71              	.LVL6:
  12:src/ABI.cpp   ****         __asm__ volatile("csrw scause,0");
  72              		.loc 1 12 5
  73 000c 93061000 		li	a3,1
  74 0010 63E4F604 		bgtu	a5,a3,.L11
   8:src/ABI.cpp   ****     __asm__ volatile("mv %[code],a0":[code]"=r"(code));
  75              		.loc 1 8 44
  76 0014 130101FE 		addi	sp,sp,-32
  77              		.cfi_def_cfa_offset 32
  78 0018 233C1100 		sd	ra,24(sp)
  79 001c 23388100 		sd	s0,16(sp)
  80 0020 23349100 		sd	s1,8(sp)
  81              		.cfi_offset 1, -8
  82              		.cfi_offset 8, -16
  83              		.cfi_offset 9, -24
  84 0024 13040102 		addi	s0,sp,32
  85              		.cfi_def_cfa 8, 0
  16:src/ABI.cpp   ****     __asm__ volatile("csrr %0, sepc" : "=r"(sepc));
  86              		.loc 1 16 5 is_stmt 1
  17:src/ABI.cpp   ****     __asm__ volatile("csrw sepc, %0" :: "r"(sepc + 4));
  87              		.loc 1 17 5
  17:src/ABI.cpp   ****     __asm__ volatile("csrw sepc, %0" :: "r"(sepc + 4));
  88              		.loc 1 17 51 is_stmt 0
  89              	#APP
  90              	# 17 "src/ABI.cpp" 1
  91              		csrr a5, sepc
  92              	# 0 "" 2
  93              	.LVL7:
  18:src/ABI.cpp   ****     switch (code) {
  94              		.loc 1 18 5 is_stmt 1
  18:src/ABI.cpp   ****     switch (code) {
  95              		.loc 1 18 50 is_stmt 0
  96              	#NO_APP
  97 002c 93874700 		addi	a5,a5,4
  98              	.LVL8:
  18:src/ABI.cpp   ****     switch (code) {
  99              		.loc 1 18 55
 100              	#APP
 101              	# 18 "src/ABI.cpp" 1
  19:src/ABI.cpp   ****         case 0x01: {
 102              		csrw sepc, a5
 103              	# 0 "" 2
 104              		.loc 1 19 5 is_stmt 1
 105              	#NO_APP
 106              	.LBB7:
 107 0034 93071000 		li	a5,1
 108              	.LVL9:
 109 0038 6304F702 		beq	a4,a5,.L6
 110 003c 93072000 		li	a5,2
 111 0040 6300F704 		beq	a4,a5,.L7
 112              	.LVL10:
GAS LISTING /tmp/ccm56XBe.s 			page 4


 113              	.L3:
 114              	.LBE7:
  38:src/ABI.cpp   **** 
 115              		.loc 1 38 1 is_stmt 0
 116 0044 83308101 		ld	ra,24(sp)
 117              		.cfi_restore 1
 118 0048 03340101 		ld	s0,16(sp)
 119              		.cfi_restore 8
 120              		.cfi_def_cfa 2, 32
 121 004c 83348100 		ld	s1,8(sp)
 122              		.cfi_restore 9
 123 0050 13010102 		addi	sp,sp,32
 124              		.cfi_def_cfa_offset 0
 125 0054 67800000 		jr	ra
 126              	.LVL11:
 127              	.L11:
  13:src/ABI.cpp   ****         return;
 128              		.loc 1 13 9 is_stmt 1
  13:src/ABI.cpp   ****         return;
 129              		.loc 1 13 42 is_stmt 0
 130              	#APP
 131              	# 13 "src/ABI.cpp" 1
  14:src/ABI.cpp   ****     }
 132              		csrw scause,0
 133              	# 0 "" 2
 134              		.loc 1 14 9 is_stmt 1
 135              	#NO_APP
 136 005c 67800000 		ret
 137              	.LVL12:
 138              	.L6:
 139              		.cfi_def_cfa_register 8
 140              		.cfi_offset 1, -8
 141              		.cfi_offset 8, -16
 142              		.cfi_offset 9, -24
  20:src/ABI.cpp   ****             size_t size=0;
 143              		.loc 1 20 9
  20:src/ABI.cpp   ****             size_t size=0;
 144              		.loc 1 20 20
 145              	.LBB10:
 146              	.LBB8:
  21:src/ABI.cpp   ****             __asm__ volatile("mv %[size],a1":[size]"=r"(size));
 147              		.loc 1 21 13
  22:src/ABI.cpp   ****             void* ptr = MemoryAllocator::GetInstance().AllocateFragment(size);
 148              		.loc 1 22 13
  22:src/ABI.cpp   ****             void* ptr = MemoryAllocator::GetInstance().AllocateFragment(size);
 149              		.loc 1 22 63 is_stmt 0
 150              	#APP
 151              	# 22 "src/ABI.cpp" 1
 152              		mv s1,a1
 153              	# 0 "" 2
 154              	.LVL13:
  23:src/ABI.cpp   ****             __asm__ volatile("mv a0,%[res]"::[res]"r"(ptr));
 155              		.loc 1 23 13 is_stmt 1
  23:src/ABI.cpp   ****             __asm__ volatile("mv a0,%[res]"::[res]"r"(ptr));
 156              		.loc 1 23 54 is_stmt 0
 157              	#NO_APP
 158 0064 97000000 		call	_ZN15MemoryAllocator11GetInstanceEv@plt
GAS LISTING /tmp/ccm56XBe.s 			page 5


 158      E7800000 
 159              	.LVL14:
  23:src/ABI.cpp   ****             __asm__ volatile("mv a0,%[res]"::[res]"r"(ptr));
 160              		.loc 1 23 72
 161 006c 93850400 		mv	a1,s1
 162 0070 97000000 		call	_ZN15MemoryAllocator16AllocateFragmentEm@plt
 162      E7800000 
 163              	.LVL15:
  24:src/ABI.cpp   ****             break;
 164              		.loc 1 24 13 is_stmt 1
  24:src/ABI.cpp   ****             break;
 165              		.loc 1 24 60 is_stmt 0
 166              	#APP
 167              	# 24 "src/ABI.cpp" 1
  25:src/ABI.cpp   ****         }
 168              		mv a0,a0
 169              	# 0 "" 2
 170              		.loc 1 25 13 is_stmt 1
 171              	#NO_APP
 172 007c 6FF09FFC 		j	.L3
 173              	.LVL16:
 174              	.L7:
 175              	.LBE8:
 176              	.LBE10:
  27:src/ABI.cpp   ****             void* ptr=nullptr;
 177              		.loc 1 27 9
  27:src/ABI.cpp   ****             void* ptr=nullptr;
 178              		.loc 1 27 20
 179              	.LBB11:
 180              	.LBB9:
  28:src/ABI.cpp   ****             __asm__ volatile("mv %[ptr],a1":[ptr]"=r"(ptr));
 181              		.loc 1 28 13
  29:src/ABI.cpp   ****             MemoryAllocator::GetInstance().FreeFragment(ptr);
 182              		.loc 1 29 13
  29:src/ABI.cpp   ****             MemoryAllocator::GetInstance().FreeFragment(ptr);
 183              		.loc 1 29 60 is_stmt 0
 184              	#APP
 185              	# 29 "src/ABI.cpp" 1
 186              		mv s1,a1
 187              	# 0 "" 2
 188              	.LVL17:
  30:src/ABI.cpp   ****             break;
 189              		.loc 1 30 13 is_stmt 1
  30:src/ABI.cpp   ****             break;
 190              		.loc 1 30 42 is_stmt 0
 191              	#NO_APP
 192 0084 97000000 		call	_ZN15MemoryAllocator11GetInstanceEv@plt
 192      E7800000 
 193              	.LVL18:
  30:src/ABI.cpp   ****             break;
 194              		.loc 1 30 56
 195 008c 93850400 		mv	a1,s1
 196 0090 97000000 		call	_ZN15MemoryAllocator12FreeFragmentEPv@plt
 196      E7800000 
 197              	.LVL19:
  31:src/ABI.cpp   ****         }
 198              		.loc 1 31 13 is_stmt 1
GAS LISTING /tmp/ccm56XBe.s 			page 6


 199 0098 6FF0DFFA 		j	.L3
 200              	.LBE9:
 201              	.LBE11:
 202              		.cfi_endproc
 203              	.LFE1:
 205              		.align	2
 206              		.globl	thread_create
 208              	thread_create:
 209              	.LFB7:
  46:src/ABI.cpp   **** private:
  47:src/ABI.cpp   ****     void (*func)(void);
  48:src/ABI.cpp   **** };
  49:src/ABI.cpp   **** 
  50:src/ABI.cpp   **** extern "C" {
  51:src/ABI.cpp   **** thread_t thread_create(void (*body)(void)) {
 210              		.loc 1 51 44
 211              		.cfi_startproc
 212              	.LVL20:
 213 009c 130101FD 		addi	sp,sp,-48
 214              		.cfi_def_cfa_offset 48
 215 00a0 23341102 		sd	ra,40(sp)
 216 00a4 23308102 		sd	s0,32(sp)
 217 00a8 233C9100 		sd	s1,24(sp)
 218 00ac 23382101 		sd	s2,16(sp)
 219 00b0 23343101 		sd	s3,8(sp)
 220              		.cfi_offset 1, -8
 221              		.cfi_offset 8, -16
 222              		.cfi_offset 9, -24
 223              		.cfi_offset 18, -32
 224              		.cfi_offset 19, -40
 225 00b4 13040103 		addi	s0,sp,48
 226              		.cfi_def_cfa 8, 0
 227 00b8 93090500 		mv	s3,a0
  52:src/ABI.cpp   ****     void* mem = mem_alloc(sizeof(FunctionThread));
 228              		.loc 1 52 5
 229              		.loc 1 52 26 is_stmt 0
 230 00bc 37890000 		li	s2,32768
 231 00c0 13050914 		addi	a0,s2,320
 232              	.LVL21:
 233 00c4 97000000 		call	mem_alloc@plt
 233      E7800000 
 234              	.LVL22:
 235 00cc 93040500 		mv	s1,a0
 236              	.LVL23:
  53:src/ABI.cpp   ****     return new(mem) FunctionThread(body);
 237              		.loc 1 53 5 is_stmt 1
  40:src/ABI.cpp   **** 
 238              		.loc 1 40 46
 239              	.LBB12:
 240              	.LBB13:
  44:src/ABI.cpp   ****     void run() override { func(); }
 241              		.loc 1 44 45 is_stmt 0
 242 00d0 97000000 		call	_ZN6ThreadC2Ev@plt
 242      E7800000 
 243              	.LVL24:
 244 00d8 97070000 		lla	a5,_ZTV14FunctionThread+16
 244      93870700 
GAS LISTING /tmp/ccm56XBe.s 			page 7


 245 00e0 23B0F400 		sd	a5,0(s1)
 246 00e4 33892401 		add	s2,s1,s2
 247 00e8 233C3913 		sd	s3,312(s2)
 248              	.LVL25:
 249              	.LBE13:
 250              	.LBE12:
  54:src/ABI.cpp   **** }
 251              		.loc 1 54 1
 252 00ec 13850400 		mv	a0,s1
 253 00f0 83308102 		ld	ra,40(sp)
 254              		.cfi_restore 1
 255 00f4 03340102 		ld	s0,32(sp)
 256              		.cfi_restore 8
 257              		.cfi_def_cfa 2, 48
 258 00f8 83348101 		ld	s1,24(sp)
 259              		.cfi_restore 9
 260              	.LVL26:
 261 00fc 03390101 		ld	s2,16(sp)
 262              		.cfi_restore 18
 263 0100 83398100 		ld	s3,8(sp)
 264              		.cfi_restore 19
 265              	.LVL27:
 266 0104 13010103 		addi	sp,sp,48
 267              		.cfi_def_cfa_offset 0
 268 0108 67800000 		jr	ra
 269              		.cfi_endproc
 270              	.LFE7:
 272              		.align	2
 273              		.globl	thread_start
 275              	thread_start:
 276              	.LFB8:
  55:src/ABI.cpp   **** int thread_start(thread_t t) {
 277              		.loc 1 55 30 is_stmt 1
 278              		.cfi_startproc
 279              	.LVL28:
 280 010c 130101FF 		addi	sp,sp,-16
 281              		.cfi_def_cfa_offset 16
 282 0110 23341100 		sd	ra,8(sp)
 283 0114 23308100 		sd	s0,0(sp)
 284              		.cfi_offset 1, -8
 285              		.cfi_offset 8, -16
 286 0118 13040101 		addi	s0,sp,16
 287              		.cfi_def_cfa 8, 0
  56:src/ABI.cpp   ****     ((Thread*)t)->start();
 288              		.loc 1 56 5
 289              		.loc 1 56 24 is_stmt 0
 290 011c 97000000 		call	_ZN6Thread5startEv@plt
 290      E7800000 
 291              	.LVL29:
  57:src/ABI.cpp   ****     return 0;
 292              		.loc 1 57 5 is_stmt 1
  58:src/ABI.cpp   **** }
 293              		.loc 1 58 1 is_stmt 0
 294 0124 13050000 		li	a0,0
 295 0128 83308100 		ld	ra,8(sp)
 296              		.cfi_restore 1
 297 012c 03340100 		ld	s0,0(sp)
GAS LISTING /tmp/ccm56XBe.s 			page 8


 298              		.cfi_restore 8
 299              		.cfi_def_cfa 2, 16
 300 0130 13010101 		addi	sp,sp,16
 301              		.cfi_def_cfa_offset 0
 302 0134 67800000 		jr	ra
 303              		.cfi_endproc
 304              	.LFE8:
 306              		.align	2
 307              		.globl	thread_join
 309              	thread_join:
 310              	.LFB9:
  59:src/ABI.cpp   **** int thread_join(thread_t t) {
 311              		.loc 1 59 29 is_stmt 1
 312              		.cfi_startproc
 313              	.LVL30:
 314 0138 130101FF 		addi	sp,sp,-16
 315              		.cfi_def_cfa_offset 16
 316 013c 23341100 		sd	ra,8(sp)
 317 0140 23308100 		sd	s0,0(sp)
 318              		.cfi_offset 1, -8
 319              		.cfi_offset 8, -16
 320 0144 13040101 		addi	s0,sp,16
 321              		.cfi_def_cfa 8, 0
  60:src/ABI.cpp   ****     ((Thread*)t)->join();
 322              		.loc 1 60 5
 323              		.loc 1 60 23 is_stmt 0
 324 0148 97000000 		call	_ZN6Thread4joinEv@plt
 324      E7800000 
 325              	.LVL31:
  61:src/ABI.cpp   ****     return 0;
 326              		.loc 1 61 5 is_stmt 1
  62:src/ABI.cpp   **** }
 327              		.loc 1 62 1 is_stmt 0
 328 0150 13050000 		li	a0,0
 329 0154 83308100 		ld	ra,8(sp)
 330              		.cfi_restore 1
 331 0158 03340100 		ld	s0,0(sp)
 332              		.cfi_restore 8
 333              		.cfi_def_cfa 2, 16
 334 015c 13010101 		addi	sp,sp,16
 335              		.cfi_def_cfa_offset 0
 336 0160 67800000 		jr	ra
 337              		.cfi_endproc
 338              	.LFE9:
 340              		.weak	_ZTV14FunctionThread
 341              		.section	.data.rel.ro.local._ZTV14FunctionThread,"awG",@progbits,_ZTV14FunctionThread,comdat
 342              		.align	3
 345              	_ZTV14FunctionThread:
 346 0000 00000000 		.dword	0
 346      00000000 
 347 0008 00000000 		.dword	0
 347      00000000 
 348 0010 00000000 		.dword	_ZN14FunctionThread3runEv
 348      00000000 
 349              		.text
 350              	.Letext0:
 351              		.file 2 "src/./../lib/hw.h"
GAS LISTING /tmp/ccm56XBe.s 			page 9


 352              		.file 3 "src/./MemoryAllocator.hpp"
 353              		.file 4 "src/APIC.h"
 354              		.file 5 "src/Thread.hpp"
GAS LISTING /tmp/ccm56XBe.s 			page 10

