GAS LISTING /tmp/ccKjM08C.s 			page 1


   1              		.file	"ABI.cpp"
   2              		.option pic
   3              		.option norelax
   4              		.text
   5              	.Ltext0:
   6              		.align	2
   7              		.globl	HandleInterupt
   9              	HandleInterupt:
  10              	.LFB3:
  11              		.file 1 "src/ABI.cpp"
   1:src/ABI.cpp   **** //
   2:src/ABI.cpp   **** // Created by os on 5/6/26.
   3:src/ABI.cpp   **** //
   4:src/ABI.cpp   **** #include "./MemoryAllocator.hpp"
   5:src/ABI.cpp   **** #include "Thread.hpp"
   6:src/ABI.cpp   **** #include "APIC.h"
   7:src/ABI.cpp   **** #include "Scheduler.hpp"
   8:src/ABI.cpp   **** #include "../lib/console.h"
   9:src/ABI.cpp   **** 
  10:src/ABI.cpp   **** extern "C" void restoreContext(size_t* ctx);
  11:src/ABI.cpp   **** 
  12:src/ABI.cpp   **** extern "C" void HandleInterupt(size_t* frame){
  12              		.loc 1 12 46
  13              		.cfi_startproc
  14              	.LVL0:
  15 0000 130101FC 		addi	sp,sp,-64
  16              		.cfi_def_cfa_offset 64
  17 0004 233C1102 		sd	ra,56(sp)
  18 0008 23388102 		sd	s0,48(sp)
  19 000c 23349102 		sd	s1,40(sp)
  20 0010 23302103 		sd	s2,32(sp)
  21 0014 233C3101 		sd	s3,24(sp)
  22 0018 23384101 		sd	s4,16(sp)
  23 001c 23345101 		sd	s5,8(sp)
  24 0020 23306101 		sd	s6,0(sp)
  25              		.cfi_offset 1, -8
  26              		.cfi_offset 8, -16
  27              		.cfi_offset 9, -24
  28              		.cfi_offset 18, -32
  29              		.cfi_offset 19, -40
  30              		.cfi_offset 20, -48
  31              		.cfi_offset 21, -56
  32              		.cfi_offset 22, -64
  33 0024 13040104 		addi	s0,sp,64
  34              		.cfi_def_cfa 8, 0
  35 0028 13090500 		mv	s2,a0
  13:src/ABI.cpp   ****     uint64 scause;
  36              		.loc 1 13 5
  14:src/ABI.cpp   ****     __asm__ volatile("csrr %0, scause" : "=r"(scause));
  37              		.loc 1 14 5
  38              		.loc 1 14 55 is_stmt 0
  39              	#APP
  40              	# 14 "src/ABI.cpp" 1
  15              	
  41              		csrr s3, scause
  42              	# 0 "" 2
  43              	.LVL1:
GAS LISTING /tmp/ccKjM08C.s 			page 2


  16:src/ABI.cpp   ****     Thread* current = Scheduler::GetRunning();
  44              		.loc 1 16 5 is_stmt 1
  45              		.loc 1 16 44 is_stmt 0
  46              	#NO_APP
  47 0030 97000000 		call	_ZN9Scheduler10GetRunningEv@plt
  47      E7800000 
  48              	.LVL2:
  49 0038 93040500 		mv	s1,a0
  50              	.LVL3:
  17:src/ABI.cpp   ****     if (current != nullptr) {
  51              		.loc 1 17 5 is_stmt 1
  52              	.LBB19:
  53 003c 63080504 		beqz	a0,.L2
  54              	.LBB20:
  55              	.LBB21:
  18:src/ABI.cpp   ****         auto& ctx = current->threadContext;
  19:src/ABI.cpp   ****         for (int i = 0; i < 32; i++) ctx.x[i] = frame[i];
  56              		.loc 1 19 18 is_stmt 0
  57 0040 13070000 		li	a4,0
  58              	.L4:
  59              	.LVL4:
  60              		.loc 1 19 27 is_stmt 1 discriminator 3
  61 0044 9307F001 		li	a5,31
  62 0048 63C0E702 		bgt	a4,a5,.L3
  63              		.loc 1 19 38 discriminator 2
  64              		.loc 1 19 56 is_stmt 0 discriminator 2
  65 004c 93173700 		slli	a5,a4,3
  66 0050 B306F900 		add	a3,s2,a5
  67 0054 83B60600 		ld	a3,0(a3)
  68              		.loc 1 19 47 discriminator 2
  69 0058 B387F400 		add	a5,s1,a5
  70 005c 23B0D704 		sd	a3,64(a5)
  71              		.loc 1 19 9 is_stmt 1 discriminator 2
  72 0060 1B071700 		addiw	a4,a4,1
  73              	.LVL5:
  74 0064 6FF01FFE 		j	.L4
  75              	.LVL6:
  76              	.L3:
  77              	.LBE21:
  20:src/ABI.cpp   ****         ctx.x[2] = (size_t)frame + 256;
  78              		.loc 1 20 9
  79              		.loc 1 20 34 is_stmt 0
  80 0068 93070910 		addi	a5,s2,256
  81              		.loc 1 20 18
  82 006c 23B8F404 		sd	a5,80(s1)
  21:src/ABI.cpp   **** 
  22:src/ABI.cpp   ****         size_t sepc, sstatus;
  83              		.loc 1 22 9 is_stmt 1
  23:src/ABI.cpp   ****         __asm__ volatile("csrr %0, sepc"    : "=r"(sepc));
  84              		.loc 1 23 9
  85              		.loc 1 23 58 is_stmt 0
  86              	#APP
  87              	# 23 "src/ABI.cpp" 1
  24              	        __asm__ volatile("csrr %0, sstatus" : "=r"(sstatus));
  88              		csrr a4, sepc
  89              	# 0 "" 2
  90              	.LVL7:
GAS LISTING /tmp/ccKjM08C.s 			page 3


  91              		.loc 1 24 9 is_stmt 1
  92              		.loc 1 24 61 is_stmt 0
  93              	# 24 "src/ABI.cpp" 1
  25              	        if (scause == 8 || scause == 9) sepc += 4;
  94              		csrr a3, sstatus
  95              	# 0 "" 2
  96              	.LVL8:
  97              		.loc 1 25 9 is_stmt 1
  98              		.loc 1 25 25 is_stmt 0
  99              	#NO_APP
 100 0078 938789FF 		addi	a5,s3,-8
 101              		.loc 1 25 9
 102 007c 13061000 		li	a2,1
 103 0080 6372F606 		bleu	a5,a2,.L28
 104              	.L5:
  26:src/ABI.cpp   ****         ctx.sepc    = sepc;
 105              		.loc 1 26 9 is_stmt 1
 106              		.loc 1 26 21 is_stmt 0
 107 0084 23B0E414 		sd	a4,320(s1)
  27:src/ABI.cpp   ****         ctx.sstatus = sstatus;
 108              		.loc 1 27 9 is_stmt 1
 109              		.loc 1 27 21 is_stmt 0
 110 0088 23B4D414 		sd	a3,328(s1)
 111              	.LVL9:
 112              	.L2:
 113              	.LBE20:
 114              	.LBE19:
  28:src/ABI.cpp   ****     }
  29:src/ABI.cpp   **** 
  30:src/ABI.cpp   ****     // timer (supervisor software interrupt: MSB+LSB both 1)
  31:src/ABI.cpp   ****     if (scause == 0x8000000000000001UL) {
 115              		.loc 1 31 5 is_stmt 1
 116 008c 9307F0FF 		li	a5,-1
 117 0090 9397F703 		slli	a5,a5,63
 118 0094 93871700 		addi	a5,a5,1
 119 0098 638AF904 		beq	s3,a5,.L29
  32:src/ABI.cpp   ****         Scheduler::timerTick(current);
  33:src/ABI.cpp   ****         return;
  34:src/ABI.cpp   ****     }
  35:src/ABI.cpp   **** 
  36:src/ABI.cpp   ****     // non-ecall trap: exception → skip instruction; unhandled interrupt → ignore
  37:src/ABI.cpp   ****     if (scause != 8 && scause != 9) {
 120              		.loc 1 37 5
 121              	.LBB23:
 122              		.loc 1 37 21 is_stmt 0
 123 009c 938789FF 		addi	a5,s3,-8
 124              		.loc 1 37 5
 125 00a0 13071000 		li	a4,1
 126 00a4 636CF704 		bgtu	a5,a4,.L30
 127              	.LBE23:
  38:src/ABI.cpp   ****         if ((scause >> 63) == 0) {  // exception, not interrupt
  39:src/ABI.cpp   ****             uint64 sepc;
  40:src/ABI.cpp   ****             __asm__ volatile("csrr %0, sepc" : "=r"(sepc));
  41:src/ABI.cpp   ****             __putc('!');
  42:src/ABI.cpp   ****             __asm__ volatile("csrw sepc, %0" :: "r"(sepc + 4));
  43:src/ABI.cpp   ****         }
  44:src/ABI.cpp   ****         return;
GAS LISTING /tmp/ccKjM08C.s 			page 4


  45:src/ABI.cpp   ****     }
  46:src/ABI.cpp   **** 
  47:src/ABI.cpp   ****     // ecall: advance CSR sepc past the ecall instruction
  48:src/ABI.cpp   ****     {
 128              		.loc 1 48 5 is_stmt 1
 129              	.LBB29:
  49:src/ABI.cpp   ****         uint64 sepc;
 130              		.loc 1 49 9
  50:src/ABI.cpp   ****         __asm__ volatile("csrr %0, sepc" : "=r"(sepc));
 131              		.loc 1 50 9
 132              		.loc 1 50 55 is_stmt 0
 133              	#APP
 134              	# 50 "src/ABI.cpp" 1
  51              	        __asm__ volatile("csrw sepc, %0" :: "r"(sepc + 4));
 135              		csrr a5, sepc
 136              	# 0 "" 2
 137              	.LVL10:
 138              		.loc 1 51 9 is_stmt 1
 139              		.loc 1 51 54 is_stmt 0
 140              	#NO_APP
 141 00ac 93874700 		addi	a5,a5,4
 142              	.LVL11:
 143              		.loc 1 51 59
 144              	#APP
 145              	# 51 "src/ABI.cpp" 1
  52              	    }
 146              		csrw sepc, a5
 147              	# 0 "" 2
 148              	#NO_APP
 149              	.LBE29:
  53:src/ABI.cpp   **** 
  54:src/ABI.cpp   ****     size_t code = frame[10];
 150              		.loc 1 54 5 is_stmt 1
 151              		.loc 1 54 12 is_stmt 0
 152 00b4 83370905 		ld	a5,80(s2)
 153              	.LVL12:
  55:src/ABI.cpp   ****     switch (code) {
 154              		.loc 1 55 5 is_stmt 1
 155              	.LBB30:
 156 00b8 13073001 		li	a4,19
 157 00bc 6364F708 		bgtu	a5,a4,.L10
 158 00c0 63800704 		beqz	a5,.L1
 159 00c4 636EF702 		bgtu	a5,a4,.L1
 160 00c8 93972700 		slli	a5,a5,2
 161              	.LVL13:
 162 00cc 17070000 		lla	a4,.L12
 162      13070700 
 163 00d4 B387E700 		add	a5,a5,a4
 164 00d8 83A70700 		lw	a5,0(a5)
 165 00dc B387E700 		add	a5,a5,a4
 166 00e0 67800700 		jr	a5
 167              		.section	.rodata
 168              		.align	2
 169              		.align	2
 170              	.L12:
 171 0000 00000000 		.word	.L1-.L12
 172 0004 00000000 		.word	.L16-.L12
GAS LISTING /tmp/ccKjM08C.s 			page 5


 173 0008 00000000 		.word	.L15-.L12
 174 000c 00000000 		.word	.L1-.L12
 175 0010 00000000 		.word	.L1-.L12
 176 0014 00000000 		.word	.L1-.L12
 177 0018 00000000 		.word	.L1-.L12
 178 001c 00000000 		.word	.L1-.L12
 179 0020 00000000 		.word	.L1-.L12
 180 0024 00000000 		.word	.L1-.L12
 181 0028 00000000 		.word	.L1-.L12
 182 002c 00000000 		.word	.L1-.L12
 183 0030 00000000 		.word	.L1-.L12
 184 0034 00000000 		.word	.L1-.L12
 185 0038 00000000 		.word	.L1-.L12
 186 003c 00000000 		.word	.L1-.L12
 187 0040 00000000 		.word	.L1-.L12
 188 0044 00000000 		.word	.L14-.L12
 189 0048 00000000 		.word	.L13-.L12
 190 004c 00000000 		.word	.L11-.L12
 191              		.text
 192              	.LVL14:
 193              	.L28:
 194              	.LBE30:
 195              	.LBB40:
 196              	.LBB22:
  25:src/ABI.cpp   ****         ctx.sepc    = sepc;
 197              		.loc 1 25 41 discriminator 1
  25:src/ABI.cpp   ****         ctx.sepc    = sepc;
 198              		.loc 1 25 46 is_stmt 0 discriminator 1
 199 00e4 13074700 		addi	a4,a4,4
 200              	.LVL15:
 201 00e8 6FF0DFF9 		j	.L5
 202              	.LVL16:
 203              	.L29:
 204              	.LBE22:
 205              	.LBE40:
  32:src/ABI.cpp   ****         return;
 206              		.loc 1 32 9 is_stmt 1
  32:src/ABI.cpp   ****         return;
 207              		.loc 1 32 29 is_stmt 0
 208 00ec 13850400 		mv	a0,s1
 209 00f0 97000000 		call	_ZN9Scheduler9timerTickEP6Thread@plt
 209      E7800000 
 210              	.LVL17:
  33:src/ABI.cpp   ****     }
 211              		.loc 1 33 9 is_stmt 1
 212 00f8 6F008000 		j	.L1
 213              	.L30:
 214              	.LBB41:
 215              	.LBB24:
  38:src/ABI.cpp   ****             uint64 sepc;
 216              		.loc 1 38 9
 217              	.LBB25:
 218 00fc 63D60902 		bgez	s3,.L31
 219              	.LVL18:
 220              	.L1:
 221              	.LBE25:
 222              	.LBE24:
GAS LISTING /tmp/ccKjM08C.s 			page 6


 223              	.LBE41:
  56:src/ABI.cpp   ****         case 0x01: {
  57:src/ABI.cpp   ****             size_t size = frame[11];
  58:src/ABI.cpp   ****             void* ptr = MemoryAllocator::GetInstance().AllocateFragment(size);
  59:src/ABI.cpp   ****             __asm__ volatile("mv a0,%[res]"::[res]"r"(ptr));
  60:src/ABI.cpp   ****             break;
  61:src/ABI.cpp   ****         }
  62:src/ABI.cpp   ****         case 0x02: {
  63:src/ABI.cpp   ****             void* ptr = (void*)frame[11];
  64:src/ABI.cpp   ****             MemoryAllocator::GetInstance().FreeFragment(ptr);
  65:src/ABI.cpp   ****             break;
  66:src/ABI.cpp   ****         }
  67:src/ABI.cpp   ****         case 0x11: {
  68:src/ABI.cpp   ****             // thread_create: a1=handle*, a2=start_routine, a3=arg, a4=stack_space (top of pre-allo
  69:src/ABI.cpp   ****             thread_t* handle             = reinterpret_cast<thread_t*>(frame[11]);
  70:src/ABI.cpp   ****             void (*start_routine)(void*) = reinterpret_cast<void(*)(void*)>(frame[12]);
  71:src/ABI.cpp   ****             void* threadArg              = reinterpret_cast<void*>(frame[13]);
  72:src/ABI.cpp   ****             size_t* stack_space          = reinterpret_cast<size_t*>(frame[14]);
  73:src/ABI.cpp   **** 
  74:src/ABI.cpp   ****             void* mem = MemoryAllocator::GetInstance().AllocateFragment(sizeof(Thread));
  75:src/ABI.cpp   ****             if (!mem) {
  76:src/ABI.cpp   ****                 if (current) {
  77:src/ABI.cpp   ****                     current->threadContext.x[10] = (size_t)-1;
  78:src/ABI.cpp   ****                     restoreContext(current->getContext());
  79:src/ABI.cpp   ****                 }
  80:src/ABI.cpp   ****                 return;
  81:src/ABI.cpp   ****             }
  82:src/ABI.cpp   ****             Thread* t = reinterpret_cast<Thread*>(mem);
  83:src/ABI.cpp   ****             t->init();
  84:src/ABI.cpp   ****             t->setBody(start_routine, threadArg);
  85:src/ABI.cpp   ****             t->setup(current, stack_space);
  86:src/ABI.cpp   **** 
  87:src/ABI.cpp   ****             *handle = reinterpret_cast<thread_t>(t);
  88:src/ABI.cpp   ****             Scheduler::Put(t);   // enqueue; caller continues running
  89:src/ABI.cpp   ****             if (current) current->threadContext.x[10] = 0;
  90:src/ABI.cpp   ****             __asm__ volatile("li a0, 0");  // return 0 via Trap.S path (x10 not restored from frame
  91:src/ABI.cpp   ****             break;
  92:src/ABI.cpp   ****         }
  93:src/ABI.cpp   ****         case 0x12: {
  94:src/ABI.cpp   ****             // thread_exit: terminate current thread, switch to next ready thread
  95:src/ABI.cpp   ****             Scheduler::ThreadExit(current);
  96:src/ABI.cpp   ****             break;
  97:src/ABI.cpp   ****         }
  98:src/ABI.cpp   ****         case 0x13: {
  99:src/ABI.cpp   ****             // thread_dispatch: voluntarily yield to next ready thread
 100:src/ABI.cpp   ****             Thread* next = Scheduler::GetNext();
 101:src/ABI.cpp   ****             if (next == nullptr) {
 102:src/ABI.cpp   ****                 // no other thread ready — keep running current
 103:src/ABI.cpp   ****                 __asm__ volatile("li a0, 0");
 104:src/ABI.cpp   ****                 break;
 105:src/ABI.cpp   ****             }
 106:src/ABI.cpp   ****             if (current) current->threadContext.x[10] = 0; // dispatch returns 0 when resumed
 107:src/ABI.cpp   ****             Scheduler::Put(current);
 108:src/ABI.cpp   ****             Scheduler::yield(current, next); // never returns here
 109:src/ABI.cpp   ****             break;
 110:src/ABI.cpp   ****         }
 111:src/ABI.cpp   ****         case 0x31: {
GAS LISTING /tmp/ccKjM08C.s 			page 7


 112:src/ABI.cpp   ****             // time_sleep: a1=duration (in timer periods)
 113:src/ABI.cpp   ****             time_t dur = (time_t)frame[11];
 114:src/ABI.cpp   ****             if (current) current->threadContext.x[10] = 0;
 115:src/ABI.cpp   ****             if (dur == 0) { __asm__ volatile("li a0, 0"); break; }
 116:src/ABI.cpp   ****             Scheduler::sleep(current, dur);
 117:src/ABI.cpp   ****             Thread* next = Scheduler::GetNext();
 118:src/ABI.cpp   ****             if (next == nullptr) { while(true){} }
 119:src/ABI.cpp   ****             Scheduler::yield(current, next);
 120:src/ABI.cpp   ****             break;
 121:src/ABI.cpp   ****         }
 122:src/ABI.cpp   ****         default: {
 123:src/ABI.cpp   ****             break;
 124:src/ABI.cpp   ****         }
 125:src/ABI.cpp   ****     }
 126:src/ABI.cpp   ****     return;
 127:src/ABI.cpp   **** }
 224              		.loc 1 127 1 is_stmt 0
 225 0100 83308103 		ld	ra,56(sp)
 226              		.cfi_remember_state
 227              		.cfi_restore 1
 228 0104 03340103 		ld	s0,48(sp)
 229              		.cfi_restore 8
 230              		.cfi_def_cfa 2, 64
 231 0108 83348102 		ld	s1,40(sp)
 232              		.cfi_restore 9
 233 010c 03390102 		ld	s2,32(sp)
 234              		.cfi_restore 18
 235 0110 83398101 		ld	s3,24(sp)
 236              		.cfi_restore 19
 237 0114 033A0101 		ld	s4,16(sp)
 238              		.cfi_restore 20
 239 0118 833A8100 		ld	s5,8(sp)
 240              		.cfi_restore 21
 241 011c 033B0100 		ld	s6,0(sp)
 242              		.cfi_restore 22
 243 0120 13010104 		addi	sp,sp,64
 244              		.cfi_def_cfa_offset 0
 245 0124 67800000 		jr	ra
 246              	.LVL19:
 247              	.L31:
 248              		.cfi_restore_state
 249              	.LBB42:
 250              	.LBB28:
 251              	.LBB27:
 252              	.LBB26:
  39:src/ABI.cpp   ****             __asm__ volatile("csrr %0, sepc" : "=r"(sepc));
 253              		.loc 1 39 13 is_stmt 1
  40:src/ABI.cpp   ****             __putc('!');
 254              		.loc 1 40 13
  40:src/ABI.cpp   ****             __putc('!');
 255              		.loc 1 40 59 is_stmt 0
 256              	#APP
 257              	# 40 "src/ABI.cpp" 1
 258              		csrr s1, sepc
 259              	# 0 "" 2
 260              	.LVL20:
  41:src/ABI.cpp   ****             __asm__ volatile("csrw sepc, %0" :: "r"(sepc + 4));
GAS LISTING /tmp/ccKjM08C.s 			page 8


 261              		.loc 1 41 13 is_stmt 1
  41:src/ABI.cpp   ****             __asm__ volatile("csrw sepc, %0" :: "r"(sepc + 4));
 262              		.loc 1 41 19 is_stmt 0
 263              	#NO_APP
 264 012c 13051002 		li	a0,33
 265              	.LVL21:
 266 0130 97000000 		call	__putc@plt
 266      E7800000 
 267              	.LVL22:
  42:src/ABI.cpp   ****         }
 268              		.loc 1 42 13 is_stmt 1
  42:src/ABI.cpp   ****         }
 269              		.loc 1 42 58 is_stmt 0
 270 0138 93844400 		addi	s1,s1,4
 271              	.LVL23:
  42:src/ABI.cpp   ****         }
 272              		.loc 1 42 63
 273              	#APP
 274              	# 42 "src/ABI.cpp" 1
 275              		csrw sepc, s1
 276              	# 0 "" 2
 277              	#NO_APP
 278              	.LBE26:
 279              	.LBE27:
  44:src/ABI.cpp   ****     }
 280              		.loc 1 44 9 is_stmt 1
 281 0140 6FF01FFC 		j	.L1
 282              	.LVL24:
 283              	.L10:
 284              	.LBE28:
 285              	.LBE42:
 286              	.LBB43:
  55:src/ABI.cpp   ****         case 0x01: {
 287              		.loc 1 55 5 is_stmt 0
 288 0144 13071003 		li	a4,49
 289 0148 E39CE7FA 		bne	a5,a4,.L1
 290              	.LBB31:
 111:src/ABI.cpp   ****             // time_sleep: a1=duration (in timer periods)
 291              		.loc 1 111 9 is_stmt 1
 111:src/ABI.cpp   ****             // time_sleep: a1=duration (in timer periods)
 292              		.loc 1 111 20
 293              	.LBB32:
 113:src/ABI.cpp   ****             if (current) current->threadContext.x[10] = 0;
 294              		.loc 1 113 13
 113:src/ABI.cpp   ****             if (current) current->threadContext.x[10] = 0;
 295              		.loc 1 113 20 is_stmt 0
 296 014c 83358905 		ld	a1,88(s2)
 297              	.LVL25:
 114:src/ABI.cpp   ****             if (dur == 0) { __asm__ volatile("li a0, 0"); break; }
 298              		.loc 1 114 13 is_stmt 1
 299 0150 63840400 		beqz	s1,.L23
 114:src/ABI.cpp   ****             if (dur == 0) { __asm__ volatile("li a0, 0"); break; }
 300              		.loc 1 114 26 discriminator 1
 114:src/ABI.cpp   ****             if (dur == 0) { __asm__ volatile("li a0, 0"); break; }
 301              		.loc 1 114 55 is_stmt 0 discriminator 1
 302 0154 23B80408 		sd	zero,144(s1)
 303              	.L23:
GAS LISTING /tmp/ccKjM08C.s 			page 9


 115:src/ABI.cpp   ****             Scheduler::sleep(current, dur);
 304              		.loc 1 115 13 is_stmt 1
 305 0158 63960512 		bnez	a1,.L24
 115:src/ABI.cpp   ****             Scheduler::sleep(current, dur);
 306              		.loc 1 115 29 discriminator 1
 115:src/ABI.cpp   ****             Scheduler::sleep(current, dur);
 307              		.loc 1 115 57 is_stmt 0 discriminator 1
 308              	#APP
 309              	# 115 "src/ABI.cpp" 1
 115:src/ABI.cpp   ****             Scheduler::sleep(current, dur);
 310              		li a0, 0
 311              	# 0 "" 2
 312              		.loc 1 115 59 is_stmt 1 discriminator 1
 313              	#NO_APP
 314 0160 6FF01FFA 		j	.L1
 315              	.LVL26:
 316              	.L16:
 317              	.LBE32:
  56:src/ABI.cpp   ****             size_t size = frame[11];
 318              		.loc 1 56 9
  56:src/ABI.cpp   ****             size_t size = frame[11];
 319              		.loc 1 56 20
 320              	.LBB33:
  57:src/ABI.cpp   ****             void* ptr = MemoryAllocator::GetInstance().AllocateFragment(size);
 321              		.loc 1 57 13
  57:src/ABI.cpp   ****             void* ptr = MemoryAllocator::GetInstance().AllocateFragment(size);
 322              		.loc 1 57 20 is_stmt 0
 323 0164 83348905 		ld	s1,88(s2)
 324              	.LVL27:
  58:src/ABI.cpp   ****             __asm__ volatile("mv a0,%[res]"::[res]"r"(ptr));
 325              		.loc 1 58 13 is_stmt 1
  58:src/ABI.cpp   ****             __asm__ volatile("mv a0,%[res]"::[res]"r"(ptr));
 326              		.loc 1 58 54 is_stmt 0
 327 0168 97000000 		call	_ZN15MemoryAllocator11GetInstanceEv@plt
 327      E7800000 
 328              	.LVL28:
  58:src/ABI.cpp   ****             __asm__ volatile("mv a0,%[res]"::[res]"r"(ptr));
 329              		.loc 1 58 72
 330 0170 93850400 		mv	a1,s1
 331 0174 97000000 		call	_ZN15MemoryAllocator16AllocateFragmentEm@plt
 331      E7800000 
 332              	.LVL29:
  59:src/ABI.cpp   ****             break;
 333              		.loc 1 59 13 is_stmt 1
  59:src/ABI.cpp   ****             break;
 334              		.loc 1 59 60 is_stmt 0
 335              	#APP
 336              	# 59 "src/ABI.cpp" 1
  60:src/ABI.cpp   ****         }
 337              		mv a0,a0
 338              	# 0 "" 2
 339              		.loc 1 60 13 is_stmt 1
 340              	#NO_APP
 341 0180 6FF01FF8 		j	.L1
 342              	.LVL30:
 343              	.L15:
 344              	.LBE33:
GAS LISTING /tmp/ccKjM08C.s 			page 10


  62:src/ABI.cpp   ****             void* ptr = (void*)frame[11];
 345              		.loc 1 62 9
  62:src/ABI.cpp   ****             void* ptr = (void*)frame[11];
 346              		.loc 1 62 20
 347              	.LBB34:
  63:src/ABI.cpp   ****             MemoryAllocator::GetInstance().FreeFragment(ptr);
 348              		.loc 1 63 13
  63:src/ABI.cpp   ****             MemoryAllocator::GetInstance().FreeFragment(ptr);
 349              		.loc 1 63 40 is_stmt 0
 350 0184 83348905 		ld	s1,88(s2)
 351              	.LVL31:
  64:src/ABI.cpp   ****             break;
 352              		.loc 1 64 13 is_stmt 1
  64:src/ABI.cpp   ****             break;
 353              		.loc 1 64 42 is_stmt 0
 354 0188 97000000 		call	_ZN15MemoryAllocator11GetInstanceEv@plt
 354      E7800000 
 355              	.LVL32:
  64:src/ABI.cpp   ****             break;
 356              		.loc 1 64 56
 357 0190 93850400 		mv	a1,s1
 358 0194 97000000 		call	_ZN15MemoryAllocator12FreeFragmentEPv@plt
 358      E7800000 
 359              	.LVL33:
  65:src/ABI.cpp   ****         }
 360              		.loc 1 65 13 is_stmt 1
 361 019c 6FF05FF6 		j	.L1
 362              	.LVL34:
 363              	.L14:
 364              	.LBE34:
  67:src/ABI.cpp   ****             // thread_create: a1=handle*, a2=start_routine, a3=arg, a4=stack_space (top of pre-allo
 365              		.loc 1 67 9
  67:src/ABI.cpp   ****             // thread_create: a1=handle*, a2=start_routine, a3=arg, a4=stack_space (top of pre-allo
 366              		.loc 1 67 20
 367              	.LBB35:
  69:src/ABI.cpp   ****             void (*start_routine)(void*) = reinterpret_cast<void(*)(void*)>(frame[12]);
 368              		.loc 1 69 13
  69:src/ABI.cpp   ****             void (*start_routine)(void*) = reinterpret_cast<void(*)(void*)>(frame[12]);
 369              		.loc 1 69 80 is_stmt 0
 370 01a0 83398905 		ld	s3,88(s2)
 371              	.LVL35:
  70:src/ABI.cpp   ****             void* threadArg              = reinterpret_cast<void*>(frame[13]);
 372              		.loc 1 70 13 is_stmt 1
  70:src/ABI.cpp   ****             void* threadArg              = reinterpret_cast<void*>(frame[13]);
 373              		.loc 1 70 85 is_stmt 0
 374 01a4 833A0906 		ld	s5,96(s2)
 375              	.LVL36:
  71:src/ABI.cpp   ****             size_t* stack_space          = reinterpret_cast<size_t*>(frame[14]);
 376              		.loc 1 71 13 is_stmt 1
  71:src/ABI.cpp   ****             size_t* stack_space          = reinterpret_cast<size_t*>(frame[14]);
 377              		.loc 1 71 76 is_stmt 0
 378 01a8 033A8906 		ld	s4,104(s2)
 379              	.LVL37:
  72:src/ABI.cpp   **** 
 380              		.loc 1 72 13 is_stmt 1
  72:src/ABI.cpp   **** 
 381              		.loc 1 72 78 is_stmt 0
GAS LISTING /tmp/ccKjM08C.s 			page 11


 382 01ac 033B0907 		ld	s6,112(s2)
 383              	.LVL38:
  74:src/ABI.cpp   ****             if (!mem) {
 384              		.loc 1 74 13 is_stmt 1
  74:src/ABI.cpp   ****             if (!mem) {
 385              		.loc 1 74 54 is_stmt 0
 386 01b0 97000000 		call	_ZN15MemoryAllocator11GetInstanceEv@plt
 386      E7800000 
 387              	.LVL39:
  74:src/ABI.cpp   ****             if (!mem) {
 388              		.loc 1 74 72
 389 01b8 93058015 		li	a1,344
 390 01bc 97000000 		call	_ZN15MemoryAllocator16AllocateFragmentEm@plt
 390      E7800000 
 391              	.LVL40:
 392 01c4 13090500 		mv	s2,a0
 393              	.LVL41:
  75:src/ABI.cpp   ****                 if (current) {
 394              		.loc 1 75 13 is_stmt 1
 395 01c8 63040504 		beqz	a0,.L32
  82:src/ABI.cpp   ****             t->init();
 396              		.loc 1 82 13
 397              	.LVL42:
  83:src/ABI.cpp   ****             t->setBody(start_routine, threadArg);
 398              		.loc 1 83 13
  83:src/ABI.cpp   ****             t->setBody(start_routine, threadArg);
 399              		.loc 1 83 20 is_stmt 0
 400 01cc 97000000 		call	_ZN6Thread4initEv@plt
 400      E7800000 
 401              	.LVL43:
  84:src/ABI.cpp   ****             t->setup(current, stack_space);
 402              		.loc 1 84 13 is_stmt 1
 403              	.LBB36:
 404              	.LBB37:
 405              		.file 2 "src/Thread.hpp"
   1:src/Thread.hpp **** //
   2:src/Thread.hpp **** // Created by os on 6/10/26.
   3:src/Thread.hpp **** //
   4:src/Thread.hpp **** 
   5:src/Thread.hpp **** #ifndef OSPROJEKAT_THREAD_H
   6:src/Thread.hpp **** #define OSPROJEKAT_THREAD_H
   7:src/Thread.hpp **** 
   8:src/Thread.hpp **** #include "../lib/hw.h"
   9:src/Thread.hpp **** struct Context {
  10:src/Thread.hpp ****     size_t x[32];    // x0-x31, offsets 0x00-0xF8
  11:src/Thread.hpp ****     size_t sepc;     // offset 0x100
  12:src/Thread.hpp ****     size_t sstatus;  // offset 0x108
  13:src/Thread.hpp ****     size_t pc;
  14:src/Thread.hpp **** };
  15:src/Thread.hpp **** 
  16:src/Thread.hpp **** class Thread{
  17:src/Thread.hpp ****     friend class Scheduler;
  18:src/Thread.hpp **** protected:
  19:src/Thread.hpp ****     static void threadTrampoline(Thread* t);
  20:src/Thread.hpp ****     void (*body)(void*);
  21:src/Thread.hpp ****     void* arg;
  22:src/Thread.hpp ****     Thread* parent;
GAS LISTING /tmp/ccKjM08C.s 			page 12


  23:src/Thread.hpp **** 
  24:src/Thread.hpp ****     Thread* prev;
  25:src/Thread.hpp ****     Thread* next;
  26:src/Thread.hpp ****     size_t* stackPtr;
  27:src/Thread.hpp ****     size_t* supervisorSp;
  28:src/Thread.hpp ****     time_t sleepDelta;
  29:src/Thread.hpp **** public:
  30:src/Thread.hpp ****     Context threadContext;
  31:src/Thread.hpp ****     Thread();
  32:src/Thread.hpp ****     void copyContext(size_t* ctx);
  33:src/Thread.hpp ****     void init();
  34:src/Thread.hpp ****     size_t* getStackTop() { return stackPtr; }
  35:src/Thread.hpp ****     size_t* getContext();
  36:src/Thread.hpp ****     Thread* getParent() { return parent; }
  37:src/Thread.hpp ****     Thread* getNextInQueue();
  38:src/Thread.hpp ****     Thread* getPrevInQueue();
  39:src/Thread.hpp ****     void setNextInQueue(Thread* next);
  40:src/Thread.hpp ****     void setPrevInQueue(Thread* prev);
  41:src/Thread.hpp ****     void setNextAndPrevInQueue(Thread* next, Thread* prev);
  42:src/Thread.hpp ****     void setup(Thread* parentThread, size_t* stack_top);
  43:src/Thread.hpp ****     void setBody(void (*b)(void*), void* a) { body = b; arg = a; }
 406              		.loc 2 43 47
 407              		.loc 2 43 52 is_stmt 0
 408 01d4 23305901 		sd	s5,0(s2)
 409              		.loc 2 43 57 is_stmt 1
 410              		.loc 2 43 61 is_stmt 0
 411 01d8 23344901 		sd	s4,8(s2)
 412              	.LVL44:
 413              	.LBE37:
 414              	.LBE36:
  85:src/ABI.cpp   **** 
 415              		.loc 1 85 13 is_stmt 1
  85:src/ABI.cpp   **** 
 416              		.loc 1 85 21 is_stmt 0
 417 01dc 13060B00 		mv	a2,s6
 418 01e0 93850400 		mv	a1,s1
 419 01e4 13050900 		mv	a0,s2
 420 01e8 97000000 		call	_ZN6Thread5setupEPS_Pm@plt
 420      E7800000 
 421              	.LVL45:
  87:src/ABI.cpp   ****             Scheduler::Put(t);   // enqueue; caller continues running
 422              		.loc 1 87 13 is_stmt 1
  87:src/ABI.cpp   ****             Scheduler::Put(t);   // enqueue; caller continues running
 423              		.loc 1 87 21 is_stmt 0
 424 01f0 23B02901 		sd	s2,0(s3)
  88:src/ABI.cpp   ****             if (current) current->threadContext.x[10] = 0;
 425              		.loc 1 88 13 is_stmt 1
  88:src/ABI.cpp   ****             if (current) current->threadContext.x[10] = 0;
 426              		.loc 1 88 27 is_stmt 0
 427 01f4 13050900 		mv	a0,s2
 428 01f8 97000000 		call	_ZN9Scheduler3PutEP6Thread@plt
 428      E7800000 
 429              	.LVL46:
  89:src/ABI.cpp   ****             __asm__ volatile("li a0, 0");  // return 0 via Trap.S path (x10 not restored from frame
 430              		.loc 1 89 13 is_stmt 1
 431 0200 63840400 		beqz	s1,.L20
  89:src/ABI.cpp   ****             __asm__ volatile("li a0, 0");  // return 0 via Trap.S path (x10 not restored from frame
GAS LISTING /tmp/ccKjM08C.s 			page 13


 432              		.loc 1 89 26 discriminator 1
  89:src/ABI.cpp   ****             __asm__ volatile("li a0, 0");  // return 0 via Trap.S path (x10 not restored from frame
 433              		.loc 1 89 55 is_stmt 0 discriminator 1
 434 0204 23B80408 		sd	zero,144(s1)
 435              	.L20:
  90:src/ABI.cpp   ****             break;
 436              		.loc 1 90 13 is_stmt 1
  90:src/ABI.cpp   ****             break;
 437              		.loc 1 90 41 is_stmt 0
 438              	#APP
 439              	# 90 "src/ABI.cpp" 1
  91:src/ABI.cpp   ****         }
 440              		li a0, 0
 441              	# 0 "" 2
 442              		.loc 1 91 13 is_stmt 1
 443              	#NO_APP
 444 020c 6FF05FEF 		j	.L1
 445              	.LVL47:
 446              	.L32:
  76:src/ABI.cpp   ****                     current->threadContext.x[10] = (size_t)-1;
 447              		.loc 1 76 17
 448 0210 E38804EE 		beqz	s1,.L1
  77:src/ABI.cpp   ****                     restoreContext(current->getContext());
 449              		.loc 1 77 21
  77:src/ABI.cpp   ****                     restoreContext(current->getContext());
 450              		.loc 1 77 50 is_stmt 0
 451 0214 9307F0FF 		li	a5,-1
 452 0218 23B8F408 		sd	a5,144(s1)
  78:src/ABI.cpp   ****                 }
 453              		.loc 1 78 21 is_stmt 1
  78:src/ABI.cpp   ****                 }
 454              		.loc 1 78 35 is_stmt 0
 455 021c 13850400 		mv	a0,s1
 456              	.LVL48:
 457 0220 97000000 		call	_ZN6Thread10getContextEv@plt
 457      E7800000 
 458              	.LVL49:
 459 0228 97000000 		call	restoreContext@plt
 459      E7800000 
 460              	.LVL50:
  80:src/ABI.cpp   ****             }
 461              		.loc 1 80 17 is_stmt 1
 462 0230 6FF01FED 		j	.L1
 463              	.LVL51:
 464              	.L13:
 465              	.LBE35:
  93:src/ABI.cpp   ****             // thread_exit: terminate current thread, switch to next ready thread
 466              		.loc 1 93 9
  93:src/ABI.cpp   ****             // thread_exit: terminate current thread, switch to next ready thread
 467              		.loc 1 93 20
  95:src/ABI.cpp   ****             break;
 468              		.loc 1 95 13
  95:src/ABI.cpp   ****             break;
 469              		.loc 1 95 34 is_stmt 0
 470 0234 13850400 		mv	a0,s1
 471 0238 97000000 		call	_ZN9Scheduler10ThreadExitEP6Thread@plt
 471      E7800000 
GAS LISTING /tmp/ccKjM08C.s 			page 14


 472              	.LVL52:
  96:src/ABI.cpp   ****         }
 473              		.loc 1 96 13 is_stmt 1
 474 0240 6FF01FEC 		j	.L1
 475              	.LVL53:
 476              	.L11:
  98:src/ABI.cpp   ****             // thread_dispatch: voluntarily yield to next ready thread
 477              		.loc 1 98 9
  98:src/ABI.cpp   ****             // thread_dispatch: voluntarily yield to next ready thread
 478              		.loc 1 98 20
 479              	.LBB38:
 100:src/ABI.cpp   ****             if (next == nullptr) {
 480              		.loc 1 100 13
 100:src/ABI.cpp   ****             if (next == nullptr) {
 481              		.loc 1 100 46 is_stmt 0
 482 0244 97000000 		call	_ZN9Scheduler7GetNextEv@plt
 482      E7800000 
 483              	.LVL54:
 484 024c 13090500 		mv	s2,a0
 485              	.LVL55:
 101:src/ABI.cpp   ****                 // no other thread ready — keep running current
 486              		.loc 1 101 13 is_stmt 1
 487 0250 63060502 		beqz	a0,.L33
 106:src/ABI.cpp   ****             Scheduler::Put(current);
 488              		.loc 1 106 13
 489 0254 63840400 		beqz	s1,.L22
 106:src/ABI.cpp   ****             Scheduler::Put(current);
 490              		.loc 1 106 26 discriminator 1
 106:src/ABI.cpp   ****             Scheduler::Put(current);
 491              		.loc 1 106 55 is_stmt 0 discriminator 1
 492 0258 23B80408 		sd	zero,144(s1)
 493              	.L22:
 107:src/ABI.cpp   ****             Scheduler::yield(current, next); // never returns here
 494              		.loc 1 107 13 is_stmt 1
 107:src/ABI.cpp   ****             Scheduler::yield(current, next); // never returns here
 495              		.loc 1 107 27 is_stmt 0
 496 025c 13850400 		mv	a0,s1
 497              	.LVL56:
 498 0260 97000000 		call	_ZN9Scheduler3PutEP6Thread@plt
 498      E7800000 
 499              	.LVL57:
 108:src/ABI.cpp   ****             break;
 500              		.loc 1 108 13 is_stmt 1
 108:src/ABI.cpp   ****             break;
 501              		.loc 1 108 29 is_stmt 0
 502 0268 93050900 		mv	a1,s2
 503 026c 13850400 		mv	a0,s1
 504 0270 97000000 		call	_ZN9Scheduler5yieldEP6ThreadS1_@plt
 504      E7800000 
 505              	.LVL58:
 109:src/ABI.cpp   ****         }
 506              		.loc 1 109 13 is_stmt 1
 507 0278 6FF09FE8 		j	.L1
 508              	.LVL59:
 509              	.L33:
 103:src/ABI.cpp   ****                 break;
 510              		.loc 1 103 17
GAS LISTING /tmp/ccKjM08C.s 			page 15


 103:src/ABI.cpp   ****                 break;
 511              		.loc 1 103 45 is_stmt 0
 512              	#APP
 513              	# 103 "src/ABI.cpp" 1
 104:src/ABI.cpp   ****             }
 514              		li a0, 0
 515              	# 0 "" 2
 516              		.loc 1 104 17 is_stmt 1
 517              	#NO_APP
 518 0280 6FF01FE8 		j	.L1
 519              	.LVL60:
 520              	.L24:
 521              	.LBE38:
 522              	.LBB39:
 116:src/ABI.cpp   ****             Thread* next = Scheduler::GetNext();
 523              		.loc 1 116 13
 116:src/ABI.cpp   ****             Thread* next = Scheduler::GetNext();
 524              		.loc 1 116 29 is_stmt 0
 525 0284 13850400 		mv	a0,s1
 526 0288 97000000 		call	_ZN9Scheduler5sleepEP6Threadm@plt
 526      E7800000 
 527              	.LVL61:
 117:src/ABI.cpp   ****             if (next == nullptr) { while(true){} }
 528              		.loc 1 117 13 is_stmt 1
 117:src/ABI.cpp   ****             if (next == nullptr) { while(true){} }
 529              		.loc 1 117 46 is_stmt 0
 530 0290 97000000 		call	_ZN9Scheduler7GetNextEv@plt
 530      E7800000 
 531              	.LVL62:
 532 0298 93050500 		mv	a1,a0
 533              	.LVL63:
 118:src/ABI.cpp   ****             Scheduler::yield(current, next);
 534              		.loc 1 118 13 is_stmt 1
 535 029c 630A0500 		beqz	a0,.L26
 119:src/ABI.cpp   ****             break;
 536              		.loc 1 119 13
 119:src/ABI.cpp   ****             break;
 537              		.loc 1 119 29 is_stmt 0
 538 02a0 13850400 		mv	a0,s1
 539              	.LVL64:
 540 02a4 97000000 		call	_ZN9Scheduler5yieldEP6ThreadS1_@plt
 540      E7800000 
 541              	.LVL65:
 120:src/ABI.cpp   ****         }
 542              		.loc 1 120 13 is_stmt 1
 543 02ac 6FF05FE5 		j	.L1
 544              	.LVL66:
 545              	.L26:
 118:src/ABI.cpp   ****             Scheduler::yield(current, next);
 546              		.loc 1 118 36 discriminator 1
 118:src/ABI.cpp   ****             Scheduler::yield(current, next);
 547              		.loc 1 118 36 discriminator 1
 548 02b0 6F000000 		j	.L26
 549              	.LBE39:
 550              	.LBE31:
 551              	.LBE43:
 552              		.cfi_endproc
GAS LISTING /tmp/ccKjM08C.s 			page 16


 553              	.LFE3:
 555              		.align	2
 556              		.globl	start_main_thread
 558              	start_main_thread:
 559              	.LFB4:
 128:src/ABI.cpp   **** 
 129:src/ABI.cpp   **** extern "C" {
 130:src/ABI.cpp   **** int start_main_thread() {
 560              		.loc 1 130 25
 561              		.cfi_startproc
 562 02b4 130101FF 		addi	sp,sp,-16
 563              		.cfi_def_cfa_offset 16
 564 02b8 23341100 		sd	ra,8(sp)
 565 02bc 23308100 		sd	s0,0(sp)
 566              		.cfi_offset 1, -8
 567              		.cfi_offset 8, -16
 568 02c0 13040101 		addi	s0,sp,16
 569              		.cfi_def_cfa 8, 0
 131:src/ABI.cpp   ****     Scheduler::SetupStartThread();
 570              		.loc 1 131 5
 571              		.loc 1 131 32 is_stmt 0
 572 02c4 97000000 		call	_ZN9Scheduler16SetupStartThreadEv@plt
 572      E7800000 
 573              	.LVL67:
 132:src/ABI.cpp   ****     return 0;
 574              		.loc 1 132 5 is_stmt 1
 133:src/ABI.cpp   **** }
 575              		.loc 1 133 1 is_stmt 0
 576 02cc 13050000 		li	a0,0
 577 02d0 83308100 		ld	ra,8(sp)
 578              		.cfi_restore 1
 579 02d4 03340100 		ld	s0,0(sp)
 580              		.cfi_restore 8
 581              		.cfi_def_cfa 2, 16
 582 02d8 13010101 		addi	sp,sp,16
 583              		.cfi_def_cfa_offset 0
 584 02dc 67800000 		jr	ra
 585              		.cfi_endproc
 586              	.LFE4:
 588              	.Letext0:
 589              		.file 3 "src/./../lib/hw.h"
 590              		.file 4 "src/./MemoryAllocator.hpp"
 591              		.file 5 "src/APIC.h"
 592              		.file 6 "src/Scheduler.hpp"
 593              		.file 7 "src/../lib/console.h"
GAS LISTING /tmp/ccKjM08C.s 			page 17


DEFINED SYMBOLS
                            *ABS*:0000000000000000 ABI.cpp
     /tmp/ccKjM08C.s:9      .text:0000000000000000 HandleInterupt
     /tmp/ccKjM08C.s:13     .text:0000000000000000 .L0 
     /tmp/ccKjM08C.s:15     .text:0000000000000000 .L0 
     /tmp/ccKjM08C.s:16     .text:0000000000000004 .L0 
     /tmp/ccKjM08C.s:25     .text:0000000000000024 .L0 
     /tmp/ccKjM08C.s:26     .text:0000000000000024 .L0 
     /tmp/ccKjM08C.s:27     .text:0000000000000024 .L0 
     /tmp/ccKjM08C.s:28     .text:0000000000000024 .L0 
     /tmp/ccKjM08C.s:29     .text:0000000000000024 .L0 
     /tmp/ccKjM08C.s:30     .text:0000000000000024 .L0 
     /tmp/ccKjM08C.s:31     .text:0000000000000024 .L0 
     /tmp/ccKjM08C.s:32     .text:0000000000000024 .L0 
     /tmp/ccKjM08C.s:34     .text:0000000000000028 .L0 
     /tmp/ccKjM08C.s:37     .text:000000000000002c .L0 
     /tmp/ccKjM08C.s:38     .text:000000000000002c .L0 
         src/ABI.cpp:14     .text:000000000000002c .L0 
     /tmp/ccKjM08C.s:45     .text:0000000000000030 .L0 
     /tmp/ccKjM08C.s:47     .text:0000000000000030 .L0 
     /tmp/ccKjM08C.s:53     .text:000000000000003c .L0 
     /tmp/ccKjM08C.s:57     .text:0000000000000040 .L0 
     /tmp/ccKjM08C.s:61     .text:0000000000000044 .L0 
     /tmp/ccKjM08C.s:64     .text:000000000000004c .L0 
     /tmp/ccKjM08C.s:65     .text:000000000000004c .L0 
     /tmp/ccKjM08C.s:69     .text:0000000000000058 .L0 
     /tmp/ccKjM08C.s:72     .text:0000000000000060 .L0 
     /tmp/ccKjM08C.s:79     .text:0000000000000068 .L0 
     /tmp/ccKjM08C.s:80     .text:0000000000000068 .L0 
     /tmp/ccKjM08C.s:82     .text:000000000000006c .L0 
     /tmp/ccKjM08C.s:84     .text:0000000000000070 .L0 
     /tmp/ccKjM08C.s:85     .text:0000000000000070 .L0 
         src/ABI.cpp:23     .text:0000000000000070 .L0 
     /tmp/ccKjM08C.s:92     .text:0000000000000074 .L0 
         src/ABI.cpp:24     .text:0000000000000074 .L0 
     /tmp/ccKjM08C.s:98     .text:0000000000000078 .L0 
     /tmp/ccKjM08C.s:100    .text:0000000000000078 .L0 
     /tmp/ccKjM08C.s:102    .text:000000000000007c .L0 
     /tmp/ccKjM08C.s:106    .text:0000000000000084 .L0 
     /tmp/ccKjM08C.s:107    .text:0000000000000084 .L0 
     /tmp/ccKjM08C.s:109    .text:0000000000000088 .L0 
     /tmp/ccKjM08C.s:110    .text:0000000000000088 .L0 
     /tmp/ccKjM08C.s:116    .text:000000000000008c .L0 
     /tmp/ccKjM08C.s:122    .text:000000000000009c .L0 
     /tmp/ccKjM08C.s:123    .text:000000000000009c .L0 
     /tmp/ccKjM08C.s:125    .text:00000000000000a0 .L0 
     /tmp/ccKjM08C.s:130    .text:00000000000000a8 .L0 
     /tmp/ccKjM08C.s:131    .text:00000000000000a8 .L0 
     /tmp/ccKjM08C.s:132    .text:00000000000000a8 .L0 
         src/ABI.cpp:50     .text:00000000000000a8 .L0 
     /tmp/ccKjM08C.s:139    .text:00000000000000ac .L0 
     /tmp/ccKjM08C.s:141    .text:00000000000000ac .L0 
         src/ABI.cpp:51     .text:00000000000000b0 .L0 
     /tmp/ccKjM08C.s:151    .text:00000000000000b4 .L0 
     /tmp/ccKjM08C.s:152    .text:00000000000000b4 .L0 
     /tmp/ccKjM08C.s:156    .text:00000000000000b8 .L0 
     /tmp/ccKjM08C.s:198    .text:00000000000000e4 .L0 
GAS LISTING /tmp/ccKjM08C.s 			page 18


     /tmp/ccKjM08C.s:199    .text:00000000000000e4 .L0 
     /tmp/ccKjM08C.s:207    .text:00000000000000ec .L0 
     /tmp/ccKjM08C.s:208    .text:00000000000000ec .L0 
     /tmp/ccKjM08C.s:212    .text:00000000000000f8 .L0 
     /tmp/ccKjM08C.s:218    .text:00000000000000fc .L0 
     /tmp/ccKjM08C.s:225    .text:0000000000000100 .L0 
     /tmp/ccKjM08C.s:226    .text:0000000000000104 .L0 
     /tmp/ccKjM08C.s:227    .text:0000000000000104 .L0 
     /tmp/ccKjM08C.s:229    .text:0000000000000108 .L0 
     /tmp/ccKjM08C.s:230    .text:0000000000000108 .L0 
     /tmp/ccKjM08C.s:232    .text:000000000000010c .L0 
     /tmp/ccKjM08C.s:234    .text:0000000000000110 .L0 
     /tmp/ccKjM08C.s:236    .text:0000000000000114 .L0 
     /tmp/ccKjM08C.s:238    .text:0000000000000118 .L0 
     /tmp/ccKjM08C.s:240    .text:000000000000011c .L0 
     /tmp/ccKjM08C.s:242    .text:0000000000000120 .L0 
     /tmp/ccKjM08C.s:244    .text:0000000000000124 .L0 
     /tmp/ccKjM08C.s:248    .text:0000000000000128 .L0 
     /tmp/ccKjM08C.s:254    .text:0000000000000128 .L0 
     /tmp/ccKjM08C.s:255    .text:0000000000000128 .L0 
         src/ABI.cpp:40     .text:0000000000000128 .L0 
     /tmp/ccKjM08C.s:262    .text:000000000000012c .L0 
     /tmp/ccKjM08C.s:264    .text:000000000000012c .L0 
     /tmp/ccKjM08C.s:269    .text:0000000000000138 .L0 
     /tmp/ccKjM08C.s:270    .text:0000000000000138 .L0 
         src/ABI.cpp:42     .text:000000000000013c .L0 
     /tmp/ccKjM08C.s:281    .text:0000000000000140 .L0 
     /tmp/ccKjM08C.s:288    .text:0000000000000144 .L0 
     /tmp/ccKjM08C.s:292    .text:000000000000014c .L0 
     /tmp/ccKjM08C.s:294    .text:000000000000014c .L0 
     /tmp/ccKjM08C.s:295    .text:000000000000014c .L0 
     /tmp/ccKjM08C.s:296    .text:000000000000014c .L0 
     /tmp/ccKjM08C.s:299    .text:0000000000000150 .L0 
     /tmp/ccKjM08C.s:301    .text:0000000000000154 .L0 
     /tmp/ccKjM08C.s:302    .text:0000000000000154 .L0 
     /tmp/ccKjM08C.s:305    .text:0000000000000158 .L0 
     /tmp/ccKjM08C.s:307    .text:000000000000015c .L0 
         src/ABI.cpp:115    .text:000000000000015c .L0 
     /tmp/ccKjM08C.s:314    .text:0000000000000160 .L0 
     /tmp/ccKjM08C.s:319    .text:0000000000000164 .L0 
     /tmp/ccKjM08C.s:321    .text:0000000000000164 .L0 
     /tmp/ccKjM08C.s:322    .text:0000000000000164 .L0 
     /tmp/ccKjM08C.s:323    .text:0000000000000164 .L0 
     /tmp/ccKjM08C.s:326    .text:0000000000000168 .L0 
     /tmp/ccKjM08C.s:327    .text:0000000000000168 .L0 
     /tmp/ccKjM08C.s:330    .text:0000000000000170 .L0 
     /tmp/ccKjM08C.s:334    .text:000000000000017c .L0 
         src/ABI.cpp:59     .text:000000000000017c .L0 
     /tmp/ccKjM08C.s:341    .text:0000000000000180 .L0 
     /tmp/ccKjM08C.s:346    .text:0000000000000184 .L0 
     /tmp/ccKjM08C.s:348    .text:0000000000000184 .L0 
     /tmp/ccKjM08C.s:349    .text:0000000000000184 .L0 
     /tmp/ccKjM08C.s:350    .text:0000000000000184 .L0 
     /tmp/ccKjM08C.s:353    .text:0000000000000188 .L0 
     /tmp/ccKjM08C.s:354    .text:0000000000000188 .L0 
     /tmp/ccKjM08C.s:357    .text:0000000000000190 .L0 
     /tmp/ccKjM08C.s:361    .text:000000000000019c .L0 
GAS LISTING /tmp/ccKjM08C.s 			page 19


     /tmp/ccKjM08C.s:366    .text:00000000000001a0 .L0 
     /tmp/ccKjM08C.s:368    .text:00000000000001a0 .L0 
     /tmp/ccKjM08C.s:369    .text:00000000000001a0 .L0 
     /tmp/ccKjM08C.s:370    .text:00000000000001a0 .L0 
     /tmp/ccKjM08C.s:373    .text:00000000000001a4 .L0 
     /tmp/ccKjM08C.s:374    .text:00000000000001a4 .L0 
     /tmp/ccKjM08C.s:377    .text:00000000000001a8 .L0 
     /tmp/ccKjM08C.s:378    .text:00000000000001a8 .L0 
     /tmp/ccKjM08C.s:381    .text:00000000000001ac .L0 
     /tmp/ccKjM08C.s:382    .text:00000000000001ac .L0 
     /tmp/ccKjM08C.s:385    .text:00000000000001b0 .L0 
     /tmp/ccKjM08C.s:386    .text:00000000000001b0 .L0 
     /tmp/ccKjM08C.s:389    .text:00000000000001b8 .L0 
     /tmp/ccKjM08C.s:395    .text:00000000000001c8 .L0 
     /tmp/ccKjM08C.s:398    .text:00000000000001cc .L0 
     /tmp/ccKjM08C.s:399    .text:00000000000001cc .L0 
     /tmp/ccKjM08C.s:400    .text:00000000000001cc .L0 
     /tmp/ccKjM08C.s:406    .text:00000000000001d4 .L0 
     /tmp/ccKjM08C.s:407    .text:00000000000001d4 .L0 
     /tmp/ccKjM08C.s:408    .text:00000000000001d4 .L0 
     /tmp/ccKjM08C.s:410    .text:00000000000001d8 .L0 
     /tmp/ccKjM08C.s:411    .text:00000000000001d8 .L0 
     /tmp/ccKjM08C.s:416    .text:00000000000001dc .L0 
     /tmp/ccKjM08C.s:417    .text:00000000000001dc .L0 
     /tmp/ccKjM08C.s:423    .text:00000000000001f0 .L0 
     /tmp/ccKjM08C.s:424    .text:00000000000001f0 .L0 
     /tmp/ccKjM08C.s:426    .text:00000000000001f4 .L0 
     /tmp/ccKjM08C.s:427    .text:00000000000001f4 .L0 
     /tmp/ccKjM08C.s:431    .text:0000000000000200 .L0 
     /tmp/ccKjM08C.s:433    .text:0000000000000204 .L0 
     /tmp/ccKjM08C.s:434    .text:0000000000000204 .L0 
     /tmp/ccKjM08C.s:437    .text:0000000000000208 .L0 
         src/ABI.cpp:90     .text:0000000000000208 .L0 
     /tmp/ccKjM08C.s:444    .text:000000000000020c .L0 
     /tmp/ccKjM08C.s:448    .text:0000000000000210 .L0 
     /tmp/ccKjM08C.s:450    .text:0000000000000214 .L0 
     /tmp/ccKjM08C.s:451    .text:0000000000000214 .L0 
     /tmp/ccKjM08C.s:454    .text:000000000000021c .L0 
     /tmp/ccKjM08C.s:455    .text:000000000000021c .L0 
     /tmp/ccKjM08C.s:462    .text:0000000000000230 .L0 
     /tmp/ccKjM08C.s:467    .text:0000000000000234 .L0 
     /tmp/ccKjM08C.s:468    .text:0000000000000234 .L0 
     /tmp/ccKjM08C.s:469    .text:0000000000000234 .L0 
     /tmp/ccKjM08C.s:470    .text:0000000000000234 .L0 
     /tmp/ccKjM08C.s:474    .text:0000000000000240 .L0 
     /tmp/ccKjM08C.s:478    .text:0000000000000244 .L0 
     /tmp/ccKjM08C.s:480    .text:0000000000000244 .L0 
     /tmp/ccKjM08C.s:481    .text:0000000000000244 .L0 
     /tmp/ccKjM08C.s:482    .text:0000000000000244 .L0 
     /tmp/ccKjM08C.s:487    .text:0000000000000250 .L0 
     /tmp/ccKjM08C.s:489    .text:0000000000000254 .L0 
     /tmp/ccKjM08C.s:491    .text:0000000000000258 .L0 
     /tmp/ccKjM08C.s:492    .text:0000000000000258 .L0 
     /tmp/ccKjM08C.s:495    .text:000000000000025c .L0 
     /tmp/ccKjM08C.s:496    .text:000000000000025c .L0 
     /tmp/ccKjM08C.s:501    .text:0000000000000268 .L0 
     /tmp/ccKjM08C.s:502    .text:0000000000000268 .L0 
GAS LISTING /tmp/ccKjM08C.s 			page 20


     /tmp/ccKjM08C.s:507    .text:0000000000000278 .L0 
     /tmp/ccKjM08C.s:511    .text:000000000000027c .L0 
         src/ABI.cpp:103    .text:000000000000027c .L0 
     /tmp/ccKjM08C.s:518    .text:0000000000000280 .L0 
     /tmp/ccKjM08C.s:524    .text:0000000000000284 .L0 
     /tmp/ccKjM08C.s:525    .text:0000000000000284 .L0 
     /tmp/ccKjM08C.s:529    .text:0000000000000290 .L0 
     /tmp/ccKjM08C.s:530    .text:0000000000000290 .L0 
     /tmp/ccKjM08C.s:535    .text:000000000000029c .L0 
     /tmp/ccKjM08C.s:537    .text:00000000000002a0 .L0 
     /tmp/ccKjM08C.s:538    .text:00000000000002a0 .L0 
     /tmp/ccKjM08C.s:543    .text:00000000000002ac .L0 
     /tmp/ccKjM08C.s:547    .text:00000000000002b0 .L0 
     /tmp/ccKjM08C.s:548    .text:00000000000002b0 .L0 
     /tmp/ccKjM08C.s:552    .text:00000000000002b4 .L0 
     /tmp/ccKjM08C.s:558    .text:00000000000002b4 start_main_thread
     /tmp/ccKjM08C.s:561    .text:00000000000002b4 .L0 
     /tmp/ccKjM08C.s:562    .text:00000000000002b4 .L0 
     /tmp/ccKjM08C.s:563    .text:00000000000002b8 .L0 
     /tmp/ccKjM08C.s:566    .text:00000000000002c0 .L0 
     /tmp/ccKjM08C.s:567    .text:00000000000002c0 .L0 
     /tmp/ccKjM08C.s:569    .text:00000000000002c4 .L0 
     /tmp/ccKjM08C.s:571    .text:00000000000002c4 .L0 
     /tmp/ccKjM08C.s:572    .text:00000000000002c4 .L0 
     /tmp/ccKjM08C.s:575    .text:00000000000002cc .L0 
     /tmp/ccKjM08C.s:576    .text:00000000000002cc .L0 
     /tmp/ccKjM08C.s:578    .text:00000000000002d4 .L0 
     /tmp/ccKjM08C.s:580    .text:00000000000002d8 .L0 
     /tmp/ccKjM08C.s:581    .text:00000000000002d8 .L0 
     /tmp/ccKjM08C.s:583    .text:00000000000002dc .L0 
     /tmp/ccKjM08C.s:585    .text:00000000000002e0 .L0 
     /tmp/ccKjM08C.s:594    .text:00000000000002e0 .L0 
     /tmp/ccKjM08C.s:170    .rodata:0000000000000000 .L12
     /tmp/ccKjM08C.s:162    .text:00000000000000cc .L0 
     /tmp/ccKjM08C.s:112    .text:000000000000008c .L2
     /tmp/ccKjM08C.s:76     .text:0000000000000068 .L3
     /tmp/ccKjM08C.s:58     .text:0000000000000044 .L4
     /tmp/ccKjM08C.s:193    .text:00000000000000e4 .L28
     /tmp/ccKjM08C.s:203    .text:00000000000000ec .L29
     /tmp/ccKjM08C.s:213    .text:00000000000000fc .L30
     /tmp/ccKjM08C.s:283    .text:0000000000000144 .L10
     /tmp/ccKjM08C.s:220    .text:0000000000000100 .L1
     /tmp/ccKjM08C.s:104    .text:0000000000000084 .L5
     /tmp/ccKjM08C.s:247    .text:0000000000000128 .L31
     /tmp/ccKjM08C.s:303    .text:0000000000000158 .L23
     /tmp/ccKjM08C.s:520    .text:0000000000000284 .L24
     /tmp/ccKjM08C.s:446    .text:0000000000000210 .L32
     /tmp/ccKjM08C.s:435    .text:0000000000000208 .L20
     /tmp/ccKjM08C.s:509    .text:000000000000027c .L33
     /tmp/ccKjM08C.s:493    .text:000000000000025c .L22
     /tmp/ccKjM08C.s:545    .text:00000000000002b0 .L26
     /tmp/ccKjM08C.s:316    .text:0000000000000164 .L16
     /tmp/ccKjM08C.s:343    .text:0000000000000184 .L15
     /tmp/ccKjM08C.s:363    .text:00000000000001a0 .L14
     /tmp/ccKjM08C.s:464    .text:0000000000000234 .L13
     /tmp/ccKjM08C.s:476    .text:0000000000000244 .L11
     /tmp/ccKjM08C.s:1836   .debug_abbrev:0000000000000000 .Ldebug_abbrev0
GAS LISTING /tmp/ccKjM08C.s 			page 21


     /tmp/ccKjM08C.s:3291   .debug_str:000000000000065c .LASF112
     /tmp/ccKjM08C.s:3275   .debug_str:00000000000005fd .LASF113
     /tmp/ccKjM08C.s:3273   .debug_str:00000000000005df .LASF114
     /tmp/ccKjM08C.s:5      .text:0000000000000000 .Ltext0
     /tmp/ccKjM08C.s:588    .text:00000000000002e0 .Letext0
     /tmp/ccKjM08C.s:3089   .debug_line:0000000000000000 .Ldebug_line0
     /tmp/ccKjM08C.s:3223   .debug_str:000000000000044b .LASF0
     /tmp/ccKjM08C.s:3237   .debug_str:00000000000004b9 .LASF1
     /tmp/ccKjM08C.s:3205   .debug_str:0000000000000399 .LASF2
     /tmp/ccKjM08C.s:3151   .debug_str:00000000000001cd .LASF3
     /tmp/ccKjM08C.s:3177   .debug_str:00000000000002b3 .LASF4
     /tmp/ccKjM08C.s:3227   .debug_str:0000000000000467 .LASF5
     /tmp/ccKjM08C.s:3117   .debug_str:00000000000000ca .LASF6
     /tmp/ccKjM08C.s:3145   .debug_str:00000000000001a6 .LASF7
     /tmp/ccKjM08C.s:3241   .debug_str:00000000000004d9 .LASF8
     /tmp/ccKjM08C.s:3221   .debug_str:0000000000000438 .LASF9
     /tmp/ccKjM08C.s:3307   .debug_str:000000000000079d .LASF10
     /tmp/ccKjM08C.s:3167   .debug_str:000000000000025f .LASF11
     /tmp/ccKjM08C.s:3253   .debug_str:000000000000052f .LASF12
     /tmp/ccKjM08C.s:3293   .debug_str:0000000000000720 .LASF13
     /tmp/ccKjM08C.s:3123   .debug_str:0000000000000102 .LASF14
     /tmp/ccKjM08C.s:3095   .debug_str:0000000000000016 .LASF15
     /tmp/ccKjM08C.s:3133   .debug_str:0000000000000147 .LASF16
     /tmp/ccKjM08C.s:3265   .debug_str:00000000000005a7 .LASF17
     /tmp/ccKjM08C.s:3139   .debug_str:000000000000017b .LASF18
     /tmp/ccKjM08C.s:3185   .debug_str:00000000000002e5 .LASF23
     /tmp/ccKjM08C.s:3327   .debug_str:0000000000000841 .LASF19
     /tmp/ccKjM08C.s:3319   .debug_str:00000000000007f6 .LASF20
     /tmp/ccKjM08C.s:3155   .debug_str:00000000000001db .LASF21
     /tmp/ccKjM08C.s:3287   .debug_str:000000000000064b .LASF22
     /tmp/ccKjM08C.s:3201   .debug_str:0000000000000378 .LASF24
     /tmp/ccKjM08C.s:3313   .debug_str:00000000000007db .LASF85
     /tmp/ccKjM08C.s:3105   .debug_str:0000000000000050 .LASF87
     /tmp/ccKjM08C.s:3297   .debug_str:0000000000000737 .LASF25
     /tmp/ccKjM08C.s:3115   .debug_str:00000000000000a1 .LASF27
     /tmp/ccKjM08C.s:3239   .debug_str:00000000000004cc .LASF26
     /tmp/ccKjM08C.s:3309   .debug_str:00000000000007ad .LASF28
     /tmp/ccKjM08C.s:3143   .debug_str:00000000000001a1 .LASF29
     /tmp/ccKjM08C.s:3147   .debug_str:00000000000001ad .LASF79
     /tmp/ccKjM08C.s:3269   .debug_str:00000000000005c3 .LASF30
     /tmp/ccKjM08C.s:3251   .debug_str:0000000000000523 .LASF31
     /tmp/ccKjM08C.s:3099   .debug_str:000000000000002d .LASF115
     /tmp/ccKjM08C.s:3231   .debug_str:000000000000049c .LASF32
     /tmp/ccKjM08C.s:3261   .debug_str:0000000000000598 .LASF33
     /tmp/ccKjM08C.s:3301   .debug_str:0000000000000765 .LASF34
     /tmp/ccKjM08C.s:3131   .debug_str:0000000000000136 .LASF64
     /tmp/ccKjM08C.s:3219   .debug_str:0000000000000417 .LASF66
     /tmp/ccKjM08C.s:3179   .debug_str:00000000000002ba .LASF35
     /tmp/ccKjM08C.s:3149   .debug_str:00000000000001c6 .LASF36
     /tmp/ccKjM08C.s:3107   .debug_str:0000000000000074 .LASF37
     /tmp/ccKjM08C.s:3093   .debug_str:0000000000000009 .LASF38
     /tmp/ccKjM08C.s:3187   .debug_str:00000000000002ee .LASF39
     /tmp/ccKjM08C.s:3113   .debug_str:0000000000000093 .LASF40
     /tmp/ccKjM08C.s:3165   .debug_str:0000000000000250 .LASF42
     /tmp/ccKjM08C.s:3289   .debug_str:0000000000000650 .LASF41
     /tmp/ccKjM08C.s:3189   .debug_str:00000000000002f9 .LASF43
     /tmp/ccKjM08C.s:3243   .debug_str:00000000000004ec .LASF44
GAS LISTING /tmp/ccKjM08C.s 			page 22


     /tmp/ccKjM08C.s:3235   .debug_str:00000000000004a7 .LASF45
     /tmp/ccKjM08C.s:3215   .debug_str:0000000000000400 .LASF46
     /tmp/ccKjM08C.s:3255   .debug_str:000000000000053e .LASF47
     /tmp/ccKjM08C.s:3127   .debug_str:000000000000011e .LASF48
     /tmp/ccKjM08C.s:3305   .debug_str:0000000000000784 .LASF49
     /tmp/ccKjM08C.s:3119   .debug_str:00000000000000d1 .LASF50
     /tmp/ccKjM08C.s:3181   .debug_str:00000000000002bf .LASF51
     /tmp/ccKjM08C.s:3183   .debug_str:00000000000002d6 .LASF52
     /tmp/ccKjM08C.s:3173   .debug_str:000000000000028e .LASF53
     /tmp/ccKjM08C.s:3277   .debug_str:0000000000000609 .LASF54
     /tmp/ccKjM08C.s:3299   .debug_str:0000000000000748 .LASF55
     /tmp/ccKjM08C.s:3331   .debug_str:000000000000085d .LASF56
     /tmp/ccKjM08C.s:3207   .debug_str:00000000000003a7 .LASF57
     /tmp/ccKjM08C.s:3103   .debug_str:0000000000000041 .LASF58
     /tmp/ccKjM08C.s:3259   .debug_str:0000000000000579 .LASF59
     /tmp/ccKjM08C.s:3191   .debug_str:0000000000000314 .LASF60
     /tmp/ccKjM08C.s:3157   .debug_str:00000000000001e0 .LASF61
     /tmp/ccKjM08C.s:3161   .debug_str:000000000000022e .LASF62
     /tmp/ccKjM08C.s:3329   .debug_str:0000000000000846 .LASF63
     /tmp/ccKjM08C.s:3295   .debug_str:000000000000072f .LASF65
     /tmp/ccKjM08C.s:3247   .debug_str:00000000000004fc .LASF67
     /tmp/ccKjM08C.s:3175   .debug_str:00000000000002ab .LASF68
     /tmp/ccKjM08C.s:3091   .debug_str:0000000000000000 .LASF69
     /tmp/ccKjM08C.s:3249   .debug_str:0000000000000519 .LASF70
     /tmp/ccKjM08C.s:3283   .debug_str:000000000000062e .LASF71
     /tmp/ccKjM08C.s:3153   .debug_str:00000000000001d3 .LASF72
     /tmp/ccKjM08C.s:3109   .debug_str:000000000000007d .LASF73
     /tmp/ccKjM08C.s:3271   .debug_str:00000000000005d1 .LASF74
     /tmp/ccKjM08C.s:3217   .debug_str:000000000000040c .LASF75
     /tmp/ccKjM08C.s:3101   .debug_str:0000000000000035 .LASF76
     /tmp/ccKjM08C.s:3211   .debug_str:00000000000003d5 .LASF77
     /tmp/ccKjM08C.s:3125   .debug_str:0000000000000112 .LASF116
     /tmp/ccKjM08C.s:3197   .debug_str:000000000000034d .LASF117
     /tmp/ccKjM08C.s:3225   .debug_str:0000000000000458 .LASF78
     /tmp/ccKjM08C.s:3121   .debug_str:00000000000000db .LASF80
     /tmp/ccKjM08C.s:3141   .debug_str:0000000000000191 .LASF81
     /tmp/ccKjM08C.s:3257   .debug_str:0000000000000558 .LASF83
     /tmp/ccKjM08C.s:3203   .debug_str:0000000000000388 .LASF82
     /tmp/ccKjM08C.s:3135   .debug_str:0000000000000153 .LASF84
     /tmp/ccKjM08C.s:3245   .debug_str:00000000000004f1 .LASF86
     /tmp/ccKjM08C.s:3163   .debug_str:0000000000000234 .LASF88
     /tmp/ccKjM08C.s:3267   .debug_str:00000000000005bd .LASF89
     /tmp/ccKjM08C.s:3323   .debug_str:0000000000000800 .LASF90
     /tmp/ccKjM08C.s:3111   .debug_str:0000000000000088 .LASF91
     /tmp/ccKjM08C.s:3229   .debug_str:0000000000000479 .LASF92
     /tmp/ccKjM08C.s:3193   .debug_str:000000000000032a .LASF93
     /tmp/ccKjM08C.s:3303   .debug_str:000000000000076c .LASF94
     /tmp/ccKjM08C.s:3195   .debug_str:0000000000000332 .LASF118
     /tmp/ccKjM08C.s:3129   .debug_str:0000000000000129 .LASF95
     /tmp/ccKjM08C.s:3159   .debug_str:0000000000000209 .LASF96
     /tmp/ccKjM08C.s:3279   .debug_str:0000000000000618 .LASF97
     /tmp/ccKjM08C.s:3325   .debug_str:0000000000000820 .LASF98
     /tmp/ccKjM08C.s:3233   .debug_str:00000000000004a1 .LASF99
     /tmp/ccKjM08C.s:3213   .debug_str:00000000000003e2 .LASF100
     /tmp/ccKjM08C.s:3171   .debug_str:000000000000027c .LASF101
     /tmp/ccKjM08C.s:559    .text:00000000000002b4 .LFB4
     /tmp/ccKjM08C.s:586    .text:00000000000002e0 .LFE4
GAS LISTING /tmp/ccKjM08C.s 			page 23


     /tmp/ccKjM08C.s:573    .text:00000000000002cc .LVL67
     /tmp/ccKjM08C.s:3169   .debug_str:000000000000026d .LASF102
     /tmp/ccKjM08C.s:10     .text:0000000000000000 .LFB3
     /tmp/ccKjM08C.s:553    .text:00000000000002b4 .LFE3
     /tmp/ccKjM08C.s:3137   .debug_str:0000000000000175 .LASF119
     /tmp/ccKjM08C.s:2723   .debug_loc:0000000000000000 .LLST0
     /tmp/ccKjM08C.s:3097   .debug_str:0000000000000026 .LASF103
     /tmp/ccKjM08C.s:2767   .debug_loc:00000000000000b1 .LLST1
     /tmp/ccKjM08C.s:3311   .debug_str:00000000000007d3 .LASF104
     /tmp/ccKjM08C.s:2782   .debug_loc:00000000000000fa .LLST2
     /tmp/ccKjM08C.s:3315   .debug_str:00000000000007e7 .LASF105
     /tmp/ccKjM08C.s:2817   .debug_loc:00000000000001a2 .LLST3
     /tmp/ccKjM08C.s:3075   .debug_ranges:0000000000000000 .Ldebug_ranges0
     /tmp/ccKjM08C.s:2862   .debug_loc:0000000000000269 .LLST4
     /tmp/ccKjM08C.s:2873   .debug_loc:000000000000029f .LLST5
     /tmp/ccKjM08C.s:55     .text:0000000000000040 .LBB21
     /tmp/ccKjM08C.s:77     .text:0000000000000068 .LBE21
     /tmp/ccKjM08C.s:2884   .debug_loc:00000000000002d5 .LLST6
     /tmp/ccKjM08C.s:252    .text:0000000000000128 .LBB26
     /tmp/ccKjM08C.s:278    .text:0000000000000140 .LBE26
     /tmp/ccKjM08C.s:2895   .debug_loc:000000000000030b .LLST7
     /tmp/ccKjM08C.s:267    .text:0000000000000138 .LVL22
     /tmp/ccKjM08C.s:129    .text:00000000000000a8 .LBB29
     /tmp/ccKjM08C.s:149    .text:00000000000000b4 .LBE29
     /tmp/ccKjM08C.s:2908   .debug_loc:0000000000000343 .LLST8
     /tmp/ccKjM08C.s:320    .text:0000000000000164 .LBB33
     /tmp/ccKjM08C.s:344    .text:0000000000000184 .LBE33
     /tmp/ccKjM08C.s:2921   .debug_loc:000000000000037b .LLST11
     /tmp/ccKjM08C.s:2928   .debug_loc:000000000000039e .LLST12
     /tmp/ccKjM08C.s:328    .text:0000000000000170 .LVL28
     /tmp/ccKjM08C.s:332    .text:000000000000017c .LVL29
     /tmp/ccKjM08C.s:347    .text:0000000000000184 .LBB34
     /tmp/ccKjM08C.s:364    .text:00000000000001a0 .LBE34
     /tmp/ccKjM08C.s:2935   .debug_loc:00000000000003c1 .LLST13
     /tmp/ccKjM08C.s:355    .text:0000000000000190 .LVL32
     /tmp/ccKjM08C.s:359    .text:000000000000019c .LVL33
     /tmp/ccKjM08C.s:367    .text:00000000000001a0 .LBB35
     /tmp/ccKjM08C.s:465    .text:0000000000000234 .LBE35
     /tmp/ccKjM08C.s:3285   .debug_str:0000000000000644 .LASF106
     /tmp/ccKjM08C.s:2942   .debug_loc:00000000000003e4 .LLST14
     /tmp/ccKjM08C.s:3199   .debug_str:000000000000036a .LASF107
     /tmp/ccKjM08C.s:2949   .debug_loc:0000000000000407 .LLST15
     /tmp/ccKjM08C.s:3317   .debug_str:00000000000007ec .LASF108
     /tmp/ccKjM08C.s:2956   .debug_loc:000000000000042a .LLST16
     /tmp/ccKjM08C.s:3281   .debug_str:0000000000000622 .LASF109
     /tmp/ccKjM08C.s:2963   .debug_loc:000000000000044d .LLST17
     /tmp/ccKjM08C.s:2970   .debug_loc:0000000000000470 .LLST18
     /tmp/ccKjM08C.s:2989   .debug_loc:00000000000004cc .LLST19
     /tmp/ccKjM08C.s:403    .text:00000000000001d4 .LBB36
     /tmp/ccKjM08C.s:414    .text:00000000000001dc .LBE36
     /tmp/ccKjM08C.s:3000   .debug_loc:0000000000000502 .LLST20
     /tmp/ccKjM08C.s:3007   .debug_loc:0000000000000525 .LLST21
     /tmp/ccKjM08C.s:3014   .debug_loc:0000000000000548 .LLST22
     /tmp/ccKjM08C.s:387    .text:00000000000001b8 .LVL39
     /tmp/ccKjM08C.s:391    .text:00000000000001c4 .LVL40
     /tmp/ccKjM08C.s:401    .text:00000000000001d4 .LVL43
     /tmp/ccKjM08C.s:421    .text:00000000000001f0 .LVL45
GAS LISTING /tmp/ccKjM08C.s 			page 24


     /tmp/ccKjM08C.s:429    .text:0000000000000200 .LVL46
     /tmp/ccKjM08C.s:458    .text:0000000000000228 .LVL49
     /tmp/ccKjM08C.s:460    .text:0000000000000230 .LVL50
     /tmp/ccKjM08C.s:479    .text:0000000000000244 .LBB38
     /tmp/ccKjM08C.s:521    .text:0000000000000284 .LBE38
     /tmp/ccKjM08C.s:3021   .debug_loc:000000000000056b .LLST23
     /tmp/ccKjM08C.s:483    .text:000000000000024c .LVL54
     /tmp/ccKjM08C.s:499    .text:0000000000000268 .LVL57
     /tmp/ccKjM08C.s:505    .text:0000000000000278 .LVL58
     /tmp/ccKjM08C.s:3036   .debug_loc:00000000000005b4 .LLST9
     /tmp/ccKjM08C.s:3047   .debug_loc:00000000000005ea .LLST10
     /tmp/ccKjM08C.s:527    .text:0000000000000290 .LVL61
     /tmp/ccKjM08C.s:531    .text:0000000000000298 .LVL62
     /tmp/ccKjM08C.s:541    .text:00000000000002ac .LVL65
     /tmp/ccKjM08C.s:48     .text:0000000000000038 .LVL2
     /tmp/ccKjM08C.s:210    .text:00000000000000f8 .LVL17
     /tmp/ccKjM08C.s:472    .text:0000000000000240 .LVL52
     /tmp/ccKjM08C.s:3321   .debug_str:00000000000007fb .LASF120
     /tmp/ccKjM08C.s:3263   .debug_str:00000000000005a0 .LASF110
     /tmp/ccKjM08C.s:3209   .debug_str:00000000000003c6 .LASF111
     /tmp/ccKjM08C.s:14     .text:0000000000000000 .LVL0
     /tmp/ccKjM08C.s:219    .text:0000000000000100 .LVL18
     /tmp/ccKjM08C.s:246    .text:0000000000000128 .LVL19
     /tmp/ccKjM08C.s:393    .text:00000000000001c8 .LVL41
     /tmp/ccKjM08C.s:463    .text:0000000000000234 .LVL51
     /tmp/ccKjM08C.s:485    .text:0000000000000250 .LVL55
     /tmp/ccKjM08C.s:519    .text:0000000000000284 .LVL60
     /tmp/ccKjM08C.s:43     .text:0000000000000030 .LVL1
     /tmp/ccKjM08C.s:371    .text:00000000000001a4 .LVL35
     /tmp/ccKjM08C.s:50     .text:000000000000003c .LVL3
     /tmp/ccKjM08C.s:260    .text:000000000000012c .LVL20
     /tmp/ccKjM08C.s:265    .text:0000000000000130 .LVL21
     /tmp/ccKjM08C.s:282    .text:0000000000000144 .LVL24
     /tmp/ccKjM08C.s:324    .text:0000000000000168 .LVL27
     /tmp/ccKjM08C.s:342    .text:0000000000000184 .LVL30
     /tmp/ccKjM08C.s:351    .text:0000000000000188 .LVL31
     /tmp/ccKjM08C.s:362    .text:00000000000001a0 .LVL34
     /tmp/ccKjM08C.s:153    .text:00000000000000b8 .LVL12
     /tmp/ccKjM08C.s:161    .text:00000000000000cc .LVL13
     /tmp/ccKjM08C.s:192    .text:00000000000000e4 .LVL14
     /tmp/ccKjM08C.s:315    .text:0000000000000164 .LVL26
     /tmp/ccKjM08C.s:475    .text:0000000000000244 .LVL53
     /tmp/ccKjM08C.s:90     .text:0000000000000074 .LVL7
     /tmp/ccKjM08C.s:111    .text:000000000000008c .LVL9
     /tmp/ccKjM08C.s:202    .text:00000000000000ec .LVL16
     /tmp/ccKjM08C.s:96     .text:0000000000000078 .LVL8
     /tmp/ccKjM08C.s:59     .text:0000000000000044 .LVL4
     /tmp/ccKjM08C.s:73     .text:0000000000000064 .LVL5
     /tmp/ccKjM08C.s:75     .text:0000000000000068 .LVL6
     /tmp/ccKjM08C.s:271    .text:000000000000013c .LVL23
     /tmp/ccKjM08C.s:137    .text:00000000000000ac .LVL10
     /tmp/ccKjM08C.s:142    .text:00000000000000b0 .LVL11
     /tmp/ccKjM08C.s:375    .text:00000000000001a8 .LVL36
     /tmp/ccKjM08C.s:379    .text:00000000000001ac .LVL37
     /tmp/ccKjM08C.s:383    .text:00000000000001b0 .LVL38
     /tmp/ccKjM08C.s:445    .text:0000000000000210 .LVL47
     /tmp/ccKjM08C.s:456    .text:0000000000000220 .LVL48
GAS LISTING /tmp/ccKjM08C.s 			page 25


     /tmp/ccKjM08C.s:397    .text:00000000000001cc .LVL42
     /tmp/ccKjM08C.s:412    .text:00000000000001dc .LVL44
     /tmp/ccKjM08C.s:497    .text:0000000000000260 .LVL56
     /tmp/ccKjM08C.s:508    .text:000000000000027c .LVL59
     /tmp/ccKjM08C.s:297    .text:0000000000000150 .LVL25
     /tmp/ccKjM08C.s:533    .text:000000000000029c .LVL63
     /tmp/ccKjM08C.s:539    .text:00000000000002a4 .LVL64
     /tmp/ccKjM08C.s:544    .text:00000000000002b0 .LVL66
     /tmp/ccKjM08C.s:595    .debug_info:0000000000000000 .Ldebug_info0
     /tmp/ccKjM08C.s:54     .text:0000000000000040 .LBB20
     /tmp/ccKjM08C.s:113    .text:000000000000008c .LBE20
     /tmp/ccKjM08C.s:196    .text:00000000000000e4 .LBB22
     /tmp/ccKjM08C.s:204    .text:00000000000000ec .LBE22
     /tmp/ccKjM08C.s:293    .text:000000000000014c .LBB32
     /tmp/ccKjM08C.s:317    .text:0000000000000164 .LBE32
     /tmp/ccKjM08C.s:522    .text:0000000000000284 .LBB39
     /tmp/ccKjM08C.s:549    .text:00000000000002b4 .LBE39

UNDEFINED SYMBOLS
_ZN9Scheduler10GetRunningEv
_ZN9Scheduler9timerTickEP6Thread
__putc
_ZN15MemoryAllocator11GetInstanceEv
_ZN15MemoryAllocator16AllocateFragmentEm
_ZN15MemoryAllocator12FreeFragmentEPv
_ZN6Thread4initEv
_ZN6Thread5setupEPS_Pm
_ZN9Scheduler3PutEP6Thread
_ZN6Thread10getContextEv
restoreContext
_ZN9Scheduler10ThreadExitEP6Thread
_ZN9Scheduler7GetNextEv
_ZN9Scheduler5yieldEP6ThreadS1_
_ZN9Scheduler5sleepEP6Threadm
_ZN9Scheduler16SetupStartThreadEv
