GAS LISTING /tmp/ccyNQDo7.s 			page 1


   1              		.file	"ABI.cpp"
   2              		.option pic
   3              		.option norelax
   4              		.text
   5              	.Ltext0:
   6              		.align	2
   7              		.globl	HandleInterupt
   9              	HandleInterupt:
  10              	.LFB2:
  11              		.file 1 "src/ABI.cpp"
   1:src/ABI.cpp   **** //
   2:src/ABI.cpp   **** // Created by os on 5/6/26.
   3:src/ABI.cpp   **** //
   4:src/ABI.cpp   **** #include "./MemoryAllocator.hpp"
   5:src/ABI.cpp   **** #include "Thread.hpp"
   6:src/ABI.cpp   **** #include "APIC.h"
   7:src/ABI.cpp   **** #include "Scheduler.hpp"
   8:src/ABI.cpp   **** #include "../lib/console.h"
   9:src/ABI.cpp   **** 
  10:src/ABI.cpp   **** extern "C" void HandleInterupt(uint64 code){
  12              		.loc 1 10 44
  13              		.cfi_startproc
  14              	.LVL0:
  15 0000 130101FE 		addi	sp,sp,-32
  16              		.cfi_def_cfa_offset 32
  17 0004 233C1100 		sd	ra,24(sp)
  18 0008 23388100 		sd	s0,16(sp)
  19 000c 23349100 		sd	s1,8(sp)
  20              		.cfi_offset 1, -8
  21              		.cfi_offset 8, -16
  22              		.cfi_offset 9, -24
  23 0010 13040102 		addi	s0,sp,32
  24              		.cfi_def_cfa 8, 0
  11:src/ABI.cpp   ****     __asm__ volatile("mv %[code],a0":[code]"=r"(code));
  25              		.loc 1 11 5
  26              		.loc 1 11 55 is_stmt 0
  27              	#APP
  28              	# 11 "src/ABI.cpp" 1
  12              	    uint64 scause=0;
  29              		mv a4,a0
  30              	# 0 "" 2
  31              	.LVL1:
  32              		.loc 1 12 5 is_stmt 1
  13:src/ABI.cpp   ****     __asm__ volatile("csrr %[scause],scause":[scause]"=r"(scause));
  33              		.loc 1 13 5
  34              		.loc 1 13 67 is_stmt 0
  35              	# 13 "src/ABI.cpp" 1
  14              	    if (scause !=8&&scause !=9) {
  36              		csrr a5,scause
  37              	# 0 "" 2
  38              	.LVL2:
  39              		.loc 1 14 5 is_stmt 1
  40              	#NO_APP
  41              	.LBB4:
  42              		.loc 1 14 19 is_stmt 0
  43 001c 938787FF 		addi	a5,a5,-8
  44              	.LVL3:
GAS LISTING /tmp/ccyNQDo7.s 			page 2


  45              		.loc 1 14 5
  46 0020 93061000 		li	a3,1
  47 0024 63EEF602 		bgtu	a5,a3,.L7
  48              	.LBE4:
  15:src/ABI.cpp   ****         uint64 sepc;
  16:src/ABI.cpp   ****         __asm__ volatile("csrr %0, sepc" : "=r"(sepc));
  17:src/ABI.cpp   ****         __putc('!');
  18:src/ABI.cpp   ****         __asm__ volatile("csrw sepc, %0" :: "r"(sepc + 4));
  19:src/ABI.cpp   ****         return;
  20:src/ABI.cpp   **** 
  21:src/ABI.cpp   ****     }
  22:src/ABI.cpp   ****     uint64 sepc;
  49              		.loc 1 22 5 is_stmt 1
  23:src/ABI.cpp   ****     __asm__ volatile("csrr %0, sepc" : "=r"(sepc));
  50              		.loc 1 23 5
  51              		.loc 1 23 51 is_stmt 0
  52              	#APP
  53              	# 23 "src/ABI.cpp" 1
  24              	    __asm__ volatile("csrw sepc, %0" :: "r"(sepc + 4));
  54              		csrr a5, sepc
  55              	# 0 "" 2
  56              	.LVL4:
  57              		.loc 1 24 5 is_stmt 1
  58              		.loc 1 24 50 is_stmt 0
  59              	#NO_APP
  60 002c 93874700 		addi	a5,a5,4
  61              	.LVL5:
  62              		.loc 1 24 55
  63              	#APP
  64              	# 24 "src/ABI.cpp" 1
  25              	    switch (code) {
  65              		csrw sepc, a5
  66              	# 0 "" 2
  67              		.loc 1 25 5 is_stmt 1
  68              	#NO_APP
  69              	.LBB6:
  70 0034 93072000 		li	a5,2
  71              	.LVL6:
  72 0038 6302F706 		beq	a4,a5,.L4
  73 003c 93073000 		li	a5,3
  74 0040 630CF706 		beq	a4,a5,.L5
  75 0044 93071000 		li	a5,1
  76 0048 630AF702 		beq	a4,a5,.L8
  77              	.LVL7:
  78              	.L1:
  79              	.LBE6:
  26:src/ABI.cpp   ****         case 0x01: {
  27:src/ABI.cpp   ****             size_t size=0;
  28:src/ABI.cpp   ****             __asm__ volatile("mv %[size],a1":[size]"=r"(size));
  29:src/ABI.cpp   ****             void* ptr = MemoryAllocator::GetInstance().AllocateFragment(size);
  30:src/ABI.cpp   ****             __asm__ volatile("mv a0,%[res]"::[res]"r"(ptr));
  31:src/ABI.cpp   ****             break;
  32:src/ABI.cpp   ****         }
  33:src/ABI.cpp   ****         case 0x02: {
  34:src/ABI.cpp   ****             void* ptr=nullptr;
  35:src/ABI.cpp   ****             __asm__ volatile("mv %[ptr],a1":[ptr]"=r"(ptr));
  36:src/ABI.cpp   ****             MemoryAllocator::GetInstance().FreeFragment(ptr);
GAS LISTING /tmp/ccyNQDo7.s 			page 3


  37:src/ABI.cpp   ****             break;
  38:src/ABI.cpp   ****         }
  39:src/ABI.cpp   ****         case 0x03: {//TODO:Check code
  40:src/ABI.cpp   ****             thread_t t = nullptr;
  41:src/ABI.cpp   ****             __asm__ volatile("mv %0, a1" : "=r"(t));
  42:src/ABI.cpp   ****             ((Thread*)t)->start();
  43:src/ABI.cpp   ****             break;
  44:src/ABI.cpp   ****         }
  45:src/ABI.cpp   **** 
  46:src/ABI.cpp   ****         default: {
  47:src/ABI.cpp   ****             break;
  48:src/ABI.cpp   ****         }
  49:src/ABI.cpp   ****     }
  50:src/ABI.cpp   ****     return;
  51:src/ABI.cpp   **** }
  80              		.loc 1 51 1 is_stmt 0
  81 004c 83308101 		ld	ra,24(sp)
  82              		.cfi_remember_state
  83              		.cfi_restore 1
  84 0050 03340101 		ld	s0,16(sp)
  85              		.cfi_restore 8
  86              		.cfi_def_cfa 2, 32
  87 0054 83348100 		ld	s1,8(sp)
  88              		.cfi_restore 9
  89 0058 13010102 		addi	sp,sp,32
  90              		.cfi_def_cfa_offset 0
  91 005c 67800000 		jr	ra
  92              	.LVL8:
  93              	.L7:
  94              		.cfi_restore_state
  95              	.LBB10:
  96              	.LBB5:
  15:src/ABI.cpp   ****         __asm__ volatile("csrr %0, sepc" : "=r"(sepc));
  97              		.loc 1 15 9 is_stmt 1
  16:src/ABI.cpp   ****         __putc('!');
  98              		.loc 1 16 9
  16:src/ABI.cpp   ****         __putc('!');
  99              		.loc 1 16 55 is_stmt 0
 100              	#APP
 101              	# 16 "src/ABI.cpp" 1
 102              		csrr s1, sepc
 103              	# 0 "" 2
 104              	.LVL9:
  17:src/ABI.cpp   ****         __asm__ volatile("csrw sepc, %0" :: "r"(sepc + 4));
 105              		.loc 1 17 9 is_stmt 1
  17:src/ABI.cpp   ****         __asm__ volatile("csrw sepc, %0" :: "r"(sepc + 4));
 106              		.loc 1 17 15 is_stmt 0
 107              	#NO_APP
 108 0064 13051002 		li	a0,33
 109 0068 97000000 		call	__putc@plt
 109      E7800000 
 110              	.LVL10:
  18:src/ABI.cpp   ****         return;
 111              		.loc 1 18 9 is_stmt 1
  18:src/ABI.cpp   ****         return;
 112              		.loc 1 18 54 is_stmt 0
 113 0070 93844400 		addi	s1,s1,4
GAS LISTING /tmp/ccyNQDo7.s 			page 4


 114              	.LVL11:
  18:src/ABI.cpp   ****         return;
 115              		.loc 1 18 59
 116              	#APP
 117              	# 18 "src/ABI.cpp" 1
  19:src/ABI.cpp   **** 
 118              		csrw sepc, s1
 119              	# 0 "" 2
 120              		.loc 1 19 9 is_stmt 1
 121              	#NO_APP
 122 0078 6FF05FFD 		j	.L1
 123              	.LVL12:
 124              	.L8:
 125              	.LBE5:
 126              	.LBE10:
  26:src/ABI.cpp   ****             size_t size=0;
 127              		.loc 1 26 9
  26:src/ABI.cpp   ****             size_t size=0;
 128              		.loc 1 26 20
 129              	.LBB11:
 130              	.LBB7:
  27:src/ABI.cpp   ****             __asm__ volatile("mv %[size],a1":[size]"=r"(size));
 131              		.loc 1 27 13
  28:src/ABI.cpp   ****             void* ptr = MemoryAllocator::GetInstance().AllocateFragment(size);
 132              		.loc 1 28 13
  28:src/ABI.cpp   ****             void* ptr = MemoryAllocator::GetInstance().AllocateFragment(size);
 133              		.loc 1 28 63 is_stmt 0
 134              	#APP
 135              	# 28 "src/ABI.cpp" 1
 136              		mv s1,a1
 137              	# 0 "" 2
 138              	.LVL13:
  29:src/ABI.cpp   ****             __asm__ volatile("mv a0,%[res]"::[res]"r"(ptr));
 139              		.loc 1 29 13 is_stmt 1
  29:src/ABI.cpp   ****             __asm__ volatile("mv a0,%[res]"::[res]"r"(ptr));
 140              		.loc 1 29 54 is_stmt 0
 141              	#NO_APP
 142 0080 97000000 		call	_ZN15MemoryAllocator11GetInstanceEv@plt
 142      E7800000 
 143              	.LVL14:
  29:src/ABI.cpp   ****             __asm__ volatile("mv a0,%[res]"::[res]"r"(ptr));
 144              		.loc 1 29 72
 145 0088 93850400 		mv	a1,s1
 146 008c 97000000 		call	_ZN15MemoryAllocator16AllocateFragmentEm@plt
 146      E7800000 
 147              	.LVL15:
  30:src/ABI.cpp   ****             break;
 148              		.loc 1 30 13 is_stmt 1
  30:src/ABI.cpp   ****             break;
 149              		.loc 1 30 60 is_stmt 0
 150              	#APP
 151              	# 30 "src/ABI.cpp" 1
  31:src/ABI.cpp   ****         }
 152              		mv a0,a0
 153              	# 0 "" 2
 154              		.loc 1 31 13 is_stmt 1
 155              	#NO_APP
GAS LISTING /tmp/ccyNQDo7.s 			page 5


 156 0098 6FF05FFB 		j	.L1
 157              	.LVL16:
 158              	.L4:
 159              	.LBE7:
 160              	.LBE11:
  33:src/ABI.cpp   ****             void* ptr=nullptr;
 161              		.loc 1 33 9
  33:src/ABI.cpp   ****             void* ptr=nullptr;
 162              		.loc 1 33 20
 163              	.LBB12:
 164              	.LBB8:
  34:src/ABI.cpp   ****             __asm__ volatile("mv %[ptr],a1":[ptr]"=r"(ptr));
 165              		.loc 1 34 13
  35:src/ABI.cpp   ****             MemoryAllocator::GetInstance().FreeFragment(ptr);
 166              		.loc 1 35 13
  35:src/ABI.cpp   ****             MemoryAllocator::GetInstance().FreeFragment(ptr);
 167              		.loc 1 35 60 is_stmt 0
 168              	#APP
 169              	# 35 "src/ABI.cpp" 1
 170              		mv s1,a1
 171              	# 0 "" 2
 172              	.LVL17:
  36:src/ABI.cpp   ****             break;
 173              		.loc 1 36 13 is_stmt 1
  36:src/ABI.cpp   ****             break;
 174              		.loc 1 36 42 is_stmt 0
 175              	#NO_APP
 176 00a0 97000000 		call	_ZN15MemoryAllocator11GetInstanceEv@plt
 176      E7800000 
 177              	.LVL18:
  36:src/ABI.cpp   ****             break;
 178              		.loc 1 36 56
 179 00a8 93850400 		mv	a1,s1
 180 00ac 97000000 		call	_ZN15MemoryAllocator12FreeFragmentEPv@plt
 180      E7800000 
 181              	.LVL19:
  37:src/ABI.cpp   ****         }
 182              		.loc 1 37 13 is_stmt 1
 183 00b4 6FF09FF9 		j	.L1
 184              	.LVL20:
 185              	.L5:
 186              	.LBE8:
 187              	.LBE12:
  39:src/ABI.cpp   ****             thread_t t = nullptr;
 188              		.loc 1 39 9
  39:src/ABI.cpp   ****             thread_t t = nullptr;
 189              		.loc 1 39 20
 190              	.LBB13:
 191              	.LBB9:
  40:src/ABI.cpp   ****             __asm__ volatile("mv %0, a1" : "=r"(t));
 192              		.loc 1 40 13
  41:src/ABI.cpp   ****             ((Thread*)t)->start();
 193              		.loc 1 41 13
  41:src/ABI.cpp   ****             ((Thread*)t)->start();
 194              		.loc 1 41 52 is_stmt 0
 195              	#APP
 196              	# 41 "src/ABI.cpp" 1
GAS LISTING /tmp/ccyNQDo7.s 			page 6


 197              		mv a0, a1
 198              	# 0 "" 2
 199              	.LVL21:
  42:src/ABI.cpp   ****             break;
 200              		.loc 1 42 13 is_stmt 1
  42:src/ABI.cpp   ****             break;
 201              		.loc 1 42 32 is_stmt 0
 202              	#NO_APP
 203 00bc 97000000 		call	_ZN6Thread5startEv@plt
 203      E7800000 
 204              	.LVL22:
  43:src/ABI.cpp   ****         }
 205              		.loc 1 43 13 is_stmt 1
 206 00c4 6FF09FF8 		j	.L1
 207              	.LBE9:
 208              	.LBE13:
 209              		.cfi_endproc
 210              	.LFE2:
 212              		.align	2
 213              		.globl	thread_create
 215              	thread_create:
 216              	.LFB4:
  52:src/ABI.cpp   **** 
  53:src/ABI.cpp   **** inline void* operator new(size_t, void* p) { return p; }
  54:src/ABI.cpp   **** 
  55:src/ABI.cpp   **** 
  56:src/ABI.cpp   **** extern "C" {
  57:src/ABI.cpp   **** thread_t thread_create(void (*body)(void)) {
 217              		.loc 1 57 44
 218              		.cfi_startproc
 219              	.LVL23:
 220 00c8 130101FE 		addi	sp,sp,-32
 221              		.cfi_def_cfa_offset 32
 222 00cc 233C1100 		sd	ra,24(sp)
 223 00d0 23388100 		sd	s0,16(sp)
 224 00d4 23349100 		sd	s1,8(sp)
 225 00d8 23302101 		sd	s2,0(sp)
 226              		.cfi_offset 1, -8
 227              		.cfi_offset 8, -16
 228              		.cfi_offset 9, -24
 229              		.cfi_offset 18, -32
 230 00dc 13040102 		addi	s0,sp,32
 231              		.cfi_def_cfa 8, 0
 232 00e0 13090500 		mv	s2,a0
  58:src/ABI.cpp   ****     void* mem = mem_alloc(sizeof(Thread));
 233              		.loc 1 58 5
 234              		.loc 1 58 26 is_stmt 0
 235 00e4 37850000 		li	a0,32768
 236              	.LVL24:
 237 00e8 13050514 		addi	a0,a0,320
 238 00ec 97000000 		call	mem_alloc@plt
 238      E7800000 
 239              	.LVL25:
 240 00f4 93040500 		mv	s1,a0
 241              	.LVL26:
  59:src/ABI.cpp   ****     Thread* t = reinterpret_cast<Thread*>(mem);
 242              		.loc 1 59 5 is_stmt 1
GAS LISTING /tmp/ccyNQDo7.s 			page 7


  60:src/ABI.cpp   ****     t->init();
 243              		.loc 1 60 5
 244              		.loc 1 60 13 is_stmt 0
 245 00f8 83370500 		ld	a5,0(a0)
 246 00fc 83B70700 		ld	a5,0(a5)
 247              		.loc 1 60 12
 248 0100 E7800700 		jalr	a5
 249              	.LVL27:
  61:src/ABI.cpp   ****     t->setBody(body);
 250              		.loc 1 61 5 is_stmt 1
 251              	.LBB14:
 252              	.LBB15:
 253              		.file 2 "src/Thread.hpp"
   1:src/Thread.hpp **** //
   2:src/Thread.hpp **** // Created by os on 6/10/26.
   3:src/Thread.hpp **** //
   4:src/Thread.hpp **** 
   5:src/Thread.hpp **** #ifndef OSPROJEKAT_THREAD_H
   6:src/Thread.hpp **** #define OSPROJEKAT_THREAD_H
   7:src/Thread.hpp **** 
   8:src/Thread.hpp **** #include "../lib/hw.h"
   9:src/Thread.hpp **** struct Context {
  10:src/Thread.hpp ****     size_t x[32];    // x0-x31, offsets 0x00-0xF
  11:src/Thread.hpp ****     size_t sepc;     // offset 0x100
  12:src/Thread.hpp ****     size_t sstatus;  // offset 0x108
  13:src/Thread.hpp **** };
  14:src/Thread.hpp **** 
  15:src/Thread.hpp **** class Thread{
  16:src/Thread.hpp **** protected:
  17:src/Thread.hpp ****     static void threadTrampoline(Thread* t) {
  18:src/Thread.hpp ****         if (t->body)t->body();
  19:src/Thread.hpp ****     }
  20:src/Thread.hpp ****     void (*body)(void);
  21:src/Thread.hpp **** 
  22:src/Thread.hpp ****     Thread* prev;
  23:src/Thread.hpp ****     Thread* next;
  24:src/Thread.hpp ****     size_t* stackPtr;
  25:src/Thread.hpp ****     size_t stack[DEFAULT_STACK_SIZE];
  26:src/Thread.hpp ****     size_t* supervisorSp;
  27:src/Thread.hpp **** public:
  28:src/Thread.hpp ****     Context threadContext;
  29:src/Thread.hpp ****     Thread();
  30:src/Thread.hpp ****     void copyContext(size_t* ctx);
  31:src/Thread.hpp ****     virtual void init();
  32:src/Thread.hpp ****     void setStackPtr(size_t* stackPtr);
  33:src/Thread.hpp ****     void setSupervisorSp(size_t* supervisorSp);
  34:src/Thread.hpp ****     size_t* getContext();
  35:src/Thread.hpp ****     Thread* getNextInQueue();
  36:src/Thread.hpp ****     Thread* getPrevInQueue();
  37:src/Thread.hpp ****     void setNextInQueue(Thread* next);
  38:src/Thread.hpp ****     void setPrevInQueue(Thread* prev);
  39:src/Thread.hpp ****     void setNextAndPrevInQueue(Thread* next, Thread* prev);
  40:src/Thread.hpp ****     void start();
  41:src/Thread.hpp ****     void setBody(void (*b)(void)) { body = b; }
 254              		.loc 2 41 37
 255              		.loc 2 41 42 is_stmt 0
 256 0104 23B42401 		sd	s2,8(s1)
GAS LISTING /tmp/ccyNQDo7.s 			page 8


 257              	.LVL28:
 258              	.LBE15:
 259              	.LBE14:
  62:src/ABI.cpp   ****     return reinterpret_cast<thread_t>(t);
 260              		.loc 1 62 5 is_stmt 1
  63:src/ABI.cpp   **** }
 261              		.loc 1 63 1 is_stmt 0
 262 0108 13850400 		mv	a0,s1
 263 010c 83308101 		ld	ra,24(sp)
 264              		.cfi_restore 1
 265 0110 03340101 		ld	s0,16(sp)
 266              		.cfi_restore 8
 267              		.cfi_def_cfa 2, 32
 268 0114 83348100 		ld	s1,8(sp)
 269              		.cfi_restore 9
 270              	.LVL29:
 271 0118 03390100 		ld	s2,0(sp)
 272              		.cfi_restore 18
 273              	.LVL30:
 274 011c 13010102 		addi	sp,sp,32
 275              		.cfi_def_cfa_offset 0
 276 0120 67800000 		jr	ra
 277              		.cfi_endproc
 278              	.LFE4:
 280              		.align	2
 281              		.globl	thread_start
 283              	thread_start:
 284              	.LFB5:
  64:src/ABI.cpp   **** 
  65:src/ABI.cpp   **** int thread_start(thread_t handle) {//TODO:Change name
 285              		.loc 1 65 35 is_stmt 1
 286              		.cfi_startproc
 287              	.LVL31:
 288 0124 130101FF 		addi	sp,sp,-16
 289              		.cfi_def_cfa_offset 16
 290 0128 23348100 		sd	s0,8(sp)
 291              		.cfi_offset 8, -8
 292 012c 13040101 		addi	s0,sp,16
 293              		.cfi_def_cfa 8, 0
  66:src/ABI.cpp   ****     uint64 code = 0x03;
 294              		.loc 1 66 5
 295              	.LVL32:
  67:src/ABI.cpp   ****     __asm__ volatile("mv a1, %0" :: "r"(handle));
 296              		.loc 1 67 5
 297              		.loc 1 67 49 is_stmt 0
 298              	#APP
 299              	# 67 "src/ABI.cpp" 1
  68              	    __asm__ volatile("mv a0, %0" :: "r"(code));
 300              		mv a1, a0
 301              	# 0 "" 2
 302              		.loc 1 68 5 is_stmt 1
 303              		.loc 1 68 47 is_stmt 0
 304              	#NO_APP
 305 0134 93073000 		li	a5,3
 306              	#APP
 307              	# 68 "src/ABI.cpp" 1
  69              	    __asm__ volatile("ecall");
GAS LISTING /tmp/ccyNQDo7.s 			page 9


 308              		mv a0, a5
 309              	# 0 "" 2
 310              		.loc 1 69 5 is_stmt 1
 311              		.loc 1 69 30 is_stmt 0
 312              	# 69 "src/ABI.cpp" 1
  70              	    return 0;
 313              		ecall
 314              	# 0 "" 2
 315              		.loc 1 70 5 is_stmt 1
  71:src/ABI.cpp   **** }
 316              		.loc 1 71 1 is_stmt 0
 317              	#NO_APP
 318 0140 13050000 		li	a0,0
 319              	.LVL33:
 320 0144 03348100 		ld	s0,8(sp)
 321              		.cfi_restore 8
 322              		.cfi_def_cfa 2, 16
 323 0148 13010101 		addi	sp,sp,16
 324              		.cfi_def_cfa_offset 0
 325 014c 67800000 		jr	ra
 326              		.cfi_endproc
 327              	.LFE5:
 329              		.align	2
 330              		.globl	thread_join
 332              	thread_join:
 333              	.LFB6:
  72:src/ABI.cpp   **** 
  73:src/ABI.cpp   **** int thread_join(thread_t t) {
 334              		.loc 1 73 29 is_stmt 1
 335              		.cfi_startproc
 336              	.LVL34:
 337 0150 130101FF 		addi	sp,sp,-16
 338              		.cfi_def_cfa_offset 16
 339 0154 23341100 		sd	ra,8(sp)
 340 0158 23308100 		sd	s0,0(sp)
 341              		.cfi_offset 1, -8
 342              		.cfi_offset 8, -16
 343 015c 13040101 		addi	s0,sp,16
 344              		.cfi_def_cfa 8, 0
  74:src/ABI.cpp   ****     ((Thread*)t)->join();
 345              		.loc 1 74 5
 346              		.loc 1 74 23 is_stmt 0
 347 0160 97000000 		call	_ZN6Thread4joinEv@plt
 347      E7800000 
 348              	.LVL35:
  75:src/ABI.cpp   ****     return 0;
 349              		.loc 1 75 5 is_stmt 1
  76:src/ABI.cpp   **** }
 350              		.loc 1 76 1 is_stmt 0
 351 0168 13050000 		li	a0,0
 352 016c 83308100 		ld	ra,8(sp)
 353              		.cfi_restore 1
 354 0170 03340100 		ld	s0,0(sp)
 355              		.cfi_restore 8
 356              		.cfi_def_cfa 2, 16
 357 0174 13010101 		addi	sp,sp,16
 358              		.cfi_def_cfa_offset 0
GAS LISTING /tmp/ccyNQDo7.s 			page 10


 359 0178 67800000 		jr	ra
 360              		.cfi_endproc
 361              	.LFE6:
 363              		.align	2
 364              		.globl	start_main_thread
 366              	start_main_thread:
 367              	.LFB7:
  77:src/ABI.cpp   **** int start_main_thread() {
 368              		.loc 1 77 25 is_stmt 1
 369              		.cfi_startproc
 370 017c 130101FF 		addi	sp,sp,-16
 371              		.cfi_def_cfa_offset 16
 372 0180 23341100 		sd	ra,8(sp)
 373 0184 23308100 		sd	s0,0(sp)
 374              		.cfi_offset 1, -8
 375              		.cfi_offset 8, -16
 376 0188 13040101 		addi	s0,sp,16
 377              		.cfi_def_cfa 8, 0
  78:src/ABI.cpp   ****     Scheduler::SetupStartThread();
 378              		.loc 1 78 5
 379              		.loc 1 78 32 is_stmt 0
 380 018c 97000000 		call	_ZN9Scheduler16SetupStartThreadEv@plt
 380      E7800000 
 381              	.LVL36:
  79:src/ABI.cpp   ****     return 0;
 382              		.loc 1 79 5 is_stmt 1
  80:src/ABI.cpp   **** }
 383              		.loc 1 80 1 is_stmt 0
 384 0194 13050000 		li	a0,0
 385 0198 83308100 		ld	ra,8(sp)
 386              		.cfi_restore 1
 387 019c 03340100 		ld	s0,0(sp)
 388              		.cfi_restore 8
 389              		.cfi_def_cfa 2, 16
 390 01a0 13010101 		addi	sp,sp,16
 391              		.cfi_def_cfa_offset 0
 392 01a4 67800000 		jr	ra
 393              		.cfi_endproc
 394              	.LFE7:
 396              	.Letext0:
 397              		.file 3 "src/./../lib/hw.h"
 398              		.file 4 "src/./MemoryAllocator.hpp"
 399              		.file 5 "src/APIC.h"
 400              		.file 6 "src/Scheduler.hpp"
 401              		.file 7 "src/../lib/console.h"
GAS LISTING /tmp/ccyNQDo7.s 			page 11


DEFINED SYMBOLS
                            *ABS*:0000000000000000 ABI.cpp
     /tmp/ccyNQDo7.s:9      .text:0000000000000000 HandleInterupt
     /tmp/ccyNQDo7.s:13     .text:0000000000000000 .L0 
     /tmp/ccyNQDo7.s:15     .text:0000000000000000 .L0 
     /tmp/ccyNQDo7.s:16     .text:0000000000000004 .L0 
     /tmp/ccyNQDo7.s:20     .text:0000000000000010 .L0 
     /tmp/ccyNQDo7.s:21     .text:0000000000000010 .L0 
     /tmp/ccyNQDo7.s:22     .text:0000000000000010 .L0 
     /tmp/ccyNQDo7.s:24     .text:0000000000000014 .L0 
     /tmp/ccyNQDo7.s:26     .text:0000000000000014 .L0 
         src/ABI.cpp:11     .text:0000000000000014 .L0 
     /tmp/ccyNQDo7.s:33     .text:0000000000000018 .L0 
     /tmp/ccyNQDo7.s:34     .text:0000000000000018 .L0 
         src/ABI.cpp:13     .text:0000000000000018 .L0 
     /tmp/ccyNQDo7.s:42     .text:000000000000001c .L0 
     /tmp/ccyNQDo7.s:43     .text:000000000000001c .L0 
     /tmp/ccyNQDo7.s:46     .text:0000000000000020 .L0 
     /tmp/ccyNQDo7.s:50     .text:0000000000000028 .L0 
     /tmp/ccyNQDo7.s:51     .text:0000000000000028 .L0 
         src/ABI.cpp:23     .text:0000000000000028 .L0 
     /tmp/ccyNQDo7.s:58     .text:000000000000002c .L0 
     /tmp/ccyNQDo7.s:60     .text:000000000000002c .L0 
         src/ABI.cpp:24     .text:0000000000000030 .L0 
     /tmp/ccyNQDo7.s:70     .text:0000000000000034 .L0 
     /tmp/ccyNQDo7.s:81     .text:000000000000004c .L0 
     /tmp/ccyNQDo7.s:82     .text:0000000000000050 .L0 
     /tmp/ccyNQDo7.s:83     .text:0000000000000050 .L0 
     /tmp/ccyNQDo7.s:85     .text:0000000000000054 .L0 
     /tmp/ccyNQDo7.s:86     .text:0000000000000054 .L0 
     /tmp/ccyNQDo7.s:88     .text:0000000000000058 .L0 
     /tmp/ccyNQDo7.s:90     .text:000000000000005c .L0 
     /tmp/ccyNQDo7.s:94     .text:0000000000000060 .L0 
     /tmp/ccyNQDo7.s:98     .text:0000000000000060 .L0 
     /tmp/ccyNQDo7.s:99     .text:0000000000000060 .L0 
         src/ABI.cpp:16     .text:0000000000000060 .L0 
     /tmp/ccyNQDo7.s:106    .text:0000000000000064 .L0 
     /tmp/ccyNQDo7.s:108    .text:0000000000000064 .L0 
     /tmp/ccyNQDo7.s:112    .text:0000000000000070 .L0 
     /tmp/ccyNQDo7.s:113    .text:0000000000000070 .L0 
         src/ABI.cpp:18     .text:0000000000000074 .L0 
     /tmp/ccyNQDo7.s:122    .text:0000000000000078 .L0 
     /tmp/ccyNQDo7.s:128    .text:000000000000007c .L0 
     /tmp/ccyNQDo7.s:131    .text:000000000000007c .L0 
     /tmp/ccyNQDo7.s:132    .text:000000000000007c .L0 
     /tmp/ccyNQDo7.s:133    .text:000000000000007c .L0 
         src/ABI.cpp:28     .text:000000000000007c .L0 
     /tmp/ccyNQDo7.s:140    .text:0000000000000080 .L0 
     /tmp/ccyNQDo7.s:142    .text:0000000000000080 .L0 
     /tmp/ccyNQDo7.s:145    .text:0000000000000088 .L0 
     /tmp/ccyNQDo7.s:149    .text:0000000000000094 .L0 
         src/ABI.cpp:30     .text:0000000000000094 .L0 
     /tmp/ccyNQDo7.s:156    .text:0000000000000098 .L0 
     /tmp/ccyNQDo7.s:162    .text:000000000000009c .L0 
     /tmp/ccyNQDo7.s:165    .text:000000000000009c .L0 
     /tmp/ccyNQDo7.s:166    .text:000000000000009c .L0 
     /tmp/ccyNQDo7.s:167    .text:000000000000009c .L0 
GAS LISTING /tmp/ccyNQDo7.s 			page 12


         src/ABI.cpp:35     .text:000000000000009c .L0 
     /tmp/ccyNQDo7.s:174    .text:00000000000000a0 .L0 
     /tmp/ccyNQDo7.s:176    .text:00000000000000a0 .L0 
     /tmp/ccyNQDo7.s:179    .text:00000000000000a8 .L0 
     /tmp/ccyNQDo7.s:183    .text:00000000000000b4 .L0 
     /tmp/ccyNQDo7.s:189    .text:00000000000000b8 .L0 
     /tmp/ccyNQDo7.s:192    .text:00000000000000b8 .L0 
     /tmp/ccyNQDo7.s:193    .text:00000000000000b8 .L0 
     /tmp/ccyNQDo7.s:194    .text:00000000000000b8 .L0 
         src/ABI.cpp:41     .text:00000000000000b8 .L0 
     /tmp/ccyNQDo7.s:201    .text:00000000000000bc .L0 
     /tmp/ccyNQDo7.s:203    .text:00000000000000bc .L0 
     /tmp/ccyNQDo7.s:206    .text:00000000000000c4 .L0 
     /tmp/ccyNQDo7.s:209    .text:00000000000000c8 .L0 
     /tmp/ccyNQDo7.s:215    .text:00000000000000c8 thread_create
     /tmp/ccyNQDo7.s:218    .text:00000000000000c8 .L0 
     /tmp/ccyNQDo7.s:220    .text:00000000000000c8 .L0 
     /tmp/ccyNQDo7.s:221    .text:00000000000000cc .L0 
     /tmp/ccyNQDo7.s:226    .text:00000000000000dc .L0 
     /tmp/ccyNQDo7.s:227    .text:00000000000000dc .L0 
     /tmp/ccyNQDo7.s:228    .text:00000000000000dc .L0 
     /tmp/ccyNQDo7.s:229    .text:00000000000000dc .L0 
     /tmp/ccyNQDo7.s:231    .text:00000000000000e0 .L0 
     /tmp/ccyNQDo7.s:234    .text:00000000000000e4 .L0 
     /tmp/ccyNQDo7.s:235    .text:00000000000000e4 .L0 
     /tmp/ccyNQDo7.s:243    .text:00000000000000f8 .L0 
     /tmp/ccyNQDo7.s:244    .text:00000000000000f8 .L0 
     /tmp/ccyNQDo7.s:245    .text:00000000000000f8 .L0 
     /tmp/ccyNQDo7.s:248    .text:0000000000000100 .L0 
     /tmp/ccyNQDo7.s:254    .text:0000000000000104 .L0 
     /tmp/ccyNQDo7.s:255    .text:0000000000000104 .L0 
     /tmp/ccyNQDo7.s:256    .text:0000000000000104 .L0 
     /tmp/ccyNQDo7.s:261    .text:0000000000000108 .L0 
     /tmp/ccyNQDo7.s:262    .text:0000000000000108 .L0 
     /tmp/ccyNQDo7.s:264    .text:0000000000000110 .L0 
     /tmp/ccyNQDo7.s:266    .text:0000000000000114 .L0 
     /tmp/ccyNQDo7.s:267    .text:0000000000000114 .L0 
     /tmp/ccyNQDo7.s:269    .text:0000000000000118 .L0 
     /tmp/ccyNQDo7.s:272    .text:000000000000011c .L0 
     /tmp/ccyNQDo7.s:275    .text:0000000000000120 .L0 
     /tmp/ccyNQDo7.s:277    .text:0000000000000124 .L0 
     /tmp/ccyNQDo7.s:283    .text:0000000000000124 thread_start
     /tmp/ccyNQDo7.s:286    .text:0000000000000124 .L0 
     /tmp/ccyNQDo7.s:288    .text:0000000000000124 .L0 
     /tmp/ccyNQDo7.s:289    .text:0000000000000128 .L0 
     /tmp/ccyNQDo7.s:291    .text:000000000000012c .L0 
     /tmp/ccyNQDo7.s:293    .text:0000000000000130 .L0 
     /tmp/ccyNQDo7.s:296    .text:0000000000000130 .L0 
     /tmp/ccyNQDo7.s:297    .text:0000000000000130 .L0 
         src/ABI.cpp:67     .text:0000000000000130 .L0 
     /tmp/ccyNQDo7.s:303    .text:0000000000000134 .L0 
     /tmp/ccyNQDo7.s:305    .text:0000000000000134 .L0 
     /tmp/ccyNQDo7.s:311    .text:000000000000013c .L0 
         src/ABI.cpp:69     .text:000000000000013c .L0 
     /tmp/ccyNQDo7.s:316    .text:0000000000000140 .L0 
     /tmp/ccyNQDo7.s:318    .text:0000000000000140 .L0 
     /tmp/ccyNQDo7.s:321    .text:0000000000000148 .L0 
GAS LISTING /tmp/ccyNQDo7.s 			page 13


     /tmp/ccyNQDo7.s:322    .text:0000000000000148 .L0 
     /tmp/ccyNQDo7.s:324    .text:000000000000014c .L0 
     /tmp/ccyNQDo7.s:326    .text:0000000000000150 .L0 
     /tmp/ccyNQDo7.s:332    .text:0000000000000150 thread_join
     /tmp/ccyNQDo7.s:335    .text:0000000000000150 .L0 
     /tmp/ccyNQDo7.s:337    .text:0000000000000150 .L0 
     /tmp/ccyNQDo7.s:338    .text:0000000000000154 .L0 
     /tmp/ccyNQDo7.s:341    .text:000000000000015c .L0 
     /tmp/ccyNQDo7.s:342    .text:000000000000015c .L0 
     /tmp/ccyNQDo7.s:344    .text:0000000000000160 .L0 
     /tmp/ccyNQDo7.s:346    .text:0000000000000160 .L0 
     /tmp/ccyNQDo7.s:347    .text:0000000000000160 .L0 
     /tmp/ccyNQDo7.s:350    .text:0000000000000168 .L0 
     /tmp/ccyNQDo7.s:351    .text:0000000000000168 .L0 
     /tmp/ccyNQDo7.s:353    .text:0000000000000170 .L0 
     /tmp/ccyNQDo7.s:355    .text:0000000000000174 .L0 
     /tmp/ccyNQDo7.s:356    .text:0000000000000174 .L0 
     /tmp/ccyNQDo7.s:358    .text:0000000000000178 .L0 
     /tmp/ccyNQDo7.s:360    .text:000000000000017c .L0 
     /tmp/ccyNQDo7.s:366    .text:000000000000017c start_main_thread
     /tmp/ccyNQDo7.s:369    .text:000000000000017c .L0 
     /tmp/ccyNQDo7.s:370    .text:000000000000017c .L0 
     /tmp/ccyNQDo7.s:371    .text:0000000000000180 .L0 
     /tmp/ccyNQDo7.s:374    .text:0000000000000188 .L0 
     /tmp/ccyNQDo7.s:375    .text:0000000000000188 .L0 
     /tmp/ccyNQDo7.s:377    .text:000000000000018c .L0 
     /tmp/ccyNQDo7.s:379    .text:000000000000018c .L0 
     /tmp/ccyNQDo7.s:380    .text:000000000000018c .L0 
     /tmp/ccyNQDo7.s:383    .text:0000000000000194 .L0 
     /tmp/ccyNQDo7.s:384    .text:0000000000000194 .L0 
     /tmp/ccyNQDo7.s:386    .text:000000000000019c .L0 
     /tmp/ccyNQDo7.s:388    .text:00000000000001a0 .L0 
     /tmp/ccyNQDo7.s:389    .text:00000000000001a0 .L0 
     /tmp/ccyNQDo7.s:391    .text:00000000000001a4 .L0 
     /tmp/ccyNQDo7.s:393    .text:00000000000001a8 .L0 
     /tmp/ccyNQDo7.s:402    .text:00000000000001a8 .L0 
     /tmp/ccyNQDo7.s:93     .text:0000000000000060 .L7
     /tmp/ccyNQDo7.s:158    .text:000000000000009c .L4
     /tmp/ccyNQDo7.s:185    .text:00000000000000b8 .L5
     /tmp/ccyNQDo7.s:124    .text:000000000000007c .L8
     /tmp/ccyNQDo7.s:78     .text:000000000000004c .L1
     /tmp/ccyNQDo7.s:1134   .debug_abbrev:0000000000000000 .Ldebug_abbrev0
     /tmp/ccyNQDo7.s:2169   .debug_str:000000000000026f .LASF73
     /tmp/ccyNQDo7.s:2095   .debug_str:0000000000000032 .LASF74
     /tmp/ccyNQDo7.s:2141   .debug_str:0000000000000150 .LASF75
     /tmp/ccyNQDo7.s:5      .text:0000000000000000 .Ltext0
     /tmp/ccyNQDo7.s:396    .text:00000000000001a8 .Letext0
     /tmp/ccyNQDo7.s:2087   .debug_line:0000000000000000 .Ldebug_line0
     /tmp/ccyNQDo7.s:2189   .debug_str:00000000000003ab .LASF0
     /tmp/ccyNQDo7.s:2149   .debug_str:00000000000001ad .LASF1
     /tmp/ccyNQDo7.s:2135   .debug_str:000000000000012f .LASF2
     /tmp/ccyNQDo7.s:2225   .debug_str:00000000000004b7 .LASF3
     /tmp/ccyNQDo7.s:2105   .debug_str:000000000000006a .LASF4
     /tmp/ccyNQDo7.s:2145   .debug_str:000000000000018b .LASF5
     /tmp/ccyNQDo7.s:2151   .debug_str:00000000000001c0 .LASF6
     /tmp/ccyNQDo7.s:2199   .debug_str:00000000000003fc .LASF7
     /tmp/ccyNQDo7.s:2089   .debug_str:0000000000000000 .LASF8
GAS LISTING /tmp/ccyNQDo7.s 			page 14


     /tmp/ccyNQDo7.s:2125   .debug_str:00000000000000f0 .LASF9
     /tmp/ccyNQDo7.s:2201   .debug_str:0000000000000403 .LASF10
     /tmp/ccyNQDo7.s:2103   .debug_str:000000000000005c .LASF11
     /tmp/ccyNQDo7.s:2253   .debug_str:00000000000005a9 .LASF12
     /tmp/ccyNQDo7.s:2129   .debug_str:0000000000000112 .LASF13
     /tmp/ccyNQDo7.s:2235   .debug_str:000000000000051a .LASF14
     /tmp/ccyNQDo7.s:2209   .debug_str:000000000000043a .LASF15
     /tmp/ccyNQDo7.s:2155   .debug_str:00000000000001e7 .LASF16
     /tmp/ccyNQDo7.s:2111   .debug_str:0000000000000089 .LASF17
     /tmp/ccyNQDo7.s:2203   .debug_str:0000000000000413 .LASF18
     /tmp/ccyNQDo7.s:2123   .debug_str:00000000000000e7 .LASF23
     /tmp/ccyNQDo7.s:2097   .debug_str:000000000000003e .LASF19
     /tmp/ccyNQDo7.s:2249   .debug_str:0000000000000598 .LASF20
     /tmp/ccyNQDo7.s:2211   .debug_str:000000000000044a .LASF21
     /tmp/ccyNQDo7.s:2245   .debug_str:000000000000057d .LASF22
     /tmp/ccyNQDo7.s:2093   .debug_str:0000000000000022 .LASF24
     /tmp/ccyNQDo7.s:2175   .debug_str:0000000000000358 .LASF47
     /tmp/ccyNQDo7.s:2227   .debug_str:00000000000004bd .LASF49
     /tmp/ccyNQDo7.s:2197   .debug_str:00000000000003eb .LASF25
     /tmp/ccyNQDo7.s:2237   .debug_str:000000000000052a .LASF27
     /tmp/ccyNQDo7.s:2109   .debug_str:000000000000007c .LASF26
     /tmp/ccyNQDo7.s:2213   .debug_str:000000000000044f .LASF28
     /tmp/ccyNQDo7.s:2177   .debug_str:0000000000000364 .LASF29
     /tmp/ccyNQDo7.s:2173   .debug_str:000000000000033f .LASF41
     /tmp/ccyNQDo7.s:2215   .debug_str:0000000000000475 .LASF30
     /tmp/ccyNQDo7.s:2251   .debug_str:000000000000059d .LASF31
     /tmp/ccyNQDo7.s:2205   .debug_str:0000000000000429 .LASF32
     /tmp/ccyNQDo7.s:2195   .debug_str:00000000000003e1 .LASF33
     /tmp/ccyNQDo7.s:2247   .debug_str:0000000000000582 .LASF34
     /tmp/ccyNQDo7.s:2193   .debug_str:00000000000003d9 .LASF35
     /tmp/ccyNQDo7.s:2107   .debug_str:0000000000000071 .LASF36
     /tmp/ccyNQDo7.s:2139   .debug_str:0000000000000142 .LASF37
     /tmp/ccyNQDo7.s:2185   .debug_str:000000000000038d .LASF38
     /tmp/ccyNQDo7.s:2231   .debug_str:0000000000000508 .LASF39
     /tmp/ccyNQDo7.s:2171   .debug_str:0000000000000333 .LASF76
     /tmp/ccyNQDo7.s:2143   .debug_str:000000000000016e .LASF77
     /tmp/ccyNQDo7.s:2091   .debug_str:0000000000000013 .LASF40
     /tmp/ccyNQDo7.s:2229   .debug_str:00000000000004e1 .LASF42
     /tmp/ccyNQDo7.s:2147   .debug_str:000000000000019d .LASF43
     /tmp/ccyNQDo7.s:2191   .debug_str:00000000000003b8 .LASF45
     /tmp/ccyNQDo7.s:2165   .debug_str:0000000000000257 .LASF44
     /tmp/ccyNQDo7.s:2159   .debug_str:000000000000020f .LASF46
     /tmp/ccyNQDo7.s:2161   .debug_str:0000000000000231 .LASF48
     /tmp/ccyNQDo7.s:2157   .debug_str:00000000000001f3 .LASF50
     /tmp/ccyNQDo7.s:2183   .debug_str:0000000000000387 .LASF53
     /tmp/ccyNQDo7.s:2153   .debug_str:00000000000001c7 .LASF78
     /tmp/ccyNQDo7.s:2239   .debug_str:0000000000000553 .LASF51
     /tmp/ccyNQDo7.s:2243   .debug_str:0000000000000565 .LASF52
     /tmp/ccyNQDo7.s:2163   .debug_str:000000000000023c .LASF79
     /tmp/ccyNQDo7.s:2101   .debug_str:000000000000004f .LASF54
     /tmp/ccyNQDo7.s:2113   .debug_str:000000000000009f .LASF55
     /tmp/ccyNQDo7.s:2133   .debug_str:0000000000000128 .LASF80
     /tmp/ccyNQDo7.s:2207   .debug_str:0000000000000432 .LASF67
     /tmp/ccyNQDo7.s:2179   .debug_str:0000000000000369 .LASF81
     /tmp/ccyNQDo7.s:2187   .debug_str:0000000000000399 .LASF56
     /tmp/ccyNQDo7.s:2115   .debug_str:00000000000000c4 .LASF58
     /tmp/ccyNQDo7.s:2219   .debug_str:0000000000000489 .LASF57
GAS LISTING /tmp/ccyNQDo7.s 			page 15


     /tmp/ccyNQDo7.s:2217   .debug_str:0000000000000483 .LASF59
     /tmp/ccyNQDo7.s:2117   .debug_str:00000000000000c9 .LASF60
     /tmp/ccyNQDo7.s:367    .text:000000000000017c .LFB7
     /tmp/ccyNQDo7.s:394    .text:00000000000001a8 .LFE7
     /tmp/ccyNQDo7.s:381    .text:0000000000000194 .LVL36
     /tmp/ccyNQDo7.s:2099   .debug_str:0000000000000043 .LASF61
     /tmp/ccyNQDo7.s:333    .text:0000000000000150 .LFB6
     /tmp/ccyNQDo7.s:361    .text:000000000000017c .LFE6
     /tmp/ccyNQDo7.s:1885   .debug_loc:0000000000000000 .LLST14
     /tmp/ccyNQDo7.s:348    .text:0000000000000168 .LVL35
     /tmp/ccyNQDo7.s:2221   .debug_str:000000000000049c .LASF62
     /tmp/ccyNQDo7.s:284    .text:0000000000000124 .LFB5
     /tmp/ccyNQDo7.s:327    .text:0000000000000150 .LFE5
     /tmp/ccyNQDo7.s:2131   .debug_str:0000000000000121 .LASF63
     /tmp/ccyNQDo7.s:1899   .debug_loc:0000000000000039 .LLST13
     /tmp/ccyNQDo7.s:2181   .debug_str:0000000000000382 .LASF64
     /tmp/ccyNQDo7.s:2223   .debug_str:00000000000004a9 .LASF65
     /tmp/ccyNQDo7.s:216    .text:00000000000000c8 .LFB4
     /tmp/ccyNQDo7.s:278    .text:0000000000000124 .LFE4
     /tmp/ccyNQDo7.s:2233   .debug_str:0000000000000515 .LASF66
     /tmp/ccyNQDo7.s:1913   .debug_loc:0000000000000072 .LLST8
     /tmp/ccyNQDo7.s:1929   .debug_loc:00000000000000bc .LLST9
     /tmp/ccyNQDo7.s:251    .text:0000000000000104 .LBB14
     /tmp/ccyNQDo7.s:259    .text:0000000000000108 .LBE14
     /tmp/ccyNQDo7.s:1940   .debug_loc:00000000000000f2 .LLST11
     /tmp/ccyNQDo7.s:1947   .debug_loc:0000000000000115 .LLST12
     /tmp/ccyNQDo7.s:239    .text:00000000000000f4 .LVL25
     /tmp/ccyNQDo7.s:249    .text:0000000000000104 .LVL27
     /tmp/ccyNQDo7.s:2127   .debug_str:0000000000000103 .LASF68
     /tmp/ccyNQDo7.s:10     .text:0000000000000000 .LFB2
     /tmp/ccyNQDo7.s:210    .text:00000000000000c8 .LFE2
     /tmp/ccyNQDo7.s:1954   .debug_loc:0000000000000138 .LLST0
     /tmp/ccyNQDo7.s:2119   .debug_str:00000000000000db .LASF69
     /tmp/ccyNQDo7.s:1981   .debug_loc:00000000000001ba .LLST1
     /tmp/ccyNQDo7.s:2121   .debug_str:00000000000000e2 .LASF70
     /tmp/ccyNQDo7.s:2005   .debug_loc:000000000000021b .LLST2
     /tmp/ccyNQDo7.s:96     .text:0000000000000060 .LBB5
     /tmp/ccyNQDo7.s:125    .text:000000000000007c .LBE5
     /tmp/ccyNQDo7.s:2018   .debug_loc:0000000000000253 .LLST3
     /tmp/ccyNQDo7.s:110    .text:0000000000000070 .LVL10
     /tmp/ccyNQDo7.s:130    .text:000000000000007c .LBB7
     /tmp/ccyNQDo7.s:159    .text:000000000000009c .LBE7
     /tmp/ccyNQDo7.s:2031   .debug_loc:000000000000028b .LLST4
     /tmp/ccyNQDo7.s:2043   .debug_loc:00000000000002c2 .LLST5
     /tmp/ccyNQDo7.s:143    .text:0000000000000088 .LVL14
     /tmp/ccyNQDo7.s:147    .text:0000000000000094 .LVL15
     /tmp/ccyNQDo7.s:164    .text:000000000000009c .LBB8
     /tmp/ccyNQDo7.s:186    .text:00000000000000b8 .LBE8
     /tmp/ccyNQDo7.s:2050   .debug_loc:00000000000002e5 .LLST6
     /tmp/ccyNQDo7.s:177    .text:00000000000000a8 .LVL18
     /tmp/ccyNQDo7.s:181    .text:00000000000000b4 .LVL19
     /tmp/ccyNQDo7.s:191    .text:00000000000000b8 .LBB9
     /tmp/ccyNQDo7.s:207    .text:00000000000000c8 .LBE9
     /tmp/ccyNQDo7.s:2062   .debug_loc:000000000000031c .LLST7
     /tmp/ccyNQDo7.s:204    .text:00000000000000c4 .LVL22
     /tmp/ccyNQDo7.s:2137   .debug_str:000000000000013d .LASF82
     /tmp/ccyNQDo7.s:2241   .debug_str:000000000000055b .LASF71
GAS LISTING /tmp/ccyNQDo7.s 			page 16


     /tmp/ccyNQDo7.s:2167   .debug_str:0000000000000268 .LASF72
     /tmp/ccyNQDo7.s:336    .text:0000000000000150 .LVL34
     /tmp/ccyNQDo7.s:287    .text:0000000000000124 .LVL31
     /tmp/ccyNQDo7.s:319    .text:0000000000000144 .LVL33
     /tmp/ccyNQDo7.s:219    .text:00000000000000c8 .LVL23
     /tmp/ccyNQDo7.s:236    .text:00000000000000e8 .LVL24
     /tmp/ccyNQDo7.s:273    .text:000000000000011c .LVL30
     /tmp/ccyNQDo7.s:241    .text:00000000000000f8 .LVL26
     /tmp/ccyNQDo7.s:270    .text:0000000000000118 .LVL29
     /tmp/ccyNQDo7.s:257    .text:0000000000000108 .LVL28
     /tmp/ccyNQDo7.s:14     .text:0000000000000000 .LVL0
     /tmp/ccyNQDo7.s:31     .text:0000000000000018 .LVL1
     /tmp/ccyNQDo7.s:77     .text:000000000000004c .LVL7
     /tmp/ccyNQDo7.s:92     .text:0000000000000060 .LVL8
     /tmp/ccyNQDo7.s:123    .text:000000000000007c .LVL12
     /tmp/ccyNQDo7.s:157    .text:000000000000009c .LVL16
     /tmp/ccyNQDo7.s:184    .text:00000000000000b8 .LVL20
     /tmp/ccyNQDo7.s:38     .text:000000000000001c .LVL2
     /tmp/ccyNQDo7.s:44     .text:0000000000000020 .LVL3
     /tmp/ccyNQDo7.s:56     .text:000000000000002c .LVL4
     /tmp/ccyNQDo7.s:61     .text:0000000000000030 .LVL5
     /tmp/ccyNQDo7.s:71     .text:0000000000000038 .LVL6
     /tmp/ccyNQDo7.s:104    .text:0000000000000064 .LVL9
     /tmp/ccyNQDo7.s:114    .text:0000000000000074 .LVL11
     /tmp/ccyNQDo7.s:138    .text:0000000000000080 .LVL13
     /tmp/ccyNQDo7.s:172    .text:00000000000000a0 .LVL17
     /tmp/ccyNQDo7.s:199    .text:00000000000000bc .LVL21
     /tmp/ccyNQDo7.s:403    .debug_info:0000000000000000 .Ldebug_info0

UNDEFINED SYMBOLS
__putc
_ZN15MemoryAllocator11GetInstanceEv
_ZN15MemoryAllocator16AllocateFragmentEm
_ZN15MemoryAllocator12FreeFragmentEPv
_ZN6Thread5startEv
mem_alloc
_ZN6Thread4joinEv
_ZN9Scheduler16SetupStartThreadEv
