GAS LISTING /tmp/ccdibjuc.s 			page 1


   1              		.file	"ABI.cpp"
   2              		.option pic
   3              		.option norelax
   4              		.text
   5              	.Ltext0:
   6              		.align	2
   7              		.globl	HandleInterupt
   9              	HandleInterupt:
  10              	.LFB2:
  11              		.file 1 "src/ABI.cpp"
   1:src/ABI.cpp   **** //
   2:src/ABI.cpp   **** // Created by os on 5/6/26.
   3:src/ABI.cpp   **** //
   4:src/ABI.cpp   **** #include "./MemoryAllocator.hpp"
   5:src/ABI.cpp   **** #include "Thread.hpp"
   6:src/ABI.cpp   **** #include "APIC.h"
   7:src/ABI.cpp   **** #include "Scheduler.hpp"
   8:src/ABI.cpp   **** #include "../lib/console.h"
   9:src/ABI.cpp   **** 
  10:src/ABI.cpp   **** extern "C" void HandleInterupt(size_t* frame){
  12              		.loc 1 10 46
  13              		.cfi_startproc
  14              	.LVL0:
  15 0000 130101FE 		addi	sp,sp,-32
  16              		.cfi_def_cfa_offset 32
  17 0004 233C1100 		sd	ra,24(sp)
  18 0008 23388100 		sd	s0,16(sp)
  19 000c 23349100 		sd	s1,8(sp)
  20 0010 23302101 		sd	s2,0(sp)
  21              		.cfi_offset 1, -8
  22              		.cfi_offset 8, -16
  23              		.cfi_offset 9, -24
  24              		.cfi_offset 18, -32
  25 0014 13040102 		addi	s0,sp,32
  26              		.cfi_def_cfa 8, 0
  27 0018 93040500 		mv	s1,a0
  11:src/ABI.cpp   ****     size_t code = frame[10];
  28              		.loc 1 11 5
  29              		.loc 1 11 12 is_stmt 0
  30 001c 03390505 		ld	s2,80(a0)
  31              	.LVL1:
  12:src/ABI.cpp   ****     Thread* current = Scheduler::GetRunning();
  32              		.loc 1 12 5 is_stmt 1
  33              		.loc 1 12 44 is_stmt 0
  34 0020 97000000 		call	_ZN9Scheduler10GetRunningEv@plt
  34      E7800000 
  35              	.LVL2:
  13:src/ABI.cpp   ****     if (current != nullptr) {
  36              		.loc 1 13 5 is_stmt 1
  37              	.LBB4:
  38 0028 63060506 		beqz	a0,.L2
  39              	.LBB5:
  40              	.LBB6:
  14:src/ABI.cpp   ****         auto& ctx = current->threadContext;
  15:src/ABI.cpp   ****         for (int i = 0; i < 32; i++) ctx.x[i] = frame[i];
  41              		.loc 1 15 18 is_stmt 0
  42 002c 13070000 		li	a4,0
GAS LISTING /tmp/ccdibjuc.s 			page 2


  43              	.L4:
  44              	.LVL3:
  45              		.loc 1 15 27 is_stmt 1 discriminator 3
  46 0030 9307F001 		li	a5,31
  47 0034 63C4E702 		bgt	a4,a5,.L3
  48              		.loc 1 15 38 discriminator 2
  49              		.loc 1 15 56 is_stmt 0 discriminator 2
  50 0038 93163700 		slli	a3,a4,3
  51 003c B387D400 		add	a5,s1,a3
  52 0040 03B60700 		ld	a2,0(a5)
  53              		.loc 1 15 47 discriminator 2
  54 0044 B7870000 		li	a5,32768
  55 0048 B307F500 		add	a5,a0,a5
  56 004c B387D700 		add	a5,a5,a3
  57 0050 23B4C702 		sd	a2,40(a5)
  58              		.loc 1 15 9 is_stmt 1 discriminator 2
  59 0054 1B071700 		addiw	a4,a4,1
  60              	.LVL4:
  61 0058 6FF09FFD 		j	.L4
  62              	.LVL5:
  63              	.L3:
  64              	.LBE6:
  16:src/ABI.cpp   ****         ctx.x[2] = (size_t)frame + 256;
  65              		.loc 1 16 9
  66              		.loc 1 16 34 is_stmt 0
  67 005c 13870410 		addi	a4,s1,256
  68              	.LVL6:
  69              		.loc 1 16 18
  70 0060 B7870000 		li	a5,32768
  71 0064 B307F500 		add	a5,a0,a5
  72 0068 23BCE702 		sd	a4,56(a5)
  17:src/ABI.cpp   **** 
  18:src/ABI.cpp   ****         size_t scause, sepc, sstatus;
  73              		.loc 1 18 9 is_stmt 1
  19:src/ABI.cpp   ****         __asm__ volatile("csrr %0, scause"  : "=r"(scause));
  74              		.loc 1 19 9
  75              		.loc 1 19 60 is_stmt 0
  76              	#APP
  77              	# 19 "src/ABI.cpp" 1
  20              	        __asm__ volatile("csrr %0, sepc"    : "=r"(sepc));
  78              		csrr a5, scause
  79              	# 0 "" 2
  80              	.LVL7:
  81              		.loc 1 20 9 is_stmt 1
  82              		.loc 1 20 58 is_stmt 0
  83              	# 20 "src/ABI.cpp" 1
  21              	        __asm__ volatile("csrr %0, sstatus" : "=r"(sstatus));
  84              		csrr a4, sepc
  85              	# 0 "" 2
  86              	.LVL8:
  87              		.loc 1 21 9 is_stmt 1
  88              		.loc 1 21 61 is_stmt 0
  89              	# 21 "src/ABI.cpp" 1
  22              	        // advance past ecall instruction
  90              		csrr a3, sstatus
  91              	# 0 "" 2
  92              	.LVL9:
GAS LISTING /tmp/ccdibjuc.s 			page 3


  23:src/ABI.cpp   ****         if ((scause & 0xF) == 8 || (scause & 0xF) == 9) sepc += 4;
  93              		.loc 1 23 9 is_stmt 1
  94              		.loc 1 23 33 is_stmt 0
  95              	#NO_APP
  96 0078 93F7E700 		andi	a5,a5,14
  97              	.LVL10:
  98              		.loc 1 23 9
  99 007c 13068000 		li	a2,8
 100 0080 6380C706 		beq	a5,a2,.L11
 101              	.L5:
  24:src/ABI.cpp   ****         ctx.sepc    = sepc;
 102              		.loc 1 24 9 is_stmt 1
 103              		.loc 1 24 21 is_stmt 0
 104 0084 B7870000 		li	a5,32768
 105 0088 3305F500 		add	a0,a0,a5
 106              	.LVL11:
 107 008c 2334E512 		sd	a4,296(a0)
  25:src/ABI.cpp   ****         ctx.sstatus = sstatus;
 108              		.loc 1 25 9 is_stmt 1
 109              		.loc 1 25 21 is_stmt 0
 110 0090 2338D512 		sd	a3,304(a0)
 111              	.LVL12:
 112              	.L2:
 113              	.LBE5:
 114              	.LBE4:
  26:src/ABI.cpp   ****     }
  27:src/ABI.cpp   **** 
  28:src/ABI.cpp   ****     uint64 scause=0;
 115              		.loc 1 28 5 is_stmt 1
  29:src/ABI.cpp   ****     __asm__ volatile("csrr %[scause],scause":[scause]"=r"(scause));
 116              		.loc 1 29 5
 117              		.loc 1 29 67 is_stmt 0
 118              	#APP
 119              	# 29 "src/ABI.cpp" 1
  30              	    if (scause !=8&&scause !=9) {
 120              		csrr a5,scause
 121              	# 0 "" 2
 122              	.LVL13:
 123              		.loc 1 30 5 is_stmt 1
 124              	#NO_APP
 125              	.LBB8:
 126              		.loc 1 30 19 is_stmt 0
 127 0098 938787FF 		addi	a5,a5,-8
 128              	.LVL14:
 129              		.loc 1 30 5
 130 009c 13071000 		li	a4,1
 131 00a0 6364F704 		bgtu	a5,a4,.L12
 132              	.LBE8:
  31:src/ABI.cpp   ****         uint64 sepc;
  32:src/ABI.cpp   ****         __asm__ volatile("csrr %0, sepc" : "=r"(sepc));
  33:src/ABI.cpp   ****         __putc('!');
  34:src/ABI.cpp   ****         __asm__ volatile("csrw sepc, %0" :: "r"(sepc + 4));
  35:src/ABI.cpp   ****         return;
  36:src/ABI.cpp   **** 
  37:src/ABI.cpp   ****     }
  38:src/ABI.cpp   ****     uint64 sepc;
 133              		.loc 1 38 5 is_stmt 1
GAS LISTING /tmp/ccdibjuc.s 			page 4


  39:src/ABI.cpp   ****     __asm__ volatile("csrr %0, sepc" : "=r"(sepc));
 134              		.loc 1 39 5
 135              		.loc 1 39 51 is_stmt 0
 136              	#APP
 137              	# 39 "src/ABI.cpp" 1
  40              	    __asm__ volatile("csrw sepc, %0" :: "r"(sepc + 4));
 138              		csrr a5, sepc
 139              	# 0 "" 2
 140              	.LVL15:
 141              		.loc 1 40 5 is_stmt 1
 142              		.loc 1 40 50 is_stmt 0
 143              	#NO_APP
 144 00a8 93874700 		addi	a5,a5,4
 145              	.LVL16:
 146              		.loc 1 40 55
 147              	#APP
 148              	# 40 "src/ABI.cpp" 1
  41              	    switch (code) {
 149              		csrw sepc, a5
 150              	# 0 "" 2
 151              		.loc 1 41 5 is_stmt 1
 152              	#NO_APP
 153              	.LBB10:
 154 00b0 93072000 		li	a5,2
 155              	.LVL17:
 156 00b4 6308F906 		beq	s2,a5,.L8
 157 00b8 93073000 		li	a5,3
 158 00bc 6302F908 		beq	s2,a5,.L9
 159 00c0 93071000 		li	a5,1
 160 00c4 6300F904 		beq	s2,a5,.L13
 161              	.LVL18:
 162              	.L1:
 163              	.LBE10:
  42:src/ABI.cpp   ****         case 0x01: {
  43:src/ABI.cpp   ****             size_t size = frame[11];
  44:src/ABI.cpp   ****             void* ptr = MemoryAllocator::GetInstance().AllocateFragment(size);
  45:src/ABI.cpp   ****             __asm__ volatile("mv a0,%[res]"::[res]"r"(ptr));
  46:src/ABI.cpp   ****             break;
  47:src/ABI.cpp   ****         }
  48:src/ABI.cpp   ****         case 0x02: {
  49:src/ABI.cpp   ****             void* ptr = (void*)frame[11];
  50:src/ABI.cpp   ****             MemoryAllocator::GetInstance().FreeFragment(ptr);
  51:src/ABI.cpp   ****             break;
  52:src/ABI.cpp   ****         }
  53:src/ABI.cpp   ****         case 0x03: {//TODO:Check code
  54:src/ABI.cpp   ****             Thread* t = (Thread*)frame[11];
  55:src/ABI.cpp   ****             ((Thread*)t)->start();
  56:src/ABI.cpp   ****             break;
  57:src/ABI.cpp   ****         }
  58:src/ABI.cpp   **** 
  59:src/ABI.cpp   ****         default: {
  60:src/ABI.cpp   ****             break;
  61:src/ABI.cpp   ****         }
  62:src/ABI.cpp   ****     }
  63:src/ABI.cpp   ****     return;
  64:src/ABI.cpp   **** }
 164              		.loc 1 64 1 is_stmt 0
GAS LISTING /tmp/ccdibjuc.s 			page 5


 165 00c8 83308101 		ld	ra,24(sp)
 166              		.cfi_remember_state
 167              		.cfi_restore 1
 168 00cc 03340101 		ld	s0,16(sp)
 169              		.cfi_restore 8
 170              		.cfi_def_cfa 2, 32
 171 00d0 83348100 		ld	s1,8(sp)
 172              		.cfi_restore 9
 173 00d4 03390100 		ld	s2,0(sp)
 174              		.cfi_restore 18
 175              	.LVL19:
 176 00d8 13010102 		addi	sp,sp,32
 177              		.cfi_def_cfa_offset 0
 178 00dc 67800000 		jr	ra
 179              	.LVL20:
 180              	.L11:
 181              		.cfi_restore_state
 182              	.LBB14:
 183              	.LBB7:
  23:src/ABI.cpp   ****         ctx.sepc    = sepc;
 184              		.loc 1 23 57 is_stmt 1 discriminator 1
  23:src/ABI.cpp   ****         ctx.sepc    = sepc;
 185              		.loc 1 23 62 is_stmt 0 discriminator 1
 186 00e0 13074700 		addi	a4,a4,4
 187              	.LVL21:
 188 00e4 6FF01FFA 		j	.L5
 189              	.LVL22:
 190              	.L12:
 191              	.LBE7:
 192              	.LBE14:
 193              	.LBB15:
 194              	.LBB9:
  31:src/ABI.cpp   ****         __asm__ volatile("csrr %0, sepc" : "=r"(sepc));
 195              		.loc 1 31 9 is_stmt 1
  32:src/ABI.cpp   ****         __putc('!');
 196              		.loc 1 32 9
  32:src/ABI.cpp   ****         __putc('!');
 197              		.loc 1 32 55 is_stmt 0
 198              	#APP
 199              	# 32 "src/ABI.cpp" 1
 200              		csrr s1, sepc
 201              	# 0 "" 2
 202              	.LVL23:
  33:src/ABI.cpp   ****         __asm__ volatile("csrw sepc, %0" :: "r"(sepc + 4));
 203              		.loc 1 33 9 is_stmt 1
  33:src/ABI.cpp   ****         __asm__ volatile("csrw sepc, %0" :: "r"(sepc + 4));
 204              		.loc 1 33 15 is_stmt 0
 205              	#NO_APP
 206 00ec 13051002 		li	a0,33
 207 00f0 97000000 		call	__putc@plt
 207      E7800000 
 208              	.LVL24:
  34:src/ABI.cpp   ****         return;
 209              		.loc 1 34 9 is_stmt 1
  34:src/ABI.cpp   ****         return;
 210              		.loc 1 34 54 is_stmt 0
 211 00f8 93844400 		addi	s1,s1,4
GAS LISTING /tmp/ccdibjuc.s 			page 6


 212              	.LVL25:
  34:src/ABI.cpp   ****         return;
 213              		.loc 1 34 59
 214              	#APP
 215              	# 34 "src/ABI.cpp" 1
  35:src/ABI.cpp   **** 
 216              		csrw sepc, s1
 217              	# 0 "" 2
 218              		.loc 1 35 9 is_stmt 1
 219              	#NO_APP
 220 0100 6FF09FFC 		j	.L1
 221              	.LVL26:
 222              	.L13:
 223              	.LBE9:
 224              	.LBE15:
  42:src/ABI.cpp   ****             size_t size = frame[11];
 225              		.loc 1 42 9
  42:src/ABI.cpp   ****             size_t size = frame[11];
 226              		.loc 1 42 20
 227              	.LBB16:
 228              	.LBB11:
  43:src/ABI.cpp   ****             void* ptr = MemoryAllocator::GetInstance().AllocateFragment(size);
 229              		.loc 1 43 13
  43:src/ABI.cpp   ****             void* ptr = MemoryAllocator::GetInstance().AllocateFragment(size);
 230              		.loc 1 43 20 is_stmt 0
 231 0104 83B48405 		ld	s1,88(s1)
 232              	.LVL27:
  44:src/ABI.cpp   ****             __asm__ volatile("mv a0,%[res]"::[res]"r"(ptr));
 233              		.loc 1 44 13 is_stmt 1
  44:src/ABI.cpp   ****             __asm__ volatile("mv a0,%[res]"::[res]"r"(ptr));
 234              		.loc 1 44 54 is_stmt 0
 235 0108 97000000 		call	_ZN15MemoryAllocator11GetInstanceEv@plt
 235      E7800000 
 236              	.LVL28:
  44:src/ABI.cpp   ****             __asm__ volatile("mv a0,%[res]"::[res]"r"(ptr));
 237              		.loc 1 44 72
 238 0110 93850400 		mv	a1,s1
 239 0114 97000000 		call	_ZN15MemoryAllocator16AllocateFragmentEm@plt
 239      E7800000 
 240              	.LVL29:
  45:src/ABI.cpp   ****             break;
 241              		.loc 1 45 13 is_stmt 1
  45:src/ABI.cpp   ****             break;
 242              		.loc 1 45 60 is_stmt 0
 243              	#APP
 244              	# 45 "src/ABI.cpp" 1
  46:src/ABI.cpp   ****         }
 245              		mv a0,a0
 246              	# 0 "" 2
 247              		.loc 1 46 13 is_stmt 1
 248              	#NO_APP
 249 0120 6FF09FFA 		j	.L1
 250              	.LVL30:
 251              	.L8:
 252              	.LBE11:
 253              	.LBE16:
  48:src/ABI.cpp   ****             void* ptr = (void*)frame[11];
GAS LISTING /tmp/ccdibjuc.s 			page 7


 254              		.loc 1 48 9
  48:src/ABI.cpp   ****             void* ptr = (void*)frame[11];
 255              		.loc 1 48 20
 256              	.LBB17:
 257              	.LBB12:
  49:src/ABI.cpp   ****             MemoryAllocator::GetInstance().FreeFragment(ptr);
 258              		.loc 1 49 13
  49:src/ABI.cpp   ****             MemoryAllocator::GetInstance().FreeFragment(ptr);
 259              		.loc 1 49 40 is_stmt 0
 260 0124 83B48405 		ld	s1,88(s1)
 261              	.LVL31:
  50:src/ABI.cpp   ****             break;
 262              		.loc 1 50 13 is_stmt 1
  50:src/ABI.cpp   ****             break;
 263              		.loc 1 50 42 is_stmt 0
 264 0128 97000000 		call	_ZN15MemoryAllocator11GetInstanceEv@plt
 264      E7800000 
 265              	.LVL32:
  50:src/ABI.cpp   ****             break;
 266              		.loc 1 50 56
 267 0130 93850400 		mv	a1,s1
 268 0134 97000000 		call	_ZN15MemoryAllocator12FreeFragmentEPv@plt
 268      E7800000 
 269              	.LVL33:
  51:src/ABI.cpp   ****         }
 270              		.loc 1 51 13 is_stmt 1
 271 013c 6FF0DFF8 		j	.L1
 272              	.LVL34:
 273              	.L9:
 274              	.LBE12:
 275              	.LBE17:
  53:src/ABI.cpp   ****             Thread* t = (Thread*)frame[11];
 276              		.loc 1 53 9
  53:src/ABI.cpp   ****             Thread* t = (Thread*)frame[11];
 277              		.loc 1 53 20
 278              	.LBB18:
 279              	.LBB13:
  54:src/ABI.cpp   ****             ((Thread*)t)->start();
 280              		.loc 1 54 13
  55:src/ABI.cpp   ****             break;
 281              		.loc 1 55 13
  55:src/ABI.cpp   ****             break;
 282              		.loc 1 55 32 is_stmt 0
 283 0140 03B58405 		ld	a0,88(s1)
 284 0144 97000000 		call	_ZN6Thread5startEv@plt
 284      E7800000 
 285              	.LVL35:
  56:src/ABI.cpp   ****         }
 286              		.loc 1 56 13 is_stmt 1
 287 014c 6FF0DFF7 		j	.L1
 288              	.LBE13:
 289              	.LBE18:
 290              		.cfi_endproc
 291              	.LFE2:
 293              		.align	2
 294              		.globl	thread_create
 296              	thread_create:
GAS LISTING /tmp/ccdibjuc.s 			page 8


 297              	.LFB4:
  65:src/ABI.cpp   **** 
  66:src/ABI.cpp   **** inline void* operator new(size_t, void* p) { return p; }
  67:src/ABI.cpp   **** 
  68:src/ABI.cpp   **** 
  69:src/ABI.cpp   **** extern "C" {
  70:src/ABI.cpp   **** thread_t thread_create(void (*body)(void)) {
 298              		.loc 1 70 44
 299              		.cfi_startproc
 300              	.LVL36:
 301 0150 130101FE 		addi	sp,sp,-32
 302              		.cfi_def_cfa_offset 32
 303 0154 233C1100 		sd	ra,24(sp)
 304 0158 23388100 		sd	s0,16(sp)
 305 015c 23349100 		sd	s1,8(sp)
 306 0160 23302101 		sd	s2,0(sp)
 307              		.cfi_offset 1, -8
 308              		.cfi_offset 8, -16
 309              		.cfi_offset 9, -24
 310              		.cfi_offset 18, -32
 311 0164 13040102 		addi	s0,sp,32
 312              		.cfi_def_cfa 8, 0
 313 0168 13090500 		mv	s2,a0
  71:src/ABI.cpp   ****     void* mem = mem_alloc(sizeof(Thread));
 314              		.loc 1 71 5
 315              		.loc 1 71 26 is_stmt 0
 316 016c 37850000 		li	a0,32768
 317              	.LVL37:
 318 0170 13050514 		addi	a0,a0,320
 319 0174 97000000 		call	mem_alloc@plt
 319      E7800000 
 320              	.LVL38:
 321 017c 93040500 		mv	s1,a0
 322              	.LVL39:
  72:src/ABI.cpp   ****     Thread* t = reinterpret_cast<Thread*>(mem);
 323              		.loc 1 72 5 is_stmt 1
  73:src/ABI.cpp   ****     t->init();
 324              		.loc 1 73 5
 325              		.loc 1 73 12 is_stmt 0
 326 0180 97000000 		call	_ZN6Thread4initEv@plt
 326      E7800000 
 327              	.LVL40:
  74:src/ABI.cpp   ****     t->setBody(body);
 328              		.loc 1 74 5 is_stmt 1
 329              	.LBB19:
 330              	.LBB20:
 331              		.file 2 "src/Thread.hpp"
   1:src/Thread.hpp **** //
   2:src/Thread.hpp **** // Created by os on 6/10/26.
   3:src/Thread.hpp **** //
   4:src/Thread.hpp **** 
   5:src/Thread.hpp **** #ifndef OSPROJEKAT_THREAD_H
   6:src/Thread.hpp **** #define OSPROJEKAT_THREAD_H
   7:src/Thread.hpp **** 
   8:src/Thread.hpp **** #include "../lib/hw.h"
   9:src/Thread.hpp **** struct Context {
  10:src/Thread.hpp ****     size_t x[32];    // x0-x31, offsets 0x00-0xF
GAS LISTING /tmp/ccdibjuc.s 			page 9


  11:src/Thread.hpp ****     size_t sepc;     // offset 0x100
  12:src/Thread.hpp ****     size_t sstatus;  // offset 0x108
  13:src/Thread.hpp ****     size_t pc;
  14:src/Thread.hpp **** };
  15:src/Thread.hpp **** 
  16:src/Thread.hpp **** class Thread{
  17:src/Thread.hpp **** protected:
  18:src/Thread.hpp ****     static void threadTrampoline(Thread* t);
  19:src/Thread.hpp ****     void (*body)(void);
  20:src/Thread.hpp **** 
  21:src/Thread.hpp ****     Thread* prev;
  22:src/Thread.hpp ****     Thread* next;
  23:src/Thread.hpp ****     size_t* stackPtr;
  24:src/Thread.hpp ****     size_t stack[DEFAULT_STACK_SIZE];
  25:src/Thread.hpp ****     size_t* supervisorSp;
  26:src/Thread.hpp **** public:
  27:src/Thread.hpp ****     Context threadContext;
  28:src/Thread.hpp ****     Thread();
  29:src/Thread.hpp ****     void copyContext(size_t* ctx);
  30:src/Thread.hpp ****     void init();
  31:src/Thread.hpp ****     void setStackPtr(size_t* stackPtr);
  32:src/Thread.hpp ****     size_t* getStackTop() { return stack + DEFAULT_STACK_SIZE; }
  33:src/Thread.hpp ****     void setSupervisorSp(size_t* supervisorSp);
  34:src/Thread.hpp ****     size_t* getContext();
  35:src/Thread.hpp ****     Thread* getNextInQueue();
  36:src/Thread.hpp ****     Thread* getPrevInQueue();
  37:src/Thread.hpp ****     void setNextInQueue(Thread* next);
  38:src/Thread.hpp ****     void setPrevInQueue(Thread* prev);
  39:src/Thread.hpp ****     void setNextAndPrevInQueue(Thread* next, Thread* prev);
  40:src/Thread.hpp ****     void start();
  41:src/Thread.hpp ****     void setBody(void (*b)(void)) { body = b; }
 332              		.loc 2 41 37
 333              		.loc 2 41 42 is_stmt 0
 334 0188 23B02401 		sd	s2,0(s1)
 335              	.LVL41:
 336              	.LBE20:
 337              	.LBE19:
  75:src/ABI.cpp   ****     return reinterpret_cast<thread_t>(t);
 338              		.loc 1 75 5 is_stmt 1
  76:src/ABI.cpp   **** }
 339              		.loc 1 76 1 is_stmt 0
 340 018c 13850400 		mv	a0,s1
 341 0190 83308101 		ld	ra,24(sp)
 342              		.cfi_restore 1
 343 0194 03340101 		ld	s0,16(sp)
 344              		.cfi_restore 8
 345              		.cfi_def_cfa 2, 32
 346 0198 83348100 		ld	s1,8(sp)
 347              		.cfi_restore 9
 348              	.LVL42:
 349 019c 03390100 		ld	s2,0(sp)
 350              		.cfi_restore 18
 351              	.LVL43:
 352 01a0 13010102 		addi	sp,sp,32
 353              		.cfi_def_cfa_offset 0
 354 01a4 67800000 		jr	ra
 355              		.cfi_endproc
GAS LISTING /tmp/ccdibjuc.s 			page 10


 356              	.LFE4:
 358              		.align	2
 359              		.globl	thread_start
 361              	thread_start:
 362              	.LFB5:
  77:src/ABI.cpp   **** 
  78:src/ABI.cpp   **** int thread_start(thread_t handle) {//TODO:Change name
 363              		.loc 1 78 35 is_stmt 1
 364              		.cfi_startproc
 365              	.LVL44:
 366 01a8 130101FF 		addi	sp,sp,-16
 367              		.cfi_def_cfa_offset 16
 368 01ac 23348100 		sd	s0,8(sp)
 369              		.cfi_offset 8, -8
 370 01b0 13040101 		addi	s0,sp,16
 371              		.cfi_def_cfa 8, 0
  79:src/ABI.cpp   ****     size_t code = 0x03;
 372              		.loc 1 79 5
 373              	.LVL45:
  80:src/ABI.cpp   ****     __asm__ volatile("mv a1, %0" :: "r"(handle));
 374              		.loc 1 80 5
 375              		.loc 1 80 49 is_stmt 0
 376              	#APP
 377              	# 80 "src/ABI.cpp" 1
  81              	    __asm__ volatile("mv a0, %0" :: "r"(code));
 378              		mv a1, a0
 379              	# 0 "" 2
 380              		.loc 1 81 5 is_stmt 1
 381              		.loc 1 81 47 is_stmt 0
 382              	#NO_APP
 383 01b8 93073000 		li	a5,3
 384              	#APP
 385              	# 81 "src/ABI.cpp" 1
  82              	    __asm__ volatile("ecall");
 386              		mv a0, a5
 387              	# 0 "" 2
 388              		.loc 1 82 5 is_stmt 1
 389              		.loc 1 82 30 is_stmt 0
 390              	# 82 "src/ABI.cpp" 1
  83              	    return 0;
 391              		ecall
 392              	# 0 "" 2
 393              		.loc 1 83 5 is_stmt 1
  84:src/ABI.cpp   **** }
 394              		.loc 1 84 1 is_stmt 0
 395              	#NO_APP
 396 01c4 13050000 		li	a0,0
 397              	.LVL46:
 398 01c8 03348100 		ld	s0,8(sp)
 399              		.cfi_restore 8
 400              		.cfi_def_cfa 2, 16
 401 01cc 13010101 		addi	sp,sp,16
 402              		.cfi_def_cfa_offset 0
 403 01d0 67800000 		jr	ra
 404              		.cfi_endproc
 405              	.LFE5:
 407              		.align	2
GAS LISTING /tmp/ccdibjuc.s 			page 11


 408              		.globl	thread_join
 410              	thread_join:
 411              	.LFB6:
  85:src/ABI.cpp   **** 
  86:src/ABI.cpp   **** int thread_join(thread_t t) {
 412              		.loc 1 86 29 is_stmt 1
 413              		.cfi_startproc
 414              	.LVL47:
 415 01d4 130101FF 		addi	sp,sp,-16
 416              		.cfi_def_cfa_offset 16
 417 01d8 23341100 		sd	ra,8(sp)
 418 01dc 23308100 		sd	s0,0(sp)
 419              		.cfi_offset 1, -8
 420              		.cfi_offset 8, -16
 421 01e0 13040101 		addi	s0,sp,16
 422              		.cfi_def_cfa 8, 0
  87:src/ABI.cpp   ****     ((Thread*)t)->join();
 423              		.loc 1 87 5
 424              		.loc 1 87 23 is_stmt 0
 425 01e4 97000000 		call	_ZN6Thread4joinEv@plt
 425      E7800000 
 426              	.LVL48:
  88:src/ABI.cpp   ****     return 0;
 427              		.loc 1 88 5 is_stmt 1
  89:src/ABI.cpp   **** }
 428              		.loc 1 89 1 is_stmt 0
 429 01ec 13050000 		li	a0,0
 430 01f0 83308100 		ld	ra,8(sp)
 431              		.cfi_restore 1
 432 01f4 03340100 		ld	s0,0(sp)
 433              		.cfi_restore 8
 434              		.cfi_def_cfa 2, 16
 435 01f8 13010101 		addi	sp,sp,16
 436              		.cfi_def_cfa_offset 0
 437 01fc 67800000 		jr	ra
 438              		.cfi_endproc
 439              	.LFE6:
 441              		.align	2
 442              		.globl	start_main_thread
 444              	start_main_thread:
 445              	.LFB7:
  90:src/ABI.cpp   **** int start_main_thread() {
 446              		.loc 1 90 25 is_stmt 1
 447              		.cfi_startproc
 448 0200 130101FF 		addi	sp,sp,-16
 449              		.cfi_def_cfa_offset 16
 450 0204 23341100 		sd	ra,8(sp)
 451 0208 23308100 		sd	s0,0(sp)
 452              		.cfi_offset 1, -8
 453              		.cfi_offset 8, -16
 454 020c 13040101 		addi	s0,sp,16
 455              		.cfi_def_cfa 8, 0
  91:src/ABI.cpp   ****     Scheduler::SetupStartThread();
 456              		.loc 1 91 5
 457              		.loc 1 91 32 is_stmt 0
 458 0210 97000000 		call	_ZN9Scheduler16SetupStartThreadEv@plt
 458      E7800000 
GAS LISTING /tmp/ccdibjuc.s 			page 12


 459              	.LVL49:
  92:src/ABI.cpp   ****     return 0;
 460              		.loc 1 92 5 is_stmt 1
  93:src/ABI.cpp   **** }
 461              		.loc 1 93 1 is_stmt 0
 462 0218 13050000 		li	a0,0
 463 021c 83308100 		ld	ra,8(sp)
 464              		.cfi_restore 1
 465 0220 03340100 		ld	s0,0(sp)
 466              		.cfi_restore 8
 467              		.cfi_def_cfa 2, 16
 468 0224 13010101 		addi	sp,sp,16
 469              		.cfi_def_cfa_offset 0
 470 0228 67800000 		jr	ra
 471              		.cfi_endproc
 472              	.LFE7:
 474              	.Letext0:
 475              		.file 3 "src/./../lib/hw.h"
 476              		.file 4 "src/./MemoryAllocator.hpp"
 477              		.file 5 "src/APIC.h"
 478              		.file 6 "src/Scheduler.hpp"
 479              		.file 7 "src/../lib/console.h"
GAS LISTING /tmp/ccdibjuc.s 			page 13


DEFINED SYMBOLS
                            *ABS*:0000000000000000 ABI.cpp
     /tmp/ccdibjuc.s:9      .text:0000000000000000 HandleInterupt
     /tmp/ccdibjuc.s:13     .text:0000000000000000 .L0 
     /tmp/ccdibjuc.s:15     .text:0000000000000000 .L0 
     /tmp/ccdibjuc.s:16     .text:0000000000000004 .L0 
     /tmp/ccdibjuc.s:21     .text:0000000000000014 .L0 
     /tmp/ccdibjuc.s:22     .text:0000000000000014 .L0 
     /tmp/ccdibjuc.s:23     .text:0000000000000014 .L0 
     /tmp/ccdibjuc.s:24     .text:0000000000000014 .L0 
     /tmp/ccdibjuc.s:26     .text:0000000000000018 .L0 
     /tmp/ccdibjuc.s:29     .text:000000000000001c .L0 
     /tmp/ccdibjuc.s:30     .text:000000000000001c .L0 
     /tmp/ccdibjuc.s:33     .text:0000000000000020 .L0 
     /tmp/ccdibjuc.s:34     .text:0000000000000020 .L0 
     /tmp/ccdibjuc.s:38     .text:0000000000000028 .L0 
     /tmp/ccdibjuc.s:42     .text:000000000000002c .L0 
     /tmp/ccdibjuc.s:46     .text:0000000000000030 .L0 
     /tmp/ccdibjuc.s:49     .text:0000000000000038 .L0 
     /tmp/ccdibjuc.s:50     .text:0000000000000038 .L0 
     /tmp/ccdibjuc.s:54     .text:0000000000000044 .L0 
     /tmp/ccdibjuc.s:59     .text:0000000000000054 .L0 
     /tmp/ccdibjuc.s:66     .text:000000000000005c .L0 
     /tmp/ccdibjuc.s:67     .text:000000000000005c .L0 
     /tmp/ccdibjuc.s:70     .text:0000000000000060 .L0 
     /tmp/ccdibjuc.s:74     .text:000000000000006c .L0 
     /tmp/ccdibjuc.s:75     .text:000000000000006c .L0 
         src/ABI.cpp:19     .text:000000000000006c .L0 
     /tmp/ccdibjuc.s:82     .text:0000000000000070 .L0 
         src/ABI.cpp:20     .text:0000000000000070 .L0 
     /tmp/ccdibjuc.s:88     .text:0000000000000074 .L0 
         src/ABI.cpp:21     .text:0000000000000074 .L0 
     /tmp/ccdibjuc.s:94     .text:0000000000000078 .L0 
     /tmp/ccdibjuc.s:96     .text:0000000000000078 .L0 
     /tmp/ccdibjuc.s:99     .text:000000000000007c .L0 
     /tmp/ccdibjuc.s:103    .text:0000000000000084 .L0 
     /tmp/ccdibjuc.s:104    .text:0000000000000084 .L0 
     /tmp/ccdibjuc.s:109    .text:0000000000000090 .L0 
     /tmp/ccdibjuc.s:110    .text:0000000000000090 .L0 
     /tmp/ccdibjuc.s:116    .text:0000000000000094 .L0 
     /tmp/ccdibjuc.s:117    .text:0000000000000094 .L0 
         src/ABI.cpp:29     .text:0000000000000094 .L0 
     /tmp/ccdibjuc.s:126    .text:0000000000000098 .L0 
     /tmp/ccdibjuc.s:127    .text:0000000000000098 .L0 
     /tmp/ccdibjuc.s:130    .text:000000000000009c .L0 
     /tmp/ccdibjuc.s:134    .text:00000000000000a4 .L0 
     /tmp/ccdibjuc.s:135    .text:00000000000000a4 .L0 
         src/ABI.cpp:39     .text:00000000000000a4 .L0 
     /tmp/ccdibjuc.s:142    .text:00000000000000a8 .L0 
     /tmp/ccdibjuc.s:144    .text:00000000000000a8 .L0 
         src/ABI.cpp:40     .text:00000000000000ac .L0 
     /tmp/ccdibjuc.s:154    .text:00000000000000b0 .L0 
     /tmp/ccdibjuc.s:165    .text:00000000000000c8 .L0 
     /tmp/ccdibjuc.s:166    .text:00000000000000cc .L0 
     /tmp/ccdibjuc.s:167    .text:00000000000000cc .L0 
     /tmp/ccdibjuc.s:169    .text:00000000000000d0 .L0 
     /tmp/ccdibjuc.s:170    .text:00000000000000d0 .L0 
GAS LISTING /tmp/ccdibjuc.s 			page 14


     /tmp/ccdibjuc.s:172    .text:00000000000000d4 .L0 
     /tmp/ccdibjuc.s:174    .text:00000000000000d8 .L0 
     /tmp/ccdibjuc.s:177    .text:00000000000000dc .L0 
     /tmp/ccdibjuc.s:181    .text:00000000000000e0 .L0 
     /tmp/ccdibjuc.s:185    .text:00000000000000e0 .L0 
     /tmp/ccdibjuc.s:186    .text:00000000000000e0 .L0 
     /tmp/ccdibjuc.s:196    .text:00000000000000e8 .L0 
     /tmp/ccdibjuc.s:197    .text:00000000000000e8 .L0 
         src/ABI.cpp:32     .text:00000000000000e8 .L0 
     /tmp/ccdibjuc.s:204    .text:00000000000000ec .L0 
     /tmp/ccdibjuc.s:206    .text:00000000000000ec .L0 
     /tmp/ccdibjuc.s:210    .text:00000000000000f8 .L0 
     /tmp/ccdibjuc.s:211    .text:00000000000000f8 .L0 
         src/ABI.cpp:34     .text:00000000000000fc .L0 
     /tmp/ccdibjuc.s:220    .text:0000000000000100 .L0 
     /tmp/ccdibjuc.s:226    .text:0000000000000104 .L0 
     /tmp/ccdibjuc.s:229    .text:0000000000000104 .L0 
     /tmp/ccdibjuc.s:230    .text:0000000000000104 .L0 
     /tmp/ccdibjuc.s:231    .text:0000000000000104 .L0 
     /tmp/ccdibjuc.s:234    .text:0000000000000108 .L0 
     /tmp/ccdibjuc.s:235    .text:0000000000000108 .L0 
     /tmp/ccdibjuc.s:238    .text:0000000000000110 .L0 
     /tmp/ccdibjuc.s:242    .text:000000000000011c .L0 
         src/ABI.cpp:45     .text:000000000000011c .L0 
     /tmp/ccdibjuc.s:249    .text:0000000000000120 .L0 
     /tmp/ccdibjuc.s:255    .text:0000000000000124 .L0 
     /tmp/ccdibjuc.s:258    .text:0000000000000124 .L0 
     /tmp/ccdibjuc.s:259    .text:0000000000000124 .L0 
     /tmp/ccdibjuc.s:260    .text:0000000000000124 .L0 
     /tmp/ccdibjuc.s:263    .text:0000000000000128 .L0 
     /tmp/ccdibjuc.s:264    .text:0000000000000128 .L0 
     /tmp/ccdibjuc.s:267    .text:0000000000000130 .L0 
     /tmp/ccdibjuc.s:271    .text:000000000000013c .L0 
     /tmp/ccdibjuc.s:277    .text:0000000000000140 .L0 
     /tmp/ccdibjuc.s:280    .text:0000000000000140 .L0 
     /tmp/ccdibjuc.s:281    .text:0000000000000140 .L0 
     /tmp/ccdibjuc.s:282    .text:0000000000000140 .L0 
     /tmp/ccdibjuc.s:283    .text:0000000000000140 .L0 
     /tmp/ccdibjuc.s:287    .text:000000000000014c .L0 
     /tmp/ccdibjuc.s:290    .text:0000000000000150 .L0 
     /tmp/ccdibjuc.s:296    .text:0000000000000150 thread_create
     /tmp/ccdibjuc.s:299    .text:0000000000000150 .L0 
     /tmp/ccdibjuc.s:301    .text:0000000000000150 .L0 
     /tmp/ccdibjuc.s:302    .text:0000000000000154 .L0 
     /tmp/ccdibjuc.s:307    .text:0000000000000164 .L0 
     /tmp/ccdibjuc.s:308    .text:0000000000000164 .L0 
     /tmp/ccdibjuc.s:309    .text:0000000000000164 .L0 
     /tmp/ccdibjuc.s:310    .text:0000000000000164 .L0 
     /tmp/ccdibjuc.s:312    .text:0000000000000168 .L0 
     /tmp/ccdibjuc.s:315    .text:000000000000016c .L0 
     /tmp/ccdibjuc.s:316    .text:000000000000016c .L0 
     /tmp/ccdibjuc.s:324    .text:0000000000000180 .L0 
     /tmp/ccdibjuc.s:325    .text:0000000000000180 .L0 
     /tmp/ccdibjuc.s:326    .text:0000000000000180 .L0 
     /tmp/ccdibjuc.s:332    .text:0000000000000188 .L0 
     /tmp/ccdibjuc.s:333    .text:0000000000000188 .L0 
     /tmp/ccdibjuc.s:334    .text:0000000000000188 .L0 
GAS LISTING /tmp/ccdibjuc.s 			page 15


     /tmp/ccdibjuc.s:339    .text:000000000000018c .L0 
     /tmp/ccdibjuc.s:340    .text:000000000000018c .L0 
     /tmp/ccdibjuc.s:342    .text:0000000000000194 .L0 
     /tmp/ccdibjuc.s:344    .text:0000000000000198 .L0 
     /tmp/ccdibjuc.s:345    .text:0000000000000198 .L0 
     /tmp/ccdibjuc.s:347    .text:000000000000019c .L0 
     /tmp/ccdibjuc.s:350    .text:00000000000001a0 .L0 
     /tmp/ccdibjuc.s:353    .text:00000000000001a4 .L0 
     /tmp/ccdibjuc.s:355    .text:00000000000001a8 .L0 
     /tmp/ccdibjuc.s:361    .text:00000000000001a8 thread_start
     /tmp/ccdibjuc.s:364    .text:00000000000001a8 .L0 
     /tmp/ccdibjuc.s:366    .text:00000000000001a8 .L0 
     /tmp/ccdibjuc.s:367    .text:00000000000001ac .L0 
     /tmp/ccdibjuc.s:369    .text:00000000000001b0 .L0 
     /tmp/ccdibjuc.s:371    .text:00000000000001b4 .L0 
     /tmp/ccdibjuc.s:374    .text:00000000000001b4 .L0 
     /tmp/ccdibjuc.s:375    .text:00000000000001b4 .L0 
         src/ABI.cpp:80     .text:00000000000001b4 .L0 
     /tmp/ccdibjuc.s:381    .text:00000000000001b8 .L0 
     /tmp/ccdibjuc.s:383    .text:00000000000001b8 .L0 
     /tmp/ccdibjuc.s:389    .text:00000000000001c0 .L0 
         src/ABI.cpp:82     .text:00000000000001c0 .L0 
     /tmp/ccdibjuc.s:394    .text:00000000000001c4 .L0 
     /tmp/ccdibjuc.s:396    .text:00000000000001c4 .L0 
     /tmp/ccdibjuc.s:399    .text:00000000000001cc .L0 
     /tmp/ccdibjuc.s:400    .text:00000000000001cc .L0 
     /tmp/ccdibjuc.s:402    .text:00000000000001d0 .L0 
     /tmp/ccdibjuc.s:404    .text:00000000000001d4 .L0 
     /tmp/ccdibjuc.s:410    .text:00000000000001d4 thread_join
     /tmp/ccdibjuc.s:413    .text:00000000000001d4 .L0 
     /tmp/ccdibjuc.s:415    .text:00000000000001d4 .L0 
     /tmp/ccdibjuc.s:416    .text:00000000000001d8 .L0 
     /tmp/ccdibjuc.s:419    .text:00000000000001e0 .L0 
     /tmp/ccdibjuc.s:420    .text:00000000000001e0 .L0 
     /tmp/ccdibjuc.s:422    .text:00000000000001e4 .L0 
     /tmp/ccdibjuc.s:424    .text:00000000000001e4 .L0 
     /tmp/ccdibjuc.s:425    .text:00000000000001e4 .L0 
     /tmp/ccdibjuc.s:428    .text:00000000000001ec .L0 
     /tmp/ccdibjuc.s:429    .text:00000000000001ec .L0 
     /tmp/ccdibjuc.s:431    .text:00000000000001f4 .L0 
     /tmp/ccdibjuc.s:433    .text:00000000000001f8 .L0 
     /tmp/ccdibjuc.s:434    .text:00000000000001f8 .L0 
     /tmp/ccdibjuc.s:436    .text:00000000000001fc .L0 
     /tmp/ccdibjuc.s:438    .text:0000000000000200 .L0 
     /tmp/ccdibjuc.s:444    .text:0000000000000200 start_main_thread
     /tmp/ccdibjuc.s:447    .text:0000000000000200 .L0 
     /tmp/ccdibjuc.s:448    .text:0000000000000200 .L0 
     /tmp/ccdibjuc.s:449    .text:0000000000000204 .L0 
     /tmp/ccdibjuc.s:452    .text:000000000000020c .L0 
     /tmp/ccdibjuc.s:453    .text:000000000000020c .L0 
     /tmp/ccdibjuc.s:455    .text:0000000000000210 .L0 
     /tmp/ccdibjuc.s:457    .text:0000000000000210 .L0 
     /tmp/ccdibjuc.s:458    .text:0000000000000210 .L0 
     /tmp/ccdibjuc.s:461    .text:0000000000000218 .L0 
     /tmp/ccdibjuc.s:462    .text:0000000000000218 .L0 
     /tmp/ccdibjuc.s:464    .text:0000000000000220 .L0 
     /tmp/ccdibjuc.s:466    .text:0000000000000224 .L0 
GAS LISTING /tmp/ccdibjuc.s 			page 16


     /tmp/ccdibjuc.s:467    .text:0000000000000224 .L0 
     /tmp/ccdibjuc.s:469    .text:0000000000000228 .L0 
     /tmp/ccdibjuc.s:471    .text:000000000000022c .L0 
     /tmp/ccdibjuc.s:480    .text:000000000000022c .L0 
     /tmp/ccdibjuc.s:112    .text:0000000000000094 .L2
     /tmp/ccdibjuc.s:63     .text:000000000000005c .L3
     /tmp/ccdibjuc.s:43     .text:0000000000000030 .L4
     /tmp/ccdibjuc.s:180    .text:00000000000000e0 .L11
     /tmp/ccdibjuc.s:190    .text:00000000000000e8 .L12
     /tmp/ccdibjuc.s:251    .text:0000000000000124 .L8
     /tmp/ccdibjuc.s:273    .text:0000000000000140 .L9
     /tmp/ccdibjuc.s:222    .text:0000000000000104 .L13
     /tmp/ccdibjuc.s:101    .text:0000000000000084 .L5
     /tmp/ccdibjuc.s:162    .text:00000000000000c8 .L1
     /tmp/ccdibjuc.s:1570   .debug_abbrev:0000000000000000 .Ldebug_abbrev0
     /tmp/ccdibjuc.s:2969   .debug_str:000000000000061d .LASF108
     /tmp/ccdibjuc.s:2959   .debug_str:00000000000005ea .LASF109
     /tmp/ccdibjuc.s:2957   .debug_str:00000000000005cc .LASF110
     /tmp/ccdibjuc.s:5      .text:0000000000000000 .Ltext0
     /tmp/ccdibjuc.s:474    .text:000000000000022c .Letext0
     /tmp/ccdibjuc.s:2773   .debug_line:0000000000000000 .Ldebug_line0
     /tmp/ccdibjuc.s:2905   .debug_str:000000000000045b .LASF0
     /tmp/ccdibjuc.s:2923   .debug_str:00000000000004c3 .LASF1
     /tmp/ccdibjuc.s:2893   .debug_str:00000000000003e1 .LASF2
     /tmp/ccdibjuc.s:2835   .debug_str:00000000000001dd .LASF3
     /tmp/ccdibjuc.s:2867   .debug_str:0000000000000308 .LASF4
     /tmp/ccdibjuc.s:2911   .debug_str:000000000000047d .LASF5
     /tmp/ccdibjuc.s:2799   .debug_str:00000000000000bb .LASF6
     /tmp/ccdibjuc.s:2831   .debug_str:00000000000001bd .LASF7
     /tmp/ccdibjuc.s:2927   .debug_str:00000000000004e3 .LASF8
     /tmp/ccdibjuc.s:2903   .debug_str:0000000000000448 .LASF9
     /tmp/ccdibjuc.s:2985   .debug_str:000000000000075e .LASF10
     /tmp/ccdibjuc.s:2857   .debug_str:00000000000002b0 .LASF11
     /tmp/ccdibjuc.s:2937   .debug_str:000000000000051c .LASF12
     /tmp/ccdibjuc.s:2971   .debug_str:00000000000006e1 .LASF13
     /tmp/ccdibjuc.s:2803   .debug_str:00000000000000e9 .LASF14
     /tmp/ccdibjuc.s:2779   .debug_str:0000000000000012 .LASF15
     /tmp/ccdibjuc.s:2815   .debug_str:000000000000014d .LASF16
     /tmp/ccdibjuc.s:2949   .debug_str:0000000000000594 .LASF17
     /tmp/ccdibjuc.s:2823   .debug_str:0000000000000184 .LASF18
     /tmp/ccdibjuc.s:2873   .debug_str:0000000000000323 .LASF23
     /tmp/ccdibjuc.s:3003   .debug_str:00000000000007fe .LASF19
     /tmp/ccdibjuc.s:2995   .debug_str:00000000000007b2 .LASF20
     /tmp/ccdibjuc.s:2841   .debug_str:00000000000001f8 .LASF21
     /tmp/ccdibjuc.s:2965   .debug_str:000000000000060c .LASF22
     /tmp/ccdibjuc.s:2887   .debug_str:00000000000003a6 .LASF24
     /tmp/ccdibjuc.s:2993   .debug_str:00000000000007a6 .LASF86
     /tmp/ccdibjuc.s:2789   .debug_str:000000000000004c .LASF88
     /tmp/ccdibjuc.s:2975   .debug_str:00000000000006f8 .LASF25
     /tmp/ccdibjuc.s:2797   .debug_str:0000000000000092 .LASF27
     /tmp/ccdibjuc.s:2925   .debug_str:00000000000004d6 .LASF26
     /tmp/ccdibjuc.s:2989   .debug_str:0000000000000778 .LASF28
     /tmp/ccdibjuc.s:2829   .debug_str:00000000000001b8 .LASF29
     /tmp/ccdibjuc.s:2833   .debug_str:00000000000001c4 .LASF80
     /tmp/ccdibjuc.s:2953   .debug_str:00000000000005b0 .LASF30
     /tmp/ccdibjuc.s:2935   .debug_str:0000000000000510 .LASF31
     /tmp/ccdibjuc.s:2783   .debug_str:0000000000000029 .LASF111
GAS LISTING /tmp/ccdibjuc.s 			page 17


     /tmp/ccdibjuc.s:2915   .debug_str:0000000000000494 .LASF32
     /tmp/ccdibjuc.s:2945   .debug_str:0000000000000585 .LASF33
     /tmp/ccdibjuc.s:2979   .debug_str:0000000000000726 .LASF34
     /tmp/ccdibjuc.s:2813   .debug_str:000000000000013c .LASF67
     /tmp/ccdibjuc.s:2901   .debug_str:0000000000000427 .LASF69
     /tmp/ccdibjuc.s:2869   .debug_str:000000000000030f .LASF35
     /tmp/ccdibjuc.s:2791   .debug_str:0000000000000070 .LASF36
     /tmp/ccdibjuc.s:2909   .debug_str:0000000000000477 .LASF37
     /tmp/ccdibjuc.s:2777   .debug_str:0000000000000005 .LASF38
     /tmp/ccdibjuc.s:2795   .debug_str:0000000000000084 .LASF39
     /tmp/ccdibjuc.s:2855   .debug_str:00000000000002a1 .LASF41
     /tmp/ccdibjuc.s:2967   .debug_str:0000000000000611 .LASF40
     /tmp/ccdibjuc.s:2877   .debug_str:0000000000000335 .LASF42
     /tmp/ccdibjuc.s:2929   .debug_str:00000000000004f6 .LASF43
     /tmp/ccdibjuc.s:2919   .debug_str:00000000000004ab .LASF44
     /tmp/ccdibjuc.s:2817   .debug_str:0000000000000159 .LASF45
     /tmp/ccdibjuc.s:2889   .debug_str:00000000000003b6 .LASF46
     /tmp/ccdibjuc.s:2899   .debug_str:000000000000041b .LASF47
     /tmp/ccdibjuc.s:2939   .debug_str:000000000000052b .LASF48
     /tmp/ccdibjuc.s:2891   .debug_str:00000000000003d1 .LASF49
     /tmp/ccdibjuc.s:2805   .debug_str:00000000000000f9 .LASF50
     /tmp/ccdibjuc.s:2809   .debug_str:0000000000000124 .LASF51
     /tmp/ccdibjuc.s:2983   .debug_str:0000000000000745 .LASF52
     /tmp/ccdibjuc.s:2871   .debug_str:0000000000000314 .LASF53
     /tmp/ccdibjuc.s:2863   .debug_str:00000000000002df .LASF54
     /tmp/ccdibjuc.s:2961   .debug_str:00000000000005f6 .LASF55
     /tmp/ccdibjuc.s:2977   .debug_str:0000000000000709 .LASF56
     /tmp/ccdibjuc.s:3005   .debug_str:0000000000000803 .LASF57
     /tmp/ccdibjuc.s:2895   .debug_str:00000000000003ef .LASF58
     /tmp/ccdibjuc.s:2787   .debug_str:000000000000003d .LASF59
     /tmp/ccdibjuc.s:2943   .debug_str:0000000000000566 .LASF60
     /tmp/ccdibjuc.s:2879   .debug_str:0000000000000350 .LASF61
     /tmp/ccdibjuc.s:2845   .debug_str:000000000000020e .LASF62
     /tmp/ccdibjuc.s:2921   .debug_str:00000000000004bd .LASF63
     /tmp/ccdibjuc.s:2853   .debug_str:000000000000028e .LASF64
     /tmp/ccdibjuc.s:2973   .debug_str:00000000000006f0 .LASF65
     /tmp/ccdibjuc.s:2819   .debug_str:0000000000000165 .LASF66
     /tmp/ccdibjuc.s:2775   .debug_str:0000000000000000 .LASF68
     /tmp/ccdibjuc.s:2861   .debug_str:00000000000002cd .LASF70
     /tmp/ccdibjuc.s:2875   .debug_str:000000000000032c .LASF71
     /tmp/ccdibjuc.s:2933   .debug_str:0000000000000506 .LASF72
     /tmp/ccdibjuc.s:2849   .debug_str:000000000000025c .LASF73
     /tmp/ccdibjuc.s:2837   .debug_str:00000000000001e3 .LASF74
     /tmp/ccdibjuc.s:2793   .debug_str:0000000000000079 .LASF75
     /tmp/ccdibjuc.s:2955   .debug_str:00000000000005be .LASF76
     /tmp/ccdibjuc.s:2785   .debug_str:0000000000000031 .LASF77
     /tmp/ccdibjuc.s:2897   .debug_str:000000000000040e .LASF78
     /tmp/ccdibjuc.s:2807   .debug_str:0000000000000118 .LASF112
     /tmp/ccdibjuc.s:2885   .debug_str:0000000000000389 .LASF113
     /tmp/ccdibjuc.s:2907   .debug_str:0000000000000468 .LASF79
     /tmp/ccdibjuc.s:2801   .debug_str:00000000000000c2 .LASF81
     /tmp/ccdibjuc.s:2825   .debug_str:000000000000019a .LASF82
     /tmp/ccdibjuc.s:2941   .debug_str:0000000000000545 .LASF84
     /tmp/ccdibjuc.s:2843   .debug_str:00000000000001fd .LASF83
     /tmp/ccdibjuc.s:3001   .debug_str:00000000000007dc .LASF85
     /tmp/ccdibjuc.s:2931   .debug_str:00000000000004fb .LASF87
     /tmp/ccdibjuc.s:2851   .debug_str:0000000000000272 .LASF89
GAS LISTING /tmp/ccdibjuc.s 			page 18


     /tmp/ccdibjuc.s:2951   .debug_str:00000000000005aa .LASF90
     /tmp/ccdibjuc.s:2999   .debug_str:00000000000007bc .LASF91
     /tmp/ccdibjuc.s:2881   .debug_str:0000000000000366 .LASF92
     /tmp/ccdibjuc.s:2981   .debug_str:000000000000072d .LASF93
     /tmp/ccdibjuc.s:2883   .debug_str:000000000000036e .LASF114
     /tmp/ccdibjuc.s:2811   .debug_str:000000000000012f .LASF94
     /tmp/ccdibjuc.s:2847   .debug_str:0000000000000237 .LASF95
     /tmp/ccdibjuc.s:2917   .debug_str:0000000000000499 .LASF96
     /tmp/ccdibjuc.s:445    .text:0000000000000200 .LFB7
     /tmp/ccdibjuc.s:472    .text:000000000000022c .LFE7
     /tmp/ccdibjuc.s:459    .text:0000000000000218 .LVL49
     /tmp/ccdibjuc.s:2865   .debug_str:00000000000002fc .LASF97
     /tmp/ccdibjuc.s:411    .text:00000000000001d4 .LFB6
     /tmp/ccdibjuc.s:439    .text:0000000000000200 .LFE6
     /tmp/ccdibjuc.s:2481   .debug_loc:0000000000000000 .LLST20
     /tmp/ccdibjuc.s:426    .text:00000000000001ec .LVL48
     /tmp/ccdibjuc.s:2839   .debug_str:00000000000001eb .LASF98
     /tmp/ccdibjuc.s:362    .text:00000000000001a8 .LFB5
     /tmp/ccdibjuc.s:405    .text:00000000000001d4 .LFE5
     /tmp/ccdibjuc.s:2963   .debug_str:0000000000000605 .LASF99
     /tmp/ccdibjuc.s:2495   .debug_loc:0000000000000039 .LLST19
     /tmp/ccdibjuc.s:2913   .debug_str:000000000000048f .LASF100
     /tmp/ccdibjuc.s:2827   .debug_str:00000000000001aa .LASF101
     /tmp/ccdibjuc.s:297    .text:0000000000000150 .LFB4
     /tmp/ccdibjuc.s:356    .text:00000000000001a8 .LFE4
     /tmp/ccdibjuc.s:2509   .debug_loc:0000000000000072 .LLST14
     /tmp/ccdibjuc.s:2525   .debug_loc:00000000000000bc .LLST15
     /tmp/ccdibjuc.s:329    .text:0000000000000188 .LBB19
     /tmp/ccdibjuc.s:337    .text:000000000000018c .LBE19
     /tmp/ccdibjuc.s:2536   .debug_loc:00000000000000f2 .LLST17
     /tmp/ccdibjuc.s:2543   .debug_loc:0000000000000115 .LLST18
     /tmp/ccdibjuc.s:320    .text:000000000000017c .LVL38
     /tmp/ccdibjuc.s:327    .text:0000000000000188 .LVL40
     /tmp/ccdibjuc.s:2859   .debug_str:00000000000002be .LASF102
     /tmp/ccdibjuc.s:10     .text:0000000000000000 .LFB2
     /tmp/ccdibjuc.s:291    .text:0000000000000150 .LFE2
     /tmp/ccdibjuc.s:2821   .debug_str:000000000000017e .LASF103
     /tmp/ccdibjuc.s:2550   .debug_loc:0000000000000138 .LLST0
     /tmp/ccdibjuc.s:2605   .debug_loc:0000000000000212 .LLST1
     /tmp/ccdibjuc.s:2991   .debug_str:000000000000079e .LASF104
     /tmp/ccdibjuc.s:2616   .debug_loc:0000000000000248 .LLST2
     /tmp/ccdibjuc.s:2781   .debug_str:0000000000000022 .LASF105
     /tmp/ccdibjuc.s:2633   .debug_loc:0000000000000295 .LLST3
     /tmp/ccdibjuc.s:2657   .debug_loc:00000000000002f6 .LLST4
     /tmp/ccdibjuc.s:2765   .debug_ranges:0000000000000000 .Ldebug_ranges0
     /tmp/ccdibjuc.s:2670   .debug_loc:000000000000032e .LLST5
     /tmp/ccdibjuc.s:2677   .debug_loc:0000000000000351 .LLST6
     /tmp/ccdibjuc.s:2688   .debug_loc:0000000000000387 .LLST7
     /tmp/ccdibjuc.s:40     .text:000000000000002c .LBB6
     /tmp/ccdibjuc.s:64     .text:000000000000005c .LBE6
     /tmp/ccdibjuc.s:2699   .debug_loc:00000000000003bd .LLST8
     /tmp/ccdibjuc.s:194    .text:00000000000000e8 .LBB9
     /tmp/ccdibjuc.s:223    .text:0000000000000104 .LBE9
     /tmp/ccdibjuc.s:2710   .debug_loc:00000000000003f3 .LLST9
     /tmp/ccdibjuc.s:208    .text:00000000000000f8 .LVL24
     /tmp/ccdibjuc.s:228    .text:0000000000000104 .LBB11
     /tmp/ccdibjuc.s:252    .text:0000000000000124 .LBE11
GAS LISTING /tmp/ccdibjuc.s 			page 19


     /tmp/ccdibjuc.s:2723   .debug_loc:000000000000042b .LLST10
     /tmp/ccdibjuc.s:2730   .debug_loc:000000000000044e .LLST11
     /tmp/ccdibjuc.s:236    .text:0000000000000110 .LVL28
     /tmp/ccdibjuc.s:240    .text:000000000000011c .LVL29
     /tmp/ccdibjuc.s:257    .text:0000000000000124 .LBB12
     /tmp/ccdibjuc.s:274    .text:0000000000000140 .LBE12
     /tmp/ccdibjuc.s:2737   .debug_loc:0000000000000471 .LLST12
     /tmp/ccdibjuc.s:265    .text:0000000000000130 .LVL32
     /tmp/ccdibjuc.s:269    .text:000000000000013c .LVL33
     /tmp/ccdibjuc.s:279    .text:0000000000000140 .LBB13
     /tmp/ccdibjuc.s:288    .text:0000000000000150 .LBE13
     /tmp/ccdibjuc.s:2744   .debug_loc:0000000000000494 .LLST13
     /tmp/ccdibjuc.s:285    .text:000000000000014c .LVL35
     /tmp/ccdibjuc.s:35     .text:0000000000000028 .LVL2
     /tmp/ccdibjuc.s:2997   .debug_str:00000000000007b7 .LASF115
     /tmp/ccdibjuc.s:2987   .debug_str:000000000000076e .LASF106
     /tmp/ccdibjuc.s:2947   .debug_str:000000000000058d .LASF107
     /tmp/ccdibjuc.s:414    .text:00000000000001d4 .LVL47
     /tmp/ccdibjuc.s:365    .text:00000000000001a8 .LVL44
     /tmp/ccdibjuc.s:397    .text:00000000000001c8 .LVL46
     /tmp/ccdibjuc.s:300    .text:0000000000000150 .LVL36
     /tmp/ccdibjuc.s:317    .text:0000000000000170 .LVL37
     /tmp/ccdibjuc.s:351    .text:00000000000001a0 .LVL43
     /tmp/ccdibjuc.s:322    .text:0000000000000180 .LVL39
     /tmp/ccdibjuc.s:348    .text:000000000000019c .LVL42
     /tmp/ccdibjuc.s:335    .text:000000000000018c .LVL41
     /tmp/ccdibjuc.s:14     .text:0000000000000000 .LVL0
     /tmp/ccdibjuc.s:161    .text:00000000000000c8 .LVL18
     /tmp/ccdibjuc.s:179    .text:00000000000000e0 .LVL20
     /tmp/ccdibjuc.s:202    .text:00000000000000ec .LVL23
     /tmp/ccdibjuc.s:221    .text:0000000000000104 .LVL26
     /tmp/ccdibjuc.s:232    .text:0000000000000108 .LVL27
     /tmp/ccdibjuc.s:250    .text:0000000000000124 .LVL30
     /tmp/ccdibjuc.s:261    .text:0000000000000128 .LVL31
     /tmp/ccdibjuc.s:272    .text:0000000000000140 .LVL34
     /tmp/ccdibjuc.s:31     .text:0000000000000020 .LVL1
     /tmp/ccdibjuc.s:175    .text:00000000000000d8 .LVL19
     /tmp/ccdibjuc.s:106    .text:000000000000008c .LVL11
     /tmp/ccdibjuc.s:111    .text:0000000000000094 .LVL12
     /tmp/ccdibjuc.s:189    .text:00000000000000e8 .LVL22
     /tmp/ccdibjuc.s:122    .text:0000000000000098 .LVL13
     /tmp/ccdibjuc.s:128    .text:000000000000009c .LVL14
     /tmp/ccdibjuc.s:140    .text:00000000000000a8 .LVL15
     /tmp/ccdibjuc.s:145    .text:00000000000000ac .LVL16
     /tmp/ccdibjuc.s:155    .text:00000000000000b4 .LVL17
     /tmp/ccdibjuc.s:80     .text:0000000000000070 .LVL7
     /tmp/ccdibjuc.s:97     .text:000000000000007c .LVL10
     /tmp/ccdibjuc.s:86     .text:0000000000000074 .LVL8
     /tmp/ccdibjuc.s:92     .text:0000000000000078 .LVL9
     /tmp/ccdibjuc.s:44     .text:0000000000000030 .LVL3
     /tmp/ccdibjuc.s:60     .text:0000000000000058 .LVL4
     /tmp/ccdibjuc.s:62     .text:000000000000005c .LVL5
     /tmp/ccdibjuc.s:68     .text:0000000000000060 .LVL6
     /tmp/ccdibjuc.s:212    .text:00000000000000fc .LVL25
     /tmp/ccdibjuc.s:481    .debug_info:0000000000000000 .Ldebug_info0
     /tmp/ccdibjuc.s:39     .text:000000000000002c .LBB5
     /tmp/ccdibjuc.s:113    .text:0000000000000094 .LBE5
GAS LISTING /tmp/ccdibjuc.s 			page 20


     /tmp/ccdibjuc.s:183    .text:00000000000000e0 .LBB7
     /tmp/ccdibjuc.s:191    .text:00000000000000e8 .LBE7

UNDEFINED SYMBOLS
_ZN9Scheduler10GetRunningEv
__putc
_ZN15MemoryAllocator11GetInstanceEv
_ZN15MemoryAllocator16AllocateFragmentEm
_ZN15MemoryAllocator12FreeFragmentEPv
_ZN6Thread5startEv
mem_alloc
_ZN6Thread4initEv
_ZN6Thread4joinEv
_ZN9Scheduler16SetupStartThreadEv
