GAS LISTING /tmp/cce0gqhK.s 			page 1


   1              		.file	"ABI.cpp"
   2              		.option pic
   3              		.option norelax
   4              		.text
   5              	.Ltext0:
   6              		.align	2
   7              		.globl	HandleInterupt
   9              	HandleInterupt:
  10              	.LFB3:
  11              		.file 1 "src/ABI.cpp"
   1:src/ABI.cpp   **** //
   2:src/ABI.cpp   **** // Created by os on 5/6/26.
   3:src/ABI.cpp   **** //
   4:src/ABI.cpp   **** #include "./MemoryAllocator.hpp"
   5:src/ABI.cpp   **** #include "Thread.hpp"
   6:src/ABI.cpp   **** #include "syscall_c.h"
   7:src/ABI.cpp   **** #include "Scheduler.hpp"
   8:src/ABI.cpp   **** #include "Semaphore.hpp"
   9:src/ABI.cpp   **** #include "Konsole.hpp"
  10:src/ABI.cpp   **** #include "SyscallCodes.hpp"
  11:src/ABI.cpp   **** #include "../lib/console.h"
  12:src/ABI.cpp   **** 
  13:src/ABI.cpp   **** extern "C" void restoreContext(size_t* ctx);
  14:src/ABI.cpp   **** 
  15:src/ABI.cpp   **** 
  16:src/ABI.cpp   **** 
  17:src/ABI.cpp   **** extern "C" void HandleInterupt(size_t* stackInfo){
  12              		.loc 1 17 50
  13              		.cfi_startproc
  14              	.LVL0:
  15 0000 130101FB 		addi	sp,sp,-80
  16              		.cfi_def_cfa_offset 80
  17 0004 23341104 		sd	ra,72(sp)
  18 0008 23308104 		sd	s0,64(sp)
  19 000c 233C9102 		sd	s1,56(sp)
  20 0010 23382103 		sd	s2,48(sp)
  21 0014 23343103 		sd	s3,40(sp)
  22 0018 23304103 		sd	s4,32(sp)
  23 001c 233C5101 		sd	s5,24(sp)
  24 0020 23386101 		sd	s6,16(sp)
  25 0024 23347101 		sd	s7,8(sp)
  26              		.cfi_offset 1, -8
  27              		.cfi_offset 8, -16
  28              		.cfi_offset 9, -24
  29              		.cfi_offset 18, -32
  30              		.cfi_offset 19, -40
  31              		.cfi_offset 20, -48
  32              		.cfi_offset 21, -56
  33              		.cfi_offset 22, -64
  34              		.cfi_offset 23, -72
  35 0028 13040105 		addi	s0,sp,80
  36              		.cfi_def_cfa 8, 0
  37 002c 13090500 		mv	s2,a0
  18:src/ABI.cpp   ****     uint64 scause;
  38              		.loc 1 18 5
  19:src/ABI.cpp   ****     __asm__ volatile("csrr %0, scause" : "=r"(scause));
  39              		.loc 1 19 5
GAS LISTING /tmp/cce0gqhK.s 			page 2


  40              		.loc 1 19 55 is_stmt 0
  41              	#APP
  42              	# 19 "src/ABI.cpp" 1
  20              	
  43              		csrr s3, scause
  44              	# 0 "" 2
  45              	.LVL1:
  21:src/ABI.cpp   ****     Scheduler::freeDead();
  46              		.loc 1 21 5 is_stmt 1
  47              		.loc 1 21 24 is_stmt 0
  48              	#NO_APP
  49 0034 97000000 		call	_ZN9Scheduler8freeDeadEv@plt
  49      E7800000 
  50              	.LVL2:
  22:src/ABI.cpp   **** 
  23:src/ABI.cpp   ****     KThread* current = Scheduler::GetRunning();
  51              		.loc 1 23 5 is_stmt 1
  52              		.loc 1 23 45 is_stmt 0
  53 003c 97000000 		call	_ZN9Scheduler10GetRunningEv@plt
  53      E7800000 
  54              	.LVL3:
  55 0044 93040500 		mv	s1,a0
  56              	.LVL4:
  24:src/ABI.cpp   ****     if (current != nullptr) {
  57              		.loc 1 24 5 is_stmt 1
  58              	.LBB22:
  59 0048 63080504 		beqz	a0,.L2
  60              	.LBB23:
  61              	.LBB24:
  25:src/ABI.cpp   ****         auto& ctx = current->threadContext;
  26:src/ABI.cpp   ****         for (int i = 0; i < 32; i++) ctx.x[i] = stackInfo[i];
  62              		.loc 1 26 18 is_stmt 0
  63 004c 13070000 		li	a4,0
  64              	.L4:
  65              	.LVL5:
  66              		.loc 1 26 27 is_stmt 1 discriminator 3
  67 0050 9307F001 		li	a5,31
  68 0054 63C0E702 		bgt	a4,a5,.L3
  69              		.loc 1 26 38 discriminator 2
  70              		.loc 1 26 60 is_stmt 0 discriminator 2
  71 0058 93173700 		slli	a5,a4,3
  72 005c B306F900 		add	a3,s2,a5
  73 0060 83B60600 		ld	a3,0(a3)
  74              		.loc 1 26 47 discriminator 2
  75 0064 B387F400 		add	a5,s1,a5
  76 0068 23B4D706 		sd	a3,104(a5)
  77              		.loc 1 26 9 is_stmt 1 discriminator 2
  78 006c 1B071700 		addiw	a4,a4,1
  79              	.LVL6:
  80 0070 6FF01FFE 		j	.L4
  81              	.LVL7:
  82              	.L3:
  83              	.LBE24:
  27:src/ABI.cpp   ****         ctx.x[2] = (size_t)stackInfo + 256;
  84              		.loc 1 27 9
  85              		.loc 1 27 38 is_stmt 0
  86 0074 93070910 		addi	a5,s2,256
GAS LISTING /tmp/cce0gqhK.s 			page 3


  87              		.loc 1 27 18
  88 0078 23BCF406 		sd	a5,120(s1)
  28:src/ABI.cpp   **** 
  29:src/ABI.cpp   ****         size_t sepc, sstatus;
  89              		.loc 1 29 9 is_stmt 1
  30:src/ABI.cpp   ****         __asm__ volatile("csrr %0, sepc"    : "=r"(sepc));
  90              		.loc 1 30 9
  91              		.loc 1 30 58 is_stmt 0
  92              	#APP
  93              	# 30 "src/ABI.cpp" 1
  31              	        __asm__ volatile("csrr %0, sstatus" : "=r"(sstatus));
  94              		csrr a4, sepc
  95              	# 0 "" 2
  96              	.LVL8:
  97              		.loc 1 31 9 is_stmt 1
  98              		.loc 1 31 61 is_stmt 0
  99              	# 31 "src/ABI.cpp" 1
  32              	        if (scause == SCause::ECALL_USER || scause == SCause::ECALL_SUPERVISOR) sepc += 4;
 100              		csrr a3, sstatus
 101              	# 0 "" 2
 102              	.LVL9:
 103              		.loc 1 32 9 is_stmt 1
 104              		.loc 1 32 42 is_stmt 0
 105              	#NO_APP
 106 0084 938789FF 		addi	a5,s3,-8
 107              		.loc 1 32 9
 108 0088 13061000 		li	a2,1
 109 008c 637AF606 		bleu	a5,a2,.L39
 110              	.L5:
  33:src/ABI.cpp   ****         ctx.sepc    = sepc;
 111              		.loc 1 33 9 is_stmt 1
 112              		.loc 1 33 21 is_stmt 0
 113 0090 23B4E416 		sd	a4,360(s1)
  34:src/ABI.cpp   ****         ctx.sstatus = sstatus;
 114              		.loc 1 34 9 is_stmt 1
 115              		.loc 1 34 21 is_stmt 0
 116 0094 23B8D416 		sd	a3,368(s1)
 117              	.LVL10:
 118              	.L2:
 119              	.LBE23:
 120              	.LBE22:
  35:src/ABI.cpp   ****     }
  36:src/ABI.cpp   **** 
  37:src/ABI.cpp   ****     if (scause == SCause::TIMER_INTERRUPT) {
 121              		.loc 1 37 5 is_stmt 1
 122 0098 9307F0FF 		li	a5,-1
 123 009c 9397F703 		slli	a5,a5,63
 124 00a0 93871700 		addi	a5,a5,1
 125 00a4 6382F906 		beq	s3,a5,.L40
  38:src/ABI.cpp   ****         Scheduler::timerTick(current);
  39:src/ABI.cpp   ****         if (current) __asm__ volatile("mv a0, %0" :: "r"(current->threadContext.x[10]));
  40:src/ABI.cpp   ****         return;
  41:src/ABI.cpp   ****     }
  42:src/ABI.cpp   **** 
  43:src/ABI.cpp   ****     if (scause == SCause::EXTERNAL_INTERRUPT) {
 126              		.loc 1 43 5
 127 00a8 9307F0FF 		li	a5,-1
GAS LISTING /tmp/cce0gqhK.s 			page 4


 128 00ac 9397F703 		slli	a5,a5,63
 129 00b0 93879700 		addi	a5,a5,9
 130 00b4 6388F906 		beq	s3,a5,.L41
  44:src/ABI.cpp   ****         Konsole::handleInterrupt();
  45:src/ABI.cpp   ****         if (current) __asm__ volatile("mv a0, %0" :: "r"(current->threadContext.x[10]));
  46:src/ABI.cpp   ****         return;
  47:src/ABI.cpp   ****     }
  48:src/ABI.cpp   **** 
  49:src/ABI.cpp   ****     if (scause != SCause::ECALL_USER && scause != SCause::ECALL_SUPERVISOR) {
 131              		.loc 1 49 5
 132              		.loc 1 49 38 is_stmt 0
 133 00b8 938789FF 		addi	a5,s3,-8
 134              		.loc 1 49 5
 135 00bc 13071000 		li	a4,1
 136 00c0 636EF706 		bgtu	a5,a4,.L42
  50:src/ABI.cpp   ****         if ((scause >> 63) == 0 && current != nullptr) {
  51:src/ABI.cpp   ****             Scheduler::ThreadExit(current);
  52:src/ABI.cpp   ****         }
  53:src/ABI.cpp   ****         return;
  54:src/ABI.cpp   ****     }
  55:src/ABI.cpp   **** 
  56:src/ABI.cpp   ****     // ecall: advance CSR sepc past the ecall instruction
  57:src/ABI.cpp   ****     {
 137              		.loc 1 57 5 is_stmt 1
 138              	.LBB26:
  58:src/ABI.cpp   ****         uint64 sepc;
 139              		.loc 1 58 9
  59:src/ABI.cpp   ****         __asm__ volatile("csrr %0, sepc" : "=r"(sepc));
 140              		.loc 1 59 9
 141              		.loc 1 59 55 is_stmt 0
 142              	#APP
 143              	# 59 "src/ABI.cpp" 1
  60              	        __asm__ volatile("csrw sepc, %0" :: "r"(sepc + 4));
 144              		csrr a5, sepc
 145              	# 0 "" 2
 146              	.LVL11:
 147              		.loc 1 60 9 is_stmt 1
 148              		.loc 1 60 54 is_stmt 0
 149              	#NO_APP
 150 00c8 93874700 		addi	a5,a5,4
 151              	.LVL12:
 152              		.loc 1 60 59
 153              	#APP
 154              	# 60 "src/ABI.cpp" 1
  61              	    }
 155              		csrw sepc, a5
 156              	# 0 "" 2
 157              	#NO_APP
 158              	.LBE26:
  62:src/ABI.cpp   **** 
  63:src/ABI.cpp   ****     size_t code = stackInfo[10];
 159              		.loc 1 63 5 is_stmt 1
 160              		.loc 1 63 12 is_stmt 0
 161 00d0 83370905 		ld	a5,80(s2)
 162              	.LVL13:
  64:src/ABI.cpp   ****     switch (code) {
 163              		.loc 1 64 5 is_stmt 1
GAS LISTING /tmp/cce0gqhK.s 			page 5


 164              	.LBB27:
 165 00d4 13072004 		li	a4,66
 166 00d8 6362F70A 		bgtu	a5,a4,.L11
 167 00dc 638A0706 		beqz	a5,.L1
 168 00e0 6368F706 		bgtu	a5,a4,.L1
 169 00e4 93972700 		slli	a5,a5,2
 170              	.LVL14:
 171 00e8 17070000 		lla	a4,.L13
 171      13070700 
 172 00f0 B387E700 		add	a5,a5,a4
 173 00f4 83A70700 		lw	a5,0(a5)
 174 00f8 B387E700 		add	a5,a5,a4
 175 00fc 67800700 		jr	a5
 176              		.section	.rodata
 177              		.align	2
 178              		.align	2
 179              	.L13:
 180 0000 00000000 		.word	.L1-.L13
 181 0004 00000000 		.word	.L26-.L13
 182 0008 00000000 		.word	.L25-.L13
 183 000c 00000000 		.word	.L1-.L13
 184 0010 00000000 		.word	.L1-.L13
 185 0014 00000000 		.word	.L1-.L13
 186 0018 00000000 		.word	.L1-.L13
 187 001c 00000000 		.word	.L1-.L13
 188 0020 00000000 		.word	.L1-.L13
 189 0024 00000000 		.word	.L1-.L13
 190 0028 00000000 		.word	.L1-.L13
 191 002c 00000000 		.word	.L1-.L13
 192 0030 00000000 		.word	.L1-.L13
 193 0034 00000000 		.word	.L1-.L13
 194 0038 00000000 		.word	.L1-.L13
 195 003c 00000000 		.word	.L1-.L13
 196 0040 00000000 		.word	.L1-.L13
 197 0044 00000000 		.word	.L24-.L13
 198 0048 00000000 		.word	.L23-.L13
 199 004c 00000000 		.word	.L22-.L13
 200 0050 00000000 		.word	.L1-.L13
 201 0054 00000000 		.word	.L1-.L13
 202 0058 00000000 		.word	.L1-.L13
 203 005c 00000000 		.word	.L1-.L13
 204 0060 00000000 		.word	.L1-.L13
 205 0064 00000000 		.word	.L1-.L13
 206 0068 00000000 		.word	.L1-.L13
 207 006c 00000000 		.word	.L1-.L13
 208 0070 00000000 		.word	.L1-.L13
 209 0074 00000000 		.word	.L1-.L13
 210 0078 00000000 		.word	.L1-.L13
 211 007c 00000000 		.word	.L1-.L13
 212 0080 00000000 		.word	.L1-.L13
 213 0084 00000000 		.word	.L21-.L13
 214 0088 00000000 		.word	.L20-.L13
 215 008c 00000000 		.word	.L19-.L13
 216 0090 00000000 		.word	.L18-.L13
 217 0094 00000000 		.word	.L17-.L13
 218 0098 00000000 		.word	.L16-.L13
 219 009c 00000000 		.word	.L1-.L13
GAS LISTING /tmp/cce0gqhK.s 			page 6


 220 00a0 00000000 		.word	.L1-.L13
 221 00a4 00000000 		.word	.L1-.L13
 222 00a8 00000000 		.word	.L1-.L13
 223 00ac 00000000 		.word	.L1-.L13
 224 00b0 00000000 		.word	.L1-.L13
 225 00b4 00000000 		.word	.L1-.L13
 226 00b8 00000000 		.word	.L1-.L13
 227 00bc 00000000 		.word	.L1-.L13
 228 00c0 00000000 		.word	.L1-.L13
 229 00c4 00000000 		.word	.L15-.L13
 230 00c8 00000000 		.word	.L1-.L13
 231 00cc 00000000 		.word	.L1-.L13
 232 00d0 00000000 		.word	.L1-.L13
 233 00d4 00000000 		.word	.L1-.L13
 234 00d8 00000000 		.word	.L1-.L13
 235 00dc 00000000 		.word	.L1-.L13
 236 00e0 00000000 		.word	.L1-.L13
 237 00e4 00000000 		.word	.L1-.L13
 238 00e8 00000000 		.word	.L1-.L13
 239 00ec 00000000 		.word	.L1-.L13
 240 00f0 00000000 		.word	.L1-.L13
 241 00f4 00000000 		.word	.L1-.L13
 242 00f8 00000000 		.word	.L1-.L13
 243 00fc 00000000 		.word	.L1-.L13
 244 0100 00000000 		.word	.L1-.L13
 245 0104 00000000 		.word	.L14-.L13
 246 0108 00000000 		.word	.L12-.L13
 247              		.text
 248              	.LVL15:
 249              	.L39:
 250              	.LBE27:
 251              	.LBB43:
 252              	.LBB25:
  32:src/ABI.cpp   ****         ctx.sepc    = sepc;
 253              		.loc 1 32 81 discriminator 1
  32:src/ABI.cpp   ****         ctx.sepc    = sepc;
 254              		.loc 1 32 86 is_stmt 0 discriminator 1
 255 0100 13074700 		addi	a4,a4,4
 256              	.LVL16:
 257 0104 6FF0DFF8 		j	.L5
 258              	.LVL17:
 259              	.L40:
 260              	.LBE25:
 261              	.LBE43:
  38:src/ABI.cpp   ****         if (current) __asm__ volatile("mv a0, %0" :: "r"(current->threadContext.x[10]));
 262              		.loc 1 38 9 is_stmt 1
  38:src/ABI.cpp   ****         if (current) __asm__ volatile("mv a0, %0" :: "r"(current->threadContext.x[10]));
 263              		.loc 1 38 29 is_stmt 0
 264 0108 13850400 		mv	a0,s1
 265 010c 97000000 		call	_ZN9Scheduler9timerTickEP7KThread@plt
 265      E7800000 
 266              	.LVL18:
  39:src/ABI.cpp   ****         return;
 267              		.loc 1 39 9 is_stmt 1
 268 0114 638E0402 		beqz	s1,.L1
  39:src/ABI.cpp   ****         return;
 269              		.loc 1 39 22 discriminator 1
GAS LISTING /tmp/cce0gqhK.s 			page 7


  39:src/ABI.cpp   ****         return;
 270              		.loc 1 39 85 is_stmt 0 discriminator 1
 271 0118 83B7840B 		ld	a5,184(s1)
  39:src/ABI.cpp   ****         return;
 272              		.loc 1 39 88 discriminator 1
 273              	#APP
 274              	# 39 "src/ABI.cpp" 1
 275              		mv a0, a5
 276              	# 0 "" 2
 277              	#NO_APP
 278 0120 6F000003 		j	.L1
 279              	.L41:
  44:src/ABI.cpp   ****         if (current) __asm__ volatile("mv a0, %0" :: "r"(current->threadContext.x[10]));
 280              		.loc 1 44 9 is_stmt 1
  44:src/ABI.cpp   ****         if (current) __asm__ volatile("mv a0, %0" :: "r"(current->threadContext.x[10]));
 281              		.loc 1 44 33 is_stmt 0
 282 0124 97000000 		call	_ZN7Konsole15handleInterruptEv@plt
 282      E7800000 
 283              	.LVL19:
  45:src/ABI.cpp   ****         return;
 284              		.loc 1 45 9 is_stmt 1
 285 012c 63820402 		beqz	s1,.L1
  45:src/ABI.cpp   ****         return;
 286              		.loc 1 45 22 discriminator 1
  45:src/ABI.cpp   ****         return;
 287              		.loc 1 45 85 is_stmt 0 discriminator 1
 288 0130 83B7840B 		ld	a5,184(s1)
  45:src/ABI.cpp   ****         return;
 289              		.loc 1 45 88 discriminator 1
 290              	#APP
 291              	# 45 "src/ABI.cpp" 1
 292              		mv a0, a5
 293              	# 0 "" 2
 294              	#NO_APP
 295 0138 6F008001 		j	.L1
 296              	.L42:
  50:src/ABI.cpp   ****             Scheduler::ThreadExit(current);
 297              		.loc 1 50 9 is_stmt 1
 298 013c 63CA0900 		bltz	s3,.L1
  50:src/ABI.cpp   ****             Scheduler::ThreadExit(current);
 299              		.loc 1 50 33 is_stmt 0 discriminator 1
 300 0140 63880400 		beqz	s1,.L1
  51:src/ABI.cpp   ****         }
 301              		.loc 1 51 13 is_stmt 1
  51:src/ABI.cpp   ****         }
 302              		.loc 1 51 34 is_stmt 0
 303 0144 13850400 		mv	a0,s1
 304 0148 97000000 		call	_ZN9Scheduler10ThreadExitEP7KThread@plt
 304      E7800000 
 305              	.LVL20:
  53:src/ABI.cpp   ****     }
 306              		.loc 1 53 9 is_stmt 1
 307              	.L1:
  65:src/ABI.cpp   ****         case Syscall::MEM_ALLOC: {
  66:src/ABI.cpp   ****             size_t size = stackInfo[11];
  67:src/ABI.cpp   ****             void* ptr = MemoryAllocator::GetInstance().AllocateFragment(size);
  68:src/ABI.cpp   ****             __asm__ volatile("mv a0,%[res]"::[res]"r"(ptr));
GAS LISTING /tmp/cce0gqhK.s 			page 8


  69:src/ABI.cpp   ****             break;
  70:src/ABI.cpp   ****         }
  71:src/ABI.cpp   ****         case Syscall::MEM_FREE: {
  72:src/ABI.cpp   ****             void* ptr = (void*)stackInfo[11];
  73:src/ABI.cpp   ****             MemoryAllocator::GetInstance().FreeFragment(ptr);
  74:src/ABI.cpp   ****             break;
  75:src/ABI.cpp   ****         }
  76:src/ABI.cpp   ****         case Syscall::THREAD_CREATE: {
  77:src/ABI.cpp   ****             thread_t* handle             = reinterpret_cast<thread_t*>(stackInfo[11]);
  78:src/ABI.cpp   ****             void (*start_routine)(void*) = reinterpret_cast<void(*)(void*)>(stackInfo[12]);
  79:src/ABI.cpp   ****             void* threadArg              = reinterpret_cast<void*>(stackInfo[13]);
  80:src/ABI.cpp   ****             size_t* stack_space          = reinterpret_cast<size_t*>(stackInfo[14]);
  81:src/ABI.cpp   **** 
  82:src/ABI.cpp   ****             void* mem = MemoryAllocator::GetInstance().AllocateFragment(sizeof(KThread));
  83:src/ABI.cpp   ****             if (!mem) {
  84:src/ABI.cpp   ****                 if (current) {
  85:src/ABI.cpp   ****                     current->threadContext.x[10] = (size_t)-1;
  86:src/ABI.cpp   ****                     restoreContext(current->getContext());
  87:src/ABI.cpp   ****                 }
  88:src/ABI.cpp   ****                 return;
  89:src/ABI.cpp   ****             }
  90:src/ABI.cpp   ****             KThread* t = reinterpret_cast<KThread*>(mem);
  91:src/ABI.cpp   ****             t->init();
  92:src/ABI.cpp   ****             t->setBody(start_routine, threadArg);
  93:src/ABI.cpp   ****             t->setup(current, stack_space);
  94:src/ABI.cpp   ****             t->stackBase = reinterpret_cast<void*>(stackInfo[15]);
  95:src/ABI.cpp   **** 
  96:src/ABI.cpp   ****             *handle = reinterpret_cast<thread_t>(t);
  97:src/ABI.cpp   ****             Scheduler::Put(t);
  98:src/ABI.cpp   ****             if (current) current->threadContext.x[10] = 0;
  99:src/ABI.cpp   ****             __asm__ volatile("li a0, 0");
 100:src/ABI.cpp   ****             break;
 101:src/ABI.cpp   ****         }
 102:src/ABI.cpp   ****         case Syscall::THREAD_EXIT: {
 103:src/ABI.cpp   ****             Scheduler::ThreadExit(current);
 104:src/ABI.cpp   ****             break;
 105:src/ABI.cpp   ****         }
 106:src/ABI.cpp   ****         case Syscall::THREAD_YIELD: {
 107:src/ABI.cpp   ****             if (!Scheduler::yieldCurrent(current))
 108:src/ABI.cpp   ****                 __asm__ volatile("li a0, 0");
 109:src/ABI.cpp   ****             break;
 110:src/ABI.cpp   ****         }
 111:src/ABI.cpp   ****         case Syscall::SEM_OPEN: {
 112:src/ABI.cpp   ****             sem_t* handle = reinterpret_cast<sem_t*>(stackInfo[11]);
 113:src/ABI.cpp   ****             unsigned initialValue = (unsigned)stackInfo[12];
 114:src/ABI.cpp   ****             void* mem = MemoryAllocator::GetInstance().AllocateFragment(sizeof(KSemaphore));
 115:src/ABI.cpp   ****             if (!mem) { __asm__ volatile("li a0, -1"); break; }
 116:src/ABI.cpp   ****             KSemaphore* semaphore = reinterpret_cast<KSemaphore*>(mem);
 117:src/ABI.cpp   ****             semaphore->init(initialValue);
 118:src/ABI.cpp   ****             *handle = reinterpret_cast<sem_t>(semaphore);
 119:src/ABI.cpp   ****             __asm__ volatile("li a0, 0");
 120:src/ABI.cpp   ****             break;
 121:src/ABI.cpp   ****         }
 122:src/ABI.cpp   ****         case Syscall::SEM_CLOSE: {
 123:src/ABI.cpp   ****             KSemaphore* semaphore = reinterpret_cast<KSemaphore*>(stackInfo[11]);
 124:src/ABI.cpp   ****             semaphore->close();
 125:src/ABI.cpp   ****             MemoryAllocator::GetInstance().FreeFragment(semaphore);
GAS LISTING /tmp/cce0gqhK.s 			page 9


 126:src/ABI.cpp   ****             __asm__ volatile("li a0, 0");
 127:src/ABI.cpp   ****             break;
 128:src/ABI.cpp   ****         }
 129:src/ABI.cpp   ****         case Syscall::SEM_WAIT: {
 130:src/ABI.cpp   ****             KSemaphore* semaphore = reinterpret_cast<KSemaphore*>(stackInfo[11]);
 131:src/ABI.cpp   ****             int result = semaphore->wait(current);
 132:src/ABI.cpp   ****             if (result <= 0) { __asm__ volatile("mv a0, %0" :: "r"((size_t)result)); break; }
 133:src/ABI.cpp   ****             Scheduler::blockCurrent(current);
 134:src/ABI.cpp   ****             break;
 135:src/ABI.cpp   ****         }
 136:src/ABI.cpp   ****         case Syscall::SEM_SIGNAL: {
 137:src/ABI.cpp   ****             KSemaphore* semaphore = reinterpret_cast<KSemaphore*>(stackInfo[11]);
 138:src/ABI.cpp   ****             semaphore->signal();
 139:src/ABI.cpp   ****             __asm__ volatile("li a0, 0");
 140:src/ABI.cpp   ****             break;
 141:src/ABI.cpp   ****         }
 142:src/ABI.cpp   ****         case Syscall::SEM_WAIT_N: {
 143:src/ABI.cpp   ****             KSemaphore* semaphore = reinterpret_cast<KSemaphore*>(stackInfo[11]);
 144:src/ABI.cpp   ****             unsigned n = (unsigned)stackInfo[12];
 145:src/ABI.cpp   ****             int result = semaphore->waitN(current, n);
 146:src/ABI.cpp   ****             if (result <= 0) { __asm__ volatile("mv a0, %0" :: "r"((size_t)result)); break; }
 147:src/ABI.cpp   ****             Scheduler::blockCurrent(current);
 148:src/ABI.cpp   ****             break;
 149:src/ABI.cpp   ****         }
 150:src/ABI.cpp   ****         case Syscall::SEM_SIGNAL_N: {
 151:src/ABI.cpp   ****             KSemaphore* semaphore = reinterpret_cast<KSemaphore*>(stackInfo[11]);
 152:src/ABI.cpp   ****             unsigned n = (unsigned)stackInfo[12];
 153:src/ABI.cpp   ****             semaphore->signalN(n);
 154:src/ABI.cpp   ****             __asm__ volatile("li a0, 0");
 155:src/ABI.cpp   ****             break;
 156:src/ABI.cpp   ****         }
 157:src/ABI.cpp   ****         case Syscall::SLEEP: {
 158:src/ABI.cpp   ****             time_t dur = (time_t)stackInfo[11];
 159:src/ABI.cpp   ****             if (current) current->threadContext.x[10] = 0;
 160:src/ABI.cpp   ****             if (dur == 0) { __asm__ volatile("li a0, 0"); break; }
 161:src/ABI.cpp   ****             Scheduler::sleep(current, dur);
 162:src/ABI.cpp   ****             Scheduler::blockCurrent(current);
 163:src/ABI.cpp   ****             break;
 164:src/ABI.cpp   ****         }
 165:src/ABI.cpp   ****         case Syscall::GETC: {
 166:src/ABI.cpp   ****             int result = Konsole::getcKernel(current);
 167:src/ABI.cpp   ****             if (result == -2)
 168:src/ABI.cpp   ****                 Scheduler::blockCurrent(current);
 169:src/ABI.cpp   ****             else
 170:src/ABI.cpp   ****                 __asm__ volatile("mv a0, %0" :: "r"((size_t)(unsigned char)result));
 171:src/ABI.cpp   ****             break;
 172:src/ABI.cpp   ****         }
 173:src/ABI.cpp   ****         case Syscall::PUTC: {
 174:src/ABI.cpp   ****             char c = (char)stackInfo[11];
 175:src/ABI.cpp   ****             int result = Konsole::putcKernel(current, c);
 176:src/ABI.cpp   ****             __asm__ volatile("mv a0, %0" :: "r"((size_t)result));
 177:src/ABI.cpp   ****             break;
 178:src/ABI.cpp   ****         }
 179:src/ABI.cpp   ****         case Syscall::SHUTDOWN: {
 180:src/ABI.cpp   ****             *((volatile uint32*)0x100000UL) = 0x5555;
 181:src/ABI.cpp   ****             while (true) {}
 182:src/ABI.cpp   ****             break;
GAS LISTING /tmp/cce0gqhK.s 			page 10


 183:src/ABI.cpp   ****         }
 184:src/ABI.cpp   ****         default: {
 185:src/ABI.cpp   ****             break;
 186:src/ABI.cpp   ****         }
 187:src/ABI.cpp   ****     }
 188:src/ABI.cpp   ****     return;
 189:src/ABI.cpp   **** }
 308              		.loc 1 189 1 is_stmt 0
 309 0150 83308104 		ld	ra,72(sp)
 310              		.cfi_remember_state
 311              		.cfi_restore 1
 312 0154 03340104 		ld	s0,64(sp)
 313              		.cfi_restore 8
 314              		.cfi_def_cfa 2, 80
 315 0158 83348103 		ld	s1,56(sp)
 316              		.cfi_restore 9
 317 015c 03390103 		ld	s2,48(sp)
 318              		.cfi_restore 18
 319 0160 83398102 		ld	s3,40(sp)
 320              		.cfi_restore 19
 321 0164 033A0102 		ld	s4,32(sp)
 322              		.cfi_restore 20
 323 0168 833A8101 		ld	s5,24(sp)
 324              		.cfi_restore 21
 325 016c 033B0101 		ld	s6,16(sp)
 326              		.cfi_restore 22
 327 0170 833B8100 		ld	s7,8(sp)
 328              		.cfi_restore 23
 329 0174 13010105 		addi	sp,sp,80
 330              		.cfi_def_cfa_offset 0
 331 0178 67800000 		jr	ra
 332              	.LVL21:
 333              	.L11:
 334              		.cfi_restore_state
 335              	.LBB44:
  64:src/ABI.cpp   ****         case Syscall::MEM_ALLOC: {
 336              		.loc 1 64 5
 337 017c 1307F00F 		li	a4,255
 338 0180 E398E7FC 		bne	a5,a4,.L1
 339              	.LBB28:
 179:src/ABI.cpp   ****             *((volatile uint32*)0x100000UL) = 0x5555;
 340              		.loc 1 179 9 is_stmt 1
 179:src/ABI.cpp   ****             *((volatile uint32*)0x100000UL) = 0x5555;
 341              		.loc 1 179 33
 180:src/ABI.cpp   ****             while (true) {}
 342              		.loc 1 180 13
 180:src/ABI.cpp   ****             while (true) {}
 343              		.loc 1 180 45 is_stmt 0
 344 0184 37071000 		li	a4,1048576
 345 0188 B7570000 		li	a5,20480
 346              	.LVL22:
 347 018c 9B875755 		addiw	a5,a5,1365
 348 0190 2320F700 		sw	a5,0(a4)
 349              	.LVL23:
 350              	.L37:
 181:src/ABI.cpp   ****             break;
 351              		.loc 1 181 13 is_stmt 1 discriminator 3
GAS LISTING /tmp/cce0gqhK.s 			page 11


 181:src/ABI.cpp   ****             break;
 352              		.loc 1 181 13 discriminator 3
 353 0194 6F000000 		j	.L37
 354              	.LVL24:
 355              	.L26:
  65:src/ABI.cpp   ****             size_t size = stackInfo[11];
 356              		.loc 1 65 9
  65:src/ABI.cpp   ****             size_t size = stackInfo[11];
 357              		.loc 1 65 34
 358              	.LBB29:
  66:src/ABI.cpp   ****             void* ptr = MemoryAllocator::GetInstance().AllocateFragment(size);
 359              		.loc 1 66 13
  66:src/ABI.cpp   ****             void* ptr = MemoryAllocator::GetInstance().AllocateFragment(size);
 360              		.loc 1 66 20 is_stmt 0
 361 0198 83348905 		ld	s1,88(s2)
 362              	.LVL25:
  67:src/ABI.cpp   ****             __asm__ volatile("mv a0,%[res]"::[res]"r"(ptr));
 363              		.loc 1 67 13 is_stmt 1
  67:src/ABI.cpp   ****             __asm__ volatile("mv a0,%[res]"::[res]"r"(ptr));
 364              		.loc 1 67 54 is_stmt 0
 365 019c 97000000 		call	_ZN15MemoryAllocator11GetInstanceEv@plt
 365      E7800000 
 366              	.LVL26:
  67:src/ABI.cpp   ****             __asm__ volatile("mv a0,%[res]"::[res]"r"(ptr));
 367              		.loc 1 67 72
 368 01a4 93850400 		mv	a1,s1
 369 01a8 97000000 		call	_ZN15MemoryAllocator16AllocateFragmentEm@plt
 369      E7800000 
 370              	.LVL27:
  68:src/ABI.cpp   ****             break;
 371              		.loc 1 68 13 is_stmt 1
  68:src/ABI.cpp   ****             break;
 372              		.loc 1 68 60 is_stmt 0
 373              	#APP
 374              	# 68 "src/ABI.cpp" 1
  69:src/ABI.cpp   ****         }
 375              		mv a0,a0
 376              	# 0 "" 2
 377              		.loc 1 69 13 is_stmt 1
 378              	#NO_APP
 379 01b4 6FF0DFF9 		j	.L1
 380              	.LVL28:
 381              	.L25:
 382              	.LBE29:
  71:src/ABI.cpp   ****             void* ptr = (void*)stackInfo[11];
 383              		.loc 1 71 9
  71:src/ABI.cpp   ****             void* ptr = (void*)stackInfo[11];
 384              		.loc 1 71 33
 385              	.LBB30:
  72:src/ABI.cpp   ****             MemoryAllocator::GetInstance().FreeFragment(ptr);
 386              		.loc 1 72 13
  72:src/ABI.cpp   ****             MemoryAllocator::GetInstance().FreeFragment(ptr);
 387              		.loc 1 72 44 is_stmt 0
 388 01b8 83348905 		ld	s1,88(s2)
 389              	.LVL29:
  73:src/ABI.cpp   ****             break;
 390              		.loc 1 73 13 is_stmt 1
GAS LISTING /tmp/cce0gqhK.s 			page 12


  73:src/ABI.cpp   ****             break;
 391              		.loc 1 73 42 is_stmt 0
 392 01bc 97000000 		call	_ZN15MemoryAllocator11GetInstanceEv@plt
 392      E7800000 
 393              	.LVL30:
  73:src/ABI.cpp   ****             break;
 394              		.loc 1 73 56
 395 01c4 93850400 		mv	a1,s1
 396 01c8 97000000 		call	_ZN15MemoryAllocator12FreeFragmentEPv@plt
 396      E7800000 
 397              	.LVL31:
  74:src/ABI.cpp   ****         }
 398              		.loc 1 74 13 is_stmt 1
 399 01d0 6FF01FF8 		j	.L1
 400              	.LVL32:
 401              	.L24:
 402              	.LBE30:
  76:src/ABI.cpp   ****             thread_t* handle             = reinterpret_cast<thread_t*>(stackInfo[11]);
 403              		.loc 1 76 9
  76:src/ABI.cpp   ****             thread_t* handle             = reinterpret_cast<thread_t*>(stackInfo[11]);
 404              		.loc 1 76 38
 405              	.LBB31:
  77:src/ABI.cpp   ****             void (*start_routine)(void*) = reinterpret_cast<void(*)(void*)>(stackInfo[12]);
 406              		.loc 1 77 13
  77:src/ABI.cpp   ****             void (*start_routine)(void*) = reinterpret_cast<void(*)(void*)>(stackInfo[12]);
 407              		.loc 1 77 84 is_stmt 0
 408 01d4 033A8905 		ld	s4,88(s2)
 409              	.LVL33:
  78:src/ABI.cpp   ****             void* threadArg              = reinterpret_cast<void*>(stackInfo[13]);
 410              		.loc 1 78 13 is_stmt 1
  78:src/ABI.cpp   ****             void* threadArg              = reinterpret_cast<void*>(stackInfo[13]);
 411              		.loc 1 78 89 is_stmt 0
 412 01d8 033B0906 		ld	s6,96(s2)
 413              	.LVL34:
  79:src/ABI.cpp   ****             size_t* stack_space          = reinterpret_cast<size_t*>(stackInfo[14]);
 414              		.loc 1 79 13 is_stmt 1
  79:src/ABI.cpp   ****             size_t* stack_space          = reinterpret_cast<size_t*>(stackInfo[14]);
 415              		.loc 1 79 80 is_stmt 0
 416 01dc 833A8906 		ld	s5,104(s2)
 417              	.LVL35:
  80:src/ABI.cpp   **** 
 418              		.loc 1 80 13 is_stmt 1
  80:src/ABI.cpp   **** 
 419              		.loc 1 80 82 is_stmt 0
 420 01e0 833B0907 		ld	s7,112(s2)
 421              	.LVL36:
  82:src/ABI.cpp   ****             if (!mem) {
 422              		.loc 1 82 13 is_stmt 1
  82:src/ABI.cpp   ****             if (!mem) {
 423              		.loc 1 82 54 is_stmt 0
 424 01e4 97000000 		call	_ZN15MemoryAllocator11GetInstanceEv@plt
 424      E7800000 
 425              	.LVL37:
  82:src/ABI.cpp   ****             if (!mem) {
 426              		.loc 1 82 72
 427 01ec 93050018 		li	a1,384
 428 01f0 97000000 		call	_ZN15MemoryAllocator16AllocateFragmentEm@plt
GAS LISTING /tmp/cce0gqhK.s 			page 13


 428      E7800000 
 429              	.LVL38:
 430 01f8 93090500 		mv	s3,a0
 431              	.LVL39:
  83:src/ABI.cpp   ****                 if (current) {
 432              		.loc 1 83 13 is_stmt 1
 433 01fc 63080504 		beqz	a0,.L43
  90:src/ABI.cpp   ****             t->init();
 434              		.loc 1 90 13
 435              	.LVL40:
  91:src/ABI.cpp   ****             t->setBody(start_routine, threadArg);
 436              		.loc 1 91 13
  91:src/ABI.cpp   ****             t->setBody(start_routine, threadArg);
 437              		.loc 1 91 20 is_stmt 0
 438 0200 97000000 		call	_ZN7KThread4initEv@plt
 438      E7800000 
 439              	.LVL41:
  92:src/ABI.cpp   ****             t->setup(current, stack_space);
 440              		.loc 1 92 13 is_stmt 1
 441              	.LBB32:
 442              	.LBB33:
 443              		.file 2 "src/Thread.hpp"
   1:src/Thread.hpp **** //
   2:src/Thread.hpp **** // Created by os on 6/10/26.
   3:src/Thread.hpp **** //
   4:src/Thread.hpp **** 
   5:src/Thread.hpp **** #ifndef OSPROJEKAT_THREAD_H
   6:src/Thread.hpp **** #define OSPROJEKAT_THREAD_H
   7:src/Thread.hpp **** 
   8:src/Thread.hpp **** #include "../lib/hw.h"
   9:src/Thread.hpp **** struct Context {
  10:src/Thread.hpp ****     size_t x[32];    // x0-x31, offsets 0x00-0xF8
  11:src/Thread.hpp ****     size_t sepc;     // offset 0x100
  12:src/Thread.hpp ****     size_t sstatus;  // offset 0x108
  13:src/Thread.hpp ****     size_t pc;
  14:src/Thread.hpp **** };
  15:src/Thread.hpp **** 
  16:src/Thread.hpp **** class KThread{
  17:src/Thread.hpp ****     friend class Scheduler;
  18:src/Thread.hpp ****     friend class KSemaphore;
  19:src/Thread.hpp **** protected:
  20:src/Thread.hpp ****     static void threadTrampoline(KThread* t);
  21:src/Thread.hpp ****     void (*body)(void*);
  22:src/Thread.hpp ****     void* arg;
  23:src/Thread.hpp ****     KThread* parent;
  24:src/Thread.hpp **** 
  25:src/Thread.hpp ****     bool finished;
  26:src/Thread.hpp **** 
  27:src/Thread.hpp ****     KThread* prev;
  28:src/Thread.hpp ****     KThread* next;
  29:src/Thread.hpp ****     size_t* stackPtr;
  30:src/Thread.hpp ****     size_t* supervisorSp;
  31:src/Thread.hpp ****     time_t sleepDelta;
  32:src/Thread.hpp ****     uint8  priority;
  33:src/Thread.hpp ****     KThread* waitingThread;
  34:src/Thread.hpp ****     KThread* stopperThread;
  35:src/Thread.hpp **** public:
GAS LISTING /tmp/cce0gqhK.s 			page 14


  36:src/Thread.hpp ****     void* stackBase;
  37:src/Thread.hpp ****     Context threadContext;
  38:src/Thread.hpp ****     KThread();
  39:src/Thread.hpp ****     void copyContext(size_t* ctx);
  40:src/Thread.hpp ****     void init();
  41:src/Thread.hpp ****     size_t* getStackTop() { return stackPtr; }
  42:src/Thread.hpp ****     size_t* getContext();
  43:src/Thread.hpp ****     KThread* getParent() { return parent; }
  44:src/Thread.hpp ****     KThread* getNextInQueue();
  45:src/Thread.hpp ****     KThread* getPrevInQueue();
  46:src/Thread.hpp ****     void setNextInQueue(KThread* next);
  47:src/Thread.hpp ****     void setPrevInQueue(KThread* prev);
  48:src/Thread.hpp ****     void setNextAndPrevInQueue(KThread* next, KThread* prev);
  49:src/Thread.hpp ****     void setup(KThread* parentThread, size_t* stack_top);
  50:src/Thread.hpp ****     void setBody(void (*b)(void*), void* a) { body = b; arg = a; }
 444              		.loc 2 50 47
 445              		.loc 2 50 52 is_stmt 0
 446 0208 23B06901 		sd	s6,0(s3)
 447              		.loc 2 50 57 is_stmt 1
 448              		.loc 2 50 61 is_stmt 0
 449 020c 23B45901 		sd	s5,8(s3)
 450              	.LVL42:
 451              	.LBE33:
 452              	.LBE32:
  93:src/ABI.cpp   ****             t->stackBase = reinterpret_cast<void*>(stackInfo[15]);
 453              		.loc 1 93 13 is_stmt 1
  93:src/ABI.cpp   ****             t->stackBase = reinterpret_cast<void*>(stackInfo[15]);
 454              		.loc 1 93 21 is_stmt 0
 455 0210 13860B00 		mv	a2,s7
 456 0214 93850400 		mv	a1,s1
 457 0218 13850900 		mv	a0,s3
 458 021c 97000000 		call	_ZN7KThread5setupEPS_Pm@plt
 458      E7800000 
 459              	.LVL43:
  94:src/ABI.cpp   **** 
 460              		.loc 1 94 13 is_stmt 1
  94:src/ABI.cpp   **** 
 461              		.loc 1 94 64 is_stmt 0
 462 0224 83378907 		ld	a5,120(s2)
  94:src/ABI.cpp   **** 
 463              		.loc 1 94 26
 464 0228 23B0F906 		sd	a5,96(s3)
  96:src/ABI.cpp   ****             Scheduler::Put(t);
 465              		.loc 1 96 13 is_stmt 1
  96:src/ABI.cpp   ****             Scheduler::Put(t);
 466              		.loc 1 96 21 is_stmt 0
 467 022c 23303A01 		sd	s3,0(s4)
  97:src/ABI.cpp   ****             if (current) current->threadContext.x[10] = 0;
 468              		.loc 1 97 13 is_stmt 1
  97:src/ABI.cpp   ****             if (current) current->threadContext.x[10] = 0;
 469              		.loc 1 97 27 is_stmt 0
 470 0230 13850900 		mv	a0,s3
 471 0234 97000000 		call	_ZN9Scheduler3PutEP7KThread@plt
 471      E7800000 
 472              	.LVL44:
  98:src/ABI.cpp   ****             __asm__ volatile("li a0, 0");
 473              		.loc 1 98 13 is_stmt 1
GAS LISTING /tmp/cce0gqhK.s 			page 15


 474 023c 63840400 		beqz	s1,.L30
  98:src/ABI.cpp   ****             __asm__ volatile("li a0, 0");
 475              		.loc 1 98 26 discriminator 1
  98:src/ABI.cpp   ****             __asm__ volatile("li a0, 0");
 476              		.loc 1 98 55 is_stmt 0 discriminator 1
 477 0240 23BC040A 		sd	zero,184(s1)
 478              	.L30:
  99:src/ABI.cpp   ****             break;
 479              		.loc 1 99 13 is_stmt 1
  99:src/ABI.cpp   ****             break;
 480              		.loc 1 99 41 is_stmt 0
 481              	#APP
 482              	# 99 "src/ABI.cpp" 1
 100:src/ABI.cpp   ****         }
 483              		li a0, 0
 484              	# 0 "" 2
 485              		.loc 1 100 13 is_stmt 1
 486              	#NO_APP
 487 0248 6FF09FF0 		j	.L1
 488              	.LVL45:
 489              	.L43:
  84:src/ABI.cpp   ****                     current->threadContext.x[10] = (size_t)-1;
 490              		.loc 1 84 17
 491 024c E38204F0 		beqz	s1,.L1
  85:src/ABI.cpp   ****                     restoreContext(current->getContext());
 492              		.loc 1 85 21
  85:src/ABI.cpp   ****                     restoreContext(current->getContext());
 493              		.loc 1 85 50 is_stmt 0
 494 0250 9307F0FF 		li	a5,-1
 495 0254 23BCF40A 		sd	a5,184(s1)
  86:src/ABI.cpp   ****                 }
 496              		.loc 1 86 21 is_stmt 1
  86:src/ABI.cpp   ****                 }
 497              		.loc 1 86 35 is_stmt 0
 498 0258 13850400 		mv	a0,s1
 499              	.LVL46:
 500 025c 97000000 		call	_ZN7KThread10getContextEv@plt
 500      E7800000 
 501              	.LVL47:
 502 0264 97000000 		call	restoreContext@plt
 502      E7800000 
 503              	.LVL48:
  88:src/ABI.cpp   ****             }
 504              		.loc 1 88 17 is_stmt 1
 505 026c 6FF05FEE 		j	.L1
 506              	.LVL49:
 507              	.L23:
 508              	.LBE31:
 102:src/ABI.cpp   ****             Scheduler::ThreadExit(current);
 509              		.loc 1 102 9
 102:src/ABI.cpp   ****             Scheduler::ThreadExit(current);
 510              		.loc 1 102 36
 103:src/ABI.cpp   ****             break;
 511              		.loc 1 103 13
 103:src/ABI.cpp   ****             break;
 512              		.loc 1 103 34 is_stmt 0
 513 0270 13850400 		mv	a0,s1
GAS LISTING /tmp/cce0gqhK.s 			page 16


 514 0274 97000000 		call	_ZN9Scheduler10ThreadExitEP7KThread@plt
 514      E7800000 
 515              	.LVL50:
 104:src/ABI.cpp   ****         }
 516              		.loc 1 104 13 is_stmt 1
 517 027c 6FF05FED 		j	.L1
 518              	.LVL51:
 519              	.L22:
 106:src/ABI.cpp   ****             if (!Scheduler::yieldCurrent(current))
 520              		.loc 1 106 9
 106:src/ABI.cpp   ****             if (!Scheduler::yieldCurrent(current))
 521              		.loc 1 106 37
 107:src/ABI.cpp   ****                 __asm__ volatile("li a0, 0");
 522              		.loc 1 107 13
 107:src/ABI.cpp   ****                 __asm__ volatile("li a0, 0");
 523              		.loc 1 107 41 is_stmt 0
 524 0280 13850400 		mv	a0,s1
 525 0284 97000000 		call	_ZN9Scheduler12yieldCurrentEP7KThread@plt
 525      E7800000 
 526              	.LVL52:
 107:src/ABI.cpp   ****                 __asm__ volatile("li a0, 0");
 527              		.loc 1 107 13
 528 028c E31205EC 		bnez	a0,.L1
 108:src/ABI.cpp   ****             break;
 529              		.loc 1 108 17 is_stmt 1
 108:src/ABI.cpp   ****             break;
 530              		.loc 1 108 45 is_stmt 0
 531              	#APP
 532              	# 108 "src/ABI.cpp" 1
 533              		li a0, 0
 534              	# 0 "" 2
 535              	#NO_APP
 536 0294 6FF0DFEB 		j	.L1
 537              	.LVL53:
 538              	.L21:
 111:src/ABI.cpp   ****             sem_t* handle = reinterpret_cast<sem_t*>(stackInfo[11]);
 539              		.loc 1 111 9 is_stmt 1
 111:src/ABI.cpp   ****             sem_t* handle = reinterpret_cast<sem_t*>(stackInfo[11]);
 540              		.loc 1 111 33
 541              	.LBB34:
 112:src/ABI.cpp   ****             unsigned initialValue = (unsigned)stackInfo[12];
 542              		.loc 1 112 13
 112:src/ABI.cpp   ****             unsigned initialValue = (unsigned)stackInfo[12];
 543              		.loc 1 112 66 is_stmt 0
 544 0298 83398905 		ld	s3,88(s2)
 545              	.LVL54:
 113:src/ABI.cpp   ****             void* mem = MemoryAllocator::GetInstance().AllocateFragment(sizeof(KSemaphore));
 546              		.loc 1 113 13 is_stmt 1
 113:src/ABI.cpp   ****             void* mem = MemoryAllocator::GetInstance().AllocateFragment(sizeof(KSemaphore));
 547              		.loc 1 113 22 is_stmt 0
 548 029c 03290906 		lw	s2,96(s2)
 549              	.LVL55:
 114:src/ABI.cpp   ****             if (!mem) { __asm__ volatile("li a0, -1"); break; }
 550              		.loc 1 114 13 is_stmt 1
 114:src/ABI.cpp   ****             if (!mem) { __asm__ volatile("li a0, -1"); break; }
 551              		.loc 1 114 54 is_stmt 0
 552 02a0 97000000 		call	_ZN15MemoryAllocator11GetInstanceEv@plt
GAS LISTING /tmp/cce0gqhK.s 			page 17


 552      E7800000 
 553              	.LVL56:
 114:src/ABI.cpp   ****             if (!mem) { __asm__ volatile("li a0, -1"); break; }
 554              		.loc 1 114 72
 555 02a8 93058001 		li	a1,24
 556 02ac 97000000 		call	_ZN15MemoryAllocator16AllocateFragmentEm@plt
 556      E7800000 
 557              	.LVL57:
 558 02b4 93040500 		mv	s1,a0
 559              	.LVL58:
 115:src/ABI.cpp   ****             KSemaphore* semaphore = reinterpret_cast<KSemaphore*>(mem);
 560              		.loc 1 115 13 is_stmt 1
 561 02b8 630E0500 		beqz	a0,.L44
 116:src/ABI.cpp   ****             semaphore->init(initialValue);
 562              		.loc 1 116 13
 563              	.LVL59:
 117:src/ABI.cpp   ****             *handle = reinterpret_cast<sem_t>(semaphore);
 564              		.loc 1 117 13
 117:src/ABI.cpp   ****             *handle = reinterpret_cast<sem_t>(semaphore);
 565              		.loc 1 117 28 is_stmt 0
 566 02bc 93050900 		mv	a1,s2
 567 02c0 97000000 		call	_ZN10KSemaphore4initEj@plt
 567      E7800000 
 568              	.LVL60:
 118:src/ABI.cpp   ****             __asm__ volatile("li a0, 0");
 569              		.loc 1 118 13 is_stmt 1
 118:src/ABI.cpp   ****             __asm__ volatile("li a0, 0");
 570              		.loc 1 118 21 is_stmt 0
 571 02c8 23B09900 		sd	s1,0(s3)
 119:src/ABI.cpp   ****             break;
 572              		.loc 1 119 13 is_stmt 1
 119:src/ABI.cpp   ****             break;
 573              		.loc 1 119 41 is_stmt 0
 574              	#APP
 575              	# 119 "src/ABI.cpp" 1
 120:src/ABI.cpp   ****         }
 576              		li a0, 0
 577              	# 0 "" 2
 578              		.loc 1 120 13 is_stmt 1
 579              	#NO_APP
 580 02d0 6FF01FE8 		j	.L1
 581              	.LVL61:
 582              	.L44:
 115:src/ABI.cpp   ****             KSemaphore* semaphore = reinterpret_cast<KSemaphore*>(mem);
 583              		.loc 1 115 25 discriminator 1
 115:src/ABI.cpp   ****             KSemaphore* semaphore = reinterpret_cast<KSemaphore*>(mem);
 584              		.loc 1 115 54 is_stmt 0 discriminator 1
 585              	#APP
 586              	# 115 "src/ABI.cpp" 1
 115:src/ABI.cpp   ****             KSemaphore* semaphore = reinterpret_cast<KSemaphore*>(mem);
 587              		li a0, -1
 588              	# 0 "" 2
 589              		.loc 1 115 56 is_stmt 1 discriminator 1
 590              	#NO_APP
 591 02d8 6FF09FE7 		j	.L1
 592              	.LVL62:
 593              	.L20:
GAS LISTING /tmp/cce0gqhK.s 			page 18


 594              	.LBE34:
 122:src/ABI.cpp   ****             KSemaphore* semaphore = reinterpret_cast<KSemaphore*>(stackInfo[11]);
 595              		.loc 1 122 9
 122:src/ABI.cpp   ****             KSemaphore* semaphore = reinterpret_cast<KSemaphore*>(stackInfo[11]);
 596              		.loc 1 122 34
 597              	.LBB35:
 123:src/ABI.cpp   ****             semaphore->close();
 598              		.loc 1 123 13
 123:src/ABI.cpp   ****             semaphore->close();
 599              		.loc 1 123 79 is_stmt 0
 600 02dc 83348905 		ld	s1,88(s2)
 601              	.LVL63:
 124:src/ABI.cpp   ****             MemoryAllocator::GetInstance().FreeFragment(semaphore);
 602              		.loc 1 124 13 is_stmt 1
 124:src/ABI.cpp   ****             MemoryAllocator::GetInstance().FreeFragment(semaphore);
 603              		.loc 1 124 29 is_stmt 0
 604 02e0 13850400 		mv	a0,s1
 605              	.LVL64:
 606 02e4 97000000 		call	_ZN10KSemaphore5closeEv@plt
 606      E7800000 
 607              	.LVL65:
 125:src/ABI.cpp   ****             __asm__ volatile("li a0, 0");
 608              		.loc 1 125 13 is_stmt 1
 125:src/ABI.cpp   ****             __asm__ volatile("li a0, 0");
 609              		.loc 1 125 42 is_stmt 0
 610 02ec 97000000 		call	_ZN15MemoryAllocator11GetInstanceEv@plt
 610      E7800000 
 611              	.LVL66:
 125:src/ABI.cpp   ****             __asm__ volatile("li a0, 0");
 612              		.loc 1 125 56
 613 02f4 93850400 		mv	a1,s1
 614 02f8 97000000 		call	_ZN15MemoryAllocator12FreeFragmentEPv@plt
 614      E7800000 
 615              	.LVL67:
 126:src/ABI.cpp   ****             break;
 616              		.loc 1 126 13 is_stmt 1
 126:src/ABI.cpp   ****             break;
 617              		.loc 1 126 41 is_stmt 0
 618              	#APP
 619              	# 126 "src/ABI.cpp" 1
 127:src/ABI.cpp   ****         }
 620              		li a0, 0
 621              	# 0 "" 2
 622              		.loc 1 127 13 is_stmt 1
 623              	#NO_APP
 624 0304 6FF0DFE4 		j	.L1
 625              	.LVL68:
 626              	.L19:
 627              	.LBE35:
 129:src/ABI.cpp   ****             KSemaphore* semaphore = reinterpret_cast<KSemaphore*>(stackInfo[11]);
 628              		.loc 1 129 9
 129:src/ABI.cpp   ****             KSemaphore* semaphore = reinterpret_cast<KSemaphore*>(stackInfo[11]);
 629              		.loc 1 129 33
 630              	.LBB36:
 130:src/ABI.cpp   ****             int result = semaphore->wait(current);
 631              		.loc 1 130 13
 131:src/ABI.cpp   ****             if (result <= 0) { __asm__ volatile("mv a0, %0" :: "r"((size_t)result)); break; }
GAS LISTING /tmp/cce0gqhK.s 			page 19


 632              		.loc 1 131 13
 131:src/ABI.cpp   ****             if (result <= 0) { __asm__ volatile("mv a0, %0" :: "r"((size_t)result)); break; }
 633              		.loc 1 131 41 is_stmt 0
 634 0308 93850400 		mv	a1,s1
 635 030c 03358905 		ld	a0,88(s2)
 636 0310 97000000 		call	_ZN10KSemaphore4waitEP7KThread@plt
 636      E7800000 
 637              	.LVL69:
 132:src/ABI.cpp   ****             Scheduler::blockCurrent(current);
 638              		.loc 1 132 13 is_stmt 1
 639 0318 6346A000 		bgtz	a0,.L32
 132:src/ABI.cpp   ****             Scheduler::blockCurrent(current);
 640              		.loc 1 132 32 discriminator 1
 132:src/ABI.cpp   ****             Scheduler::blockCurrent(current);
 641              		.loc 1 132 84 is_stmt 0 discriminator 1
 642              	#APP
 643              	# 132 "src/ABI.cpp" 1
 132:src/ABI.cpp   ****             Scheduler::blockCurrent(current);
 644              		mv a0, a0
 645              	# 0 "" 2
 646              		.loc 1 132 86 is_stmt 1 discriminator 1
 647              	#NO_APP
 648 0320 6FF01FE3 		j	.L1
 649              	.L32:
 133:src/ABI.cpp   ****             break;
 650              		.loc 1 133 13
 133:src/ABI.cpp   ****             break;
 651              		.loc 1 133 36 is_stmt 0
 652 0324 13850400 		mv	a0,s1
 653              	.LVL70:
 654 0328 97000000 		call	_ZN9Scheduler12blockCurrentEP7KThread@plt
 654      E7800000 
 655              	.LVL71:
 134:src/ABI.cpp   ****         }
 656              		.loc 1 134 13 is_stmt 1
 657 0330 6FF01FE2 		j	.L1
 658              	.LVL72:
 659              	.L18:
 660              	.LBE36:
 136:src/ABI.cpp   ****             KSemaphore* semaphore = reinterpret_cast<KSemaphore*>(stackInfo[11]);
 661              		.loc 1 136 9
 136:src/ABI.cpp   ****             KSemaphore* semaphore = reinterpret_cast<KSemaphore*>(stackInfo[11]);
 662              		.loc 1 136 35
 663              	.LBB37:
 137:src/ABI.cpp   ****             semaphore->signal();
 664              		.loc 1 137 13
 138:src/ABI.cpp   ****             __asm__ volatile("li a0, 0");
 665              		.loc 1 138 13
 138:src/ABI.cpp   ****             __asm__ volatile("li a0, 0");
 666              		.loc 1 138 30 is_stmt 0
 667 0334 03358905 		ld	a0,88(s2)
 668 0338 97000000 		call	_ZN10KSemaphore6signalEv@plt
 668      E7800000 
 669              	.LVL73:
 139:src/ABI.cpp   ****             break;
 670              		.loc 1 139 13 is_stmt 1
 139:src/ABI.cpp   ****             break;
GAS LISTING /tmp/cce0gqhK.s 			page 20


 671              		.loc 1 139 41 is_stmt 0
 672              	#APP
 673              	# 139 "src/ABI.cpp" 1
 140:src/ABI.cpp   ****         }
 674              		li a0, 0
 675              	# 0 "" 2
 676              		.loc 1 140 13 is_stmt 1
 677              	#NO_APP
 678 0344 6FF0DFE0 		j	.L1
 679              	.LVL74:
 680              	.L17:
 681              	.LBE37:
 142:src/ABI.cpp   ****             KSemaphore* semaphore = reinterpret_cast<KSemaphore*>(stackInfo[11]);
 682              		.loc 1 142 9
 142:src/ABI.cpp   ****             KSemaphore* semaphore = reinterpret_cast<KSemaphore*>(stackInfo[11]);
 683              		.loc 1 142 35
 684              	.LBB38:
 143:src/ABI.cpp   ****             unsigned n = (unsigned)stackInfo[12];
 685              		.loc 1 143 13
 144:src/ABI.cpp   ****             int result = semaphore->waitN(current, n);
 686              		.loc 1 144 13
 145:src/ABI.cpp   ****             if (result <= 0) { __asm__ volatile("mv a0, %0" :: "r"((size_t)result)); break; }
 687              		.loc 1 145 13
 145:src/ABI.cpp   ****             if (result <= 0) { __asm__ volatile("mv a0, %0" :: "r"((size_t)result)); break; }
 688              		.loc 1 145 42 is_stmt 0
 689 0348 03260906 		lw	a2,96(s2)
 690 034c 93850400 		mv	a1,s1
 691 0350 03358905 		ld	a0,88(s2)
 692 0354 97000000 		call	_ZN10KSemaphore5waitNEP7KThreadj@plt
 692      E7800000 
 693              	.LVL75:
 146:src/ABI.cpp   ****             Scheduler::blockCurrent(current);
 694              		.loc 1 146 13 is_stmt 1
 695 035c 6346A000 		bgtz	a0,.L33
 146:src/ABI.cpp   ****             Scheduler::blockCurrent(current);
 696              		.loc 1 146 32 discriminator 1
 146:src/ABI.cpp   ****             Scheduler::blockCurrent(current);
 697              		.loc 1 146 84 is_stmt 0 discriminator 1
 698              	#APP
 699              	# 146 "src/ABI.cpp" 1
 146:src/ABI.cpp   ****             Scheduler::blockCurrent(current);
 700              		mv a0, a0
 701              	# 0 "" 2
 702              		.loc 1 146 86 is_stmt 1 discriminator 1
 703              	#NO_APP
 704 0364 6FF0DFDE 		j	.L1
 705              	.L33:
 147:src/ABI.cpp   ****             break;
 706              		.loc 1 147 13
 147:src/ABI.cpp   ****             break;
 707              		.loc 1 147 36 is_stmt 0
 708 0368 13850400 		mv	a0,s1
 709              	.LVL76:
 710 036c 97000000 		call	_ZN9Scheduler12blockCurrentEP7KThread@plt
 710      E7800000 
 711              	.LVL77:
 148:src/ABI.cpp   ****         }
GAS LISTING /tmp/cce0gqhK.s 			page 21


 712              		.loc 1 148 13 is_stmt 1
 713 0374 6FF0DFDD 		j	.L1
 714              	.LVL78:
 715              	.L16:
 716              	.LBE38:
 150:src/ABI.cpp   ****             KSemaphore* semaphore = reinterpret_cast<KSemaphore*>(stackInfo[11]);
 717              		.loc 1 150 9
 150:src/ABI.cpp   ****             KSemaphore* semaphore = reinterpret_cast<KSemaphore*>(stackInfo[11]);
 718              		.loc 1 150 37
 719              	.LBB39:
 151:src/ABI.cpp   ****             unsigned n = (unsigned)stackInfo[12];
 720              		.loc 1 151 13
 152:src/ABI.cpp   ****             semaphore->signalN(n);
 721              		.loc 1 152 13
 153:src/ABI.cpp   ****             __asm__ volatile("li a0, 0");
 722              		.loc 1 153 13
 153:src/ABI.cpp   ****             __asm__ volatile("li a0, 0");
 723              		.loc 1 153 31 is_stmt 0
 724 0378 83250906 		lw	a1,96(s2)
 725 037c 03358905 		ld	a0,88(s2)
 726 0380 97000000 		call	_ZN10KSemaphore7signalNEj@plt
 726      E7800000 
 727              	.LVL79:
 154:src/ABI.cpp   ****             break;
 728              		.loc 1 154 13 is_stmt 1
 154:src/ABI.cpp   ****             break;
 729              		.loc 1 154 41 is_stmt 0
 730              	#APP
 731              	# 154 "src/ABI.cpp" 1
 155:src/ABI.cpp   ****         }
 732              		li a0, 0
 733              	# 0 "" 2
 734              		.loc 1 155 13 is_stmt 1
 735              	#NO_APP
 736 038c 6FF05FDC 		j	.L1
 737              	.LVL80:
 738              	.L15:
 739              	.LBE39:
 157:src/ABI.cpp   ****             time_t dur = (time_t)stackInfo[11];
 740              		.loc 1 157 9
 157:src/ABI.cpp   ****             time_t dur = (time_t)stackInfo[11];
 741              		.loc 1 157 30
 742              	.LBB40:
 158:src/ABI.cpp   ****             if (current) current->threadContext.x[10] = 0;
 743              		.loc 1 158 13
 158:src/ABI.cpp   ****             if (current) current->threadContext.x[10] = 0;
 744              		.loc 1 158 20 is_stmt 0
 745 0390 83358905 		ld	a1,88(s2)
 746              	.LVL81:
 159:src/ABI.cpp   ****             if (dur == 0) { __asm__ volatile("li a0, 0"); break; }
 747              		.loc 1 159 13 is_stmt 1
 748 0394 63840400 		beqz	s1,.L34
 159:src/ABI.cpp   ****             if (dur == 0) { __asm__ volatile("li a0, 0"); break; }
 749              		.loc 1 159 26 discriminator 1
 159:src/ABI.cpp   ****             if (dur == 0) { __asm__ volatile("li a0, 0"); break; }
 750              		.loc 1 159 55 is_stmt 0 discriminator 1
 751 0398 23BC040A 		sd	zero,184(s1)
GAS LISTING /tmp/cce0gqhK.s 			page 22


 752              	.LVL82:
 753              	.L34:
 160:src/ABI.cpp   ****             Scheduler::sleep(current, dur);
 754              		.loc 1 160 13 is_stmt 1
 755 039c 63960500 		bnez	a1,.L35
 160:src/ABI.cpp   ****             Scheduler::sleep(current, dur);
 756              		.loc 1 160 29 discriminator 1
 160:src/ABI.cpp   ****             Scheduler::sleep(current, dur);
 757              		.loc 1 160 57 is_stmt 0 discriminator 1
 758              	#APP
 759              	# 160 "src/ABI.cpp" 1
 160:src/ABI.cpp   ****             Scheduler::sleep(current, dur);
 760              		li a0, 0
 761              	# 0 "" 2
 762              		.loc 1 160 59 is_stmt 1 discriminator 1
 763              	#NO_APP
 764 03a4 6FF0DFDA 		j	.L1
 765              	.L35:
 161:src/ABI.cpp   ****             Scheduler::blockCurrent(current);
 766              		.loc 1 161 13
 161:src/ABI.cpp   ****             Scheduler::blockCurrent(current);
 767              		.loc 1 161 29 is_stmt 0
 768 03a8 13850400 		mv	a0,s1
 769 03ac 97000000 		call	_ZN9Scheduler5sleepEP7KThreadm@plt
 769      E7800000 
 770              	.LVL83:
 162:src/ABI.cpp   ****             break;
 771              		.loc 1 162 13 is_stmt 1
 162:src/ABI.cpp   ****             break;
 772              		.loc 1 162 36 is_stmt 0
 773 03b4 13850400 		mv	a0,s1
 774 03b8 97000000 		call	_ZN9Scheduler12blockCurrentEP7KThread@plt
 774      E7800000 
 775              	.LVL84:
 163:src/ABI.cpp   ****         }
 776              		.loc 1 163 13 is_stmt 1
 777 03c0 6FF01FD9 		j	.L1
 778              	.LVL85:
 779              	.L14:
 780              	.LBE40:
 165:src/ABI.cpp   ****             int result = Konsole::getcKernel(current);
 781              		.loc 1 165 9
 165:src/ABI.cpp   ****             int result = Konsole::getcKernel(current);
 782              		.loc 1 165 29
 783              	.LBB41:
 166:src/ABI.cpp   ****             if (result == -2)
 784              		.loc 1 166 13
 166:src/ABI.cpp   ****             if (result == -2)
 785              		.loc 1 166 45 is_stmt 0
 786 03c4 13850400 		mv	a0,s1
 787 03c8 97000000 		call	_ZN7Konsole10getcKernelEP7KThread@plt
 787      E7800000 
 788              	.LVL86:
 167:src/ABI.cpp   ****                 Scheduler::blockCurrent(current);
 789              		.loc 1 167 13 is_stmt 1
 790 03d0 1307E0FF 		li	a4,-2
 791 03d4 6308E500 		beq	a0,a4,.L45
GAS LISTING /tmp/cce0gqhK.s 			page 23


 170:src/ABI.cpp   ****             break;
 792              		.loc 1 170 17
 170:src/ABI.cpp   ****             break;
 793              		.loc 1 170 53 is_stmt 0
 794 03d8 9377F50F 		andi	a5,a0,0xff
 170:src/ABI.cpp   ****             break;
 795              		.loc 1 170 84
 796              	#APP
 797              	# 170 "src/ABI.cpp" 1
 798              		mv a0, a5
 799              	# 0 "" 2
 800              	#NO_APP
 801 03e0 6FF01FD7 		j	.L1
 802              	.L45:
 168:src/ABI.cpp   ****             else
 803              		.loc 1 168 17 is_stmt 1
 168:src/ABI.cpp   ****             else
 804              		.loc 1 168 40 is_stmt 0
 805 03e4 13850400 		mv	a0,s1
 806              	.LVL87:
 807 03e8 97000000 		call	_ZN9Scheduler12blockCurrentEP7KThread@plt
 807      E7800000 
 808              	.LVL88:
 809 03f0 6FF01FD6 		j	.L1
 810              	.LVL89:
 811              	.L12:
 812              	.LBE41:
 173:src/ABI.cpp   ****             char c = (char)stackInfo[11];
 813              		.loc 1 173 9 is_stmt 1
 173:src/ABI.cpp   ****             char c = (char)stackInfo[11];
 814              		.loc 1 173 29
 815              	.LBB42:
 174:src/ABI.cpp   ****             int result = Konsole::putcKernel(current, c);
 816              		.loc 1 174 13
 175:src/ABI.cpp   ****             __asm__ volatile("mv a0, %0" :: "r"((size_t)result));
 817              		.loc 1 175 13
 175:src/ABI.cpp   ****             __asm__ volatile("mv a0, %0" :: "r"((size_t)result));
 818              		.loc 1 175 45 is_stmt 0
 819 03f4 83458905 		lbu	a1,88(s2)
 820 03f8 13850400 		mv	a0,s1
 821 03fc 97000000 		call	_ZN7Konsole10putcKernelEP7KThreadc@plt
 821      E7800000 
 822              	.LVL90:
 176:src/ABI.cpp   ****             break;
 823              		.loc 1 176 13 is_stmt 1
 176:src/ABI.cpp   ****             break;
 824              		.loc 1 176 65 is_stmt 0
 825              	#APP
 826              	# 176 "src/ABI.cpp" 1
 177:src/ABI.cpp   ****         }
 827              		mv a0, a0
 828              	# 0 "" 2
 829              		.loc 1 177 13 is_stmt 1
 830              	#NO_APP
 831 0408 6FF09FD4 		j	.L1
 832              	.LBE42:
 833              	.LBE28:
GAS LISTING /tmp/cce0gqhK.s 			page 24


 834              	.LBE44:
 835              		.cfi_endproc
 836              	.LFE3:
 838              		.align	2
 839              		.globl	start_main_thread
 841              	start_main_thread:
 842              	.LFB4:
 190:src/ABI.cpp   **** 
 191:src/ABI.cpp   **** extern "C" {
 192:src/ABI.cpp   **** int start_main_thread() {
 843              		.loc 1 192 25
 844              		.cfi_startproc
 845 040c 130101FF 		addi	sp,sp,-16
 846              		.cfi_def_cfa_offset 16
 847 0410 23341100 		sd	ra,8(sp)
 848 0414 23308100 		sd	s0,0(sp)
 849              		.cfi_offset 1, -8
 850              		.cfi_offset 8, -16
 851 0418 13040101 		addi	s0,sp,16
 852              		.cfi_def_cfa 8, 0
 193:src/ABI.cpp   ****     Scheduler::SetupStartThread();
 853              		.loc 1 193 5
 854              		.loc 1 193 32 is_stmt 0
 855 041c 97000000 		call	_ZN9Scheduler16SetupStartThreadEv@plt
 855      E7800000 
 856              	.LVL91:
 194:src/ABI.cpp   ****     Konsole::init();
 857              		.loc 1 194 5 is_stmt 1
 858              		.loc 1 194 18 is_stmt 0
 859 0424 97000000 		call	_ZN7Konsole4initEv@plt
 859      E7800000 
 860              	.LVL92:
 195:src/ABI.cpp   ****     return 0;
 861              		.loc 1 195 5 is_stmt 1
 196:src/ABI.cpp   **** }
 862              		.loc 1 196 1 is_stmt 0
 863 042c 13050000 		li	a0,0
 864 0430 83308100 		ld	ra,8(sp)
 865              		.cfi_restore 1
 866 0434 03340100 		ld	s0,0(sp)
 867              		.cfi_restore 8
 868              		.cfi_def_cfa 2, 16
 869 0438 13010101 		addi	sp,sp,16
 870              		.cfi_def_cfa_offset 0
 871 043c 67800000 		jr	ra
 872              		.cfi_endproc
 873              	.LFE4:
 875              	.Letext0:
 876              		.file 3 "src/./../lib/hw.h"
 877              		.file 4 "src/./MemoryAllocator.hpp"
 878              		.file 5 "src/syscall_c.h"
 879              		.file 6 "src/Scheduler.hpp"
 880              		.file 7 "src/Semaphore.hpp"
 881              		.file 8 "src/Konsole.hpp"
 882              		.file 9 "/usr/riscv64-linux-gnu/include/c++/9/cstdint"
 883              		.file 10 "/usr/riscv64-linux-gnu/include/c++/9/riscv64-linux-gnu/bits/c++config.h"
 884              		.file 11 "/usr/lib/gcc-cross/riscv64-linux-gnu/9/include/stdint-gcc.h"
GAS LISTING /tmp/cce0gqhK.s 			page 25


 885              		.file 12 "src/SyscallCodes.hpp"
 886              		.file 13 "<built-in>"
GAS LISTING /tmp/cce0gqhK.s 			page 26


DEFINED SYMBOLS
                            *ABS*:0000000000000000 ABI.cpp
     /tmp/cce0gqhK.s:9      .text:0000000000000000 HandleInterupt
     /tmp/cce0gqhK.s:13     .text:0000000000000000 .L0 
     /tmp/cce0gqhK.s:15     .text:0000000000000000 .L0 
     /tmp/cce0gqhK.s:16     .text:0000000000000004 .L0 
     /tmp/cce0gqhK.s:26     .text:0000000000000028 .L0 
     /tmp/cce0gqhK.s:27     .text:0000000000000028 .L0 
     /tmp/cce0gqhK.s:28     .text:0000000000000028 .L0 
     /tmp/cce0gqhK.s:29     .text:0000000000000028 .L0 
     /tmp/cce0gqhK.s:30     .text:0000000000000028 .L0 
     /tmp/cce0gqhK.s:31     .text:0000000000000028 .L0 
     /tmp/cce0gqhK.s:32     .text:0000000000000028 .L0 
     /tmp/cce0gqhK.s:33     .text:0000000000000028 .L0 
     /tmp/cce0gqhK.s:34     .text:0000000000000028 .L0 
     /tmp/cce0gqhK.s:36     .text:000000000000002c .L0 
     /tmp/cce0gqhK.s:39     .text:0000000000000030 .L0 
     /tmp/cce0gqhK.s:40     .text:0000000000000030 .L0 
         src/ABI.cpp:19     .text:0000000000000030 .L0 
     /tmp/cce0gqhK.s:47     .text:0000000000000034 .L0 
     /tmp/cce0gqhK.s:49     .text:0000000000000034 .L0 
     /tmp/cce0gqhK.s:52     .text:000000000000003c .L0 
     /tmp/cce0gqhK.s:53     .text:000000000000003c .L0 
     /tmp/cce0gqhK.s:59     .text:0000000000000048 .L0 
     /tmp/cce0gqhK.s:63     .text:000000000000004c .L0 
     /tmp/cce0gqhK.s:67     .text:0000000000000050 .L0 
     /tmp/cce0gqhK.s:70     .text:0000000000000058 .L0 
     /tmp/cce0gqhK.s:71     .text:0000000000000058 .L0 
     /tmp/cce0gqhK.s:75     .text:0000000000000064 .L0 
     /tmp/cce0gqhK.s:78     .text:000000000000006c .L0 
     /tmp/cce0gqhK.s:85     .text:0000000000000074 .L0 
     /tmp/cce0gqhK.s:86     .text:0000000000000074 .L0 
     /tmp/cce0gqhK.s:88     .text:0000000000000078 .L0 
     /tmp/cce0gqhK.s:90     .text:000000000000007c .L0 
     /tmp/cce0gqhK.s:91     .text:000000000000007c .L0 
         src/ABI.cpp:30     .text:000000000000007c .L0 
     /tmp/cce0gqhK.s:98     .text:0000000000000080 .L0 
         src/ABI.cpp:31     .text:0000000000000080 .L0 
     /tmp/cce0gqhK.s:104    .text:0000000000000084 .L0 
     /tmp/cce0gqhK.s:106    .text:0000000000000084 .L0 
     /tmp/cce0gqhK.s:108    .text:0000000000000088 .L0 
     /tmp/cce0gqhK.s:112    .text:0000000000000090 .L0 
     /tmp/cce0gqhK.s:113    .text:0000000000000090 .L0 
     /tmp/cce0gqhK.s:115    .text:0000000000000094 .L0 
     /tmp/cce0gqhK.s:116    .text:0000000000000094 .L0 
     /tmp/cce0gqhK.s:122    .text:0000000000000098 .L0 
     /tmp/cce0gqhK.s:127    .text:00000000000000a8 .L0 
     /tmp/cce0gqhK.s:132    .text:00000000000000b8 .L0 
     /tmp/cce0gqhK.s:133    .text:00000000000000b8 .L0 
     /tmp/cce0gqhK.s:135    .text:00000000000000bc .L0 
     /tmp/cce0gqhK.s:139    .text:00000000000000c4 .L0 
     /tmp/cce0gqhK.s:140    .text:00000000000000c4 .L0 
     /tmp/cce0gqhK.s:141    .text:00000000000000c4 .L0 
         src/ABI.cpp:59     .text:00000000000000c4 .L0 
     /tmp/cce0gqhK.s:148    .text:00000000000000c8 .L0 
     /tmp/cce0gqhK.s:150    .text:00000000000000c8 .L0 
         src/ABI.cpp:60     .text:00000000000000cc .L0 
GAS LISTING /tmp/cce0gqhK.s 			page 27


     /tmp/cce0gqhK.s:160    .text:00000000000000d0 .L0 
     /tmp/cce0gqhK.s:161    .text:00000000000000d0 .L0 
     /tmp/cce0gqhK.s:165    .text:00000000000000d4 .L0 
     /tmp/cce0gqhK.s:254    .text:0000000000000100 .L0 
     /tmp/cce0gqhK.s:255    .text:0000000000000100 .L0 
     /tmp/cce0gqhK.s:263    .text:0000000000000108 .L0 
     /tmp/cce0gqhK.s:264    .text:0000000000000108 .L0 
     /tmp/cce0gqhK.s:268    .text:0000000000000114 .L0 
     /tmp/cce0gqhK.s:270    .text:0000000000000118 .L0 
     /tmp/cce0gqhK.s:271    .text:0000000000000118 .L0 
         src/ABI.cpp:39     .text:000000000000011c .L0 
     /tmp/cce0gqhK.s:281    .text:0000000000000124 .L0 
     /tmp/cce0gqhK.s:282    .text:0000000000000124 .L0 
     /tmp/cce0gqhK.s:285    .text:000000000000012c .L0 
     /tmp/cce0gqhK.s:287    .text:0000000000000130 .L0 
     /tmp/cce0gqhK.s:288    .text:0000000000000130 .L0 
         src/ABI.cpp:45     .text:0000000000000134 .L0 
     /tmp/cce0gqhK.s:298    .text:000000000000013c .L0 
     /tmp/cce0gqhK.s:300    .text:0000000000000140 .L0 
     /tmp/cce0gqhK.s:302    .text:0000000000000144 .L0 
     /tmp/cce0gqhK.s:303    .text:0000000000000144 .L0 
     /tmp/cce0gqhK.s:308    .text:0000000000000150 .L0 
     /tmp/cce0gqhK.s:309    .text:0000000000000150 .L0 
     /tmp/cce0gqhK.s:310    .text:0000000000000154 .L0 
     /tmp/cce0gqhK.s:311    .text:0000000000000154 .L0 
     /tmp/cce0gqhK.s:313    .text:0000000000000158 .L0 
     /tmp/cce0gqhK.s:314    .text:0000000000000158 .L0 
     /tmp/cce0gqhK.s:316    .text:000000000000015c .L0 
     /tmp/cce0gqhK.s:318    .text:0000000000000160 .L0 
     /tmp/cce0gqhK.s:320    .text:0000000000000164 .L0 
     /tmp/cce0gqhK.s:322    .text:0000000000000168 .L0 
     /tmp/cce0gqhK.s:324    .text:000000000000016c .L0 
     /tmp/cce0gqhK.s:326    .text:0000000000000170 .L0 
     /tmp/cce0gqhK.s:328    .text:0000000000000174 .L0 
     /tmp/cce0gqhK.s:330    .text:0000000000000178 .L0 
     /tmp/cce0gqhK.s:334    .text:000000000000017c .L0 
     /tmp/cce0gqhK.s:337    .text:000000000000017c .L0 
     /tmp/cce0gqhK.s:341    .text:0000000000000184 .L0 
     /tmp/cce0gqhK.s:342    .text:0000000000000184 .L0 
     /tmp/cce0gqhK.s:343    .text:0000000000000184 .L0 
     /tmp/cce0gqhK.s:344    .text:0000000000000184 .L0 
     /tmp/cce0gqhK.s:352    .text:0000000000000194 .L0 
     /tmp/cce0gqhK.s:353    .text:0000000000000194 .L0 
     /tmp/cce0gqhK.s:357    .text:0000000000000198 .L0 
     /tmp/cce0gqhK.s:359    .text:0000000000000198 .L0 
     /tmp/cce0gqhK.s:360    .text:0000000000000198 .L0 
     /tmp/cce0gqhK.s:361    .text:0000000000000198 .L0 
     /tmp/cce0gqhK.s:364    .text:000000000000019c .L0 
     /tmp/cce0gqhK.s:365    .text:000000000000019c .L0 
     /tmp/cce0gqhK.s:368    .text:00000000000001a4 .L0 
     /tmp/cce0gqhK.s:372    .text:00000000000001b0 .L0 
         src/ABI.cpp:68     .text:00000000000001b0 .L0 
     /tmp/cce0gqhK.s:379    .text:00000000000001b4 .L0 
     /tmp/cce0gqhK.s:384    .text:00000000000001b8 .L0 
     /tmp/cce0gqhK.s:386    .text:00000000000001b8 .L0 
     /tmp/cce0gqhK.s:387    .text:00000000000001b8 .L0 
     /tmp/cce0gqhK.s:388    .text:00000000000001b8 .L0 
GAS LISTING /tmp/cce0gqhK.s 			page 28


     /tmp/cce0gqhK.s:391    .text:00000000000001bc .L0 
     /tmp/cce0gqhK.s:392    .text:00000000000001bc .L0 
     /tmp/cce0gqhK.s:395    .text:00000000000001c4 .L0 
     /tmp/cce0gqhK.s:399    .text:00000000000001d0 .L0 
     /tmp/cce0gqhK.s:404    .text:00000000000001d4 .L0 
     /tmp/cce0gqhK.s:406    .text:00000000000001d4 .L0 
     /tmp/cce0gqhK.s:407    .text:00000000000001d4 .L0 
     /tmp/cce0gqhK.s:408    .text:00000000000001d4 .L0 
     /tmp/cce0gqhK.s:411    .text:00000000000001d8 .L0 
     /tmp/cce0gqhK.s:412    .text:00000000000001d8 .L0 
     /tmp/cce0gqhK.s:415    .text:00000000000001dc .L0 
     /tmp/cce0gqhK.s:416    .text:00000000000001dc .L0 
     /tmp/cce0gqhK.s:419    .text:00000000000001e0 .L0 
     /tmp/cce0gqhK.s:420    .text:00000000000001e0 .L0 
     /tmp/cce0gqhK.s:423    .text:00000000000001e4 .L0 
     /tmp/cce0gqhK.s:424    .text:00000000000001e4 .L0 
     /tmp/cce0gqhK.s:427    .text:00000000000001ec .L0 
     /tmp/cce0gqhK.s:433    .text:00000000000001fc .L0 
     /tmp/cce0gqhK.s:436    .text:0000000000000200 .L0 
     /tmp/cce0gqhK.s:437    .text:0000000000000200 .L0 
     /tmp/cce0gqhK.s:438    .text:0000000000000200 .L0 
     /tmp/cce0gqhK.s:444    .text:0000000000000208 .L0 
     /tmp/cce0gqhK.s:445    .text:0000000000000208 .L0 
     /tmp/cce0gqhK.s:446    .text:0000000000000208 .L0 
     /tmp/cce0gqhK.s:448    .text:000000000000020c .L0 
     /tmp/cce0gqhK.s:449    .text:000000000000020c .L0 
     /tmp/cce0gqhK.s:454    .text:0000000000000210 .L0 
     /tmp/cce0gqhK.s:455    .text:0000000000000210 .L0 
     /tmp/cce0gqhK.s:461    .text:0000000000000224 .L0 
     /tmp/cce0gqhK.s:462    .text:0000000000000224 .L0 
     /tmp/cce0gqhK.s:464    .text:0000000000000228 .L0 
     /tmp/cce0gqhK.s:466    .text:000000000000022c .L0 
     /tmp/cce0gqhK.s:467    .text:000000000000022c .L0 
     /tmp/cce0gqhK.s:469    .text:0000000000000230 .L0 
     /tmp/cce0gqhK.s:470    .text:0000000000000230 .L0 
     /tmp/cce0gqhK.s:474    .text:000000000000023c .L0 
     /tmp/cce0gqhK.s:476    .text:0000000000000240 .L0 
     /tmp/cce0gqhK.s:477    .text:0000000000000240 .L0 
     /tmp/cce0gqhK.s:480    .text:0000000000000244 .L0 
         src/ABI.cpp:99     .text:0000000000000244 .L0 
     /tmp/cce0gqhK.s:487    .text:0000000000000248 .L0 
     /tmp/cce0gqhK.s:491    .text:000000000000024c .L0 
     /tmp/cce0gqhK.s:493    .text:0000000000000250 .L0 
     /tmp/cce0gqhK.s:494    .text:0000000000000250 .L0 
     /tmp/cce0gqhK.s:497    .text:0000000000000258 .L0 
     /tmp/cce0gqhK.s:498    .text:0000000000000258 .L0 
     /tmp/cce0gqhK.s:505    .text:000000000000026c .L0 
     /tmp/cce0gqhK.s:510    .text:0000000000000270 .L0 
     /tmp/cce0gqhK.s:511    .text:0000000000000270 .L0 
     /tmp/cce0gqhK.s:512    .text:0000000000000270 .L0 
     /tmp/cce0gqhK.s:513    .text:0000000000000270 .L0 
     /tmp/cce0gqhK.s:517    .text:000000000000027c .L0 
     /tmp/cce0gqhK.s:521    .text:0000000000000280 .L0 
     /tmp/cce0gqhK.s:522    .text:0000000000000280 .L0 
     /tmp/cce0gqhK.s:523    .text:0000000000000280 .L0 
     /tmp/cce0gqhK.s:524    .text:0000000000000280 .L0 
     /tmp/cce0gqhK.s:528    .text:000000000000028c .L0 
GAS LISTING /tmp/cce0gqhK.s 			page 29


     /tmp/cce0gqhK.s:530    .text:0000000000000290 .L0 
         src/ABI.cpp:108    .text:0000000000000290 .L0 
     /tmp/cce0gqhK.s:540    .text:0000000000000298 .L0 
     /tmp/cce0gqhK.s:542    .text:0000000000000298 .L0 
     /tmp/cce0gqhK.s:543    .text:0000000000000298 .L0 
     /tmp/cce0gqhK.s:544    .text:0000000000000298 .L0 
     /tmp/cce0gqhK.s:547    .text:000000000000029c .L0 
     /tmp/cce0gqhK.s:548    .text:000000000000029c .L0 
     /tmp/cce0gqhK.s:551    .text:00000000000002a0 .L0 
     /tmp/cce0gqhK.s:552    .text:00000000000002a0 .L0 
     /tmp/cce0gqhK.s:555    .text:00000000000002a8 .L0 
     /tmp/cce0gqhK.s:561    .text:00000000000002b8 .L0 
     /tmp/cce0gqhK.s:564    .text:00000000000002bc .L0 
     /tmp/cce0gqhK.s:565    .text:00000000000002bc .L0 
     /tmp/cce0gqhK.s:566    .text:00000000000002bc .L0 
     /tmp/cce0gqhK.s:570    .text:00000000000002c8 .L0 
     /tmp/cce0gqhK.s:571    .text:00000000000002c8 .L0 
     /tmp/cce0gqhK.s:573    .text:00000000000002cc .L0 
         src/ABI.cpp:119    .text:00000000000002cc .L0 
     /tmp/cce0gqhK.s:580    .text:00000000000002d0 .L0 
     /tmp/cce0gqhK.s:584    .text:00000000000002d4 .L0 
         src/ABI.cpp:115    .text:00000000000002d4 .L0 
     /tmp/cce0gqhK.s:591    .text:00000000000002d8 .L0 
     /tmp/cce0gqhK.s:596    .text:00000000000002dc .L0 
     /tmp/cce0gqhK.s:598    .text:00000000000002dc .L0 
     /tmp/cce0gqhK.s:599    .text:00000000000002dc .L0 
     /tmp/cce0gqhK.s:600    .text:00000000000002dc .L0 
     /tmp/cce0gqhK.s:603    .text:00000000000002e0 .L0 
     /tmp/cce0gqhK.s:604    .text:00000000000002e0 .L0 
     /tmp/cce0gqhK.s:609    .text:00000000000002ec .L0 
     /tmp/cce0gqhK.s:610    .text:00000000000002ec .L0 
     /tmp/cce0gqhK.s:613    .text:00000000000002f4 .L0 
     /tmp/cce0gqhK.s:617    .text:0000000000000300 .L0 
         src/ABI.cpp:126    .text:0000000000000300 .L0 
     /tmp/cce0gqhK.s:624    .text:0000000000000304 .L0 
     /tmp/cce0gqhK.s:629    .text:0000000000000308 .L0 
     /tmp/cce0gqhK.s:631    .text:0000000000000308 .L0 
     /tmp/cce0gqhK.s:632    .text:0000000000000308 .L0 
     /tmp/cce0gqhK.s:633    .text:0000000000000308 .L0 
     /tmp/cce0gqhK.s:634    .text:0000000000000308 .L0 
     /tmp/cce0gqhK.s:639    .text:0000000000000318 .L0 
     /tmp/cce0gqhK.s:641    .text:000000000000031c .L0 
         src/ABI.cpp:132    .text:000000000000031c .L0 
     /tmp/cce0gqhK.s:648    .text:0000000000000320 .L0 
     /tmp/cce0gqhK.s:651    .text:0000000000000324 .L0 
     /tmp/cce0gqhK.s:652    .text:0000000000000324 .L0 
     /tmp/cce0gqhK.s:657    .text:0000000000000330 .L0 
     /tmp/cce0gqhK.s:662    .text:0000000000000334 .L0 
     /tmp/cce0gqhK.s:664    .text:0000000000000334 .L0 
     /tmp/cce0gqhK.s:665    .text:0000000000000334 .L0 
     /tmp/cce0gqhK.s:666    .text:0000000000000334 .L0 
     /tmp/cce0gqhK.s:667    .text:0000000000000334 .L0 
     /tmp/cce0gqhK.s:671    .text:0000000000000340 .L0 
         src/ABI.cpp:139    .text:0000000000000340 .L0 
     /tmp/cce0gqhK.s:678    .text:0000000000000344 .L0 
     /tmp/cce0gqhK.s:683    .text:0000000000000348 .L0 
     /tmp/cce0gqhK.s:685    .text:0000000000000348 .L0 
GAS LISTING /tmp/cce0gqhK.s 			page 30


     /tmp/cce0gqhK.s:686    .text:0000000000000348 .L0 
     /tmp/cce0gqhK.s:687    .text:0000000000000348 .L0 
     /tmp/cce0gqhK.s:688    .text:0000000000000348 .L0 
     /tmp/cce0gqhK.s:689    .text:0000000000000348 .L0 
     /tmp/cce0gqhK.s:695    .text:000000000000035c .L0 
     /tmp/cce0gqhK.s:697    .text:0000000000000360 .L0 
         src/ABI.cpp:146    .text:0000000000000360 .L0 
     /tmp/cce0gqhK.s:704    .text:0000000000000364 .L0 
     /tmp/cce0gqhK.s:707    .text:0000000000000368 .L0 
     /tmp/cce0gqhK.s:708    .text:0000000000000368 .L0 
     /tmp/cce0gqhK.s:713    .text:0000000000000374 .L0 
     /tmp/cce0gqhK.s:718    .text:0000000000000378 .L0 
     /tmp/cce0gqhK.s:720    .text:0000000000000378 .L0 
     /tmp/cce0gqhK.s:721    .text:0000000000000378 .L0 
     /tmp/cce0gqhK.s:722    .text:0000000000000378 .L0 
     /tmp/cce0gqhK.s:723    .text:0000000000000378 .L0 
     /tmp/cce0gqhK.s:724    .text:0000000000000378 .L0 
     /tmp/cce0gqhK.s:729    .text:0000000000000388 .L0 
         src/ABI.cpp:154    .text:0000000000000388 .L0 
     /tmp/cce0gqhK.s:736    .text:000000000000038c .L0 
     /tmp/cce0gqhK.s:741    .text:0000000000000390 .L0 
     /tmp/cce0gqhK.s:743    .text:0000000000000390 .L0 
     /tmp/cce0gqhK.s:744    .text:0000000000000390 .L0 
     /tmp/cce0gqhK.s:745    .text:0000000000000390 .L0 
     /tmp/cce0gqhK.s:748    .text:0000000000000394 .L0 
     /tmp/cce0gqhK.s:750    .text:0000000000000398 .L0 
     /tmp/cce0gqhK.s:751    .text:0000000000000398 .L0 
     /tmp/cce0gqhK.s:755    .text:000000000000039c .L0 
     /tmp/cce0gqhK.s:757    .text:00000000000003a0 .L0 
         src/ABI.cpp:160    .text:00000000000003a0 .L0 
     /tmp/cce0gqhK.s:764    .text:00000000000003a4 .L0 
     /tmp/cce0gqhK.s:767    .text:00000000000003a8 .L0 
     /tmp/cce0gqhK.s:768    .text:00000000000003a8 .L0 
     /tmp/cce0gqhK.s:772    .text:00000000000003b4 .L0 
     /tmp/cce0gqhK.s:773    .text:00000000000003b4 .L0 
     /tmp/cce0gqhK.s:777    .text:00000000000003c0 .L0 
     /tmp/cce0gqhK.s:782    .text:00000000000003c4 .L0 
     /tmp/cce0gqhK.s:784    .text:00000000000003c4 .L0 
     /tmp/cce0gqhK.s:785    .text:00000000000003c4 .L0 
     /tmp/cce0gqhK.s:786    .text:00000000000003c4 .L0 
     /tmp/cce0gqhK.s:790    .text:00000000000003d0 .L0 
     /tmp/cce0gqhK.s:793    .text:00000000000003d8 .L0 
     /tmp/cce0gqhK.s:794    .text:00000000000003d8 .L0 
         src/ABI.cpp:170    .text:00000000000003dc .L0 
     /tmp/cce0gqhK.s:804    .text:00000000000003e4 .L0 
     /tmp/cce0gqhK.s:805    .text:00000000000003e4 .L0 
     /tmp/cce0gqhK.s:814    .text:00000000000003f4 .L0 
     /tmp/cce0gqhK.s:816    .text:00000000000003f4 .L0 
     /tmp/cce0gqhK.s:817    .text:00000000000003f4 .L0 
     /tmp/cce0gqhK.s:818    .text:00000000000003f4 .L0 
     /tmp/cce0gqhK.s:819    .text:00000000000003f4 .L0 
     /tmp/cce0gqhK.s:824    .text:0000000000000404 .L0 
         src/ABI.cpp:176    .text:0000000000000404 .L0 
     /tmp/cce0gqhK.s:831    .text:0000000000000408 .L0 
     /tmp/cce0gqhK.s:835    .text:000000000000040c .L0 
     /tmp/cce0gqhK.s:841    .text:000000000000040c start_main_thread
     /tmp/cce0gqhK.s:844    .text:000000000000040c .L0 
GAS LISTING /tmp/cce0gqhK.s 			page 31


     /tmp/cce0gqhK.s:845    .text:000000000000040c .L0 
     /tmp/cce0gqhK.s:846    .text:0000000000000410 .L0 
     /tmp/cce0gqhK.s:849    .text:0000000000000418 .L0 
     /tmp/cce0gqhK.s:850    .text:0000000000000418 .L0 
     /tmp/cce0gqhK.s:852    .text:000000000000041c .L0 
     /tmp/cce0gqhK.s:854    .text:000000000000041c .L0 
     /tmp/cce0gqhK.s:855    .text:000000000000041c .L0 
     /tmp/cce0gqhK.s:858    .text:0000000000000424 .L0 
     /tmp/cce0gqhK.s:859    .text:0000000000000424 .L0 
     /tmp/cce0gqhK.s:862    .text:000000000000042c .L0 
     /tmp/cce0gqhK.s:863    .text:000000000000042c .L0 
     /tmp/cce0gqhK.s:865    .text:0000000000000434 .L0 
     /tmp/cce0gqhK.s:867    .text:0000000000000438 .L0 
     /tmp/cce0gqhK.s:868    .text:0000000000000438 .L0 
     /tmp/cce0gqhK.s:870    .text:000000000000043c .L0 
     /tmp/cce0gqhK.s:872    .text:0000000000000440 .L0 
     /tmp/cce0gqhK.s:887    .text:0000000000000440 .L0 
     /tmp/cce0gqhK.s:179    .rodata:0000000000000000 .L13
     /tmp/cce0gqhK.s:171    .text:00000000000000e8 .L0 
     /tmp/cce0gqhK.s:118    .text:0000000000000098 .L2
     /tmp/cce0gqhK.s:82     .text:0000000000000074 .L3
     /tmp/cce0gqhK.s:64     .text:0000000000000050 .L4
     /tmp/cce0gqhK.s:249    .text:0000000000000100 .L39
     /tmp/cce0gqhK.s:259    .text:0000000000000108 .L40
     /tmp/cce0gqhK.s:279    .text:0000000000000124 .L41
     /tmp/cce0gqhK.s:296    .text:000000000000013c .L42
     /tmp/cce0gqhK.s:333    .text:000000000000017c .L11
     /tmp/cce0gqhK.s:307    .text:0000000000000150 .L1
     /tmp/cce0gqhK.s:110    .text:0000000000000090 .L5
     /tmp/cce0gqhK.s:350    .text:0000000000000194 .L37
     /tmp/cce0gqhK.s:489    .text:000000000000024c .L43
     /tmp/cce0gqhK.s:478    .text:0000000000000244 .L30
     /tmp/cce0gqhK.s:582    .text:00000000000002d4 .L44
     /tmp/cce0gqhK.s:649    .text:0000000000000324 .L32
     /tmp/cce0gqhK.s:705    .text:0000000000000368 .L33
     /tmp/cce0gqhK.s:753    .text:000000000000039c .L34
     /tmp/cce0gqhK.s:765    .text:00000000000003a8 .L35
     /tmp/cce0gqhK.s:802    .text:00000000000003e4 .L45
     /tmp/cce0gqhK.s:355    .text:0000000000000198 .L26
     /tmp/cce0gqhK.s:381    .text:00000000000001b8 .L25
     /tmp/cce0gqhK.s:401    .text:00000000000001d4 .L24
     /tmp/cce0gqhK.s:507    .text:0000000000000270 .L23
     /tmp/cce0gqhK.s:519    .text:0000000000000280 .L22
     /tmp/cce0gqhK.s:538    .text:0000000000000298 .L21
     /tmp/cce0gqhK.s:593    .text:00000000000002dc .L20
     /tmp/cce0gqhK.s:626    .text:0000000000000308 .L19
     /tmp/cce0gqhK.s:659    .text:0000000000000334 .L18
     /tmp/cce0gqhK.s:680    .text:0000000000000348 .L17
     /tmp/cce0gqhK.s:715    .text:0000000000000378 .L16
     /tmp/cce0gqhK.s:738    .text:0000000000000390 .L15
     /tmp/cce0gqhK.s:779    .text:00000000000003c4 .L14
     /tmp/cce0gqhK.s:811    .text:00000000000003f4 .L12
     /tmp/cce0gqhK.s:3266   .debug_abbrev:0000000000000000 .Ldebug_abbrev0
     /tmp/cce0gqhK.s:5419   .debug_str:0000000000000be9 .LASF233
     /tmp/cce0gqhK.s:5077   .debug_str:0000000000000140 .LASF234
     /tmp/cce0gqhK.s:5393   .debug_str:0000000000000b34 .LASF235
     /tmp/cce0gqhK.s:5      .text:0000000000000000 .Ltext0
GAS LISTING /tmp/cce0gqhK.s 			page 32


     /tmp/cce0gqhK.s:875    .text:0000000000000440 .Letext0
     /tmp/cce0gqhK.s:5019   .debug_line:0000000000000000 .Ldebug_line0
     /tmp/cce0gqhK.s:5201   .debug_str:0000000000000584 .LASF0
     /tmp/cce0gqhK.s:5233   .debug_str:000000000000065f .LASF1
     /tmp/cce0gqhK.s:5347   .debug_str:00000000000009f9 .LASF2
     /tmp/cce0gqhK.s:5143   .debug_str:000000000000034e .LASF3
     /tmp/cce0gqhK.s:5353   .debug_str:0000000000000a1f .LASF4
     /tmp/cce0gqhK.s:5215   .debug_str:00000000000005ee .LASF5
     /tmp/cce0gqhK.s:5035   .debug_str:0000000000000052 .LASF6
     /tmp/cce0gqhK.s:5325   .debug_str:0000000000000971 .LASF7
     /tmp/cce0gqhK.s:5315   .debug_str:000000000000093c .LASF8
     /tmp/cce0gqhK.s:5225   .debug_str:000000000000061f .LASF9
     /tmp/cce0gqhK.s:5167   .debug_str:000000000000042e .LASF10
     /tmp/cce0gqhK.s:5177   .debug_str:000000000000046b .LASF11
     /tmp/cce0gqhK.s:5087   .debug_str:0000000000000181 .LASF12
     /tmp/cce0gqhK.s:5153   .debug_str:0000000000000398 .LASF13
     /tmp/cce0gqhK.s:5105   .debug_str:00000000000001f1 .LASF14
     /tmp/cce0gqhK.s:5085   .debug_str:0000000000000171 .LASF15
     /tmp/cce0gqhK.s:5391   .debug_str:0000000000000b28 .LASF16
     /tmp/cce0gqhK.s:5131   .debug_str:00000000000002d0 .LASF17
     /tmp/cce0gqhK.s:5377   .debug_str:0000000000000ac9 .LASF18
     /tmp/cce0gqhK.s:5123   .debug_str:00000000000002ab .LASF23
     /tmp/cce0gqhK.s:5089   .debug_str:0000000000000190 .LASF19
     /tmp/cce0gqhK.s:5053   .debug_str:00000000000000d1 .LASF20
     /tmp/cce0gqhK.s:5439   .debug_str:0000000000000d44 .LASF21
     /tmp/cce0gqhK.s:5231   .debug_str:000000000000065a .LASF22
     /tmp/cce0gqhK.s:5305   .debug_str:00000000000008e8 .LASF24
     /tmp/cce0gqhK.s:5321   .debug_str:000000000000095d .LASF99
     /tmp/cce0gqhK.s:5141   .debug_str:000000000000032a .LASF101
     /tmp/cce0gqhK.s:5243   .debug_str:00000000000006ca .LASF25
     /tmp/cce0gqhK.s:5207   .debug_str:00000000000005a4 .LASF27
     /tmp/cce0gqhK.s:5079   .debug_str:000000000000014c .LASF26
     /tmp/cce0gqhK.s:5181   .debug_str:000000000000049f .LASF28
     /tmp/cce0gqhK.s:5383   .debug_str:0000000000000af1 .LASF29
     /tmp/cce0gqhK.s:5049   .debug_str:00000000000000aa .LASF91
     /tmp/cce0gqhK.s:5267   .debug_str:0000000000000791 .LASF30
     /tmp/cce0gqhK.s:5247   .debug_str:0000000000000704 .LASF31
     /tmp/cce0gqhK.s:5401   .debug_str:0000000000000b7b .LASF236
     /tmp/cce0gqhK.s:5423   .debug_str:0000000000000cbb .LASF32
     /tmp/cce0gqhK.s:5477   .debug_str:0000000000000e49 .LASF33
     /tmp/cce0gqhK.s:5329   .debug_str:0000000000000986 .LASF34
     /tmp/cce0gqhK.s:5397   .debug_str:0000000000000b63 .LASF69
     /tmp/cce0gqhK.s:5229   .debug_str:0000000000000638 .LASF71
     /tmp/cce0gqhK.s:5213   .debug_str:00000000000005e9 .LASF35
     /tmp/cce0gqhK.s:5127   .debug_str:00000000000002b9 .LASF36
     /tmp/cce0gqhK.s:5375   .debug_str:0000000000000ac0 .LASF37
     /tmp/cce0gqhK.s:5371   .debug_str:0000000000000a9f .LASF38
     /tmp/cce0gqhK.s:5409   .debug_str:0000000000000ba1 .LASF39
     /tmp/cce0gqhK.s:5503   .debug_str:0000000000000f10 .LASF40
     /tmp/cce0gqhK.s:5253   .debug_str:0000000000000728 .LASF41
     /tmp/cce0gqhK.s:5489   .debug_str:0000000000000ea9 .LASF42
     /tmp/cce0gqhK.s:5075   .debug_str:0000000000000132 .LASF43
     /tmp/cce0gqhK.s:5115   .debug_str:0000000000000266 .LASF44
     /tmp/cce0gqhK.s:5051   .debug_str:00000000000000c3 .LASF45
     /tmp/cce0gqhK.s:5129   .debug_str:00000000000002c0 .LASF47
     /tmp/cce0gqhK.s:5507   .debug_str:0000000000000f22 .LASF46
     /tmp/cce0gqhK.s:5195   .debug_str:0000000000000522 .LASF48
GAS LISTING /tmp/cce0gqhK.s 			page 33


     /tmp/cce0gqhK.s:5063   .debug_str:0000000000000104 .LASF49
     /tmp/cce0gqhK.s:5313   .debug_str:0000000000000929 .LASF50
     /tmp/cce0gqhK.s:5481   .debug_str:0000000000000e6f .LASF51
     /tmp/cce0gqhK.s:5411   .debug_str:0000000000000bae .LASF52
     /tmp/cce0gqhK.s:5193   .debug_str:0000000000000517 .LASF53
     /tmp/cce0gqhK.s:5185   .debug_str:00000000000004e1 .LASF54
     /tmp/cce0gqhK.s:5345   .debug_str:00000000000009ef .LASF55
     /tmp/cce0gqhK.s:5103   .debug_str:00000000000001d9 .LASF56
     /tmp/cce0gqhK.s:5279   .debug_str:00000000000007eb .LASF57
     /tmp/cce0gqhK.s:5479   .debug_str:0000000000000e51 .LASF58
     /tmp/cce0gqhK.s:5289   .debug_str:0000000000000834 .LASF59
     /tmp/cce0gqhK.s:5163   .debug_str:0000000000000406 .LASF60
     /tmp/cce0gqhK.s:5435   .debug_str:0000000000000d1d .LASF61
     /tmp/cce0gqhK.s:5387   .debug_str:0000000000000afb .LASF62
     /tmp/cce0gqhK.s:5189   .debug_str:0000000000000502 .LASF63
     /tmp/cce0gqhK.s:5041   .debug_str:0000000000000070 .LASF64
     /tmp/cce0gqhK.s:5095   .debug_str:00000000000001a7 .LASF65
     /tmp/cce0gqhK.s:5235   .debug_str:0000000000000672 .LASF66
     /tmp/cce0gqhK.s:5317   .debug_str:000000000000094f .LASF67
     /tmp/cce0gqhK.s:5373   .debug_str:0000000000000aa8 .LASF68
     /tmp/cce0gqhK.s:5067   .debug_str:0000000000000112 .LASF70
     /tmp/cce0gqhK.s:5111   .debug_str:000000000000023c .LASF72
     /tmp/cce0gqhK.s:5261   .debug_str:000000000000075a .LASF73
     /tmp/cce0gqhK.s:5057   .debug_str:00000000000000e9 .LASF74
     /tmp/cce0gqhK.s:5187   .debug_str:00000000000004fb .LASF77
     /tmp/cce0gqhK.s:5465   .debug_str:0000000000000df4 .LASF75
     /tmp/cce0gqhK.s:5385   .debug_str:0000000000000af6 .LASF76
     /tmp/cce0gqhK.s:5451   .debug_str:0000000000000d84 .LASF78
     /tmp/cce0gqhK.s:5487   .debug_str:0000000000000ea3 .LASF79
     /tmp/cce0gqhK.s:5165   .debug_str:0000000000000424 .LASF80
     /tmp/cce0gqhK.s:5259   .debug_str:0000000000000744 .LASF81
     /tmp/cce0gqhK.s:5415   .debug_str:0000000000000bd8 .LASF82
     /tmp/cce0gqhK.s:5505   .debug_str:0000000000000f1b .LASF237
     /tmp/cce0gqhK.s:5249   .debug_str:0000000000000710 .LASF83
     /tmp/cce0gqhK.s:5469   .debug_str:0000000000000e0a .LASF84
     /tmp/cce0gqhK.s:5395   .debug_str:0000000000000b59 .LASF85
     /tmp/cce0gqhK.s:5429   .debug_str:0000000000000cf7 .LASF86
     /tmp/cce0gqhK.s:5275   .debug_str:00000000000007d2 .LASF87
     /tmp/cce0gqhK.s:5039   .debug_str:0000000000000063 .LASF88
     /tmp/cce0gqhK.s:5379   .debug_str:0000000000000adf .LASF89
     /tmp/cce0gqhK.s:5473   .debug_str:0000000000000e1c .LASF238
     /tmp/cce0gqhK.s:5237   .debug_str:000000000000069c .LASF239
     /tmp/cce0gqhK.s:5361   .debug_str:0000000000000a45 .LASF90
     /tmp/cce0gqhK.s:5427   .debug_str:0000000000000ccf .LASF92
     /tmp/cce0gqhK.s:5151   .debug_str:000000000000038b .LASF93
     /tmp/cce0gqhK.s:5179   .debug_str:0000000000000479 .LASF94
     /tmp/cce0gqhK.s:5453   .debug_str:0000000000000d8e .LASF95
     /tmp/cce0gqhK.s:5149   .debug_str:000000000000036a .LASF97
     /tmp/cce0gqhK.s:5029   .debug_str:000000000000002b .LASF96
     /tmp/cce0gqhK.s:5197   .debug_str:000000000000053e .LASF98
     /tmp/cce0gqhK.s:5047   .debug_str:000000000000009f .LASF100
     /tmp/cce0gqhK.s:5301   .debug_str:00000000000008a9 .LASF102
     /tmp/cce0gqhK.s:5239   .debug_str:00000000000006b9 .LASF103
     /tmp/cce0gqhK.s:5509   .debug_str:0000000000000f2e .LASF104
     /tmp/cce0gqhK.s:5389   .debug_str:0000000000000b1b .LASF105
     /tmp/cce0gqhK.s:5161   .debug_str:00000000000003e0 .LASF106
     /tmp/cce0gqhK.s:5431   .debug_str:0000000000000d02 .LASF107
GAS LISTING /tmp/cce0gqhK.s 			page 34


     /tmp/cce0gqhK.s:5133   .debug_str:00000000000002e6 .LASF108
     /tmp/cce0gqhK.s:5499   .debug_str:0000000000000ee6 .LASF109
     /tmp/cce0gqhK.s:5199   .debug_str:0000000000000560 .LASF110
     /tmp/cce0gqhK.s:5341   .debug_str:00000000000009cf .LASF111
     /tmp/cce0gqhK.s:5343   .debug_str:00000000000009d7 .LASF112
     /tmp/cce0gqhK.s:5183   .debug_str:00000000000004c5 .LASF240
     /tmp/cce0gqhK.s:5333   .debug_str:000000000000099a .LASF113
     /tmp/cce0gqhK.s:5263   .debug_str:000000000000075f .LASF114
     /tmp/cce0gqhK.s:5159   .debug_str:00000000000003d6 .LASF115
     /tmp/cce0gqhK.s:5155   .debug_str:00000000000003a7 .LASF116
     /tmp/cce0gqhK.s:5227   .debug_str:0000000000000632 .LASF117
     /tmp/cce0gqhK.s:5367   .debug_str:0000000000000a74 .LASF118
     /tmp/cce0gqhK.s:5023   .debug_str:0000000000000006 .LASF119
     /tmp/cce0gqhK.s:5461   .debug_str:0000000000000dd1 .LASF120
     /tmp/cce0gqhK.s:5169   .debug_str:000000000000043e .LASF121
     /tmp/cce0gqhK.s:5121   .debug_str:0000000000000287 .LASF122
     /tmp/cce0gqhK.s:5339   .debug_str:00000000000009c4 .LASF123
     /tmp/cce0gqhK.s:5191   .debug_str:0000000000000511 .LASF124
     /tmp/cce0gqhK.s:5447   .debug_str:0000000000000d6b .LASF125
     /tmp/cce0gqhK.s:5369   .debug_str:0000000000000a93 .LASF126
     /tmp/cce0gqhK.s:5117   .debug_str:0000000000000270 .LASF127
     /tmp/cce0gqhK.s:5069   .debug_str:000000000000011a .LASF128
     /tmp/cce0gqhK.s:5269   .debug_str:000000000000079f .LASF129
     /tmp/cce0gqhK.s:5319   .debug_str:0000000000000955 .LASF130
     /tmp/cce0gqhK.s:5107   .debug_str:0000000000000201 .LASF131
     /tmp/cce0gqhK.s:5483   .debug_str:0000000000000e7b .LASF132
     /tmp/cce0gqhK.s:5125   .debug_str:00000000000002b4 .LASF133
     /tmp/cce0gqhK.s:5501   .debug_str:0000000000000ef1 .LASF134
     /tmp/cce0gqhK.s:5399   .debug_str:0000000000000b74 .LASF135
     /tmp/cce0gqhK.s:5285   .debug_str:000000000000080c .LASF136
     /tmp/cce0gqhK.s:5059   .debug_str:00000000000000f1 .LASF137
     /tmp/cce0gqhK.s:5475   .debug_str:0000000000000e28 .LASF138
     /tmp/cce0gqhK.s:5219   .debug_str:000000000000060a .LASF139
     /tmp/cce0gqhK.s:5307   .debug_str:00000000000008f8 .LASF140
     /tmp/cce0gqhK.s:5045   .debug_str:0000000000000099 .LASF141
     /tmp/cce0gqhK.s:5437   .debug_str:0000000000000d2c .LASF142
     /tmp/cce0gqhK.s:5457   .debug_str:0000000000000da7 .LASF143
     /tmp/cce0gqhK.s:5031   .debug_str:000000000000003c .LASF241
     /tmp/cce0gqhK.s:5209   .debug_str:00000000000005cd .LASF144
     /tmp/cce0gqhK.s:5203   .debug_str:0000000000000591 .LASF145
     /tmp/cce0gqhK.s:5081   .debug_str:0000000000000159 .LASF146
     /tmp/cce0gqhK.s:5467   .debug_str:0000000000000dfd .LASF147
     /tmp/cce0gqhK.s:5403   .debug_str:0000000000000b83 .LASF148
     /tmp/cce0gqhK.s:5299   .debug_str:000000000000089e .LASF149
     /tmp/cce0gqhK.s:5113   .debug_str:000000000000025a .LASF150
     /tmp/cce0gqhK.s:5309   .debug_str:0000000000000912 .LASF151
     /tmp/cce0gqhK.s:5027   .debug_str:000000000000001c .LASF152
     /tmp/cce0gqhK.s:5175   .debug_str:0000000000000459 .LASF153
     /tmp/cce0gqhK.s:5245   .debug_str:00000000000006db .LASF154
     /tmp/cce0gqhK.s:5449   .debug_str:0000000000000d72 .LASF155
     /tmp/cce0gqhK.s:5297   .debug_str:000000000000087d .LASF156
     /tmp/cce0gqhK.s:5493   .debug_str:0000000000000ebf .LASF157
     /tmp/cce0gqhK.s:5109   .debug_str:000000000000021b .LASF158
     /tmp/cce0gqhK.s:5363   .debug_str:0000000000000a54 .LASF159
     /tmp/cce0gqhK.s:5359   .debug_str:0000000000000a35 .LASF160
     /tmp/cce0gqhK.s:5291   .debug_str:0000000000000843 .LASF161
     /tmp/cce0gqhK.s:5139   .debug_str:000000000000031f .LASF162
GAS LISTING /tmp/cce0gqhK.s 			page 35


     /tmp/cce0gqhK.s:5303   .debug_str:00000000000008c5 .LASF163
     /tmp/cce0gqhK.s:5073   .debug_str:0000000000000127 .LASF164
     /tmp/cce0gqhK.s:5459   .debug_str:0000000000000daf .LASF165
     /tmp/cce0gqhK.s:5407   .debug_str:0000000000000b9c .LASF166
     /tmp/cce0gqhK.s:5099   .debug_str:00000000000001c5 .LASF167
     /tmp/cce0gqhK.s:5511   .debug_str:0000000000000f4f .LASF199
     /tmp/cce0gqhK.s:5445   .debug_str:0000000000000d64 .LASF168
     /tmp/cce0gqhK.s:5101   .debug_str:00000000000001cd .LASF169
     /tmp/cce0gqhK.s:5097   .debug_str:00000000000001bd .LASF170
     /tmp/cce0gqhK.s:5357   .debug_str:0000000000000a2b .LASF171
     /tmp/cce0gqhK.s:5221   .debug_str:0000000000000612 .LASF172
     /tmp/cce0gqhK.s:5491   .debug_str:0000000000000eb7 .LASF173
     /tmp/cce0gqhK.s:5065   .debug_str:0000000000000109 .LASF174
     /tmp/cce0gqhK.s:5471   .debug_str:0000000000000e14 .LASF175
     /tmp/cce0gqhK.s:5205   .debug_str:000000000000059b .LASF176
     /tmp/cce0gqhK.s:5455   .debug_str:0000000000000d9e .LASF177
     /tmp/cce0gqhK.s:5043   .debug_str:0000000000000090 .LASF178
     /tmp/cce0gqhK.s:5283   .debug_str:00000000000007ff .LASF179
     /tmp/cce0gqhK.s:5433   .debug_str:0000000000000d0f .LASF180
     /tmp/cce0gqhK.s:5137   .debug_str:0000000000000311 .LASF181
     /tmp/cce0gqhK.s:5295   .debug_str:000000000000086f .LASF182
     /tmp/cce0gqhK.s:5421   .debug_str:0000000000000cad .LASF183
     /tmp/cce0gqhK.s:5425   .debug_str:0000000000000cc0 .LASF184
     /tmp/cce0gqhK.s:5413   .debug_str:0000000000000bc9 .LASF185
     /tmp/cce0gqhK.s:5335   .debug_str:00000000000009a7 .LASF186
     /tmp/cce0gqhK.s:5147   .debug_str:000000000000035e .LASF187
     /tmp/cce0gqhK.s:5025   .debug_str:000000000000000f .LASF188
     /tmp/cce0gqhK.s:5293   .debug_str:0000000000000862 .LASF189
     /tmp/cce0gqhK.s:5157   .debug_str:00000000000003c9 .LASF190
     /tmp/cce0gqhK.s:5365   .debug_str:0000000000000a67 .LASF191
     /tmp/cce0gqhK.s:5337   .debug_str:00000000000009b6 .LASF192
     /tmp/cce0gqhK.s:5083   .debug_str:0000000000000163 .LASF193
     /tmp/cce0gqhK.s:5251   .debug_str:000000000000071a .LASF194
     /tmp/cce0gqhK.s:5093   .debug_str:000000000000019e .LASF195
     /tmp/cce0gqhK.s:5037   .debug_str:0000000000000059 .LASF196
     /tmp/cce0gqhK.s:5417   .debug_str:0000000000000be0 .LASF197
     /tmp/cce0gqhK.s:5145   .debug_str:0000000000000354 .LASF198
     /tmp/cce0gqhK.s:5173   .debug_str:0000000000000452 .LASF200
     /tmp/cce0gqhK.s:5211   .debug_str:00000000000005d9 .LASF201
     /tmp/cce0gqhK.s:5055   .debug_str:00000000000000d6 .LASF202
     /tmp/cce0gqhK.s:5241   .debug_str:00000000000006bf .LASF203
     /tmp/cce0gqhK.s:5485   .debug_str:0000000000000e92 .LASF204
     /tmp/cce0gqhK.s:5311   .debug_str:0000000000000921 .LASF205
     /tmp/cce0gqhK.s:5355   .debug_str:0000000000000a26 .LASF242
     /tmp/cce0gqhK.s:5257   .debug_str:000000000000073a .LASF206
     /tmp/cce0gqhK.s:5255   .debug_str:0000000000000731 .LASF207
     /tmp/cce0gqhK.s:5405   .debug_str:0000000000000b8e .LASF208
     /tmp/cce0gqhK.s:5331   .debug_str:000000000000098e .LASF209
     /tmp/cce0gqhK.s:5061   .debug_str:00000000000000f7 .LASF210
     /tmp/cce0gqhK.s:5091   .debug_str:0000000000000195 .LASF211
     /tmp/cce0gqhK.s:5033   .debug_str:0000000000000048 .LASF212
     /tmp/cce0gqhK.s:5443   .debug_str:0000000000000d5b .LASF213
     /tmp/cce0gqhK.s:5351   .debug_str:0000000000000a14 .LASF214
     /tmp/cce0gqhK.s:5119   .debug_str:000000000000027c .LASF215
     /tmp/cce0gqhK.s:5349   .debug_str:0000000000000a07 .LASF216
     /tmp/cce0gqhK.s:5021   .debug_str:0000000000000000 .LASF217
     /tmp/cce0gqhK.s:5223   .debug_str:000000000000061a .LASF218
GAS LISTING /tmp/cce0gqhK.s 			page 36


     /tmp/cce0gqhK.s:5281   .debug_str:00000000000007fa .LASF219
     /tmp/cce0gqhK.s:5171   .debug_str:0000000000000449 .LASF220
     /tmp/cce0gqhK.s:5441   .debug_str:0000000000000d49 .LASF221
     /tmp/cce0gqhK.s:842    .text:000000000000040c .LFB4
     /tmp/cce0gqhK.s:873    .text:0000000000000440 .LFE4
     /tmp/cce0gqhK.s:856    .text:0000000000000424 .LVL91
     /tmp/cce0gqhK.s:860    .text:000000000000042c .LVL92
     /tmp/cce0gqhK.s:5287   .debug_str:0000000000000825 .LASF222
     /tmp/cce0gqhK.s:10     .text:0000000000000000 .LFB3
     /tmp/cce0gqhK.s:836    .text:000000000000040c .LFE3
     /tmp/cce0gqhK.s:5217   .debug_str:0000000000000600 .LASF243
     /tmp/cce0gqhK.s:4543   .debug_loc:0000000000000000 .LLST0
     /tmp/cce0gqhK.s:5381   .debug_str:0000000000000aea .LASF223
     /tmp/cce0gqhK.s:4576   .debug_loc:0000000000000088 .LLST1
     /tmp/cce0gqhK.s:5323   .debug_str:0000000000000969 .LASF224
     /tmp/cce0gqhK.s:4595   .debug_loc:00000000000000e4 .LLST2
     /tmp/cce0gqhK.s:5135   .debug_str:000000000000030c .LASF225
     /tmp/cce0gqhK.s:4634   .debug_loc:000000000000019f .LLST3
     /tmp/cce0gqhK.s:5011   .debug_ranges:0000000000000000 .Ldebug_ranges0
     /tmp/cce0gqhK.s:4733   .debug_loc:000000000000033c .LLST4
     /tmp/cce0gqhK.s:4744   .debug_loc:0000000000000372 .LLST5
     /tmp/cce0gqhK.s:61     .text:000000000000004c .LBB24
     /tmp/cce0gqhK.s:83     .text:0000000000000074 .LBE24
     /tmp/cce0gqhK.s:4755   .debug_loc:00000000000003a8 .LLST6
     /tmp/cce0gqhK.s:138    .text:00000000000000c4 .LBB26
     /tmp/cce0gqhK.s:158    .text:00000000000000d0 .LBE26
     /tmp/cce0gqhK.s:4766   .debug_loc:00000000000003de .LLST7
     /tmp/cce0gqhK.s:358    .text:0000000000000198 .LBB29
     /tmp/cce0gqhK.s:382    .text:00000000000001b8 .LBE29
     /tmp/cce0gqhK.s:4779   .debug_loc:0000000000000416 .LLST8
     /tmp/cce0gqhK.s:4786   .debug_loc:0000000000000439 .LLST9
     /tmp/cce0gqhK.s:366    .text:00000000000001a4 .LVL26
     /tmp/cce0gqhK.s:370    .text:00000000000001b0 .LVL27
     /tmp/cce0gqhK.s:385    .text:00000000000001b8 .LBB30
     /tmp/cce0gqhK.s:402    .text:00000000000001d4 .LBE30
     /tmp/cce0gqhK.s:4793   .debug_loc:000000000000045c .LLST10
     /tmp/cce0gqhK.s:393    .text:00000000000001c4 .LVL30
     /tmp/cce0gqhK.s:397    .text:00000000000001d0 .LVL31
     /tmp/cce0gqhK.s:405    .text:00000000000001d4 .LBB31
     /tmp/cce0gqhK.s:508    .text:0000000000000270 .LBE31
     /tmp/cce0gqhK.s:5273   .debug_str:00000000000007cb .LASF226
     /tmp/cce0gqhK.s:4800   .debug_loc:000000000000047f .LLST11
     /tmp/cce0gqhK.s:5327   .debug_str:0000000000000978 .LASF227
     /tmp/cce0gqhK.s:4807   .debug_loc:00000000000004a2 .LLST12
     /tmp/cce0gqhK.s:5463   .debug_str:0000000000000dea .LASF228
     /tmp/cce0gqhK.s:4814   .debug_loc:00000000000004c5 .LLST13
     /tmp/cce0gqhK.s:5265   .debug_str:0000000000000785 .LASF229
     /tmp/cce0gqhK.s:4821   .debug_loc:00000000000004e8 .LLST14
     /tmp/cce0gqhK.s:4828   .debug_loc:000000000000050b .LLST15
     /tmp/cce0gqhK.s:4847   .debug_loc:0000000000000567 .LLST16
     /tmp/cce0gqhK.s:441    .text:0000000000000208 .LBB32
     /tmp/cce0gqhK.s:452    .text:0000000000000210 .LBE32
     /tmp/cce0gqhK.s:4858   .debug_loc:000000000000059d .LLST17
     /tmp/cce0gqhK.s:4865   .debug_loc:00000000000005c0 .LLST18
     /tmp/cce0gqhK.s:4872   .debug_loc:00000000000005e3 .LLST19
     /tmp/cce0gqhK.s:425    .text:00000000000001ec .LVL37
     /tmp/cce0gqhK.s:429    .text:00000000000001f8 .LVL38
GAS LISTING /tmp/cce0gqhK.s 			page 37


     /tmp/cce0gqhK.s:439    .text:0000000000000208 .LVL41
     /tmp/cce0gqhK.s:459    .text:0000000000000224 .LVL43
     /tmp/cce0gqhK.s:472    .text:000000000000023c .LVL44
     /tmp/cce0gqhK.s:501    .text:0000000000000264 .LVL47
     /tmp/cce0gqhK.s:503    .text:000000000000026c .LVL48
     /tmp/cce0gqhK.s:541    .text:0000000000000298 .LBB34
     /tmp/cce0gqhK.s:594    .text:00000000000002dc .LBE34
     /tmp/cce0gqhK.s:4879   .debug_loc:0000000000000606 .LLST20
     /tmp/cce0gqhK.s:5277   .debug_str:00000000000007de .LASF230
     /tmp/cce0gqhK.s:4886   .debug_loc:0000000000000629 .LLST21
     /tmp/cce0gqhK.s:4893   .debug_loc:000000000000064c .LLST22
     /tmp/cce0gqhK.s:5271   .debug_str:00000000000007c1 .LASF231
     /tmp/cce0gqhK.s:4900   .debug_loc:000000000000066f .LLST23
     /tmp/cce0gqhK.s:553    .text:00000000000002a8 .LVL56
     /tmp/cce0gqhK.s:557    .text:00000000000002b4 .LVL57
     /tmp/cce0gqhK.s:568    .text:00000000000002c8 .LVL60
     /tmp/cce0gqhK.s:597    .text:00000000000002dc .LBB35
     /tmp/cce0gqhK.s:627    .text:0000000000000308 .LBE35
     /tmp/cce0gqhK.s:4907   .debug_loc:0000000000000692 .LLST24
     /tmp/cce0gqhK.s:607    .text:00000000000002ec .LVL65
     /tmp/cce0gqhK.s:611    .text:00000000000002f4 .LVL66
     /tmp/cce0gqhK.s:615    .text:0000000000000300 .LVL67
     /tmp/cce0gqhK.s:630    .text:0000000000000308 .LBB36
     /tmp/cce0gqhK.s:660    .text:0000000000000334 .LBE36
     /tmp/cce0gqhK.s:4914   .debug_loc:00000000000006b5 .LLST25
     /tmp/cce0gqhK.s:5497   .debug_str:0000000000000edf .LASF232
     /tmp/cce0gqhK.s:4922   .debug_loc:00000000000006da .LLST26
     /tmp/cce0gqhK.s:637    .text:0000000000000318 .LVL69
     /tmp/cce0gqhK.s:655    .text:0000000000000330 .LVL71
     /tmp/cce0gqhK.s:663    .text:0000000000000334 .LBB37
     /tmp/cce0gqhK.s:681    .text:0000000000000348 .LBE37
     /tmp/cce0gqhK.s:4929   .debug_loc:00000000000006fd .LLST27
     /tmp/cce0gqhK.s:669    .text:0000000000000340 .LVL73
     /tmp/cce0gqhK.s:684    .text:0000000000000348 .LBB38
     /tmp/cce0gqhK.s:716    .text:0000000000000378 .LBE38
     /tmp/cce0gqhK.s:4937   .debug_loc:0000000000000722 .LLST28
     /tmp/cce0gqhK.s:4945   .debug_loc:0000000000000747 .LLST29
     /tmp/cce0gqhK.s:4953   .debug_loc:000000000000076c .LLST30
     /tmp/cce0gqhK.s:693    .text:000000000000035c .LVL75
     /tmp/cce0gqhK.s:711    .text:0000000000000374 .LVL77
     /tmp/cce0gqhK.s:719    .text:0000000000000378 .LBB39
     /tmp/cce0gqhK.s:739    .text:0000000000000390 .LBE39
     /tmp/cce0gqhK.s:4960   .debug_loc:000000000000078f .LLST31
     /tmp/cce0gqhK.s:4968   .debug_loc:00000000000007b4 .LLST32
     /tmp/cce0gqhK.s:727    .text:0000000000000388 .LVL79
     /tmp/cce0gqhK.s:742    .text:0000000000000390 .LBB40
     /tmp/cce0gqhK.s:780    .text:00000000000003c4 .LBE40
     /tmp/cce0gqhK.s:4976   .debug_loc:00000000000007d9 .LLST33
     /tmp/cce0gqhK.s:770    .text:00000000000003b4 .LVL83
     /tmp/cce0gqhK.s:775    .text:00000000000003c0 .LVL84
     /tmp/cce0gqhK.s:783    .text:00000000000003c4 .LBB41
     /tmp/cce0gqhK.s:812    .text:00000000000003f4 .LBE41
     /tmp/cce0gqhK.s:4983   .debug_loc:00000000000007fc .LLST34
     /tmp/cce0gqhK.s:788    .text:00000000000003d0 .LVL86
     /tmp/cce0gqhK.s:808    .text:00000000000003f0 .LVL88
     /tmp/cce0gqhK.s:815    .text:00000000000003f4 .LBB42
     /tmp/cce0gqhK.s:832    .text:000000000000040c .LBE42
GAS LISTING /tmp/cce0gqhK.s 			page 38


     /tmp/cce0gqhK.s:4990   .debug_loc:000000000000081f .LLST35
     /tmp/cce0gqhK.s:822    .text:0000000000000404 .LVL90
     /tmp/cce0gqhK.s:50     .text:000000000000003c .LVL2
     /tmp/cce0gqhK.s:54     .text:0000000000000044 .LVL3
     /tmp/cce0gqhK.s:266    .text:0000000000000114 .LVL18
     /tmp/cce0gqhK.s:283    .text:000000000000012c .LVL19
     /tmp/cce0gqhK.s:305    .text:0000000000000150 .LVL20
     /tmp/cce0gqhK.s:515    .text:000000000000027c .LVL50
     /tmp/cce0gqhK.s:526    .text:000000000000028c .LVL52
     /tmp/cce0gqhK.s:5071   .debug_str:0000000000000122 .LASF244
     /tmp/cce0gqhK.s:5495   .debug_str:0000000000000ed0 .LASF245
     /tmp/cce0gqhK.s:14     .text:0000000000000000 .LVL0
     /tmp/cce0gqhK.s:332    .text:000000000000017c .LVL21
     /tmp/cce0gqhK.s:549    .text:00000000000002a0 .LVL55
     /tmp/cce0gqhK.s:592    .text:00000000000002dc .LVL62
     /tmp/cce0gqhK.s:45     .text:0000000000000034 .LVL1
     /tmp/cce0gqhK.s:431    .text:00000000000001fc .LVL39
     /tmp/cce0gqhK.s:506    .text:0000000000000270 .LVL49
     /tmp/cce0gqhK.s:545    .text:000000000000029c .LVL54
     /tmp/cce0gqhK.s:56     .text:0000000000000048 .LVL4
     /tmp/cce0gqhK.s:362    .text:000000000000019c .LVL25
     /tmp/cce0gqhK.s:380    .text:00000000000001b8 .LVL28
     /tmp/cce0gqhK.s:389    .text:00000000000001bc .LVL29
     /tmp/cce0gqhK.s:400    .text:00000000000001d4 .LVL32
     /tmp/cce0gqhK.s:559    .text:00000000000002b8 .LVL58
     /tmp/cce0gqhK.s:601    .text:00000000000002e0 .LVL63
     /tmp/cce0gqhK.s:605    .text:00000000000002e4 .LVL64
     /tmp/cce0gqhK.s:625    .text:0000000000000308 .LVL68
     /tmp/cce0gqhK.s:162    .text:00000000000000d4 .LVL13
     /tmp/cce0gqhK.s:170    .text:00000000000000e8 .LVL14
     /tmp/cce0gqhK.s:248    .text:0000000000000100 .LVL15
     /tmp/cce0gqhK.s:346    .text:000000000000018c .LVL22
     /tmp/cce0gqhK.s:349    .text:0000000000000194 .LVL23
     /tmp/cce0gqhK.s:354    .text:0000000000000198 .LVL24
     /tmp/cce0gqhK.s:518    .text:0000000000000280 .LVL51
     /tmp/cce0gqhK.s:537    .text:0000000000000298 .LVL53
     /tmp/cce0gqhK.s:658    .text:0000000000000334 .LVL72
     /tmp/cce0gqhK.s:679    .text:0000000000000348 .LVL74
     /tmp/cce0gqhK.s:714    .text:0000000000000378 .LVL78
     /tmp/cce0gqhK.s:737    .text:0000000000000390 .LVL80
     /tmp/cce0gqhK.s:752    .text:000000000000039c .LVL82
     /tmp/cce0gqhK.s:778    .text:00000000000003c4 .LVL85
     /tmp/cce0gqhK.s:810    .text:00000000000003f4 .LVL89
     /tmp/cce0gqhK.s:96     .text:0000000000000080 .LVL8
     /tmp/cce0gqhK.s:117    .text:0000000000000098 .LVL10
     /tmp/cce0gqhK.s:258    .text:0000000000000108 .LVL17
     /tmp/cce0gqhK.s:102    .text:0000000000000084 .LVL9
     /tmp/cce0gqhK.s:65     .text:0000000000000050 .LVL5
     /tmp/cce0gqhK.s:79     .text:0000000000000070 .LVL6
     /tmp/cce0gqhK.s:81     .text:0000000000000074 .LVL7
     /tmp/cce0gqhK.s:146    .text:00000000000000c8 .LVL11
     /tmp/cce0gqhK.s:151    .text:00000000000000cc .LVL12
     /tmp/cce0gqhK.s:409    .text:00000000000001d8 .LVL33
     /tmp/cce0gqhK.s:413    .text:00000000000001dc .LVL34
     /tmp/cce0gqhK.s:417    .text:00000000000001e0 .LVL35
     /tmp/cce0gqhK.s:421    .text:00000000000001e4 .LVL36
     /tmp/cce0gqhK.s:488    .text:000000000000024c .LVL45
GAS LISTING /tmp/cce0gqhK.s 			page 39


     /tmp/cce0gqhK.s:499    .text:000000000000025c .LVL46
     /tmp/cce0gqhK.s:435    .text:0000000000000200 .LVL40
     /tmp/cce0gqhK.s:450    .text:0000000000000210 .LVL42
     /tmp/cce0gqhK.s:563    .text:00000000000002bc .LVL59
     /tmp/cce0gqhK.s:581    .text:00000000000002d4 .LVL61
     /tmp/cce0gqhK.s:653    .text:0000000000000328 .LVL70
     /tmp/cce0gqhK.s:709    .text:000000000000036c .LVL76
     /tmp/cce0gqhK.s:746    .text:0000000000000394 .LVL81
     /tmp/cce0gqhK.s:806    .text:00000000000003e8 .LVL87
     /tmp/cce0gqhK.s:888    .debug_info:0000000000000000 .Ldebug_info0
     /tmp/cce0gqhK.s:60     .text:000000000000004c .LBB23
     /tmp/cce0gqhK.s:119    .text:0000000000000098 .LBE23
     /tmp/cce0gqhK.s:252    .text:0000000000000100 .LBB25
     /tmp/cce0gqhK.s:260    .text:0000000000000108 .LBE25

UNDEFINED SYMBOLS
_ZN9Scheduler8freeDeadEv
_ZN9Scheduler10GetRunningEv
_ZN9Scheduler9timerTickEP7KThread
_ZN7Konsole15handleInterruptEv
_ZN9Scheduler10ThreadExitEP7KThread
_ZN15MemoryAllocator11GetInstanceEv
_ZN15MemoryAllocator16AllocateFragmentEm
_ZN15MemoryAllocator12FreeFragmentEPv
_ZN7KThread4initEv
_ZN7KThread5setupEPS_Pm
_ZN9Scheduler3PutEP7KThread
_ZN7KThread10getContextEv
restoreContext
_ZN9Scheduler12yieldCurrentEP7KThread
_ZN10KSemaphore4initEj
_ZN10KSemaphore5closeEv
_ZN10KSemaphore4waitEP7KThread
_ZN9Scheduler12blockCurrentEP7KThread
_ZN10KSemaphore6signalEv
_ZN10KSemaphore5waitNEP7KThreadj
_ZN10KSemaphore7signalNEj
_ZN9Scheduler5sleepEP7KThreadm
_ZN7Konsole10getcKernelEP7KThread
_ZN7Konsole10putcKernelEP7KThreadc
_ZN9Scheduler16SetupStartThreadEv
_ZN7Konsole4initEv
