GAS LISTING /tmp/ccPJKuEW.s 			page 1


   1              		.file	"ABI.cpp"
   2              		.option pic
   3              		.option norelax
   4              		.text
   5              	.Ltext0:
   6              		.align	2
   7              		.globl	HandleInterupt
   9              	HandleInterupt:
  10              	.LFB1:
  11              		.file 1 "src/ABI.cpp"
   1:src/ABI.cpp   **** //
   2:src/ABI.cpp   **** // Created by os on 5/6/26.
   3:src/ABI.cpp   **** //
   4:src/ABI.cpp   **** #include "./MemoryAllocator.hpp"
   5:src/ABI.cpp   **** #include "Thread.hpp"
   6:src/ABI.cpp   **** #include "APIC.h"
   7:src/ABI.cpp   **** #include "Scheduler.hpp"
   8:src/ABI.cpp   **** 
   9:src/ABI.cpp   **** extern "C" void HandleInterupt(uint64 code){
  12              		.loc 1 9 44
  13              		.cfi_startproc
  14              	.LVL0:
  10:src/ABI.cpp   ****     __asm__ volatile("mv %[code],a0":[code]"=r"(code));
  15              		.loc 1 10 5
  16              		.loc 1 10 55 is_stmt 0
  17              	#APP
  18              	# 10 "src/ABI.cpp" 1
  11              	    uint64 scause=0;
  19              		mv a4,a0
  20              	# 0 "" 2
  21              	.LVL1:
  22              		.loc 1 11 5 is_stmt 1
  12:src/ABI.cpp   ****     __asm__ volatile("csrr %[scause],scause":[scause]"=r"(scause));
  23              		.loc 1 12 5
  24              		.loc 1 12 67 is_stmt 0
  25              	# 12 "src/ABI.cpp" 1
  13              	    if (scause !=8&&scause !=9) {
  26              		csrr a5,scause
  27              	# 0 "" 2
  28              	.LVL2:
  29              		.loc 1 13 5 is_stmt 1
  30              		.loc 1 13 19 is_stmt 0
  31              	#NO_APP
  32 0008 938787FF 		addi	a5,a5,-8
  33              	.LVL3:
  34              		.loc 1 13 5
  35 000c 93061000 		li	a3,1
  36 0010 63E4F604 		bgtu	a5,a3,.L9
   9:src/ABI.cpp   ****     __asm__ volatile("mv %[code],a0":[code]"=r"(code));
  37              		.loc 1 9 44
  38 0014 130101FE 		addi	sp,sp,-32
  39              		.cfi_def_cfa_offset 32
  40 0018 233C1100 		sd	ra,24(sp)
  41 001c 23388100 		sd	s0,16(sp)
  42 0020 23349100 		sd	s1,8(sp)
  43              		.cfi_offset 1, -8
  44              		.cfi_offset 8, -16
GAS LISTING /tmp/ccPJKuEW.s 			page 2


  45              		.cfi_offset 9, -24
  46 0024 13040102 		addi	s0,sp,32
  47              		.cfi_def_cfa 8, 0
  14:src/ABI.cpp   ****         __asm__ volatile("csrw scause,0");
  15:src/ABI.cpp   ****         return;
  16:src/ABI.cpp   ****     }
  17:src/ABI.cpp   ****     uint64 sepc;
  48              		.loc 1 17 5 is_stmt 1
  18:src/ABI.cpp   ****     __asm__ volatile("csrr %0, sepc" : "=r"(sepc));
  49              		.loc 1 18 5
  50              		.loc 1 18 51 is_stmt 0
  51              	#APP
  52              	# 18 "src/ABI.cpp" 1
  19              	    __asm__ volatile("csrw sepc, %0" :: "r"(sepc + 4));
  53              		csrr a5, sepc
  54              	# 0 "" 2
  55              	.LVL4:
  56              		.loc 1 19 5 is_stmt 1
  57              		.loc 1 19 50 is_stmt 0
  58              	#NO_APP
  59 002c 93874700 		addi	a5,a5,4
  60              	.LVL5:
  61              		.loc 1 19 55
  62              	#APP
  63              	# 19 "src/ABI.cpp" 1
  20              	    switch (code) {
  64              		csrw sepc, a5
  65              	# 0 "" 2
  66              		.loc 1 20 5 is_stmt 1
  67              	#NO_APP
  68              	.LBB2:
  69 0034 93071000 		li	a5,1
  70              	.LVL6:
  71 0038 6304F702 		beq	a4,a5,.L4
  72 003c 93072000 		li	a5,2
  73 0040 6300F704 		beq	a4,a5,.L5
  74              	.LVL7:
  75              	.L1:
  76              	.LBE2:
  21:src/ABI.cpp   ****         case 0x01: {
  22:src/ABI.cpp   ****             size_t size=0;
  23:src/ABI.cpp   ****             __asm__ volatile("mv %[size],a1":[size]"=r"(size));
  24:src/ABI.cpp   ****             void* ptr = MemoryAllocator::GetInstance().AllocateFragment(size);
  25:src/ABI.cpp   ****             __asm__ volatile("mv a0,%[res]"::[res]"r"(ptr));
  26:src/ABI.cpp   ****             break;
  27:src/ABI.cpp   ****         }
  28:src/ABI.cpp   ****         case 0x02: {
  29:src/ABI.cpp   ****             void* ptr=nullptr;
  30:src/ABI.cpp   ****             __asm__ volatile("mv %[ptr],a1":[ptr]"=r"(ptr));
  31:src/ABI.cpp   ****             MemoryAllocator::GetInstance().FreeFragment(ptr);
  32:src/ABI.cpp   ****             break;
  33:src/ABI.cpp   ****         }
  34:src/ABI.cpp   ****         default: {
  35:src/ABI.cpp   ****             break;
  36:src/ABI.cpp   ****         }
  37:src/ABI.cpp   ****     }
  38:src/ABI.cpp   ****     return;
GAS LISTING /tmp/ccPJKuEW.s 			page 3


  39:src/ABI.cpp   **** }
  77              		.loc 1 39 1 is_stmt 0
  78 0044 83308101 		ld	ra,24(sp)
  79              		.cfi_restore 1
  80 0048 03340101 		ld	s0,16(sp)
  81              		.cfi_restore 8
  82              		.cfi_def_cfa 2, 32
  83 004c 83348100 		ld	s1,8(sp)
  84              		.cfi_restore 9
  85 0050 13010102 		addi	sp,sp,32
  86              		.cfi_def_cfa_offset 0
  87 0054 67800000 		jr	ra
  88              	.LVL8:
  89              	.L9:
  14:src/ABI.cpp   ****         return;
  90              		.loc 1 14 9 is_stmt 1
  14:src/ABI.cpp   ****         return;
  91              		.loc 1 14 42 is_stmt 0
  92              	#APP
  93              	# 14 "src/ABI.cpp" 1
  15:src/ABI.cpp   ****     }
  94              		csrw scause,0
  95              	# 0 "" 2
  96              		.loc 1 15 9 is_stmt 1
  97              	#NO_APP
  98 005c 67800000 		ret
  99              	.LVL9:
 100              	.L4:
 101              		.cfi_def_cfa_register 8
 102              		.cfi_offset 1, -8
 103              		.cfi_offset 8, -16
 104              		.cfi_offset 9, -24
  21:src/ABI.cpp   ****         case 0x01: {
 105              		.loc 1 21 9
  21:src/ABI.cpp   ****         case 0x01: {
 106              		.loc 1 21 20
 107              	.LBB5:
 108              	.LBB3:
  22:src/ABI.cpp   ****             __asm__ volatile("mv %[size],a1":[size]"=r"(size));
 109              		.loc 1 22 13
  23:src/ABI.cpp   ****             void* ptr = MemoryAllocator::GetInstance().AllocateFragment(size);
 110              		.loc 1 23 13
  23:src/ABI.cpp   ****             void* ptr = MemoryAllocator::GetInstance().AllocateFragment(size);
 111              		.loc 1 23 63 is_stmt 0
 112              	#APP
 113              	# 23 "src/ABI.cpp" 1
 114              		mv s1,a1
 115              	# 0 "" 2
 116              	.LVL10:
  24:src/ABI.cpp   ****             __asm__ volatile("mv a0,%[res]"::[res]"r"(ptr));
 117              		.loc 1 24 13 is_stmt 1
  24:src/ABI.cpp   ****             __asm__ volatile("mv a0,%[res]"::[res]"r"(ptr));
 118              		.loc 1 24 54 is_stmt 0
 119              	#NO_APP
 120 0064 97000000 		call	_ZN15MemoryAllocator11GetInstanceEv@plt
 120      E7800000 
 121              	.LVL11:
GAS LISTING /tmp/ccPJKuEW.s 			page 4


  24:src/ABI.cpp   ****             __asm__ volatile("mv a0,%[res]"::[res]"r"(ptr));
 122              		.loc 1 24 72
 123 006c 93850400 		mv	a1,s1
 124 0070 97000000 		call	_ZN15MemoryAllocator16AllocateFragmentEm@plt
 124      E7800000 
 125              	.LVL12:
  25:src/ABI.cpp   ****             break;
 126              		.loc 1 25 13 is_stmt 1
  25:src/ABI.cpp   ****             break;
 127              		.loc 1 25 60 is_stmt 0
 128              	#APP
 129              	# 25 "src/ABI.cpp" 1
  26:src/ABI.cpp   ****         }
 130              		mv a0,a0
 131              	# 0 "" 2
 132              		.loc 1 26 13 is_stmt 1
 133              	#NO_APP
 134 007c 6FF09FFC 		j	.L1
 135              	.LVL13:
 136              	.L5:
 137              	.LBE3:
 138              	.LBE5:
  28:src/ABI.cpp   ****             void* ptr=nullptr;
 139              		.loc 1 28 9
  28:src/ABI.cpp   ****             void* ptr=nullptr;
 140              		.loc 1 28 20
 141              	.LBB6:
 142              	.LBB4:
  29:src/ABI.cpp   ****             __asm__ volatile("mv %[ptr],a1":[ptr]"=r"(ptr));
 143              		.loc 1 29 13
  30:src/ABI.cpp   ****             MemoryAllocator::GetInstance().FreeFragment(ptr);
 144              		.loc 1 30 13
  30:src/ABI.cpp   ****             MemoryAllocator::GetInstance().FreeFragment(ptr);
 145              		.loc 1 30 60 is_stmt 0
 146              	#APP
 147              	# 30 "src/ABI.cpp" 1
 148              		mv s1,a1
 149              	# 0 "" 2
 150              	.LVL14:
  31:src/ABI.cpp   ****             break;
 151              		.loc 1 31 13 is_stmt 1
  31:src/ABI.cpp   ****             break;
 152              		.loc 1 31 42 is_stmt 0
 153              	#NO_APP
 154 0084 97000000 		call	_ZN15MemoryAllocator11GetInstanceEv@plt
 154      E7800000 
 155              	.LVL15:
  31:src/ABI.cpp   ****             break;
 156              		.loc 1 31 56
 157 008c 93850400 		mv	a1,s1
 158 0090 97000000 		call	_ZN15MemoryAllocator12FreeFragmentEPv@plt
 158      E7800000 
 159              	.LVL16:
  32:src/ABI.cpp   ****         }
 160              		.loc 1 32 13 is_stmt 1
 161 0098 6FF0DFFA 		j	.L1
 162              	.LBE4:
GAS LISTING /tmp/ccPJKuEW.s 			page 5


 163              	.LBE6:
 164              		.cfi_endproc
 165              	.LFE1:
 167              		.align	2
 168              		.globl	thread_create
 170              	thread_create:
 171              	.LFB5:
  40:src/ABI.cpp   **** 
  41:src/ABI.cpp   **** inline void* operator new(size_t, void* p) { return p; }
  42:src/ABI.cpp   **** 
  43:src/ABI.cpp   **** class FunctionThread : public Thread {
  44:src/ABI.cpp   **** public:
  45:src/ABI.cpp   ****     virtual void init(void (*f)(void)) {
  46:src/ABI.cpp   ****         func = f;
  47:src/ABI.cpp   ****         this->copyContext(Scheduler::GetRunning()->getContext());
  48:src/ABI.cpp   ****         threadContext.sepc = (size_t)this->func;
  49:src/ABI.cpp   ****     }
  50:src/ABI.cpp   ****     void run() override { func(); }
  51:src/ABI.cpp   **** private:
  52:src/ABI.cpp   ****     void (*func)(void);
  53:src/ABI.cpp   **** };
  54:src/ABI.cpp   **** 
  55:src/ABI.cpp   **** extern "C" {
  56:src/ABI.cpp   **** thread_t thread_create(void (*body)(void)) {
 172              		.loc 1 56 44
 173              		.cfi_startproc
 174              	.LVL17:
 175 009c 130101FF 		addi	sp,sp,-16
 176              		.cfi_def_cfa_offset 16
 177 00a0 23341100 		sd	ra,8(sp)
 178 00a4 23308100 		sd	s0,0(sp)
 179              		.cfi_offset 1, -8
 180              		.cfi_offset 8, -16
 181 00a8 13040101 		addi	s0,sp,16
 182              		.cfi_def_cfa 8, 0
  57:src/ABI.cpp   ****     void* mem = mem_alloc(sizeof(FunctionThread));
 183              		.loc 1 57 5
 184              		.loc 1 57 26 is_stmt 0
 185 00ac 37850000 		li	a0,32768
 186              	.LVL18:
 187 00b0 13050514 		addi	a0,a0,320
 188 00b4 97000000 		call	mem_alloc@plt
 188      E7800000 
 189              	.LVL19:
  58:src/ABI.cpp   ****     return reinterpret_cast<thread_t>(mem);
 190              		.loc 1 58 5 is_stmt 1
  59:src/ABI.cpp   **** }
 191              		.loc 1 59 1 is_stmt 0
 192 00bc 83308100 		ld	ra,8(sp)
 193              		.cfi_restore 1
 194 00c0 03340100 		ld	s0,0(sp)
 195              		.cfi_restore 8
 196              		.cfi_def_cfa 2, 16
 197 00c4 13010101 		addi	sp,sp,16
 198              		.cfi_def_cfa_offset 0
 199 00c8 67800000 		jr	ra
 200              		.cfi_endproc
GAS LISTING /tmp/ccPJKuEW.s 			page 6


 201              	.LFE5:
 203              		.align	2
 204              		.globl	thread_start
 206              	thread_start:
 207              	.LFB6:
  60:src/ABI.cpp   **** int thread_start(thread_t t) {
 208              		.loc 1 60 30 is_stmt 1
 209              		.cfi_startproc
 210              	.LVL20:
 211 00cc 130101FF 		addi	sp,sp,-16
 212              		.cfi_def_cfa_offset 16
 213 00d0 23341100 		sd	ra,8(sp)
 214 00d4 23308100 		sd	s0,0(sp)
 215              		.cfi_offset 1, -8
 216              		.cfi_offset 8, -16
 217 00d8 13040101 		addi	s0,sp,16
 218              		.cfi_def_cfa 8, 0
  61:src/ABI.cpp   ****     ((Thread*)t)->start();
 219              		.loc 1 61 5
 220              		.loc 1 61 24 is_stmt 0
 221 00dc 97000000 		call	_ZN6Thread5startEv@plt
 221      E7800000 
 222              	.LVL21:
  62:src/ABI.cpp   ****     return 0;
 223              		.loc 1 62 5 is_stmt 1
  63:src/ABI.cpp   **** }
 224              		.loc 1 63 1 is_stmt 0
 225 00e4 13050000 		li	a0,0
 226 00e8 83308100 		ld	ra,8(sp)
 227              		.cfi_restore 1
 228 00ec 03340100 		ld	s0,0(sp)
 229              		.cfi_restore 8
 230              		.cfi_def_cfa 2, 16
 231 00f0 13010101 		addi	sp,sp,16
 232              		.cfi_def_cfa_offset 0
 233 00f4 67800000 		jr	ra
 234              		.cfi_endproc
 235              	.LFE6:
 237              		.align	2
 238              		.globl	thread_join
 240              	thread_join:
 241              	.LFB7:
  64:src/ABI.cpp   **** int thread_join(thread_t t) {
 242              		.loc 1 64 29 is_stmt 1
 243              		.cfi_startproc
 244              	.LVL22:
 245 00f8 130101FF 		addi	sp,sp,-16
 246              		.cfi_def_cfa_offset 16
 247 00fc 23341100 		sd	ra,8(sp)
 248 0100 23308100 		sd	s0,0(sp)
 249              		.cfi_offset 1, -8
 250              		.cfi_offset 8, -16
 251 0104 13040101 		addi	s0,sp,16
 252              		.cfi_def_cfa 8, 0
  65:src/ABI.cpp   ****     ((Thread*)t)->join();
 253              		.loc 1 65 5
 254              		.loc 1 65 23 is_stmt 0
GAS LISTING /tmp/ccPJKuEW.s 			page 7


 255 0108 97000000 		call	_ZN6Thread4joinEv@plt
 255      E7800000 
 256              	.LVL23:
  66:src/ABI.cpp   ****     return 0;
 257              		.loc 1 66 5 is_stmt 1
  67:src/ABI.cpp   **** }
 258              		.loc 1 67 1 is_stmt 0
 259 0110 13050000 		li	a0,0
 260 0114 83308100 		ld	ra,8(sp)
 261              		.cfi_restore 1
 262 0118 03340100 		ld	s0,0(sp)
 263              		.cfi_restore 8
 264              		.cfi_def_cfa 2, 16
 265 011c 13010101 		addi	sp,sp,16
 266              		.cfi_def_cfa_offset 0
 267 0120 67800000 		jr	ra
 268              		.cfi_endproc
 269              	.LFE7:
 271              		.align	2
 272              		.globl	start_main_thread
 274              	start_main_thread:
 275              	.LFB8:
  68:src/ABI.cpp   **** int start_main_thread() {
 276              		.loc 1 68 25 is_stmt 1
 277              		.cfi_startproc
 278 0124 130101FF 		addi	sp,sp,-16
 279              		.cfi_def_cfa_offset 16
 280 0128 23341100 		sd	ra,8(sp)
 281 012c 23308100 		sd	s0,0(sp)
 282              		.cfi_offset 1, -8
 283              		.cfi_offset 8, -16
 284 0130 13040101 		addi	s0,sp,16
 285              		.cfi_def_cfa 8, 0
  69:src/ABI.cpp   ****     Scheduler::SetupStartThread();
 286              		.loc 1 69 5
 287              		.loc 1 69 32 is_stmt 0
 288 0134 97000000 		call	_ZN9Scheduler16SetupStartThreadEv@plt
 288      E7800000 
 289              	.LVL24:
  70:src/ABI.cpp   ****     return 0;
 290              		.loc 1 70 5 is_stmt 1
  71:src/ABI.cpp   **** }
 291              		.loc 1 71 1 is_stmt 0
 292 013c 13050000 		li	a0,0
 293 0140 83308100 		ld	ra,8(sp)
 294              		.cfi_restore 1
 295 0144 03340100 		ld	s0,0(sp)
 296              		.cfi_restore 8
 297              		.cfi_def_cfa 2, 16
 298 0148 13010101 		addi	sp,sp,16
 299              		.cfi_def_cfa_offset 0
 300 014c 67800000 		jr	ra
 301              		.cfi_endproc
 302              	.LFE8:
 304              	.Letext0:
 305              		.file 2 "src/./../lib/hw.h"
 306              		.file 3 "src/./MemoryAllocator.hpp"
GAS LISTING /tmp/ccPJKuEW.s 			page 8


 307              		.file 4 "src/APIC.h"
 308              		.file 5 "src/Scheduler.hpp"
 309              		.file 6 "src/Thread.hpp"
GAS LISTING /tmp/ccPJKuEW.s 			page 9


DEFINED SYMBOLS
                            *ABS*:0000000000000000 ABI.cpp
     /tmp/ccPJKuEW.s:9      .text:0000000000000000 HandleInterupt
     /tmp/ccPJKuEW.s:13     .text:0000000000000000 .L0 
     /tmp/ccPJKuEW.s:15     .text:0000000000000000 .L0 
     /tmp/ccPJKuEW.s:16     .text:0000000000000000 .L0 
         src/ABI.cpp:10     .text:0000000000000000 .L0 
     /tmp/ccPJKuEW.s:23     .text:0000000000000004 .L0 
     /tmp/ccPJKuEW.s:24     .text:0000000000000004 .L0 
         src/ABI.cpp:12     .text:0000000000000004 .L0 
     /tmp/ccPJKuEW.s:30     .text:0000000000000008 .L0 
     /tmp/ccPJKuEW.s:32     .text:0000000000000008 .L0 
     /tmp/ccPJKuEW.s:35     .text:000000000000000c .L0 
     /tmp/ccPJKuEW.s:38     .text:0000000000000014 .L0 
     /tmp/ccPJKuEW.s:39     .text:0000000000000018 .L0 
     /tmp/ccPJKuEW.s:43     .text:0000000000000024 .L0 
     /tmp/ccPJKuEW.s:44     .text:0000000000000024 .L0 
     /tmp/ccPJKuEW.s:45     .text:0000000000000024 .L0 
     /tmp/ccPJKuEW.s:47     .text:0000000000000028 .L0 
     /tmp/ccPJKuEW.s:49     .text:0000000000000028 .L0 
     /tmp/ccPJKuEW.s:50     .text:0000000000000028 .L0 
         src/ABI.cpp:18     .text:0000000000000028 .L0 
     /tmp/ccPJKuEW.s:57     .text:000000000000002c .L0 
     /tmp/ccPJKuEW.s:59     .text:000000000000002c .L0 
         src/ABI.cpp:19     .text:0000000000000030 .L0 
     /tmp/ccPJKuEW.s:69     .text:0000000000000034 .L0 
     /tmp/ccPJKuEW.s:78     .text:0000000000000044 .L0 
     /tmp/ccPJKuEW.s:79     .text:0000000000000048 .L0 
     /tmp/ccPJKuEW.s:81     .text:000000000000004c .L0 
     /tmp/ccPJKuEW.s:82     .text:000000000000004c .L0 
     /tmp/ccPJKuEW.s:84     .text:0000000000000050 .L0 
     /tmp/ccPJKuEW.s:86     .text:0000000000000054 .L0 
     /tmp/ccPJKuEW.s:91     .text:0000000000000058 .L0 
         src/ABI.cpp:14     .text:0000000000000058 .L0 
     /tmp/ccPJKuEW.s:98     .text:000000000000005c .L0 
     /tmp/ccPJKuEW.s:101    .text:0000000000000060 .L0 
     /tmp/ccPJKuEW.s:102    .text:0000000000000060 .L0 
     /tmp/ccPJKuEW.s:103    .text:0000000000000060 .L0 
     /tmp/ccPJKuEW.s:104    .text:0000000000000060 .L0 
     /tmp/ccPJKuEW.s:106    .text:0000000000000060 .L0 
     /tmp/ccPJKuEW.s:109    .text:0000000000000060 .L0 
     /tmp/ccPJKuEW.s:110    .text:0000000000000060 .L0 
     /tmp/ccPJKuEW.s:111    .text:0000000000000060 .L0 
         src/ABI.cpp:23     .text:0000000000000060 .L0 
     /tmp/ccPJKuEW.s:118    .text:0000000000000064 .L0 
     /tmp/ccPJKuEW.s:120    .text:0000000000000064 .L0 
     /tmp/ccPJKuEW.s:123    .text:000000000000006c .L0 
     /tmp/ccPJKuEW.s:127    .text:0000000000000078 .L0 
         src/ABI.cpp:25     .text:0000000000000078 .L0 
     /tmp/ccPJKuEW.s:134    .text:000000000000007c .L0 
     /tmp/ccPJKuEW.s:140    .text:0000000000000080 .L0 
     /tmp/ccPJKuEW.s:143    .text:0000000000000080 .L0 
     /tmp/ccPJKuEW.s:144    .text:0000000000000080 .L0 
     /tmp/ccPJKuEW.s:145    .text:0000000000000080 .L0 
         src/ABI.cpp:30     .text:0000000000000080 .L0 
     /tmp/ccPJKuEW.s:152    .text:0000000000000084 .L0 
     /tmp/ccPJKuEW.s:154    .text:0000000000000084 .L0 
GAS LISTING /tmp/ccPJKuEW.s 			page 10


     /tmp/ccPJKuEW.s:157    .text:000000000000008c .L0 
     /tmp/ccPJKuEW.s:161    .text:0000000000000098 .L0 
     /tmp/ccPJKuEW.s:164    .text:000000000000009c .L0 
     /tmp/ccPJKuEW.s:170    .text:000000000000009c thread_create
     /tmp/ccPJKuEW.s:173    .text:000000000000009c .L0 
     /tmp/ccPJKuEW.s:175    .text:000000000000009c .L0 
     /tmp/ccPJKuEW.s:176    .text:00000000000000a0 .L0 
     /tmp/ccPJKuEW.s:179    .text:00000000000000a8 .L0 
     /tmp/ccPJKuEW.s:180    .text:00000000000000a8 .L0 
     /tmp/ccPJKuEW.s:182    .text:00000000000000ac .L0 
     /tmp/ccPJKuEW.s:184    .text:00000000000000ac .L0 
     /tmp/ccPJKuEW.s:185    .text:00000000000000ac .L0 
     /tmp/ccPJKuEW.s:191    .text:00000000000000bc .L0 
     /tmp/ccPJKuEW.s:192    .text:00000000000000bc .L0 
     /tmp/ccPJKuEW.s:193    .text:00000000000000c0 .L0 
     /tmp/ccPJKuEW.s:195    .text:00000000000000c4 .L0 
     /tmp/ccPJKuEW.s:196    .text:00000000000000c4 .L0 
     /tmp/ccPJKuEW.s:198    .text:00000000000000c8 .L0 
     /tmp/ccPJKuEW.s:200    .text:00000000000000cc .L0 
     /tmp/ccPJKuEW.s:206    .text:00000000000000cc thread_start
     /tmp/ccPJKuEW.s:209    .text:00000000000000cc .L0 
     /tmp/ccPJKuEW.s:211    .text:00000000000000cc .L0 
     /tmp/ccPJKuEW.s:212    .text:00000000000000d0 .L0 
     /tmp/ccPJKuEW.s:215    .text:00000000000000d8 .L0 
     /tmp/ccPJKuEW.s:216    .text:00000000000000d8 .L0 
     /tmp/ccPJKuEW.s:218    .text:00000000000000dc .L0 
     /tmp/ccPJKuEW.s:220    .text:00000000000000dc .L0 
     /tmp/ccPJKuEW.s:221    .text:00000000000000dc .L0 
     /tmp/ccPJKuEW.s:224    .text:00000000000000e4 .L0 
     /tmp/ccPJKuEW.s:225    .text:00000000000000e4 .L0 
     /tmp/ccPJKuEW.s:227    .text:00000000000000ec .L0 
     /tmp/ccPJKuEW.s:229    .text:00000000000000f0 .L0 
     /tmp/ccPJKuEW.s:230    .text:00000000000000f0 .L0 
     /tmp/ccPJKuEW.s:232    .text:00000000000000f4 .L0 
     /tmp/ccPJKuEW.s:234    .text:00000000000000f8 .L0 
     /tmp/ccPJKuEW.s:240    .text:00000000000000f8 thread_join
     /tmp/ccPJKuEW.s:243    .text:00000000000000f8 .L0 
     /tmp/ccPJKuEW.s:245    .text:00000000000000f8 .L0 
     /tmp/ccPJKuEW.s:246    .text:00000000000000fc .L0 
     /tmp/ccPJKuEW.s:249    .text:0000000000000104 .L0 
     /tmp/ccPJKuEW.s:250    .text:0000000000000104 .L0 
     /tmp/ccPJKuEW.s:252    .text:0000000000000108 .L0 
     /tmp/ccPJKuEW.s:254    .text:0000000000000108 .L0 
     /tmp/ccPJKuEW.s:255    .text:0000000000000108 .L0 
     /tmp/ccPJKuEW.s:258    .text:0000000000000110 .L0 
     /tmp/ccPJKuEW.s:259    .text:0000000000000110 .L0 
     /tmp/ccPJKuEW.s:261    .text:0000000000000118 .L0 
     /tmp/ccPJKuEW.s:263    .text:000000000000011c .L0 
     /tmp/ccPJKuEW.s:264    .text:000000000000011c .L0 
     /tmp/ccPJKuEW.s:266    .text:0000000000000120 .L0 
     /tmp/ccPJKuEW.s:268    .text:0000000000000124 .L0 
     /tmp/ccPJKuEW.s:274    .text:0000000000000124 start_main_thread
     /tmp/ccPJKuEW.s:277    .text:0000000000000124 .L0 
     /tmp/ccPJKuEW.s:278    .text:0000000000000124 .L0 
     /tmp/ccPJKuEW.s:279    .text:0000000000000128 .L0 
     /tmp/ccPJKuEW.s:282    .text:0000000000000130 .L0 
     /tmp/ccPJKuEW.s:283    .text:0000000000000130 .L0 
GAS LISTING /tmp/ccPJKuEW.s 			page 11


     /tmp/ccPJKuEW.s:285    .text:0000000000000134 .L0 
     /tmp/ccPJKuEW.s:287    .text:0000000000000134 .L0 
     /tmp/ccPJKuEW.s:288    .text:0000000000000134 .L0 
     /tmp/ccPJKuEW.s:291    .text:000000000000013c .L0 
     /tmp/ccPJKuEW.s:292    .text:000000000000013c .L0 
     /tmp/ccPJKuEW.s:294    .text:0000000000000144 .L0 
     /tmp/ccPJKuEW.s:296    .text:0000000000000148 .L0 
     /tmp/ccPJKuEW.s:297    .text:0000000000000148 .L0 
     /tmp/ccPJKuEW.s:299    .text:000000000000014c .L0 
     /tmp/ccPJKuEW.s:301    .text:0000000000000150 .L0 
     /tmp/ccPJKuEW.s:310    .text:0000000000000150 .L0 
     /tmp/ccPJKuEW.s:89     .text:0000000000000058 .L9
     /tmp/ccPJKuEW.s:100    .text:0000000000000060 .L4
     /tmp/ccPJKuEW.s:136    .text:0000000000000080 .L5
     /tmp/ccPJKuEW.s:75     .text:0000000000000044 .L1
     /tmp/ccPJKuEW.s:941    .debug_abbrev:0000000000000000 .Ldebug_abbrev0
     /tmp/ccPJKuEW.s:1823   .debug_str:000000000000025c .LASF69
     /tmp/ccPJKuEW.s:1755   .debug_str:0000000000000032 .LASF70
     /tmp/ccPJKuEW.s:1797   .debug_str:0000000000000144 .LASF71
     /tmp/ccPJKuEW.s:1741   .debug_ranges:0000000000000000 .Ldebug_ranges0
     /tmp/ccPJKuEW.s:1747   .debug_line:0000000000000000 .Ldebug_line0
     /tmp/ccPJKuEW.s:1841   .debug_str:000000000000037f .LASF0
     /tmp/ccPJKuEW.s:1805   .debug_str:00000000000001a1 .LASF1
     /tmp/ccPJKuEW.s:1793   .debug_str:0000000000000128 .LASF2
     /tmp/ccPJKuEW.s:1877   .debug_str:0000000000000488 .LASF3
     /tmp/ccPJKuEW.s:1765   .debug_str:000000000000006a .LASF4
     /tmp/ccPJKuEW.s:1801   .debug_str:000000000000017f .LASF5
     /tmp/ccPJKuEW.s:1807   .debug_str:00000000000001b4 .LASF6
     /tmp/ccPJKuEW.s:1853   .debug_str:00000000000003d5 .LASF7
     /tmp/ccPJKuEW.s:1749   .debug_str:0000000000000000 .LASF8
     /tmp/ccPJKuEW.s:1785   .debug_str:00000000000000f0 .LASF9
     /tmp/ccPJKuEW.s:1855   .debug_str:00000000000003dc .LASF10
     /tmp/ccPJKuEW.s:1763   .debug_str:000000000000005c .LASF11
     /tmp/ccPJKuEW.s:1903   .debug_str:0000000000000575 .LASF12
     /tmp/ccPJKuEW.s:1789   .debug_str:0000000000000112 .LASF13
     /tmp/ccPJKuEW.s:1885   .debug_str:00000000000004e6 .LASF14
     /tmp/ccPJKuEW.s:1863   .debug_str:0000000000000418 .LASF15
     /tmp/ccPJKuEW.s:1811   .debug_str:00000000000001db .LASF16
     /tmp/ccPJKuEW.s:1771   .debug_str:0000000000000089 .LASF17
     /tmp/ccPJKuEW.s:1857   .debug_str:00000000000003ec .LASF18
     /tmp/ccPJKuEW.s:1783   .debug_str:00000000000000e7 .LASF23
     /tmp/ccPJKuEW.s:1757   .debug_str:000000000000003e .LASF19
     /tmp/ccPJKuEW.s:1899   .debug_str:0000000000000564 .LASF20
     /tmp/ccPJKuEW.s:1865   .debug_str:0000000000000428 .LASF21
     /tmp/ccPJKuEW.s:1895   .debug_str:0000000000000549 .LASF22
     /tmp/ccPJKuEW.s:1753   .debug_str:0000000000000022 .LASF24
     /tmp/ccPJKuEW.s:1829   .debug_str:0000000000000345 .LASF47
     /tmp/ccPJKuEW.s:1879   .debug_str:000000000000048e .LASF49
     /tmp/ccPJKuEW.s:1851   .debug_str:00000000000003c4 .LASF25
     /tmp/ccPJKuEW.s:1887   .debug_str:00000000000004f6 .LASF27
     /tmp/ccPJKuEW.s:1769   .debug_str:000000000000007c .LASF26
     /tmp/ccPJKuEW.s:1867   .debug_str:000000000000042d .LASF28
     /tmp/ccPJKuEW.s:1831   .debug_str:0000000000000351 .LASF29
     /tmp/ccPJKuEW.s:1827   .debug_str:000000000000032c .LASF41
     /tmp/ccPJKuEW.s:1869   .debug_str:0000000000000453 .LASF30
     /tmp/ccPJKuEW.s:1901   .debug_str:0000000000000569 .LASF31
     /tmp/ccPJKuEW.s:1859   .debug_str:0000000000000402 .LASF32
GAS LISTING /tmp/ccPJKuEW.s 			page 12


     /tmp/ccPJKuEW.s:1849   .debug_str:00000000000003ba .LASF33
     /tmp/ccPJKuEW.s:1897   .debug_str:000000000000054e .LASF34
     /tmp/ccPJKuEW.s:1845   .debug_str:00000000000003ad .LASF35
     /tmp/ccPJKuEW.s:1767   .debug_str:0000000000000071 .LASF36
     /tmp/ccPJKuEW.s:1795   .debug_str:0000000000000136 .LASF37
     /tmp/ccPJKuEW.s:1837   .debug_str:0000000000000361 .LASF38
     /tmp/ccPJKuEW.s:1883   .debug_str:00000000000004d9 .LASF39
     /tmp/ccPJKuEW.s:1825   .debug_str:0000000000000320 .LASF72
     /tmp/ccPJKuEW.s:1799   .debug_str:0000000000000162 .LASF73
     /tmp/ccPJKuEW.s:1751   .debug_str:0000000000000013 .LASF40
     /tmp/ccPJKuEW.s:1881   .debug_str:00000000000004b2 .LASF42
     /tmp/ccPJKuEW.s:1803   .debug_str:0000000000000191 .LASF43
     /tmp/ccPJKuEW.s:1843   .debug_str:000000000000038c .LASF45
     /tmp/ccPJKuEW.s:1821   .debug_str:000000000000024b .LASF44
     /tmp/ccPJKuEW.s:1815   .debug_str:0000000000000203 .LASF46
     /tmp/ccPJKuEW.s:1817   .debug_str:0000000000000225 .LASF48
     /tmp/ccPJKuEW.s:1813   .debug_str:00000000000001e7 .LASF50
     /tmp/ccPJKuEW.s:1835   .debug_str:000000000000035b .LASF53
     /tmp/ccPJKuEW.s:1809   .debug_str:00000000000001bb .LASF74
     /tmp/ccPJKuEW.s:1889   .debug_str:000000000000051f .LASF51
     /tmp/ccPJKuEW.s:1893   .debug_str:0000000000000531 .LASF52
     /tmp/ccPJKuEW.s:1819   .debug_str:0000000000000230 .LASF75
     /tmp/ccPJKuEW.s:1761   .debug_str:000000000000004f .LASF54
     /tmp/ccPJKuEW.s:1773   .debug_str:000000000000009f .LASF55
     /tmp/ccPJKuEW.s:1791   .debug_str:0000000000000121 .LASF76
     /tmp/ccPJKuEW.s:1839   .debug_str:000000000000036d .LASF56
     /tmp/ccPJKuEW.s:1775   .debug_str:00000000000000c4 .LASF58
     /tmp/ccPJKuEW.s:1873   .debug_str:0000000000000467 .LASF57
     /tmp/ccPJKuEW.s:1871   .debug_str:0000000000000461 .LASF59
     /tmp/ccPJKuEW.s:1777   .debug_str:00000000000000c9 .LASF60
     /tmp/ccPJKuEW.s:275    .text:0000000000000124 .LFB8
     /tmp/ccPJKuEW.s:302    .text:0000000000000150 .LFE8
     /tmp/ccPJKuEW.s:289    .text:000000000000013c .LVL24
     /tmp/ccPJKuEW.s:1759   .debug_str:0000000000000043 .LASF61
     /tmp/ccPJKuEW.s:241    .text:00000000000000f8 .LFB7
     /tmp/ccPJKuEW.s:269    .text:0000000000000124 .LFE7
     /tmp/ccPJKuEW.s:1599   .debug_loc:0000000000000000 .LLST8
     /tmp/ccPJKuEW.s:256    .text:0000000000000110 .LVL23
     /tmp/ccPJKuEW.s:1861   .debug_str:000000000000040b .LASF62
     /tmp/ccPJKuEW.s:207    .text:00000000000000cc .LFB6
     /tmp/ccPJKuEW.s:235    .text:00000000000000f8 .LFE6
     /tmp/ccPJKuEW.s:1613   .debug_loc:0000000000000039 .LLST7
     /tmp/ccPJKuEW.s:222    .text:00000000000000e4 .LVL21
     /tmp/ccPJKuEW.s:1875   .debug_str:000000000000047a .LASF63
     /tmp/ccPJKuEW.s:171    .text:000000000000009c .LFB5
     /tmp/ccPJKuEW.s:201    .text:00000000000000cc .LFE5
     /tmp/ccPJKuEW.s:1833   .debug_str:0000000000000356 .LASF64
     /tmp/ccPJKuEW.s:1627   .debug_loc:0000000000000072 .LLST6
     /tmp/ccPJKuEW.s:189    .text:00000000000000bc .LVL19
     /tmp/ccPJKuEW.s:1787   .debug_str:0000000000000103 .LASF77
     /tmp/ccPJKuEW.s:10     .text:0000000000000000 .LFB1
     /tmp/ccPJKuEW.s:165    .text:000000000000009c .LFE1
     /tmp/ccPJKuEW.s:1847   .debug_str:00000000000003b5 .LASF65
     /tmp/ccPJKuEW.s:1641   .debug_loc:00000000000000ab .LLST0
     /tmp/ccPJKuEW.s:1779   .debug_str:00000000000000db .LASF66
     /tmp/ccPJKuEW.s:1660   .debug_loc:0000000000000107 .LLST1
     /tmp/ccPJKuEW.s:1781   .debug_str:00000000000000e2 .LASF67
GAS LISTING /tmp/ccPJKuEW.s 			page 13


     /tmp/ccPJKuEW.s:1684   .debug_loc:0000000000000168 .LLST2
     /tmp/ccPJKuEW.s:108    .text:0000000000000060 .LBB3
     /tmp/ccPJKuEW.s:137    .text:0000000000000080 .LBE3
     /tmp/ccPJKuEW.s:1697   .debug_loc:00000000000001a0 .LLST3
     /tmp/ccPJKuEW.s:1709   .debug_loc:00000000000001d7 .LLST4
     /tmp/ccPJKuEW.s:121    .text:000000000000006c .LVL11
     /tmp/ccPJKuEW.s:125    .text:0000000000000078 .LVL12
     /tmp/ccPJKuEW.s:142    .text:0000000000000080 .LBB4
     /tmp/ccPJKuEW.s:162    .text:000000000000009c .LBE4
     /tmp/ccPJKuEW.s:1716   .debug_loc:00000000000001fa .LLST5
     /tmp/ccPJKuEW.s:155    .text:000000000000008c .LVL15
     /tmp/ccPJKuEW.s:159    .text:0000000000000098 .LVL16
     /tmp/ccPJKuEW.s:1891   .debug_str:0000000000000527 .LASF68
     /tmp/ccPJKuEW.s:244    .text:00000000000000f8 .LVL22
     /tmp/ccPJKuEW.s:210    .text:00000000000000cc .LVL20
     /tmp/ccPJKuEW.s:174    .text:000000000000009c .LVL17
     /tmp/ccPJKuEW.s:186    .text:00000000000000b0 .LVL18
     /tmp/ccPJKuEW.s:14     .text:0000000000000000 .LVL0
     /tmp/ccPJKuEW.s:21     .text:0000000000000004 .LVL1
     /tmp/ccPJKuEW.s:74     .text:0000000000000044 .LVL7
     /tmp/ccPJKuEW.s:88     .text:0000000000000058 .LVL8
     /tmp/ccPJKuEW.s:135    .text:0000000000000080 .LVL13
     /tmp/ccPJKuEW.s:28     .text:0000000000000008 .LVL2
     /tmp/ccPJKuEW.s:33     .text:000000000000000c .LVL3
     /tmp/ccPJKuEW.s:55     .text:000000000000002c .LVL4
     /tmp/ccPJKuEW.s:99     .text:0000000000000060 .LVL9
     /tmp/ccPJKuEW.s:60     .text:0000000000000030 .LVL5
     /tmp/ccPJKuEW.s:70     .text:0000000000000038 .LVL6
     /tmp/ccPJKuEW.s:116    .text:0000000000000064 .LVL10
     /tmp/ccPJKuEW.s:150    .text:0000000000000084 .LVL14
     /tmp/ccPJKuEW.s:311    .debug_info:0000000000000000 .Ldebug_info0
     /tmp/ccPJKuEW.s:5      .text:0000000000000000 .Ltext0
     /tmp/ccPJKuEW.s:304    .text:0000000000000150 .Letext0

UNDEFINED SYMBOLS
_ZN15MemoryAllocator11GetInstanceEv
_ZN15MemoryAllocator16AllocateFragmentEm
_ZN15MemoryAllocator12FreeFragmentEPv
mem_alloc
_ZN6Thread5startEv
_ZN6Thread4joinEv
_ZN9Scheduler16SetupStartThreadEv
