GAS LISTING /tmp/cc6mZCop.s 			page 1


   1              		.file	"ABI.cpp"
   2              		.option pic
   3              		.option norelax
   4              		.text
   5              	.Ltext0:
   6              		.align	2
   7              		.globl	HandleInterupt
   9              	HandleInterupt:
  10              	.LFB3:
  11              		.file 1 "src/ABI.cpp"
   1:src/ABI.cpp   **** //
   2:src/ABI.cpp   **** // Created by os on 5/6/26.
   3:src/ABI.cpp   **** //
   4:src/ABI.cpp   **** #include "../h/MemoryAllocator.hpp"
   5:src/ABI.cpp   **** #include "../h/Thread.hpp"
   6:src/ABI.cpp   **** #include "../h/syscall_c.h"
   7:src/ABI.cpp   **** #include "../h/Scheduler.hpp"
   8:src/ABI.cpp   **** #include "../h/Semaphore.hpp"
   9:src/ABI.cpp   **** #include "../h/Konsole.hpp"
  10:src/ABI.cpp   **** #include "../h/SyscallCodes.hpp"
  11:src/ABI.cpp   **** #include "../lib/console.h"
  12:src/ABI.cpp   **** 
  13:src/ABI.cpp   **** extern "C" void restoreContext(size_t* ctx);
  14:src/ABI.cpp   **** 
  15:src/ABI.cpp   **** 
  16:src/ABI.cpp   **** 
  17:src/ABI.cpp   **** extern "C" void HandleInterupt(size_t* stackInfo){
  12              		.loc 1 17 50
  13              		.cfi_startproc
  14              	.LVL0:
  15 0000 130101FB 		addi	sp,sp,-80
  16              		.cfi_def_cfa_offset 80
  17 0004 23341104 		sd	ra,72(sp)
  18 0008 23308104 		sd	s0,64(sp)
  19 000c 233C9102 		sd	s1,56(sp)
  20 0010 23382103 		sd	s2,48(sp)
  21 0014 23343103 		sd	s3,40(sp)
  22 0018 23304103 		sd	s4,32(sp)
  23 001c 233C5101 		sd	s5,24(sp)
  24 0020 23386101 		sd	s6,16(sp)
  25 0024 23347101 		sd	s7,8(sp)
  26              		.cfi_offset 1, -8
  27              		.cfi_offset 8, -16
  28              		.cfi_offset 9, -24
  29              		.cfi_offset 18, -32
  30              		.cfi_offset 19, -40
  31              		.cfi_offset 20, -48
  32              		.cfi_offset 21, -56
  33              		.cfi_offset 22, -64
  34              		.cfi_offset 23, -72
  35 0028 13040105 		addi	s0,sp,80
  36              		.cfi_def_cfa 8, 0
  37 002c 13090500 		mv	s2,a0
  18:src/ABI.cpp   ****     uint64 scause;
  38              		.loc 1 18 5
  19:src/ABI.cpp   ****     __asm__ volatile("csrr %0, scause" : "=r"(scause));
  39              		.loc 1 19 5
GAS LISTING /tmp/cc6mZCop.s 			page 2


  40              		.loc 1 19 55 is_stmt 0
  41              	#APP
  42              	# 19 "src/ABI.cpp" 1
  20              	
  43              		csrr s3, scause
  44              	# 0 "" 2
  45              	.LVL1:
  21:src/ABI.cpp   ****     Scheduler::freeDead();
  46              		.loc 1 21 5 is_stmt 1
  47              		.loc 1 21 24 is_stmt 0
  48              	#NO_APP
  49 0034 97000000 		call	_ZN9Scheduler8freeDeadEv@plt
  49      E7800000 
  50              	.LVL2:
  22:src/ABI.cpp   **** 
  23:src/ABI.cpp   ****     KThread* current = Scheduler::GetRunning();
  51              		.loc 1 23 5 is_stmt 1
  52              		.loc 1 23 45 is_stmt 0
  53 003c 97000000 		call	_ZN9Scheduler10GetRunningEv@plt
  53      E7800000 
  54              	.LVL3:
  55 0044 93040500 		mv	s1,a0
  56              	.LVL4:
  24:src/ABI.cpp   ****     if (current != nullptr) {
  57              		.loc 1 24 5 is_stmt 1
  58              	.LBB23:
  59 0048 63080504 		beqz	a0,.L2
  60              	.LBB24:
  61              	.LBB25:
  25:src/ABI.cpp   ****         auto& ctx = current->threadContext;
  26:src/ABI.cpp   ****         for (int i = 0; i < 32; i++) ctx.x[i] = stackInfo[i];
  62              		.loc 1 26 18 is_stmt 0
  63 004c 13070000 		li	a4,0
  64              	.L4:
  65              	.LVL5:
  66              		.loc 1 26 27 is_stmt 1 discriminator 3
  67 0050 9307F001 		li	a5,31
  68 0054 63C0E702 		bgt	a4,a5,.L3
  69              		.loc 1 26 38 discriminator 2
  70              		.loc 1 26 60 is_stmt 0 discriminator 2
  71 0058 93173700 		slli	a5,a4,3
  72 005c B306F900 		add	a3,s2,a5
  73 0060 83B60600 		ld	a3,0(a3)
  74              		.loc 1 26 47 discriminator 2
  75 0064 B387F400 		add	a5,s1,a5
  76 0068 23B4D706 		sd	a3,104(a5)
  77              		.loc 1 26 9 is_stmt 1 discriminator 2
  78 006c 1B071700 		addiw	a4,a4,1
  79              	.LVL6:
  80 0070 6FF01FFE 		j	.L4
  81              	.LVL7:
  82              	.L3:
  83              	.LBE25:
  27:src/ABI.cpp   ****         ctx.x[2] = (size_t)stackInfo + 256;
  84              		.loc 1 27 9
  85              		.loc 1 27 38 is_stmt 0
  86 0074 93070910 		addi	a5,s2,256
GAS LISTING /tmp/cc6mZCop.s 			page 3


  87              		.loc 1 27 18
  88 0078 23BCF406 		sd	a5,120(s1)
  28:src/ABI.cpp   **** 
  29:src/ABI.cpp   ****         size_t sepc, sstatus;
  89              		.loc 1 29 9 is_stmt 1
  30:src/ABI.cpp   ****         __asm__ volatile("csrr %0, sepc"    : "=r"(sepc));
  90              		.loc 1 30 9
  91              		.loc 1 30 58 is_stmt 0
  92              	#APP
  93              	# 30 "src/ABI.cpp" 1
  31              	        __asm__ volatile("csrr %0, sstatus" : "=r"(sstatus));
  94              		csrr a4, sepc
  95              	# 0 "" 2
  96              	.LVL8:
  97              		.loc 1 31 9 is_stmt 1
  98              		.loc 1 31 61 is_stmt 0
  99              	# 31 "src/ABI.cpp" 1
  32              	        if (scause == SCause::ECALL_USER || scause == SCause::ECALL_SUPERVISOR) sepc += 4;
 100              		csrr a3, sstatus
 101              	# 0 "" 2
 102              	.LVL9:
 103              		.loc 1 32 9 is_stmt 1
 104              		.loc 1 32 42 is_stmt 0
 105              	#NO_APP
 106 0084 938789FF 		addi	a5,s3,-8
 107              		.loc 1 32 9
 108 0088 13061000 		li	a2,1
 109 008c 637AF606 		bleu	a5,a2,.L40
 110              	.L5:
  33:src/ABI.cpp   ****         ctx.sepc    = sepc;
 111              		.loc 1 33 9 is_stmt 1
 112              		.loc 1 33 21 is_stmt 0
 113 0090 23B4E416 		sd	a4,360(s1)
  34:src/ABI.cpp   ****         ctx.sstatus = sstatus;
 114              		.loc 1 34 9 is_stmt 1
 115              		.loc 1 34 21 is_stmt 0
 116 0094 23B8D416 		sd	a3,368(s1)
 117              	.LVL10:
 118              	.L2:
 119              	.LBE24:
 120              	.LBE23:
  35:src/ABI.cpp   ****     }
  36:src/ABI.cpp   **** 
  37:src/ABI.cpp   ****     if (scause == SCause::TIMER_INTERRUPT) {
 121              		.loc 1 37 5 is_stmt 1
 122 0098 9307F0FF 		li	a5,-1
 123 009c 9397F703 		slli	a5,a5,63
 124 00a0 93871700 		addi	a5,a5,1
 125 00a4 6382F906 		beq	s3,a5,.L41
  38:src/ABI.cpp   ****         Scheduler::timerTick(current);
  39:src/ABI.cpp   ****         if (current) __asm__ volatile("mv a0, %0" :: "r"(current->threadContext.x[10]));
  40:src/ABI.cpp   ****         return;
  41:src/ABI.cpp   ****     }
  42:src/ABI.cpp   **** 
  43:src/ABI.cpp   ****     if (scause == SCause::EXTERNAL_INTERRUPT) {
 126              		.loc 1 43 5
 127 00a8 9307F0FF 		li	a5,-1
GAS LISTING /tmp/cc6mZCop.s 			page 4


 128 00ac 9397F703 		slli	a5,a5,63
 129 00b0 93879700 		addi	a5,a5,9
 130 00b4 6388F906 		beq	s3,a5,.L42
  44:src/ABI.cpp   ****         Konsole::handleInterrupt();
  45:src/ABI.cpp   ****         if (current) __asm__ volatile("mv a0, %0" :: "r"(current->threadContext.x[10]));
  46:src/ABI.cpp   ****         return;
  47:src/ABI.cpp   ****     }
  48:src/ABI.cpp   **** 
  49:src/ABI.cpp   ****     if (scause != SCause::ECALL_USER && scause != SCause::ECALL_SUPERVISOR) {
 131              		.loc 1 49 5
 132              		.loc 1 49 38 is_stmt 0
 133 00b8 938789FF 		addi	a5,s3,-8
 134              		.loc 1 49 5
 135 00bc 13071000 		li	a4,1
 136 00c0 636EF706 		bgtu	a5,a4,.L43
  50:src/ABI.cpp   ****         if ((scause >> 63) == 0 && current != nullptr) {
  51:src/ABI.cpp   ****             Scheduler::ThreadExit(current);
  52:src/ABI.cpp   ****         }
  53:src/ABI.cpp   ****         return;
  54:src/ABI.cpp   ****     }
  55:src/ABI.cpp   **** 
  56:src/ABI.cpp   ****     // ecall: advance CSR sepc past the ecall instruction
  57:src/ABI.cpp   ****     {
 137              		.loc 1 57 5 is_stmt 1
 138              	.LBB27:
  58:src/ABI.cpp   ****         uint64 sepc;
 139              		.loc 1 58 9
  59:src/ABI.cpp   ****         __asm__ volatile("csrr %0, sepc" : "=r"(sepc));
 140              		.loc 1 59 9
 141              		.loc 1 59 55 is_stmt 0
 142              	#APP
 143              	# 59 "src/ABI.cpp" 1
  60              	        __asm__ volatile("csrw sepc, %0" :: "r"(sepc + 4));
 144              		csrr a5, sepc
 145              	# 0 "" 2
 146              	.LVL11:
 147              		.loc 1 60 9 is_stmt 1
 148              		.loc 1 60 54 is_stmt 0
 149              	#NO_APP
 150 00c8 93874700 		addi	a5,a5,4
 151              	.LVL12:
 152              		.loc 1 60 59
 153              	#APP
 154              	# 60 "src/ABI.cpp" 1
  61              	    }
 155              		csrw sepc, a5
 156              	# 0 "" 2
 157              	#NO_APP
 158              	.LBE27:
  62:src/ABI.cpp   **** 
  63:src/ABI.cpp   ****     size_t code = stackInfo[10];
 159              		.loc 1 63 5 is_stmt 1
 160              		.loc 1 63 12 is_stmt 0
 161 00d0 83370905 		ld	a5,80(s2)
 162              	.LVL13:
  64:src/ABI.cpp   ****     switch (code) {
 163              		.loc 1 64 5 is_stmt 1
GAS LISTING /tmp/cc6mZCop.s 			page 5


 164              	.LBB28:
 165 00d4 13072004 		li	a4,66
 166 00d8 6362F70A 		bgtu	a5,a4,.L11
 167 00dc 638A0706 		beqz	a5,.L1
 168 00e0 6368F706 		bgtu	a5,a4,.L1
 169 00e4 93972700 		slli	a5,a5,2
 170              	.LVL14:
 171 00e8 17070000 		lla	a4,.L13
 171      13070700 
 172 00f0 B387E700 		add	a5,a5,a4
 173 00f4 83A70700 		lw	a5,0(a5)
 174 00f8 B387E700 		add	a5,a5,a4
 175 00fc 67800700 		jr	a5
 176              		.section	.rodata
 177              		.align	2
 178              		.align	2
 179              	.L13:
 180 0000 00000000 		.word	.L1-.L13
 181 0004 00000000 		.word	.L27-.L13
 182 0008 00000000 		.word	.L26-.L13
 183 000c 00000000 		.word	.L1-.L13
 184 0010 00000000 		.word	.L1-.L13
 185 0014 00000000 		.word	.L1-.L13
 186 0018 00000000 		.word	.L1-.L13
 187 001c 00000000 		.word	.L1-.L13
 188 0020 00000000 		.word	.L1-.L13
 189 0024 00000000 		.word	.L1-.L13
 190 0028 00000000 		.word	.L1-.L13
 191 002c 00000000 		.word	.L1-.L13
 192 0030 00000000 		.word	.L1-.L13
 193 0034 00000000 		.word	.L1-.L13
 194 0038 00000000 		.word	.L1-.L13
 195 003c 00000000 		.word	.L1-.L13
 196 0040 00000000 		.word	.L1-.L13
 197 0044 00000000 		.word	.L25-.L13
 198 0048 00000000 		.word	.L24-.L13
 199 004c 00000000 		.word	.L23-.L13
 200 0050 00000000 		.word	.L22-.L13
 201 0054 00000000 		.word	.L1-.L13
 202 0058 00000000 		.word	.L1-.L13
 203 005c 00000000 		.word	.L1-.L13
 204 0060 00000000 		.word	.L1-.L13
 205 0064 00000000 		.word	.L1-.L13
 206 0068 00000000 		.word	.L1-.L13
 207 006c 00000000 		.word	.L1-.L13
 208 0070 00000000 		.word	.L1-.L13
 209 0074 00000000 		.word	.L1-.L13
 210 0078 00000000 		.word	.L1-.L13
 211 007c 00000000 		.word	.L1-.L13
 212 0080 00000000 		.word	.L1-.L13
 213 0084 00000000 		.word	.L21-.L13
 214 0088 00000000 		.word	.L20-.L13
 215 008c 00000000 		.word	.L19-.L13
 216 0090 00000000 		.word	.L18-.L13
 217 0094 00000000 		.word	.L17-.L13
 218 0098 00000000 		.word	.L16-.L13
 219 009c 00000000 		.word	.L1-.L13
GAS LISTING /tmp/cc6mZCop.s 			page 6


 220 00a0 00000000 		.word	.L1-.L13
 221 00a4 00000000 		.word	.L1-.L13
 222 00a8 00000000 		.word	.L1-.L13
 223 00ac 00000000 		.word	.L1-.L13
 224 00b0 00000000 		.word	.L1-.L13
 225 00b4 00000000 		.word	.L1-.L13
 226 00b8 00000000 		.word	.L1-.L13
 227 00bc 00000000 		.word	.L1-.L13
 228 00c0 00000000 		.word	.L1-.L13
 229 00c4 00000000 		.word	.L15-.L13
 230 00c8 00000000 		.word	.L1-.L13
 231 00cc 00000000 		.word	.L1-.L13
 232 00d0 00000000 		.word	.L1-.L13
 233 00d4 00000000 		.word	.L1-.L13
 234 00d8 00000000 		.word	.L1-.L13
 235 00dc 00000000 		.word	.L1-.L13
 236 00e0 00000000 		.word	.L1-.L13
 237 00e4 00000000 		.word	.L1-.L13
 238 00e8 00000000 		.word	.L1-.L13
 239 00ec 00000000 		.word	.L1-.L13
 240 00f0 00000000 		.word	.L1-.L13
 241 00f4 00000000 		.word	.L1-.L13
 242 00f8 00000000 		.word	.L1-.L13
 243 00fc 00000000 		.word	.L1-.L13
 244 0100 00000000 		.word	.L1-.L13
 245 0104 00000000 		.word	.L14-.L13
 246 0108 00000000 		.word	.L12-.L13
 247              		.text
 248              	.LVL15:
 249              	.L40:
 250              	.LBE28:
 251              	.LBB45:
 252              	.LBB26:
  32:src/ABI.cpp   ****         ctx.sepc    = sepc;
 253              		.loc 1 32 81 discriminator 1
  32:src/ABI.cpp   ****         ctx.sepc    = sepc;
 254              		.loc 1 32 86 is_stmt 0 discriminator 1
 255 0100 13074700 		addi	a4,a4,4
 256              	.LVL16:
 257 0104 6FF0DFF8 		j	.L5
 258              	.LVL17:
 259              	.L41:
 260              	.LBE26:
 261              	.LBE45:
  38:src/ABI.cpp   ****         if (current) __asm__ volatile("mv a0, %0" :: "r"(current->threadContext.x[10]));
 262              		.loc 1 38 9 is_stmt 1
  38:src/ABI.cpp   ****         if (current) __asm__ volatile("mv a0, %0" :: "r"(current->threadContext.x[10]));
 263              		.loc 1 38 29 is_stmt 0
 264 0108 13850400 		mv	a0,s1
 265 010c 97000000 		call	_ZN9Scheduler9timerTickEP7KThread@plt
 265      E7800000 
 266              	.LVL18:
  39:src/ABI.cpp   ****         return;
 267              		.loc 1 39 9 is_stmt 1
 268 0114 638E0402 		beqz	s1,.L1
  39:src/ABI.cpp   ****         return;
 269              		.loc 1 39 22 discriminator 1
GAS LISTING /tmp/cc6mZCop.s 			page 7


  39:src/ABI.cpp   ****         return;
 270              		.loc 1 39 85 is_stmt 0 discriminator 1
 271 0118 83B7840B 		ld	a5,184(s1)
  39:src/ABI.cpp   ****         return;
 272              		.loc 1 39 88 discriminator 1
 273              	#APP
 274              	# 39 "src/ABI.cpp" 1
 275              		mv a0, a5
 276              	# 0 "" 2
 277              	#NO_APP
 278 0120 6F000003 		j	.L1
 279              	.L42:
  44:src/ABI.cpp   ****         if (current) __asm__ volatile("mv a0, %0" :: "r"(current->threadContext.x[10]));
 280              		.loc 1 44 9 is_stmt 1
  44:src/ABI.cpp   ****         if (current) __asm__ volatile("mv a0, %0" :: "r"(current->threadContext.x[10]));
 281              		.loc 1 44 33 is_stmt 0
 282 0124 97000000 		call	_ZN7Konsole15handleInterruptEv@plt
 282      E7800000 
 283              	.LVL19:
  45:src/ABI.cpp   ****         return;
 284              		.loc 1 45 9 is_stmt 1
 285 012c 63820402 		beqz	s1,.L1
  45:src/ABI.cpp   ****         return;
 286              		.loc 1 45 22 discriminator 1
  45:src/ABI.cpp   ****         return;
 287              		.loc 1 45 85 is_stmt 0 discriminator 1
 288 0130 83B7840B 		ld	a5,184(s1)
  45:src/ABI.cpp   ****         return;
 289              		.loc 1 45 88 discriminator 1
 290              	#APP
 291              	# 45 "src/ABI.cpp" 1
 292              		mv a0, a5
 293              	# 0 "" 2
 294              	#NO_APP
 295 0138 6F008001 		j	.L1
 296              	.L43:
  50:src/ABI.cpp   ****             Scheduler::ThreadExit(current);
 297              		.loc 1 50 9 is_stmt 1
 298 013c 63CA0900 		bltz	s3,.L1
  50:src/ABI.cpp   ****             Scheduler::ThreadExit(current);
 299              		.loc 1 50 33 is_stmt 0 discriminator 1
 300 0140 63880400 		beqz	s1,.L1
  51:src/ABI.cpp   ****         }
 301              		.loc 1 51 13 is_stmt 1
  51:src/ABI.cpp   ****         }
 302              		.loc 1 51 34 is_stmt 0
 303 0144 13850400 		mv	a0,s1
 304 0148 97000000 		call	_ZN9Scheduler10ThreadExitEP7KThread@plt
 304      E7800000 
 305              	.LVL20:
  53:src/ABI.cpp   ****     }
 306              		.loc 1 53 9 is_stmt 1
 307              	.L1:
  65:src/ABI.cpp   ****         case Syscall::MEM_ALLOC: {
  66:src/ABI.cpp   ****             size_t size = stackInfo[11];
  67:src/ABI.cpp   ****             void* ptr = MemoryAllocator::GetInstance().AllocateFragment(size);
  68:src/ABI.cpp   ****             __asm__ volatile("mv a0,%[res]"::[res]"r"(ptr));
GAS LISTING /tmp/cc6mZCop.s 			page 8


  69:src/ABI.cpp   ****             break;
  70:src/ABI.cpp   ****         }
  71:src/ABI.cpp   ****         case Syscall::MEM_FREE: {
  72:src/ABI.cpp   ****             void* ptr = (void*)stackInfo[11];
  73:src/ABI.cpp   ****             MemoryAllocator::GetInstance().FreeFragment(ptr);
  74:src/ABI.cpp   ****             break;
  75:src/ABI.cpp   ****         }
  76:src/ABI.cpp   ****         case Syscall::THREAD_CREATE: {
  77:src/ABI.cpp   ****             thread_t* handle             = reinterpret_cast<thread_t*>(stackInfo[11]);
  78:src/ABI.cpp   ****             void (*start_routine)(void*) = reinterpret_cast<void(*)(void*)>(stackInfo[12]);
  79:src/ABI.cpp   ****             void* threadArg              = reinterpret_cast<void*>(stackInfo[13]);
  80:src/ABI.cpp   ****             size_t* stack_space          = reinterpret_cast<size_t*>(stackInfo[14]);
  81:src/ABI.cpp   **** 
  82:src/ABI.cpp   ****             void* mem = MemoryAllocator::GetInstance().AllocateFragment(sizeof(KThread));
  83:src/ABI.cpp   ****             if (!mem) {
  84:src/ABI.cpp   ****                 if (current) {
  85:src/ABI.cpp   ****                     current->threadContext.x[10] = (size_t)-1;
  86:src/ABI.cpp   ****                     restoreContext(current->getContext());
  87:src/ABI.cpp   ****                 }
  88:src/ABI.cpp   ****                 return;
  89:src/ABI.cpp   ****             }
  90:src/ABI.cpp   ****             KThread* t = reinterpret_cast<KThread*>(mem);
  91:src/ABI.cpp   ****             t->init();
  92:src/ABI.cpp   ****             t->setBody(start_routine, threadArg);
  93:src/ABI.cpp   ****             t->setup(current, stack_space);
  94:src/ABI.cpp   ****             t->stackBase = reinterpret_cast<void*>(stackInfo[15]);
  95:src/ABI.cpp   **** 
  96:src/ABI.cpp   ****             *handle = reinterpret_cast<thread_t>(t);
  97:src/ABI.cpp   ****             Scheduler::Put(t);
  98:src/ABI.cpp   ****             if (current) current->threadContext.x[10] = 0;
  99:src/ABI.cpp   ****             __asm__ volatile("li a0, 0");
 100:src/ABI.cpp   ****             break;
 101:src/ABI.cpp   ****         }
 102:src/ABI.cpp   ****         case Syscall::THREAD_EXIT: {
 103:src/ABI.cpp   ****             Scheduler::ThreadExit(current);
 104:src/ABI.cpp   ****             break;
 105:src/ABI.cpp   ****         }
 106:src/ABI.cpp   ****         case Syscall::THREAD_YIELD: {
 107:src/ABI.cpp   ****             if (!Scheduler::yieldCurrent(current))
 108:src/ABI.cpp   ****                 __asm__ volatile("li a0, 0");
 109:src/ABI.cpp   ****             break;
 110:src/ABI.cpp   ****         }
 111:src/ABI.cpp   ****         case Syscall::THREAD_JOIN: {
 112:src/ABI.cpp   ****             KThread* t = reinterpret_cast<KThread*>(stackInfo[11]);
 113:src/ABI.cpp   ****             Scheduler::joinThread(t);
 114:src/ABI.cpp   ****             break;
 115:src/ABI.cpp   ****         }
 116:src/ABI.cpp   ****         case Syscall::SEM_OPEN: {
 117:src/ABI.cpp   ****             sem_t* handle = reinterpret_cast<sem_t*>(stackInfo[11]);
 118:src/ABI.cpp   ****             unsigned initialValue = (unsigned)stackInfo[12];
 119:src/ABI.cpp   ****             void* mem = MemoryAllocator::GetInstance().AllocateFragment(sizeof(KSemaphore));
 120:src/ABI.cpp   ****             if (!mem) { __asm__ volatile("li a0, -1"); break; }
 121:src/ABI.cpp   ****             KSemaphore* semaphore = reinterpret_cast<KSemaphore*>(mem);
 122:src/ABI.cpp   ****             semaphore->init(initialValue);
 123:src/ABI.cpp   ****             *handle = reinterpret_cast<sem_t>(semaphore);
 124:src/ABI.cpp   ****             __asm__ volatile("li a0, 0");
 125:src/ABI.cpp   ****             break;
GAS LISTING /tmp/cc6mZCop.s 			page 9


 126:src/ABI.cpp   ****         }
 127:src/ABI.cpp   ****         case Syscall::SEM_CLOSE: {
 128:src/ABI.cpp   ****             KSemaphore* semaphore = reinterpret_cast<KSemaphore*>(stackInfo[11]);
 129:src/ABI.cpp   ****             semaphore->close();
 130:src/ABI.cpp   ****             MemoryAllocator::GetInstance().FreeFragment(semaphore);
 131:src/ABI.cpp   ****             __asm__ volatile("li a0, 0");
 132:src/ABI.cpp   ****             break;
 133:src/ABI.cpp   ****         }
 134:src/ABI.cpp   ****         case Syscall::SEM_WAIT: {
 135:src/ABI.cpp   ****             KSemaphore* semaphore = reinterpret_cast<KSemaphore*>(stackInfo[11]);
 136:src/ABI.cpp   ****             int result = semaphore->wait(current);
 137:src/ABI.cpp   ****             if (result <= 0) { __asm__ volatile("mv a0, %0" :: "r"((size_t)result)); break; }
 138:src/ABI.cpp   ****             Scheduler::blockCurrent(current);
 139:src/ABI.cpp   ****             break;
 140:src/ABI.cpp   ****         }
 141:src/ABI.cpp   ****         case Syscall::SEM_SIGNAL: {
 142:src/ABI.cpp   ****             KSemaphore* semaphore = reinterpret_cast<KSemaphore*>(stackInfo[11]);
 143:src/ABI.cpp   ****             semaphore->signal();
 144:src/ABI.cpp   ****             __asm__ volatile("li a0, 0");
 145:src/ABI.cpp   ****             break;
 146:src/ABI.cpp   ****         }
 147:src/ABI.cpp   ****         case Syscall::SEM_WAIT_N: {
 148:src/ABI.cpp   ****             KSemaphore* semaphore = reinterpret_cast<KSemaphore*>(stackInfo[11]);
 149:src/ABI.cpp   ****             unsigned n = (unsigned)stackInfo[12];
 150:src/ABI.cpp   ****             int result = semaphore->waitN(current, n);
 151:src/ABI.cpp   ****             if (result <= 0) { __asm__ volatile("mv a0, %0" :: "r"((size_t)result)); break; }
 152:src/ABI.cpp   ****             Scheduler::blockCurrent(current);
 153:src/ABI.cpp   ****             break;
 154:src/ABI.cpp   ****         }
 155:src/ABI.cpp   ****         case Syscall::SEM_SIGNAL_N: {
 156:src/ABI.cpp   ****             KSemaphore* semaphore = reinterpret_cast<KSemaphore*>(stackInfo[11]);
 157:src/ABI.cpp   ****             unsigned n = (unsigned)stackInfo[12];
 158:src/ABI.cpp   ****             semaphore->signalN(n);
 159:src/ABI.cpp   ****             __asm__ volatile("li a0, 0");
 160:src/ABI.cpp   ****             break;
 161:src/ABI.cpp   ****         }
 162:src/ABI.cpp   ****         case Syscall::SLEEP: {
 163:src/ABI.cpp   ****             time_t dur = (time_t)stackInfo[11];
 164:src/ABI.cpp   ****             if (current) current->threadContext.x[10] = 0;
 165:src/ABI.cpp   ****             if (dur == 0) { __asm__ volatile("li a0, 0"); break; }
 166:src/ABI.cpp   ****             Scheduler::sleep(current, dur);
 167:src/ABI.cpp   ****             Scheduler::blockCurrent(current);
 168:src/ABI.cpp   ****             break;
 169:src/ABI.cpp   ****         }
 170:src/ABI.cpp   ****         case Syscall::GETC: {
 171:src/ABI.cpp   ****             int result = Konsole::getcKernel(current);
 172:src/ABI.cpp   ****             if (result == -2)
 173:src/ABI.cpp   ****                 Scheduler::blockCurrent(current);
 174:src/ABI.cpp   ****             else
 175:src/ABI.cpp   ****                 __asm__ volatile("mv a0, %0" :: "r"((size_t)(unsigned char)result));
 176:src/ABI.cpp   ****             break;
 177:src/ABI.cpp   ****         }
 178:src/ABI.cpp   ****         case Syscall::PUTC: {
 179:src/ABI.cpp   ****             char c = (char)stackInfo[11];
 180:src/ABI.cpp   ****             int result = Konsole::putcKernel(current, c);
 181:src/ABI.cpp   ****             __asm__ volatile("mv a0, %0" :: "r"((size_t)result));
 182:src/ABI.cpp   ****             break;
GAS LISTING /tmp/cc6mZCop.s 			page 10


 183:src/ABI.cpp   ****         }
 184:src/ABI.cpp   ****         case Syscall::SHUTDOWN: {
 185:src/ABI.cpp   ****             *((volatile uint32*)0x100000UL) = 0x5555;
 186:src/ABI.cpp   ****             while (true) {}
 187:src/ABI.cpp   ****             break;
 188:src/ABI.cpp   ****         }
 189:src/ABI.cpp   ****         default: {
 190:src/ABI.cpp   ****             break;
 191:src/ABI.cpp   ****         }
 192:src/ABI.cpp   ****     }
 193:src/ABI.cpp   ****     return;
 194:src/ABI.cpp   **** }
 308              		.loc 1 194 1 is_stmt 0
 309 0150 83308104 		ld	ra,72(sp)
 310              		.cfi_remember_state
 311              		.cfi_restore 1
 312 0154 03340104 		ld	s0,64(sp)
 313              		.cfi_restore 8
 314              		.cfi_def_cfa 2, 80
 315 0158 83348103 		ld	s1,56(sp)
 316              		.cfi_restore 9
 317 015c 03390103 		ld	s2,48(sp)
 318              		.cfi_restore 18
 319 0160 83398102 		ld	s3,40(sp)
 320              		.cfi_restore 19
 321 0164 033A0102 		ld	s4,32(sp)
 322              		.cfi_restore 20
 323 0168 833A8101 		ld	s5,24(sp)
 324              		.cfi_restore 21
 325 016c 033B0101 		ld	s6,16(sp)
 326              		.cfi_restore 22
 327 0170 833B8100 		ld	s7,8(sp)
 328              		.cfi_restore 23
 329 0174 13010105 		addi	sp,sp,80
 330              		.cfi_def_cfa_offset 0
 331 0178 67800000 		jr	ra
 332              	.LVL21:
 333              	.L11:
 334              		.cfi_restore_state
 335              	.LBB46:
  64:src/ABI.cpp   ****         case Syscall::MEM_ALLOC: {
 336              		.loc 1 64 5
 337 017c 1307F00F 		li	a4,255
 338 0180 E398E7FC 		bne	a5,a4,.L1
 339              	.LBB29:
 184:src/ABI.cpp   ****             *((volatile uint32*)0x100000UL) = 0x5555;
 340              		.loc 1 184 9 is_stmt 1
 184:src/ABI.cpp   ****             *((volatile uint32*)0x100000UL) = 0x5555;
 341              		.loc 1 184 33
 185:src/ABI.cpp   ****             while (true) {}
 342              		.loc 1 185 13
 185:src/ABI.cpp   ****             while (true) {}
 343              		.loc 1 185 45 is_stmt 0
 344 0184 37071000 		li	a4,1048576
 345 0188 B7570000 		li	a5,20480
 346              	.LVL22:
 347 018c 9B875755 		addiw	a5,a5,1365
GAS LISTING /tmp/cc6mZCop.s 			page 11


 348 0190 2320F700 		sw	a5,0(a4)
 349              	.LVL23:
 350              	.L38:
 186:src/ABI.cpp   ****             break;
 351              		.loc 1 186 13 is_stmt 1 discriminator 3
 186:src/ABI.cpp   ****             break;
 352              		.loc 1 186 13 discriminator 3
 353 0194 6F000000 		j	.L38
 354              	.LVL24:
 355              	.L27:
  65:src/ABI.cpp   ****             size_t size = stackInfo[11];
 356              		.loc 1 65 9
  65:src/ABI.cpp   ****             size_t size = stackInfo[11];
 357              		.loc 1 65 34
 358              	.LBB30:
  66:src/ABI.cpp   ****             void* ptr = MemoryAllocator::GetInstance().AllocateFragment(size);
 359              		.loc 1 66 13
  66:src/ABI.cpp   ****             void* ptr = MemoryAllocator::GetInstance().AllocateFragment(size);
 360              		.loc 1 66 20 is_stmt 0
 361 0198 83348905 		ld	s1,88(s2)
 362              	.LVL25:
  67:src/ABI.cpp   ****             __asm__ volatile("mv a0,%[res]"::[res]"r"(ptr));
 363              		.loc 1 67 13 is_stmt 1
  67:src/ABI.cpp   ****             __asm__ volatile("mv a0,%[res]"::[res]"r"(ptr));
 364              		.loc 1 67 54 is_stmt 0
 365 019c 97000000 		call	_ZN15MemoryAllocator11GetInstanceEv@plt
 365      E7800000 
 366              	.LVL26:
  67:src/ABI.cpp   ****             __asm__ volatile("mv a0,%[res]"::[res]"r"(ptr));
 367              		.loc 1 67 72
 368 01a4 93850400 		mv	a1,s1
 369 01a8 97000000 		call	_ZN15MemoryAllocator16AllocateFragmentEm@plt
 369      E7800000 
 370              	.LVL27:
  68:src/ABI.cpp   ****             break;
 371              		.loc 1 68 13 is_stmt 1
  68:src/ABI.cpp   ****             break;
 372              		.loc 1 68 60 is_stmt 0
 373              	#APP
 374              	# 68 "src/ABI.cpp" 1
  69:src/ABI.cpp   ****         }
 375              		mv a0,a0
 376              	# 0 "" 2
 377              		.loc 1 69 13 is_stmt 1
 378              	#NO_APP
 379 01b4 6FF0DFF9 		j	.L1
 380              	.LVL28:
 381              	.L26:
 382              	.LBE30:
  71:src/ABI.cpp   ****             void* ptr = (void*)stackInfo[11];
 383              		.loc 1 71 9
  71:src/ABI.cpp   ****             void* ptr = (void*)stackInfo[11];
 384              		.loc 1 71 33
 385              	.LBB31:
  72:src/ABI.cpp   ****             MemoryAllocator::GetInstance().FreeFragment(ptr);
 386              		.loc 1 72 13
  72:src/ABI.cpp   ****             MemoryAllocator::GetInstance().FreeFragment(ptr);
GAS LISTING /tmp/cc6mZCop.s 			page 12


 387              		.loc 1 72 44 is_stmt 0
 388 01b8 83348905 		ld	s1,88(s2)
 389              	.LVL29:
  73:src/ABI.cpp   ****             break;
 390              		.loc 1 73 13 is_stmt 1
  73:src/ABI.cpp   ****             break;
 391              		.loc 1 73 42 is_stmt 0
 392 01bc 97000000 		call	_ZN15MemoryAllocator11GetInstanceEv@plt
 392      E7800000 
 393              	.LVL30:
  73:src/ABI.cpp   ****             break;
 394              		.loc 1 73 56
 395 01c4 93850400 		mv	a1,s1
 396 01c8 97000000 		call	_ZN15MemoryAllocator12FreeFragmentEPv@plt
 396      E7800000 
 397              	.LVL31:
  74:src/ABI.cpp   ****         }
 398              		.loc 1 74 13 is_stmt 1
 399 01d0 6FF01FF8 		j	.L1
 400              	.LVL32:
 401              	.L25:
 402              	.LBE31:
  76:src/ABI.cpp   ****             thread_t* handle             = reinterpret_cast<thread_t*>(stackInfo[11]);
 403              		.loc 1 76 9
  76:src/ABI.cpp   ****             thread_t* handle             = reinterpret_cast<thread_t*>(stackInfo[11]);
 404              		.loc 1 76 38
 405              	.LBB32:
  77:src/ABI.cpp   ****             void (*start_routine)(void*) = reinterpret_cast<void(*)(void*)>(stackInfo[12]);
 406              		.loc 1 77 13
  77:src/ABI.cpp   ****             void (*start_routine)(void*) = reinterpret_cast<void(*)(void*)>(stackInfo[12]);
 407              		.loc 1 77 84 is_stmt 0
 408 01d4 033A8905 		ld	s4,88(s2)
 409              	.LVL33:
  78:src/ABI.cpp   ****             void* threadArg              = reinterpret_cast<void*>(stackInfo[13]);
 410              		.loc 1 78 13 is_stmt 1
  78:src/ABI.cpp   ****             void* threadArg              = reinterpret_cast<void*>(stackInfo[13]);
 411              		.loc 1 78 89 is_stmt 0
 412 01d8 033B0906 		ld	s6,96(s2)
 413              	.LVL34:
  79:src/ABI.cpp   ****             size_t* stack_space          = reinterpret_cast<size_t*>(stackInfo[14]);
 414              		.loc 1 79 13 is_stmt 1
  79:src/ABI.cpp   ****             size_t* stack_space          = reinterpret_cast<size_t*>(stackInfo[14]);
 415              		.loc 1 79 80 is_stmt 0
 416 01dc 833A8906 		ld	s5,104(s2)
 417              	.LVL35:
  80:src/ABI.cpp   **** 
 418              		.loc 1 80 13 is_stmt 1
  80:src/ABI.cpp   **** 
 419              		.loc 1 80 82 is_stmt 0
 420 01e0 833B0907 		ld	s7,112(s2)
 421              	.LVL36:
  82:src/ABI.cpp   ****             if (!mem) {
 422              		.loc 1 82 13 is_stmt 1
  82:src/ABI.cpp   ****             if (!mem) {
 423              		.loc 1 82 54 is_stmt 0
 424 01e4 97000000 		call	_ZN15MemoryAllocator11GetInstanceEv@plt
 424      E7800000 
GAS LISTING /tmp/cc6mZCop.s 			page 13


 425              	.LVL37:
  82:src/ABI.cpp   ****             if (!mem) {
 426              		.loc 1 82 72
 427 01ec 93050018 		li	a1,384
 428 01f0 97000000 		call	_ZN15MemoryAllocator16AllocateFragmentEm@plt
 428      E7800000 
 429              	.LVL38:
 430 01f8 93090500 		mv	s3,a0
 431              	.LVL39:
  83:src/ABI.cpp   ****                 if (current) {
 432              		.loc 1 83 13 is_stmt 1
 433 01fc 63080504 		beqz	a0,.L44
  90:src/ABI.cpp   ****             t->init();
 434              		.loc 1 90 13
 435              	.LVL40:
  91:src/ABI.cpp   ****             t->setBody(start_routine, threadArg);
 436              		.loc 1 91 13
  91:src/ABI.cpp   ****             t->setBody(start_routine, threadArg);
 437              		.loc 1 91 20 is_stmt 0
 438 0200 97000000 		call	_ZN7KThread4initEv@plt
 438      E7800000 
 439              	.LVL41:
  92:src/ABI.cpp   ****             t->setup(current, stack_space);
 440              		.loc 1 92 13 is_stmt 1
 441              	.LBB33:
 442              	.LBB34:
 443              		.file 2 "src/../h/Thread.hpp"
   1:src/../h/Thread.hpp **** //
   2:src/../h/Thread.hpp **** // Created by os on 6/10/26.
   3:src/../h/Thread.hpp **** //
   4:src/../h/Thread.hpp **** 
   5:src/../h/Thread.hpp **** #ifndef OSPROJEKAT_THREAD_H
   6:src/../h/Thread.hpp **** #define OSPROJEKAT_THREAD_H
   7:src/../h/Thread.hpp **** 
   8:src/../h/Thread.hpp **** #include "../lib/hw.h"
   9:src/../h/Thread.hpp **** struct Context {
  10:src/../h/Thread.hpp ****     size_t x[32];    // x0-x31, offsets 0x00-0xF8
  11:src/../h/Thread.hpp ****     size_t sepc;     // offset 0x100
  12:src/../h/Thread.hpp ****     size_t sstatus;  // offset 0x108
  13:src/../h/Thread.hpp ****     size_t pc;
  14:src/../h/Thread.hpp **** };
  15:src/../h/Thread.hpp **** 
  16:src/../h/Thread.hpp **** class KThread{
  17:src/../h/Thread.hpp ****     friend class Scheduler;
  18:src/../h/Thread.hpp ****     friend class KSemaphore;
  19:src/../h/Thread.hpp **** protected:
  20:src/../h/Thread.hpp ****     static void threadTrampoline(KThread* t);
  21:src/../h/Thread.hpp ****     void (*body)(void*);
  22:src/../h/Thread.hpp ****     void* arg;
  23:src/../h/Thread.hpp ****     KThread* parent;
  24:src/../h/Thread.hpp **** 
  25:src/../h/Thread.hpp ****     bool finished;
  26:src/../h/Thread.hpp **** 
  27:src/../h/Thread.hpp ****     KThread* prev;
  28:src/../h/Thread.hpp ****     KThread* next;
  29:src/../h/Thread.hpp ****     size_t* stackPtr;
  30:src/../h/Thread.hpp ****     size_t* supervisorSp;
GAS LISTING /tmp/cc6mZCop.s 			page 14


  31:src/../h/Thread.hpp ****     time_t sleepDelta;
  32:src/../h/Thread.hpp ****     uint8  priority;
  33:src/../h/Thread.hpp ****     KThread* waitingThread;
  34:src/../h/Thread.hpp ****     KThread* stopperThread;
  35:src/../h/Thread.hpp **** public:
  36:src/../h/Thread.hpp ****     void* stackBase;
  37:src/../h/Thread.hpp ****     Context threadContext;
  38:src/../h/Thread.hpp ****     KThread();
  39:src/../h/Thread.hpp ****     void copyContext(size_t* ctx);
  40:src/../h/Thread.hpp ****     void init();
  41:src/../h/Thread.hpp ****     size_t* getStackTop() { return stackPtr; }
  42:src/../h/Thread.hpp ****     size_t* getContext();
  43:src/../h/Thread.hpp ****     KThread* getParent() { return parent; }
  44:src/../h/Thread.hpp ****     KThread* getNextInQueue();
  45:src/../h/Thread.hpp ****     KThread* getPrevInQueue();
  46:src/../h/Thread.hpp ****     void setNextInQueue(KThread* next);
  47:src/../h/Thread.hpp ****     void setPrevInQueue(KThread* prev);
  48:src/../h/Thread.hpp ****     void setNextAndPrevInQueue(KThread* next, KThread* prev);
  49:src/../h/Thread.hpp ****     void setup(KThread* parentThread, size_t* stack_top);
  50:src/../h/Thread.hpp ****     void setBody(void (*b)(void*), void* a) { body = b; arg = a; }
 444              		.loc 2 50 47
 445              		.loc 2 50 52 is_stmt 0
 446 0208 23B06901 		sd	s6,0(s3)
 447              		.loc 2 50 57 is_stmt 1
 448              		.loc 2 50 61 is_stmt 0
 449 020c 23B45901 		sd	s5,8(s3)
 450              	.LVL42:
 451              	.LBE34:
 452              	.LBE33:
  93:src/ABI.cpp   ****             t->stackBase = reinterpret_cast<void*>(stackInfo[15]);
 453              		.loc 1 93 13 is_stmt 1
  93:src/ABI.cpp   ****             t->stackBase = reinterpret_cast<void*>(stackInfo[15]);
 454              		.loc 1 93 21 is_stmt 0
 455 0210 13860B00 		mv	a2,s7
 456 0214 93850400 		mv	a1,s1
 457 0218 13850900 		mv	a0,s3
 458 021c 97000000 		call	_ZN7KThread5setupEPS_Pm@plt
 458      E7800000 
 459              	.LVL43:
  94:src/ABI.cpp   **** 
 460              		.loc 1 94 13 is_stmt 1
  94:src/ABI.cpp   **** 
 461              		.loc 1 94 64 is_stmt 0
 462 0224 83378907 		ld	a5,120(s2)
  94:src/ABI.cpp   **** 
 463              		.loc 1 94 26
 464 0228 23B0F906 		sd	a5,96(s3)
  96:src/ABI.cpp   ****             Scheduler::Put(t);
 465              		.loc 1 96 13 is_stmt 1
  96:src/ABI.cpp   ****             Scheduler::Put(t);
 466              		.loc 1 96 21 is_stmt 0
 467 022c 23303A01 		sd	s3,0(s4)
  97:src/ABI.cpp   ****             if (current) current->threadContext.x[10] = 0;
 468              		.loc 1 97 13 is_stmt 1
  97:src/ABI.cpp   ****             if (current) current->threadContext.x[10] = 0;
 469              		.loc 1 97 27 is_stmt 0
 470 0230 13850900 		mv	a0,s3
GAS LISTING /tmp/cc6mZCop.s 			page 15


 471 0234 97000000 		call	_ZN9Scheduler3PutEP7KThread@plt
 471      E7800000 
 472              	.LVL44:
  98:src/ABI.cpp   ****             __asm__ volatile("li a0, 0");
 473              		.loc 1 98 13 is_stmt 1
 474 023c 63840400 		beqz	s1,.L31
  98:src/ABI.cpp   ****             __asm__ volatile("li a0, 0");
 475              		.loc 1 98 26 discriminator 1
  98:src/ABI.cpp   ****             __asm__ volatile("li a0, 0");
 476              		.loc 1 98 55 is_stmt 0 discriminator 1
 477 0240 23BC040A 		sd	zero,184(s1)
 478              	.L31:
  99:src/ABI.cpp   ****             break;
 479              		.loc 1 99 13 is_stmt 1
  99:src/ABI.cpp   ****             break;
 480              		.loc 1 99 41 is_stmt 0
 481              	#APP
 482              	# 99 "src/ABI.cpp" 1
 100:src/ABI.cpp   ****         }
 483              		li a0, 0
 484              	# 0 "" 2
 485              		.loc 1 100 13 is_stmt 1
 486              	#NO_APP
 487 0248 6FF09FF0 		j	.L1
 488              	.LVL45:
 489              	.L44:
  84:src/ABI.cpp   ****                     current->threadContext.x[10] = (size_t)-1;
 490              		.loc 1 84 17
 491 024c E38204F0 		beqz	s1,.L1
  85:src/ABI.cpp   ****                     restoreContext(current->getContext());
 492              		.loc 1 85 21
  85:src/ABI.cpp   ****                     restoreContext(current->getContext());
 493              		.loc 1 85 50 is_stmt 0
 494 0250 9307F0FF 		li	a5,-1
 495 0254 23BCF40A 		sd	a5,184(s1)
  86:src/ABI.cpp   ****                 }
 496              		.loc 1 86 21 is_stmt 1
  86:src/ABI.cpp   ****                 }
 497              		.loc 1 86 35 is_stmt 0
 498 0258 13850400 		mv	a0,s1
 499              	.LVL46:
 500 025c 97000000 		call	_ZN7KThread10getContextEv@plt
 500      E7800000 
 501              	.LVL47:
 502 0264 97000000 		call	restoreContext@plt
 502      E7800000 
 503              	.LVL48:
  88:src/ABI.cpp   ****             }
 504              		.loc 1 88 17 is_stmt 1
 505 026c 6FF05FEE 		j	.L1
 506              	.LVL49:
 507              	.L24:
 508              	.LBE32:
 102:src/ABI.cpp   ****             Scheduler::ThreadExit(current);
 509              		.loc 1 102 9
 102:src/ABI.cpp   ****             Scheduler::ThreadExit(current);
 510              		.loc 1 102 36
GAS LISTING /tmp/cc6mZCop.s 			page 16


 103:src/ABI.cpp   ****             break;
 511              		.loc 1 103 13
 103:src/ABI.cpp   ****             break;
 512              		.loc 1 103 34 is_stmt 0
 513 0270 13850400 		mv	a0,s1
 514 0274 97000000 		call	_ZN9Scheduler10ThreadExitEP7KThread@plt
 514      E7800000 
 515              	.LVL50:
 104:src/ABI.cpp   ****         }
 516              		.loc 1 104 13 is_stmt 1
 517 027c 6FF05FED 		j	.L1
 518              	.LVL51:
 519              	.L23:
 106:src/ABI.cpp   ****             if (!Scheduler::yieldCurrent(current))
 520              		.loc 1 106 9
 106:src/ABI.cpp   ****             if (!Scheduler::yieldCurrent(current))
 521              		.loc 1 106 37
 107:src/ABI.cpp   ****                 __asm__ volatile("li a0, 0");
 522              		.loc 1 107 13
 107:src/ABI.cpp   ****                 __asm__ volatile("li a0, 0");
 523              		.loc 1 107 41 is_stmt 0
 524 0280 13850400 		mv	a0,s1
 525 0284 97000000 		call	_ZN9Scheduler12yieldCurrentEP7KThread@plt
 525      E7800000 
 526              	.LVL52:
 107:src/ABI.cpp   ****                 __asm__ volatile("li a0, 0");
 527              		.loc 1 107 13
 528 028c E31205EC 		bnez	a0,.L1
 108:src/ABI.cpp   ****             break;
 529              		.loc 1 108 17 is_stmt 1
 108:src/ABI.cpp   ****             break;
 530              		.loc 1 108 45 is_stmt 0
 531              	#APP
 532              	# 108 "src/ABI.cpp" 1
 533              		li a0, 0
 534              	# 0 "" 2
 535              	#NO_APP
 536 0294 6FF0DFEB 		j	.L1
 537              	.LVL53:
 538              	.L22:
 111:src/ABI.cpp   ****             KThread* t = reinterpret_cast<KThread*>(stackInfo[11]);
 539              		.loc 1 111 9 is_stmt 1
 111:src/ABI.cpp   ****             KThread* t = reinterpret_cast<KThread*>(stackInfo[11]);
 540              		.loc 1 111 36
 541              	.LBB35:
 112:src/ABI.cpp   ****             Scheduler::joinThread(t);
 542              		.loc 1 112 13
 113:src/ABI.cpp   ****             break;
 543              		.loc 1 113 13
 113:src/ABI.cpp   ****             break;
 544              		.loc 1 113 34 is_stmt 0
 545 0298 03358905 		ld	a0,88(s2)
 546 029c 97000000 		call	_ZN9Scheduler10joinThreadEP7KThread@plt
 546      E7800000 
 547              	.LVL54:
 114:src/ABI.cpp   ****         }
 548              		.loc 1 114 13 is_stmt 1
GAS LISTING /tmp/cc6mZCop.s 			page 17


 549 02a4 6FF0DFEA 		j	.L1
 550              	.LVL55:
 551              	.L21:
 552              	.LBE35:
 116:src/ABI.cpp   ****             sem_t* handle = reinterpret_cast<sem_t*>(stackInfo[11]);
 553              		.loc 1 116 9
 116:src/ABI.cpp   ****             sem_t* handle = reinterpret_cast<sem_t*>(stackInfo[11]);
 554              		.loc 1 116 33
 555              	.LBB36:
 117:src/ABI.cpp   ****             unsigned initialValue = (unsigned)stackInfo[12];
 556              		.loc 1 117 13
 117:src/ABI.cpp   ****             unsigned initialValue = (unsigned)stackInfo[12];
 557              		.loc 1 117 66 is_stmt 0
 558 02a8 83398905 		ld	s3,88(s2)
 559              	.LVL56:
 118:src/ABI.cpp   ****             void* mem = MemoryAllocator::GetInstance().AllocateFragment(sizeof(KSemaphore));
 560              		.loc 1 118 13 is_stmt 1
 118:src/ABI.cpp   ****             void* mem = MemoryAllocator::GetInstance().AllocateFragment(sizeof(KSemaphore));
 561              		.loc 1 118 22 is_stmt 0
 562 02ac 03290906 		lw	s2,96(s2)
 563              	.LVL57:
 119:src/ABI.cpp   ****             if (!mem) { __asm__ volatile("li a0, -1"); break; }
 564              		.loc 1 119 13 is_stmt 1
 119:src/ABI.cpp   ****             if (!mem) { __asm__ volatile("li a0, -1"); break; }
 565              		.loc 1 119 54 is_stmt 0
 566 02b0 97000000 		call	_ZN15MemoryAllocator11GetInstanceEv@plt
 566      E7800000 
 567              	.LVL58:
 119:src/ABI.cpp   ****             if (!mem) { __asm__ volatile("li a0, -1"); break; }
 568              		.loc 1 119 72
 569 02b8 93058001 		li	a1,24
 570 02bc 97000000 		call	_ZN15MemoryAllocator16AllocateFragmentEm@plt
 570      E7800000 
 571              	.LVL59:
 572 02c4 93040500 		mv	s1,a0
 573              	.LVL60:
 120:src/ABI.cpp   ****             KSemaphore* semaphore = reinterpret_cast<KSemaphore*>(mem);
 574              		.loc 1 120 13 is_stmt 1
 575 02c8 630E0500 		beqz	a0,.L45
 121:src/ABI.cpp   ****             semaphore->init(initialValue);
 576              		.loc 1 121 13
 577              	.LVL61:
 122:src/ABI.cpp   ****             *handle = reinterpret_cast<sem_t>(semaphore);
 578              		.loc 1 122 13
 122:src/ABI.cpp   ****             *handle = reinterpret_cast<sem_t>(semaphore);
 579              		.loc 1 122 28 is_stmt 0
 580 02cc 93050900 		mv	a1,s2
 581 02d0 97000000 		call	_ZN10KSemaphore4initEj@plt
 581      E7800000 
 582              	.LVL62:
 123:src/ABI.cpp   ****             __asm__ volatile("li a0, 0");
 583              		.loc 1 123 13 is_stmt 1
 123:src/ABI.cpp   ****             __asm__ volatile("li a0, 0");
 584              		.loc 1 123 21 is_stmt 0
 585 02d8 23B09900 		sd	s1,0(s3)
 124:src/ABI.cpp   ****             break;
 586              		.loc 1 124 13 is_stmt 1
GAS LISTING /tmp/cc6mZCop.s 			page 18


 124:src/ABI.cpp   ****             break;
 587              		.loc 1 124 41 is_stmt 0
 588              	#APP
 589              	# 124 "src/ABI.cpp" 1
 125:src/ABI.cpp   ****         }
 590              		li a0, 0
 591              	# 0 "" 2
 592              		.loc 1 125 13 is_stmt 1
 593              	#NO_APP
 594 02e0 6FF01FE7 		j	.L1
 595              	.LVL63:
 596              	.L45:
 120:src/ABI.cpp   ****             KSemaphore* semaphore = reinterpret_cast<KSemaphore*>(mem);
 597              		.loc 1 120 25 discriminator 1
 120:src/ABI.cpp   ****             KSemaphore* semaphore = reinterpret_cast<KSemaphore*>(mem);
 598              		.loc 1 120 54 is_stmt 0 discriminator 1
 599              	#APP
 600              	# 120 "src/ABI.cpp" 1
 120:src/ABI.cpp   ****             KSemaphore* semaphore = reinterpret_cast<KSemaphore*>(mem);
 601              		li a0, -1
 602              	# 0 "" 2
 603              		.loc 1 120 56 is_stmt 1 discriminator 1
 604              	#NO_APP
 605 02e8 6FF09FE6 		j	.L1
 606              	.LVL64:
 607              	.L20:
 608              	.LBE36:
 127:src/ABI.cpp   ****             KSemaphore* semaphore = reinterpret_cast<KSemaphore*>(stackInfo[11]);
 609              		.loc 1 127 9
 127:src/ABI.cpp   ****             KSemaphore* semaphore = reinterpret_cast<KSemaphore*>(stackInfo[11]);
 610              		.loc 1 127 34
 611              	.LBB37:
 128:src/ABI.cpp   ****             semaphore->close();
 612              		.loc 1 128 13
 128:src/ABI.cpp   ****             semaphore->close();
 613              		.loc 1 128 79 is_stmt 0
 614 02ec 83348905 		ld	s1,88(s2)
 615              	.LVL65:
 129:src/ABI.cpp   ****             MemoryAllocator::GetInstance().FreeFragment(semaphore);
 616              		.loc 1 129 13 is_stmt 1
 129:src/ABI.cpp   ****             MemoryAllocator::GetInstance().FreeFragment(semaphore);
 617              		.loc 1 129 29 is_stmt 0
 618 02f0 13850400 		mv	a0,s1
 619              	.LVL66:
 620 02f4 97000000 		call	_ZN10KSemaphore5closeEv@plt
 620      E7800000 
 621              	.LVL67:
 130:src/ABI.cpp   ****             __asm__ volatile("li a0, 0");
 622              		.loc 1 130 13 is_stmt 1
 130:src/ABI.cpp   ****             __asm__ volatile("li a0, 0");
 623              		.loc 1 130 42 is_stmt 0
 624 02fc 97000000 		call	_ZN15MemoryAllocator11GetInstanceEv@plt
 624      E7800000 
 625              	.LVL68:
 130:src/ABI.cpp   ****             __asm__ volatile("li a0, 0");
 626              		.loc 1 130 56
 627 0304 93850400 		mv	a1,s1
GAS LISTING /tmp/cc6mZCop.s 			page 19


 628 0308 97000000 		call	_ZN15MemoryAllocator12FreeFragmentEPv@plt
 628      E7800000 
 629              	.LVL69:
 131:src/ABI.cpp   ****             break;
 630              		.loc 1 131 13 is_stmt 1
 131:src/ABI.cpp   ****             break;
 631              		.loc 1 131 41 is_stmt 0
 632              	#APP
 633              	# 131 "src/ABI.cpp" 1
 132:src/ABI.cpp   ****         }
 634              		li a0, 0
 635              	# 0 "" 2
 636              		.loc 1 132 13 is_stmt 1
 637              	#NO_APP
 638 0314 6FF0DFE3 		j	.L1
 639              	.LVL70:
 640              	.L19:
 641              	.LBE37:
 134:src/ABI.cpp   ****             KSemaphore* semaphore = reinterpret_cast<KSemaphore*>(stackInfo[11]);
 642              		.loc 1 134 9
 134:src/ABI.cpp   ****             KSemaphore* semaphore = reinterpret_cast<KSemaphore*>(stackInfo[11]);
 643              		.loc 1 134 33
 644              	.LBB38:
 135:src/ABI.cpp   ****             int result = semaphore->wait(current);
 645              		.loc 1 135 13
 136:src/ABI.cpp   ****             if (result <= 0) { __asm__ volatile("mv a0, %0" :: "r"((size_t)result)); break; }
 646              		.loc 1 136 13
 136:src/ABI.cpp   ****             if (result <= 0) { __asm__ volatile("mv a0, %0" :: "r"((size_t)result)); break; }
 647              		.loc 1 136 41 is_stmt 0
 648 0318 93850400 		mv	a1,s1
 649 031c 03358905 		ld	a0,88(s2)
 650 0320 97000000 		call	_ZN10KSemaphore4waitEP7KThread@plt
 650      E7800000 
 651              	.LVL71:
 137:src/ABI.cpp   ****             Scheduler::blockCurrent(current);
 652              		.loc 1 137 13 is_stmt 1
 653 0328 6346A000 		bgtz	a0,.L33
 137:src/ABI.cpp   ****             Scheduler::blockCurrent(current);
 654              		.loc 1 137 32 discriminator 1
 137:src/ABI.cpp   ****             Scheduler::blockCurrent(current);
 655              		.loc 1 137 84 is_stmt 0 discriminator 1
 656              	#APP
 657              	# 137 "src/ABI.cpp" 1
 137:src/ABI.cpp   ****             Scheduler::blockCurrent(current);
 658              		mv a0, a0
 659              	# 0 "" 2
 660              		.loc 1 137 86 is_stmt 1 discriminator 1
 661              	#NO_APP
 662 0330 6FF01FE2 		j	.L1
 663              	.L33:
 138:src/ABI.cpp   ****             break;
 664              		.loc 1 138 13
 138:src/ABI.cpp   ****             break;
 665              		.loc 1 138 36 is_stmt 0
 666 0334 13850400 		mv	a0,s1
 667              	.LVL72:
 668 0338 97000000 		call	_ZN9Scheduler12blockCurrentEP7KThread@plt
GAS LISTING /tmp/cc6mZCop.s 			page 20


 668      E7800000 
 669              	.LVL73:
 139:src/ABI.cpp   ****         }
 670              		.loc 1 139 13 is_stmt 1
 671 0340 6FF01FE1 		j	.L1
 672              	.LVL74:
 673              	.L18:
 674              	.LBE38:
 141:src/ABI.cpp   ****             KSemaphore* semaphore = reinterpret_cast<KSemaphore*>(stackInfo[11]);
 675              		.loc 1 141 9
 141:src/ABI.cpp   ****             KSemaphore* semaphore = reinterpret_cast<KSemaphore*>(stackInfo[11]);
 676              		.loc 1 141 35
 677              	.LBB39:
 142:src/ABI.cpp   ****             semaphore->signal();
 678              		.loc 1 142 13
 143:src/ABI.cpp   ****             __asm__ volatile("li a0, 0");
 679              		.loc 1 143 13
 143:src/ABI.cpp   ****             __asm__ volatile("li a0, 0");
 680              		.loc 1 143 30 is_stmt 0
 681 0344 03358905 		ld	a0,88(s2)
 682 0348 97000000 		call	_ZN10KSemaphore6signalEv@plt
 682      E7800000 
 683              	.LVL75:
 144:src/ABI.cpp   ****             break;
 684              		.loc 1 144 13 is_stmt 1
 144:src/ABI.cpp   ****             break;
 685              		.loc 1 144 41 is_stmt 0
 686              	#APP
 687              	# 144 "src/ABI.cpp" 1
 145:src/ABI.cpp   ****         }
 688              		li a0, 0
 689              	# 0 "" 2
 690              		.loc 1 145 13 is_stmt 1
 691              	#NO_APP
 692 0354 6FF0DFDF 		j	.L1
 693              	.LVL76:
 694              	.L17:
 695              	.LBE39:
 147:src/ABI.cpp   ****             KSemaphore* semaphore = reinterpret_cast<KSemaphore*>(stackInfo[11]);
 696              		.loc 1 147 9
 147:src/ABI.cpp   ****             KSemaphore* semaphore = reinterpret_cast<KSemaphore*>(stackInfo[11]);
 697              		.loc 1 147 35
 698              	.LBB40:
 148:src/ABI.cpp   ****             unsigned n = (unsigned)stackInfo[12];
 699              		.loc 1 148 13
 149:src/ABI.cpp   ****             int result = semaphore->waitN(current, n);
 700              		.loc 1 149 13
 150:src/ABI.cpp   ****             if (result <= 0) { __asm__ volatile("mv a0, %0" :: "r"((size_t)result)); break; }
 701              		.loc 1 150 13
 150:src/ABI.cpp   ****             if (result <= 0) { __asm__ volatile("mv a0, %0" :: "r"((size_t)result)); break; }
 702              		.loc 1 150 42 is_stmt 0
 703 0358 03260906 		lw	a2,96(s2)
 704 035c 93850400 		mv	a1,s1
 705 0360 03358905 		ld	a0,88(s2)
 706 0364 97000000 		call	_ZN10KSemaphore5waitNEP7KThreadj@plt
 706      E7800000 
 707              	.LVL77:
GAS LISTING /tmp/cc6mZCop.s 			page 21


 151:src/ABI.cpp   ****             Scheduler::blockCurrent(current);
 708              		.loc 1 151 13 is_stmt 1
 709 036c 6346A000 		bgtz	a0,.L34
 151:src/ABI.cpp   ****             Scheduler::blockCurrent(current);
 710              		.loc 1 151 32 discriminator 1
 151:src/ABI.cpp   ****             Scheduler::blockCurrent(current);
 711              		.loc 1 151 84 is_stmt 0 discriminator 1
 712              	#APP
 713              	# 151 "src/ABI.cpp" 1
 151:src/ABI.cpp   ****             Scheduler::blockCurrent(current);
 714              		mv a0, a0
 715              	# 0 "" 2
 716              		.loc 1 151 86 is_stmt 1 discriminator 1
 717              	#NO_APP
 718 0374 6FF0DFDD 		j	.L1
 719              	.L34:
 152:src/ABI.cpp   ****             break;
 720              		.loc 1 152 13
 152:src/ABI.cpp   ****             break;
 721              		.loc 1 152 36 is_stmt 0
 722 0378 13850400 		mv	a0,s1
 723              	.LVL78:
 724 037c 97000000 		call	_ZN9Scheduler12blockCurrentEP7KThread@plt
 724      E7800000 
 725              	.LVL79:
 153:src/ABI.cpp   ****         }
 726              		.loc 1 153 13 is_stmt 1
 727 0384 6FF0DFDC 		j	.L1
 728              	.LVL80:
 729              	.L16:
 730              	.LBE40:
 155:src/ABI.cpp   ****             KSemaphore* semaphore = reinterpret_cast<KSemaphore*>(stackInfo[11]);
 731              		.loc 1 155 9
 155:src/ABI.cpp   ****             KSemaphore* semaphore = reinterpret_cast<KSemaphore*>(stackInfo[11]);
 732              		.loc 1 155 37
 733              	.LBB41:
 156:src/ABI.cpp   ****             unsigned n = (unsigned)stackInfo[12];
 734              		.loc 1 156 13
 157:src/ABI.cpp   ****             semaphore->signalN(n);
 735              		.loc 1 157 13
 158:src/ABI.cpp   ****             __asm__ volatile("li a0, 0");
 736              		.loc 1 158 13
 158:src/ABI.cpp   ****             __asm__ volatile("li a0, 0");
 737              		.loc 1 158 31 is_stmt 0
 738 0388 83250906 		lw	a1,96(s2)
 739 038c 03358905 		ld	a0,88(s2)
 740 0390 97000000 		call	_ZN10KSemaphore7signalNEj@plt
 740      E7800000 
 741              	.LVL81:
 159:src/ABI.cpp   ****             break;
 742              		.loc 1 159 13 is_stmt 1
 159:src/ABI.cpp   ****             break;
 743              		.loc 1 159 41 is_stmt 0
 744              	#APP
 745              	# 159 "src/ABI.cpp" 1
 160:src/ABI.cpp   ****         }
 746              		li a0, 0
GAS LISTING /tmp/cc6mZCop.s 			page 22


 747              	# 0 "" 2
 748              		.loc 1 160 13 is_stmt 1
 749              	#NO_APP
 750 039c 6FF05FDB 		j	.L1
 751              	.LVL82:
 752              	.L15:
 753              	.LBE41:
 162:src/ABI.cpp   ****             time_t dur = (time_t)stackInfo[11];
 754              		.loc 1 162 9
 162:src/ABI.cpp   ****             time_t dur = (time_t)stackInfo[11];
 755              		.loc 1 162 30
 756              	.LBB42:
 163:src/ABI.cpp   ****             if (current) current->threadContext.x[10] = 0;
 757              		.loc 1 163 13
 163:src/ABI.cpp   ****             if (current) current->threadContext.x[10] = 0;
 758              		.loc 1 163 20 is_stmt 0
 759 03a0 83358905 		ld	a1,88(s2)
 760              	.LVL83:
 164:src/ABI.cpp   ****             if (dur == 0) { __asm__ volatile("li a0, 0"); break; }
 761              		.loc 1 164 13 is_stmt 1
 762 03a4 63840400 		beqz	s1,.L35
 164:src/ABI.cpp   ****             if (dur == 0) { __asm__ volatile("li a0, 0"); break; }
 763              		.loc 1 164 26 discriminator 1
 164:src/ABI.cpp   ****             if (dur == 0) { __asm__ volatile("li a0, 0"); break; }
 764              		.loc 1 164 55 is_stmt 0 discriminator 1
 765 03a8 23BC040A 		sd	zero,184(s1)
 766              	.LVL84:
 767              	.L35:
 165:src/ABI.cpp   ****             Scheduler::sleep(current, dur);
 768              		.loc 1 165 13 is_stmt 1
 769 03ac 63960500 		bnez	a1,.L36
 165:src/ABI.cpp   ****             Scheduler::sleep(current, dur);
 770              		.loc 1 165 29 discriminator 1
 165:src/ABI.cpp   ****             Scheduler::sleep(current, dur);
 771              		.loc 1 165 57 is_stmt 0 discriminator 1
 772              	#APP
 773              	# 165 "src/ABI.cpp" 1
 165:src/ABI.cpp   ****             Scheduler::sleep(current, dur);
 774              		li a0, 0
 775              	# 0 "" 2
 776              		.loc 1 165 59 is_stmt 1 discriminator 1
 777              	#NO_APP
 778 03b4 6FF0DFD9 		j	.L1
 779              	.L36:
 166:src/ABI.cpp   ****             Scheduler::blockCurrent(current);
 780              		.loc 1 166 13
 166:src/ABI.cpp   ****             Scheduler::blockCurrent(current);
 781              		.loc 1 166 29 is_stmt 0
 782 03b8 13850400 		mv	a0,s1
 783 03bc 97000000 		call	_ZN9Scheduler5sleepEP7KThreadm@plt
 783      E7800000 
 784              	.LVL85:
 167:src/ABI.cpp   ****             break;
 785              		.loc 1 167 13 is_stmt 1
 167:src/ABI.cpp   ****             break;
 786              		.loc 1 167 36 is_stmt 0
 787 03c4 13850400 		mv	a0,s1
GAS LISTING /tmp/cc6mZCop.s 			page 23


 788 03c8 97000000 		call	_ZN9Scheduler12blockCurrentEP7KThread@plt
 788      E7800000 
 789              	.LVL86:
 168:src/ABI.cpp   ****         }
 790              		.loc 1 168 13 is_stmt 1
 791 03d0 6FF01FD8 		j	.L1
 792              	.LVL87:
 793              	.L14:
 794              	.LBE42:
 170:src/ABI.cpp   ****             int result = Konsole::getcKernel(current);
 795              		.loc 1 170 9
 170:src/ABI.cpp   ****             int result = Konsole::getcKernel(current);
 796              		.loc 1 170 29
 797              	.LBB43:
 171:src/ABI.cpp   ****             if (result == -2)
 798              		.loc 1 171 13
 171:src/ABI.cpp   ****             if (result == -2)
 799              		.loc 1 171 45 is_stmt 0
 800 03d4 13850400 		mv	a0,s1
 801 03d8 97000000 		call	_ZN7Konsole10getcKernelEP7KThread@plt
 801      E7800000 
 802              	.LVL88:
 172:src/ABI.cpp   ****                 Scheduler::blockCurrent(current);
 803              		.loc 1 172 13 is_stmt 1
 804 03e0 1307E0FF 		li	a4,-2
 805 03e4 6308E500 		beq	a0,a4,.L46
 175:src/ABI.cpp   ****             break;
 806              		.loc 1 175 17
 175:src/ABI.cpp   ****             break;
 807              		.loc 1 175 53 is_stmt 0
 808 03e8 9377F50F 		andi	a5,a0,0xff
 175:src/ABI.cpp   ****             break;
 809              		.loc 1 175 84
 810              	#APP
 811              	# 175 "src/ABI.cpp" 1
 812              		mv a0, a5
 813              	# 0 "" 2
 814              	#NO_APP
 815 03f0 6FF01FD6 		j	.L1
 816              	.L46:
 173:src/ABI.cpp   ****             else
 817              		.loc 1 173 17 is_stmt 1
 173:src/ABI.cpp   ****             else
 818              		.loc 1 173 40 is_stmt 0
 819 03f4 13850400 		mv	a0,s1
 820              	.LVL89:
 821 03f8 97000000 		call	_ZN9Scheduler12blockCurrentEP7KThread@plt
 821      E7800000 
 822              	.LVL90:
 823 0400 6FF01FD5 		j	.L1
 824              	.LVL91:
 825              	.L12:
 826              	.LBE43:
 178:src/ABI.cpp   ****             char c = (char)stackInfo[11];
 827              		.loc 1 178 9 is_stmt 1
 178:src/ABI.cpp   ****             char c = (char)stackInfo[11];
 828              		.loc 1 178 29
GAS LISTING /tmp/cc6mZCop.s 			page 24


 829              	.LBB44:
 179:src/ABI.cpp   ****             int result = Konsole::putcKernel(current, c);
 830              		.loc 1 179 13
 180:src/ABI.cpp   ****             __asm__ volatile("mv a0, %0" :: "r"((size_t)result));
 831              		.loc 1 180 13
 180:src/ABI.cpp   ****             __asm__ volatile("mv a0, %0" :: "r"((size_t)result));
 832              		.loc 1 180 45 is_stmt 0
 833 0404 83458905 		lbu	a1,88(s2)
 834 0408 13850400 		mv	a0,s1
 835 040c 97000000 		call	_ZN7Konsole10putcKernelEP7KThreadc@plt
 835      E7800000 
 836              	.LVL92:
 181:src/ABI.cpp   ****             break;
 837              		.loc 1 181 13 is_stmt 1
 181:src/ABI.cpp   ****             break;
 838              		.loc 1 181 65 is_stmt 0
 839              	#APP
 840              	# 181 "src/ABI.cpp" 1
 182:src/ABI.cpp   ****         }
 841              		mv a0, a0
 842              	# 0 "" 2
 843              		.loc 1 182 13 is_stmt 1
 844              	#NO_APP
 845 0418 6FF09FD3 		j	.L1
 846              	.LBE44:
 847              	.LBE29:
 848              	.LBE46:
 849              		.cfi_endproc
 850              	.LFE3:
 852              		.align	2
 853              		.globl	start_main_thread
 855              	start_main_thread:
 856              	.LFB4:
 195:src/ABI.cpp   **** 
 196:src/ABI.cpp   **** extern "C" {
 197:src/ABI.cpp   **** int start_main_thread() {
 857              		.loc 1 197 25
 858              		.cfi_startproc
 859 041c 130101FF 		addi	sp,sp,-16
 860              		.cfi_def_cfa_offset 16
 861 0420 23341100 		sd	ra,8(sp)
 862 0424 23308100 		sd	s0,0(sp)
 863              		.cfi_offset 1, -8
 864              		.cfi_offset 8, -16
 865 0428 13040101 		addi	s0,sp,16
 866              		.cfi_def_cfa 8, 0
 198:src/ABI.cpp   ****     Scheduler::SetupStartThread();
 867              		.loc 1 198 5
 868              		.loc 1 198 32 is_stmt 0
 869 042c 97000000 		call	_ZN9Scheduler16SetupStartThreadEv@plt
 869      E7800000 
 870              	.LVL93:
 199:src/ABI.cpp   ****     Konsole::init();
 871              		.loc 1 199 5 is_stmt 1
 872              		.loc 1 199 18 is_stmt 0
 873 0434 97000000 		call	_ZN7Konsole4initEv@plt
 873      E7800000 
GAS LISTING /tmp/cc6mZCop.s 			page 25


 874              	.LVL94:
 200:src/ABI.cpp   ****     return 0;
 875              		.loc 1 200 5 is_stmt 1
 201:src/ABI.cpp   **** }
 876              		.loc 1 201 1 is_stmt 0
 877 043c 13050000 		li	a0,0
 878 0440 83308100 		ld	ra,8(sp)
 879              		.cfi_restore 1
 880 0444 03340100 		ld	s0,0(sp)
 881              		.cfi_restore 8
 882              		.cfi_def_cfa 2, 16
 883 0448 13010101 		addi	sp,sp,16
 884              		.cfi_def_cfa_offset 0
 885 044c 67800000 		jr	ra
 886              		.cfi_endproc
 887              	.LFE4:
 889              	.Letext0:
 890              		.file 3 "src/../h/../lib/hw.h"
 891              		.file 4 "src/../h/MemoryAllocator.hpp"
 892              		.file 5 "src/../h/syscall_c.h"
 893              		.file 6 "src/../h/Scheduler.hpp"
 894              		.file 7 "src/../h/Semaphore.hpp"
 895              		.file 8 "src/../h/Konsole.hpp"
 896              		.file 9 "/usr/riscv64-linux-gnu/include/c++/9/cstdint"
 897              		.file 10 "/usr/riscv64-linux-gnu/include/c++/9/riscv64-linux-gnu/bits/c++config.h"
 898              		.file 11 "/usr/lib/gcc-cross/riscv64-linux-gnu/9/include/stdint-gcc.h"
 899              		.file 12 "src/../h/SyscallCodes.hpp"
 900              		.file 13 "<built-in>"
GAS LISTING /tmp/cc6mZCop.s 			page 26


DEFINED SYMBOLS
                            *ABS*:0000000000000000 ABI.cpp
     /tmp/cc6mZCop.s:9      .text:0000000000000000 HandleInterupt
     /tmp/cc6mZCop.s:13     .text:0000000000000000 .L0 
     /tmp/cc6mZCop.s:15     .text:0000000000000000 .L0 
     /tmp/cc6mZCop.s:16     .text:0000000000000004 .L0 
     /tmp/cc6mZCop.s:26     .text:0000000000000028 .L0 
     /tmp/cc6mZCop.s:27     .text:0000000000000028 .L0 
     /tmp/cc6mZCop.s:28     .text:0000000000000028 .L0 
     /tmp/cc6mZCop.s:29     .text:0000000000000028 .L0 
     /tmp/cc6mZCop.s:30     .text:0000000000000028 .L0 
     /tmp/cc6mZCop.s:31     .text:0000000000000028 .L0 
     /tmp/cc6mZCop.s:32     .text:0000000000000028 .L0 
     /tmp/cc6mZCop.s:33     .text:0000000000000028 .L0 
     /tmp/cc6mZCop.s:34     .text:0000000000000028 .L0 
     /tmp/cc6mZCop.s:36     .text:000000000000002c .L0 
     /tmp/cc6mZCop.s:39     .text:0000000000000030 .L0 
     /tmp/cc6mZCop.s:40     .text:0000000000000030 .L0 
         src/ABI.cpp:19     .text:0000000000000030 .L0 
     /tmp/cc6mZCop.s:47     .text:0000000000000034 .L0 
     /tmp/cc6mZCop.s:49     .text:0000000000000034 .L0 
     /tmp/cc6mZCop.s:52     .text:000000000000003c .L0 
     /tmp/cc6mZCop.s:53     .text:000000000000003c .L0 
     /tmp/cc6mZCop.s:59     .text:0000000000000048 .L0 
     /tmp/cc6mZCop.s:63     .text:000000000000004c .L0 
     /tmp/cc6mZCop.s:67     .text:0000000000000050 .L0 
     /tmp/cc6mZCop.s:70     .text:0000000000000058 .L0 
     /tmp/cc6mZCop.s:71     .text:0000000000000058 .L0 
     /tmp/cc6mZCop.s:75     .text:0000000000000064 .L0 
     /tmp/cc6mZCop.s:78     .text:000000000000006c .L0 
     /tmp/cc6mZCop.s:85     .text:0000000000000074 .L0 
     /tmp/cc6mZCop.s:86     .text:0000000000000074 .L0 
     /tmp/cc6mZCop.s:88     .text:0000000000000078 .L0 
     /tmp/cc6mZCop.s:90     .text:000000000000007c .L0 
     /tmp/cc6mZCop.s:91     .text:000000000000007c .L0 
         src/ABI.cpp:30     .text:000000000000007c .L0 
     /tmp/cc6mZCop.s:98     .text:0000000000000080 .L0 
         src/ABI.cpp:31     .text:0000000000000080 .L0 
     /tmp/cc6mZCop.s:104    .text:0000000000000084 .L0 
     /tmp/cc6mZCop.s:106    .text:0000000000000084 .L0 
     /tmp/cc6mZCop.s:108    .text:0000000000000088 .L0 
     /tmp/cc6mZCop.s:112    .text:0000000000000090 .L0 
     /tmp/cc6mZCop.s:113    .text:0000000000000090 .L0 
     /tmp/cc6mZCop.s:115    .text:0000000000000094 .L0 
     /tmp/cc6mZCop.s:116    .text:0000000000000094 .L0 
     /tmp/cc6mZCop.s:122    .text:0000000000000098 .L0 
     /tmp/cc6mZCop.s:127    .text:00000000000000a8 .L0 
     /tmp/cc6mZCop.s:132    .text:00000000000000b8 .L0 
     /tmp/cc6mZCop.s:133    .text:00000000000000b8 .L0 
     /tmp/cc6mZCop.s:135    .text:00000000000000bc .L0 
     /tmp/cc6mZCop.s:139    .text:00000000000000c4 .L0 
     /tmp/cc6mZCop.s:140    .text:00000000000000c4 .L0 
     /tmp/cc6mZCop.s:141    .text:00000000000000c4 .L0 
         src/ABI.cpp:59     .text:00000000000000c4 .L0 
     /tmp/cc6mZCop.s:148    .text:00000000000000c8 .L0 
     /tmp/cc6mZCop.s:150    .text:00000000000000c8 .L0 
         src/ABI.cpp:60     .text:00000000000000cc .L0 
GAS LISTING /tmp/cc6mZCop.s 			page 27


     /tmp/cc6mZCop.s:160    .text:00000000000000d0 .L0 
     /tmp/cc6mZCop.s:161    .text:00000000000000d0 .L0 
     /tmp/cc6mZCop.s:165    .text:00000000000000d4 .L0 
     /tmp/cc6mZCop.s:254    .text:0000000000000100 .L0 
     /tmp/cc6mZCop.s:255    .text:0000000000000100 .L0 
     /tmp/cc6mZCop.s:263    .text:0000000000000108 .L0 
     /tmp/cc6mZCop.s:264    .text:0000000000000108 .L0 
     /tmp/cc6mZCop.s:268    .text:0000000000000114 .L0 
     /tmp/cc6mZCop.s:270    .text:0000000000000118 .L0 
     /tmp/cc6mZCop.s:271    .text:0000000000000118 .L0 
         src/ABI.cpp:39     .text:000000000000011c .L0 
     /tmp/cc6mZCop.s:281    .text:0000000000000124 .L0 
     /tmp/cc6mZCop.s:282    .text:0000000000000124 .L0 
     /tmp/cc6mZCop.s:285    .text:000000000000012c .L0 
     /tmp/cc6mZCop.s:287    .text:0000000000000130 .L0 
     /tmp/cc6mZCop.s:288    .text:0000000000000130 .L0 
         src/ABI.cpp:45     .text:0000000000000134 .L0 
     /tmp/cc6mZCop.s:298    .text:000000000000013c .L0 
     /tmp/cc6mZCop.s:300    .text:0000000000000140 .L0 
     /tmp/cc6mZCop.s:302    .text:0000000000000144 .L0 
     /tmp/cc6mZCop.s:303    .text:0000000000000144 .L0 
     /tmp/cc6mZCop.s:308    .text:0000000000000150 .L0 
     /tmp/cc6mZCop.s:309    .text:0000000000000150 .L0 
     /tmp/cc6mZCop.s:310    .text:0000000000000154 .L0 
     /tmp/cc6mZCop.s:311    .text:0000000000000154 .L0 
     /tmp/cc6mZCop.s:313    .text:0000000000000158 .L0 
     /tmp/cc6mZCop.s:314    .text:0000000000000158 .L0 
     /tmp/cc6mZCop.s:316    .text:000000000000015c .L0 
     /tmp/cc6mZCop.s:318    .text:0000000000000160 .L0 
     /tmp/cc6mZCop.s:320    .text:0000000000000164 .L0 
     /tmp/cc6mZCop.s:322    .text:0000000000000168 .L0 
     /tmp/cc6mZCop.s:324    .text:000000000000016c .L0 
     /tmp/cc6mZCop.s:326    .text:0000000000000170 .L0 
     /tmp/cc6mZCop.s:328    .text:0000000000000174 .L0 
     /tmp/cc6mZCop.s:330    .text:0000000000000178 .L0 
     /tmp/cc6mZCop.s:334    .text:000000000000017c .L0 
     /tmp/cc6mZCop.s:337    .text:000000000000017c .L0 
     /tmp/cc6mZCop.s:341    .text:0000000000000184 .L0 
     /tmp/cc6mZCop.s:342    .text:0000000000000184 .L0 
     /tmp/cc6mZCop.s:343    .text:0000000000000184 .L0 
     /tmp/cc6mZCop.s:344    .text:0000000000000184 .L0 
     /tmp/cc6mZCop.s:352    .text:0000000000000194 .L0 
     /tmp/cc6mZCop.s:353    .text:0000000000000194 .L0 
     /tmp/cc6mZCop.s:357    .text:0000000000000198 .L0 
     /tmp/cc6mZCop.s:359    .text:0000000000000198 .L0 
     /tmp/cc6mZCop.s:360    .text:0000000000000198 .L0 
     /tmp/cc6mZCop.s:361    .text:0000000000000198 .L0 
     /tmp/cc6mZCop.s:364    .text:000000000000019c .L0 
     /tmp/cc6mZCop.s:365    .text:000000000000019c .L0 
     /tmp/cc6mZCop.s:368    .text:00000000000001a4 .L0 
     /tmp/cc6mZCop.s:372    .text:00000000000001b0 .L0 
         src/ABI.cpp:68     .text:00000000000001b0 .L0 
     /tmp/cc6mZCop.s:379    .text:00000000000001b4 .L0 
     /tmp/cc6mZCop.s:384    .text:00000000000001b8 .L0 
     /tmp/cc6mZCop.s:386    .text:00000000000001b8 .L0 
     /tmp/cc6mZCop.s:387    .text:00000000000001b8 .L0 
     /tmp/cc6mZCop.s:388    .text:00000000000001b8 .L0 
GAS LISTING /tmp/cc6mZCop.s 			page 28


     /tmp/cc6mZCop.s:391    .text:00000000000001bc .L0 
     /tmp/cc6mZCop.s:392    .text:00000000000001bc .L0 
     /tmp/cc6mZCop.s:395    .text:00000000000001c4 .L0 
     /tmp/cc6mZCop.s:399    .text:00000000000001d0 .L0 
     /tmp/cc6mZCop.s:404    .text:00000000000001d4 .L0 
     /tmp/cc6mZCop.s:406    .text:00000000000001d4 .L0 
     /tmp/cc6mZCop.s:407    .text:00000000000001d4 .L0 
     /tmp/cc6mZCop.s:408    .text:00000000000001d4 .L0 
     /tmp/cc6mZCop.s:411    .text:00000000000001d8 .L0 
     /tmp/cc6mZCop.s:412    .text:00000000000001d8 .L0 
     /tmp/cc6mZCop.s:415    .text:00000000000001dc .L0 
     /tmp/cc6mZCop.s:416    .text:00000000000001dc .L0 
     /tmp/cc6mZCop.s:419    .text:00000000000001e0 .L0 
     /tmp/cc6mZCop.s:420    .text:00000000000001e0 .L0 
     /tmp/cc6mZCop.s:423    .text:00000000000001e4 .L0 
     /tmp/cc6mZCop.s:424    .text:00000000000001e4 .L0 
     /tmp/cc6mZCop.s:427    .text:00000000000001ec .L0 
     /tmp/cc6mZCop.s:433    .text:00000000000001fc .L0 
     /tmp/cc6mZCop.s:436    .text:0000000000000200 .L0 
     /tmp/cc6mZCop.s:437    .text:0000000000000200 .L0 
     /tmp/cc6mZCop.s:438    .text:0000000000000200 .L0 
     /tmp/cc6mZCop.s:444    .text:0000000000000208 .L0 
     /tmp/cc6mZCop.s:445    .text:0000000000000208 .L0 
     /tmp/cc6mZCop.s:446    .text:0000000000000208 .L0 
     /tmp/cc6mZCop.s:448    .text:000000000000020c .L0 
     /tmp/cc6mZCop.s:449    .text:000000000000020c .L0 
     /tmp/cc6mZCop.s:454    .text:0000000000000210 .L0 
     /tmp/cc6mZCop.s:455    .text:0000000000000210 .L0 
     /tmp/cc6mZCop.s:461    .text:0000000000000224 .L0 
     /tmp/cc6mZCop.s:462    .text:0000000000000224 .L0 
     /tmp/cc6mZCop.s:464    .text:0000000000000228 .L0 
     /tmp/cc6mZCop.s:466    .text:000000000000022c .L0 
     /tmp/cc6mZCop.s:467    .text:000000000000022c .L0 
     /tmp/cc6mZCop.s:469    .text:0000000000000230 .L0 
     /tmp/cc6mZCop.s:470    .text:0000000000000230 .L0 
     /tmp/cc6mZCop.s:474    .text:000000000000023c .L0 
     /tmp/cc6mZCop.s:476    .text:0000000000000240 .L0 
     /tmp/cc6mZCop.s:477    .text:0000000000000240 .L0 
     /tmp/cc6mZCop.s:480    .text:0000000000000244 .L0 
         src/ABI.cpp:99     .text:0000000000000244 .L0 
     /tmp/cc6mZCop.s:487    .text:0000000000000248 .L0 
     /tmp/cc6mZCop.s:491    .text:000000000000024c .L0 
     /tmp/cc6mZCop.s:493    .text:0000000000000250 .L0 
     /tmp/cc6mZCop.s:494    .text:0000000000000250 .L0 
     /tmp/cc6mZCop.s:497    .text:0000000000000258 .L0 
     /tmp/cc6mZCop.s:498    .text:0000000000000258 .L0 
     /tmp/cc6mZCop.s:505    .text:000000000000026c .L0 
     /tmp/cc6mZCop.s:510    .text:0000000000000270 .L0 
     /tmp/cc6mZCop.s:511    .text:0000000000000270 .L0 
     /tmp/cc6mZCop.s:512    .text:0000000000000270 .L0 
     /tmp/cc6mZCop.s:513    .text:0000000000000270 .L0 
     /tmp/cc6mZCop.s:517    .text:000000000000027c .L0 
     /tmp/cc6mZCop.s:521    .text:0000000000000280 .L0 
     /tmp/cc6mZCop.s:522    .text:0000000000000280 .L0 
     /tmp/cc6mZCop.s:523    .text:0000000000000280 .L0 
     /tmp/cc6mZCop.s:524    .text:0000000000000280 .L0 
     /tmp/cc6mZCop.s:528    .text:000000000000028c .L0 
GAS LISTING /tmp/cc6mZCop.s 			page 29


     /tmp/cc6mZCop.s:530    .text:0000000000000290 .L0 
         src/ABI.cpp:108    .text:0000000000000290 .L0 
     /tmp/cc6mZCop.s:540    .text:0000000000000298 .L0 
     /tmp/cc6mZCop.s:542    .text:0000000000000298 .L0 
     /tmp/cc6mZCop.s:543    .text:0000000000000298 .L0 
     /tmp/cc6mZCop.s:544    .text:0000000000000298 .L0 
     /tmp/cc6mZCop.s:545    .text:0000000000000298 .L0 
     /tmp/cc6mZCop.s:549    .text:00000000000002a4 .L0 
     /tmp/cc6mZCop.s:554    .text:00000000000002a8 .L0 
     /tmp/cc6mZCop.s:556    .text:00000000000002a8 .L0 
     /tmp/cc6mZCop.s:557    .text:00000000000002a8 .L0 
     /tmp/cc6mZCop.s:558    .text:00000000000002a8 .L0 
     /tmp/cc6mZCop.s:561    .text:00000000000002ac .L0 
     /tmp/cc6mZCop.s:562    .text:00000000000002ac .L0 
     /tmp/cc6mZCop.s:565    .text:00000000000002b0 .L0 
     /tmp/cc6mZCop.s:566    .text:00000000000002b0 .L0 
     /tmp/cc6mZCop.s:569    .text:00000000000002b8 .L0 
     /tmp/cc6mZCop.s:575    .text:00000000000002c8 .L0 
     /tmp/cc6mZCop.s:578    .text:00000000000002cc .L0 
     /tmp/cc6mZCop.s:579    .text:00000000000002cc .L0 
     /tmp/cc6mZCop.s:580    .text:00000000000002cc .L0 
     /tmp/cc6mZCop.s:584    .text:00000000000002d8 .L0 
     /tmp/cc6mZCop.s:585    .text:00000000000002d8 .L0 
     /tmp/cc6mZCop.s:587    .text:00000000000002dc .L0 
         src/ABI.cpp:124    .text:00000000000002dc .L0 
     /tmp/cc6mZCop.s:594    .text:00000000000002e0 .L0 
     /tmp/cc6mZCop.s:598    .text:00000000000002e4 .L0 
         src/ABI.cpp:120    .text:00000000000002e4 .L0 
     /tmp/cc6mZCop.s:605    .text:00000000000002e8 .L0 
     /tmp/cc6mZCop.s:610    .text:00000000000002ec .L0 
     /tmp/cc6mZCop.s:612    .text:00000000000002ec .L0 
     /tmp/cc6mZCop.s:613    .text:00000000000002ec .L0 
     /tmp/cc6mZCop.s:614    .text:00000000000002ec .L0 
     /tmp/cc6mZCop.s:617    .text:00000000000002f0 .L0 
     /tmp/cc6mZCop.s:618    .text:00000000000002f0 .L0 
     /tmp/cc6mZCop.s:623    .text:00000000000002fc .L0 
     /tmp/cc6mZCop.s:624    .text:00000000000002fc .L0 
     /tmp/cc6mZCop.s:627    .text:0000000000000304 .L0 
     /tmp/cc6mZCop.s:631    .text:0000000000000310 .L0 
         src/ABI.cpp:131    .text:0000000000000310 .L0 
     /tmp/cc6mZCop.s:638    .text:0000000000000314 .L0 
     /tmp/cc6mZCop.s:643    .text:0000000000000318 .L0 
     /tmp/cc6mZCop.s:645    .text:0000000000000318 .L0 
     /tmp/cc6mZCop.s:646    .text:0000000000000318 .L0 
     /tmp/cc6mZCop.s:647    .text:0000000000000318 .L0 
     /tmp/cc6mZCop.s:648    .text:0000000000000318 .L0 
     /tmp/cc6mZCop.s:653    .text:0000000000000328 .L0 
     /tmp/cc6mZCop.s:655    .text:000000000000032c .L0 
         src/ABI.cpp:137    .text:000000000000032c .L0 
     /tmp/cc6mZCop.s:662    .text:0000000000000330 .L0 
     /tmp/cc6mZCop.s:665    .text:0000000000000334 .L0 
     /tmp/cc6mZCop.s:666    .text:0000000000000334 .L0 
     /tmp/cc6mZCop.s:671    .text:0000000000000340 .L0 
     /tmp/cc6mZCop.s:676    .text:0000000000000344 .L0 
     /tmp/cc6mZCop.s:678    .text:0000000000000344 .L0 
     /tmp/cc6mZCop.s:679    .text:0000000000000344 .L0 
     /tmp/cc6mZCop.s:680    .text:0000000000000344 .L0 
GAS LISTING /tmp/cc6mZCop.s 			page 30


     /tmp/cc6mZCop.s:681    .text:0000000000000344 .L0 
     /tmp/cc6mZCop.s:685    .text:0000000000000350 .L0 
         src/ABI.cpp:144    .text:0000000000000350 .L0 
     /tmp/cc6mZCop.s:692    .text:0000000000000354 .L0 
     /tmp/cc6mZCop.s:697    .text:0000000000000358 .L0 
     /tmp/cc6mZCop.s:699    .text:0000000000000358 .L0 
     /tmp/cc6mZCop.s:700    .text:0000000000000358 .L0 
     /tmp/cc6mZCop.s:701    .text:0000000000000358 .L0 
     /tmp/cc6mZCop.s:702    .text:0000000000000358 .L0 
     /tmp/cc6mZCop.s:703    .text:0000000000000358 .L0 
     /tmp/cc6mZCop.s:709    .text:000000000000036c .L0 
     /tmp/cc6mZCop.s:711    .text:0000000000000370 .L0 
         src/ABI.cpp:151    .text:0000000000000370 .L0 
     /tmp/cc6mZCop.s:718    .text:0000000000000374 .L0 
     /tmp/cc6mZCop.s:721    .text:0000000000000378 .L0 
     /tmp/cc6mZCop.s:722    .text:0000000000000378 .L0 
     /tmp/cc6mZCop.s:727    .text:0000000000000384 .L0 
     /tmp/cc6mZCop.s:732    .text:0000000000000388 .L0 
     /tmp/cc6mZCop.s:734    .text:0000000000000388 .L0 
     /tmp/cc6mZCop.s:735    .text:0000000000000388 .L0 
     /tmp/cc6mZCop.s:736    .text:0000000000000388 .L0 
     /tmp/cc6mZCop.s:737    .text:0000000000000388 .L0 
     /tmp/cc6mZCop.s:738    .text:0000000000000388 .L0 
     /tmp/cc6mZCop.s:743    .text:0000000000000398 .L0 
         src/ABI.cpp:159    .text:0000000000000398 .L0 
     /tmp/cc6mZCop.s:750    .text:000000000000039c .L0 
     /tmp/cc6mZCop.s:755    .text:00000000000003a0 .L0 
     /tmp/cc6mZCop.s:757    .text:00000000000003a0 .L0 
     /tmp/cc6mZCop.s:758    .text:00000000000003a0 .L0 
     /tmp/cc6mZCop.s:759    .text:00000000000003a0 .L0 
     /tmp/cc6mZCop.s:762    .text:00000000000003a4 .L0 
     /tmp/cc6mZCop.s:764    .text:00000000000003a8 .L0 
     /tmp/cc6mZCop.s:765    .text:00000000000003a8 .L0 
     /tmp/cc6mZCop.s:769    .text:00000000000003ac .L0 
     /tmp/cc6mZCop.s:771    .text:00000000000003b0 .L0 
         src/ABI.cpp:165    .text:00000000000003b0 .L0 
     /tmp/cc6mZCop.s:778    .text:00000000000003b4 .L0 
     /tmp/cc6mZCop.s:781    .text:00000000000003b8 .L0 
     /tmp/cc6mZCop.s:782    .text:00000000000003b8 .L0 
     /tmp/cc6mZCop.s:786    .text:00000000000003c4 .L0 
     /tmp/cc6mZCop.s:787    .text:00000000000003c4 .L0 
     /tmp/cc6mZCop.s:791    .text:00000000000003d0 .L0 
     /tmp/cc6mZCop.s:796    .text:00000000000003d4 .L0 
     /tmp/cc6mZCop.s:798    .text:00000000000003d4 .L0 
     /tmp/cc6mZCop.s:799    .text:00000000000003d4 .L0 
     /tmp/cc6mZCop.s:800    .text:00000000000003d4 .L0 
     /tmp/cc6mZCop.s:804    .text:00000000000003e0 .L0 
     /tmp/cc6mZCop.s:807    .text:00000000000003e8 .L0 
     /tmp/cc6mZCop.s:808    .text:00000000000003e8 .L0 
         src/ABI.cpp:175    .text:00000000000003ec .L0 
     /tmp/cc6mZCop.s:818    .text:00000000000003f4 .L0 
     /tmp/cc6mZCop.s:819    .text:00000000000003f4 .L0 
     /tmp/cc6mZCop.s:828    .text:0000000000000404 .L0 
     /tmp/cc6mZCop.s:830    .text:0000000000000404 .L0 
     /tmp/cc6mZCop.s:831    .text:0000000000000404 .L0 
     /tmp/cc6mZCop.s:832    .text:0000000000000404 .L0 
     /tmp/cc6mZCop.s:833    .text:0000000000000404 .L0 
GAS LISTING /tmp/cc6mZCop.s 			page 31


     /tmp/cc6mZCop.s:838    .text:0000000000000414 .L0 
         src/ABI.cpp:181    .text:0000000000000414 .L0 
     /tmp/cc6mZCop.s:845    .text:0000000000000418 .L0 
     /tmp/cc6mZCop.s:849    .text:000000000000041c .L0 
     /tmp/cc6mZCop.s:855    .text:000000000000041c start_main_thread
     /tmp/cc6mZCop.s:858    .text:000000000000041c .L0 
     /tmp/cc6mZCop.s:859    .text:000000000000041c .L0 
     /tmp/cc6mZCop.s:860    .text:0000000000000420 .L0 
     /tmp/cc6mZCop.s:863    .text:0000000000000428 .L0 
     /tmp/cc6mZCop.s:864    .text:0000000000000428 .L0 
     /tmp/cc6mZCop.s:866    .text:000000000000042c .L0 
     /tmp/cc6mZCop.s:868    .text:000000000000042c .L0 
     /tmp/cc6mZCop.s:869    .text:000000000000042c .L0 
     /tmp/cc6mZCop.s:872    .text:0000000000000434 .L0 
     /tmp/cc6mZCop.s:873    .text:0000000000000434 .L0 
     /tmp/cc6mZCop.s:876    .text:000000000000043c .L0 
     /tmp/cc6mZCop.s:877    .text:000000000000043c .L0 
     /tmp/cc6mZCop.s:879    .text:0000000000000444 .L0 
     /tmp/cc6mZCop.s:881    .text:0000000000000448 .L0 
     /tmp/cc6mZCop.s:882    .text:0000000000000448 .L0 
     /tmp/cc6mZCop.s:884    .text:000000000000044c .L0 
     /tmp/cc6mZCop.s:886    .text:0000000000000450 .L0 
     /tmp/cc6mZCop.s:901    .text:0000000000000450 .L0 
     /tmp/cc6mZCop.s:179    .rodata:0000000000000000 .L13
     /tmp/cc6mZCop.s:171    .text:00000000000000e8 .L0 
     /tmp/cc6mZCop.s:118    .text:0000000000000098 .L2
     /tmp/cc6mZCop.s:82     .text:0000000000000074 .L3
     /tmp/cc6mZCop.s:64     .text:0000000000000050 .L4
     /tmp/cc6mZCop.s:249    .text:0000000000000100 .L40
     /tmp/cc6mZCop.s:259    .text:0000000000000108 .L41
     /tmp/cc6mZCop.s:279    .text:0000000000000124 .L42
     /tmp/cc6mZCop.s:296    .text:000000000000013c .L43
     /tmp/cc6mZCop.s:333    .text:000000000000017c .L11
     /tmp/cc6mZCop.s:307    .text:0000000000000150 .L1
     /tmp/cc6mZCop.s:110    .text:0000000000000090 .L5
     /tmp/cc6mZCop.s:350    .text:0000000000000194 .L38
     /tmp/cc6mZCop.s:489    .text:000000000000024c .L44
     /tmp/cc6mZCop.s:478    .text:0000000000000244 .L31
     /tmp/cc6mZCop.s:596    .text:00000000000002e4 .L45
     /tmp/cc6mZCop.s:663    .text:0000000000000334 .L33
     /tmp/cc6mZCop.s:719    .text:0000000000000378 .L34
     /tmp/cc6mZCop.s:767    .text:00000000000003ac .L35
     /tmp/cc6mZCop.s:779    .text:00000000000003b8 .L36
     /tmp/cc6mZCop.s:816    .text:00000000000003f4 .L46
     /tmp/cc6mZCop.s:355    .text:0000000000000198 .L27
     /tmp/cc6mZCop.s:381    .text:00000000000001b8 .L26
     /tmp/cc6mZCop.s:401    .text:00000000000001d4 .L25
     /tmp/cc6mZCop.s:507    .text:0000000000000270 .L24
     /tmp/cc6mZCop.s:519    .text:0000000000000280 .L23
     /tmp/cc6mZCop.s:538    .text:0000000000000298 .L22
     /tmp/cc6mZCop.s:551    .text:00000000000002a8 .L21
     /tmp/cc6mZCop.s:607    .text:00000000000002ec .L20
     /tmp/cc6mZCop.s:640    .text:0000000000000318 .L19
     /tmp/cc6mZCop.s:673    .text:0000000000000344 .L18
     /tmp/cc6mZCop.s:694    .text:0000000000000358 .L17
     /tmp/cc6mZCop.s:729    .text:0000000000000388 .L16
     /tmp/cc6mZCop.s:752    .text:00000000000003a0 .L15
GAS LISTING /tmp/cc6mZCop.s 			page 32


     /tmp/cc6mZCop.s:793    .text:00000000000003d4 .L14
     /tmp/cc6mZCop.s:825    .text:0000000000000404 .L12
     /tmp/cc6mZCop.s:3298   .debug_abbrev:0000000000000000 .Ldebug_abbrev0
     /tmp/cc6mZCop.s:5466   .debug_str:0000000000000bf5 .LASF234
     /tmp/cc6mZCop.s:5122   .debug_str:0000000000000140 .LASF235
     /tmp/cc6mZCop.s:5440   .debug_str:0000000000000b40 .LASF236
     /tmp/cc6mZCop.s:5      .text:0000000000000000 .Ltext0
     /tmp/cc6mZCop.s:889    .text:0000000000000450 .Letext0
     /tmp/cc6mZCop.s:5064   .debug_line:0000000000000000 .Ldebug_line0
     /tmp/cc6mZCop.s:5246   .debug_str:0000000000000584 .LASF0
     /tmp/cc6mZCop.s:5278   .debug_str:000000000000065f .LASF1
     /tmp/cc6mZCop.s:5392   .debug_str:00000000000009f9 .LASF2
     /tmp/cc6mZCop.s:5188   .debug_str:000000000000034e .LASF3
     /tmp/cc6mZCop.s:5400   .debug_str:0000000000000a2b .LASF4
     /tmp/cc6mZCop.s:5260   .debug_str:00000000000005ee .LASF5
     /tmp/cc6mZCop.s:5080   .debug_str:0000000000000052 .LASF6
     /tmp/cc6mZCop.s:5370   .debug_str:0000000000000971 .LASF7
     /tmp/cc6mZCop.s:5360   .debug_str:000000000000093c .LASF8
     /tmp/cc6mZCop.s:5270   .debug_str:000000000000061f .LASF9
     /tmp/cc6mZCop.s:5212   .debug_str:000000000000042e .LASF10
     /tmp/cc6mZCop.s:5222   .debug_str:000000000000046b .LASF11
     /tmp/cc6mZCop.s:5132   .debug_str:0000000000000181 .LASF12
     /tmp/cc6mZCop.s:5198   .debug_str:0000000000000398 .LASF13
     /tmp/cc6mZCop.s:5150   .debug_str:00000000000001f1 .LASF14
     /tmp/cc6mZCop.s:5130   .debug_str:0000000000000171 .LASF15
     /tmp/cc6mZCop.s:5438   .debug_str:0000000000000b34 .LASF16
     /tmp/cc6mZCop.s:5176   .debug_str:00000000000002d0 .LASF17
     /tmp/cc6mZCop.s:5424   .debug_str:0000000000000ad5 .LASF18
     /tmp/cc6mZCop.s:5168   .debug_str:00000000000002ab .LASF23
     /tmp/cc6mZCop.s:5134   .debug_str:0000000000000190 .LASF19
     /tmp/cc6mZCop.s:5098   .debug_str:00000000000000d1 .LASF20
     /tmp/cc6mZCop.s:5486   .debug_str:0000000000000d50 .LASF21
     /tmp/cc6mZCop.s:5276   .debug_str:000000000000065a .LASF22
     /tmp/cc6mZCop.s:5350   .debug_str:00000000000008e8 .LASF24
     /tmp/cc6mZCop.s:5366   .debug_str:000000000000095d .LASF99
     /tmp/cc6mZCop.s:5186   .debug_str:000000000000032a .LASF101
     /tmp/cc6mZCop.s:5288   .debug_str:00000000000006ca .LASF25
     /tmp/cc6mZCop.s:5252   .debug_str:00000000000005a4 .LASF27
     /tmp/cc6mZCop.s:5124   .debug_str:000000000000014c .LASF26
     /tmp/cc6mZCop.s:5226   .debug_str:000000000000049f .LASF28
     /tmp/cc6mZCop.s:5430   .debug_str:0000000000000afd .LASF29
     /tmp/cc6mZCop.s:5094   .debug_str:00000000000000aa .LASF91
     /tmp/cc6mZCop.s:5312   .debug_str:0000000000000791 .LASF30
     /tmp/cc6mZCop.s:5292   .debug_str:0000000000000704 .LASF31
     /tmp/cc6mZCop.s:5448   .debug_str:0000000000000b87 .LASF237
     /tmp/cc6mZCop.s:5470   .debug_str:0000000000000cc7 .LASF32
     /tmp/cc6mZCop.s:5524   .debug_str:0000000000000e55 .LASF33
     /tmp/cc6mZCop.s:5374   .debug_str:0000000000000986 .LASF34
     /tmp/cc6mZCop.s:5444   .debug_str:0000000000000b6f .LASF69
     /tmp/cc6mZCop.s:5274   .debug_str:0000000000000638 .LASF71
     /tmp/cc6mZCop.s:5258   .debug_str:00000000000005e9 .LASF35
     /tmp/cc6mZCop.s:5172   .debug_str:00000000000002b9 .LASF36
     /tmp/cc6mZCop.s:5422   .debug_str:0000000000000acc .LASF37
     /tmp/cc6mZCop.s:5418   .debug_str:0000000000000aab .LASF38
     /tmp/cc6mZCop.s:5456   .debug_str:0000000000000bad .LASF39
     /tmp/cc6mZCop.s:5550   .debug_str:0000000000000f1c .LASF40
     /tmp/cc6mZCop.s:5298   .debug_str:0000000000000728 .LASF41
GAS LISTING /tmp/cc6mZCop.s 			page 33


     /tmp/cc6mZCop.s:5536   .debug_str:0000000000000eb5 .LASF42
     /tmp/cc6mZCop.s:5120   .debug_str:0000000000000132 .LASF43
     /tmp/cc6mZCop.s:5160   .debug_str:0000000000000266 .LASF44
     /tmp/cc6mZCop.s:5096   .debug_str:00000000000000c3 .LASF45
     /tmp/cc6mZCop.s:5174   .debug_str:00000000000002c0 .LASF47
     /tmp/cc6mZCop.s:5554   .debug_str:0000000000000f2e .LASF46
     /tmp/cc6mZCop.s:5240   .debug_str:0000000000000522 .LASF48
     /tmp/cc6mZCop.s:5108   .debug_str:0000000000000104 .LASF49
     /tmp/cc6mZCop.s:5358   .debug_str:0000000000000929 .LASF50
     /tmp/cc6mZCop.s:5528   .debug_str:0000000000000e7b .LASF51
     /tmp/cc6mZCop.s:5458   .debug_str:0000000000000bba .LASF52
     /tmp/cc6mZCop.s:5238   .debug_str:0000000000000517 .LASF53
     /tmp/cc6mZCop.s:5230   .debug_str:00000000000004e1 .LASF54
     /tmp/cc6mZCop.s:5390   .debug_str:00000000000009ef .LASF55
     /tmp/cc6mZCop.s:5148   .debug_str:00000000000001d9 .LASF56
     /tmp/cc6mZCop.s:5324   .debug_str:00000000000007eb .LASF57
     /tmp/cc6mZCop.s:5526   .debug_str:0000000000000e5d .LASF58
     /tmp/cc6mZCop.s:5334   .debug_str:0000000000000834 .LASF59
     /tmp/cc6mZCop.s:5208   .debug_str:0000000000000406 .LASF60
     /tmp/cc6mZCop.s:5482   .debug_str:0000000000000d29 .LASF61
     /tmp/cc6mZCop.s:5434   .debug_str:0000000000000b07 .LASF62
     /tmp/cc6mZCop.s:5234   .debug_str:0000000000000502 .LASF63
     /tmp/cc6mZCop.s:5086   .debug_str:0000000000000070 .LASF64
     /tmp/cc6mZCop.s:5140   .debug_str:00000000000001a7 .LASF65
     /tmp/cc6mZCop.s:5280   .debug_str:0000000000000672 .LASF66
     /tmp/cc6mZCop.s:5362   .debug_str:000000000000094f .LASF67
     /tmp/cc6mZCop.s:5420   .debug_str:0000000000000ab4 .LASF68
     /tmp/cc6mZCop.s:5112   .debug_str:0000000000000112 .LASF70
     /tmp/cc6mZCop.s:5156   .debug_str:000000000000023c .LASF72
     /tmp/cc6mZCop.s:5306   .debug_str:000000000000075a .LASF73
     /tmp/cc6mZCop.s:5102   .debug_str:00000000000000e9 .LASF74
     /tmp/cc6mZCop.s:5232   .debug_str:00000000000004fb .LASF77
     /tmp/cc6mZCop.s:5512   .debug_str:0000000000000e00 .LASF75
     /tmp/cc6mZCop.s:5432   .debug_str:0000000000000b02 .LASF76
     /tmp/cc6mZCop.s:5498   .debug_str:0000000000000d90 .LASF78
     /tmp/cc6mZCop.s:5534   .debug_str:0000000000000eaf .LASF79
     /tmp/cc6mZCop.s:5210   .debug_str:0000000000000424 .LASF80
     /tmp/cc6mZCop.s:5304   .debug_str:0000000000000744 .LASF81
     /tmp/cc6mZCop.s:5462   .debug_str:0000000000000be4 .LASF82
     /tmp/cc6mZCop.s:5552   .debug_str:0000000000000f27 .LASF238
     /tmp/cc6mZCop.s:5294   .debug_str:0000000000000710 .LASF83
     /tmp/cc6mZCop.s:5516   .debug_str:0000000000000e16 .LASF84
     /tmp/cc6mZCop.s:5442   .debug_str:0000000000000b65 .LASF85
     /tmp/cc6mZCop.s:5476   .debug_str:0000000000000d03 .LASF86
     /tmp/cc6mZCop.s:5320   .debug_str:00000000000007d2 .LASF87
     /tmp/cc6mZCop.s:5084   .debug_str:0000000000000063 .LASF88
     /tmp/cc6mZCop.s:5426   .debug_str:0000000000000aeb .LASF89
     /tmp/cc6mZCop.s:5520   .debug_str:0000000000000e28 .LASF239
     /tmp/cc6mZCop.s:5282   .debug_str:000000000000069c .LASF240
     /tmp/cc6mZCop.s:5408   .debug_str:0000000000000a51 .LASF90
     /tmp/cc6mZCop.s:5474   .debug_str:0000000000000cdb .LASF92
     /tmp/cc6mZCop.s:5196   .debug_str:000000000000038b .LASF93
     /tmp/cc6mZCop.s:5224   .debug_str:0000000000000479 .LASF94
     /tmp/cc6mZCop.s:5500   .debug_str:0000000000000d9a .LASF95
     /tmp/cc6mZCop.s:5194   .debug_str:000000000000036a .LASF97
     /tmp/cc6mZCop.s:5074   .debug_str:000000000000002b .LASF96
     /tmp/cc6mZCop.s:5242   .debug_str:000000000000053e .LASF98
GAS LISTING /tmp/cc6mZCop.s 			page 34


     /tmp/cc6mZCop.s:5092   .debug_str:000000000000009f .LASF100
     /tmp/cc6mZCop.s:5346   .debug_str:00000000000008a9 .LASF102
     /tmp/cc6mZCop.s:5284   .debug_str:00000000000006b9 .LASF103
     /tmp/cc6mZCop.s:5556   .debug_str:0000000000000f3a .LASF104
     /tmp/cc6mZCop.s:5436   .debug_str:0000000000000b27 .LASF105
     /tmp/cc6mZCop.s:5206   .debug_str:00000000000003e0 .LASF106
     /tmp/cc6mZCop.s:5478   .debug_str:0000000000000d0e .LASF107
     /tmp/cc6mZCop.s:5178   .debug_str:00000000000002e6 .LASF108
     /tmp/cc6mZCop.s:5546   .debug_str:0000000000000ef2 .LASF109
     /tmp/cc6mZCop.s:5244   .debug_str:0000000000000560 .LASF110
     /tmp/cc6mZCop.s:5386   .debug_str:00000000000009cf .LASF111
     /tmp/cc6mZCop.s:5388   .debug_str:00000000000009d7 .LASF112
     /tmp/cc6mZCop.s:5228   .debug_str:00000000000004c5 .LASF241
     /tmp/cc6mZCop.s:5378   .debug_str:000000000000099a .LASF113
     /tmp/cc6mZCop.s:5308   .debug_str:000000000000075f .LASF114
     /tmp/cc6mZCop.s:5204   .debug_str:00000000000003d6 .LASF115
     /tmp/cc6mZCop.s:5200   .debug_str:00000000000003a7 .LASF116
     /tmp/cc6mZCop.s:5272   .debug_str:0000000000000632 .LASF117
     /tmp/cc6mZCop.s:5414   .debug_str:0000000000000a80 .LASF118
     /tmp/cc6mZCop.s:5068   .debug_str:0000000000000006 .LASF119
     /tmp/cc6mZCop.s:5508   .debug_str:0000000000000ddd .LASF120
     /tmp/cc6mZCop.s:5214   .debug_str:000000000000043e .LASF121
     /tmp/cc6mZCop.s:5166   .debug_str:0000000000000287 .LASF122
     /tmp/cc6mZCop.s:5384   .debug_str:00000000000009c4 .LASF123
     /tmp/cc6mZCop.s:5236   .debug_str:0000000000000511 .LASF124
     /tmp/cc6mZCop.s:5494   .debug_str:0000000000000d77 .LASF125
     /tmp/cc6mZCop.s:5416   .debug_str:0000000000000a9f .LASF126
     /tmp/cc6mZCop.s:5162   .debug_str:0000000000000270 .LASF127
     /tmp/cc6mZCop.s:5114   .debug_str:000000000000011a .LASF128
     /tmp/cc6mZCop.s:5314   .debug_str:000000000000079f .LASF129
     /tmp/cc6mZCop.s:5364   .debug_str:0000000000000955 .LASF130
     /tmp/cc6mZCop.s:5152   .debug_str:0000000000000201 .LASF131
     /tmp/cc6mZCop.s:5530   .debug_str:0000000000000e87 .LASF132
     /tmp/cc6mZCop.s:5170   .debug_str:00000000000002b4 .LASF133
     /tmp/cc6mZCop.s:5548   .debug_str:0000000000000efd .LASF134
     /tmp/cc6mZCop.s:5446   .debug_str:0000000000000b80 .LASF135
     /tmp/cc6mZCop.s:5330   .debug_str:000000000000080c .LASF136
     /tmp/cc6mZCop.s:5104   .debug_str:00000000000000f1 .LASF137
     /tmp/cc6mZCop.s:5522   .debug_str:0000000000000e34 .LASF138
     /tmp/cc6mZCop.s:5264   .debug_str:000000000000060a .LASF139
     /tmp/cc6mZCop.s:5352   .debug_str:00000000000008f8 .LASF140
     /tmp/cc6mZCop.s:5090   .debug_str:0000000000000099 .LASF141
     /tmp/cc6mZCop.s:5484   .debug_str:0000000000000d38 .LASF142
     /tmp/cc6mZCop.s:5504   .debug_str:0000000000000db3 .LASF143
     /tmp/cc6mZCop.s:5076   .debug_str:000000000000003c .LASF242
     /tmp/cc6mZCop.s:5254   .debug_str:00000000000005cd .LASF144
     /tmp/cc6mZCop.s:5248   .debug_str:0000000000000591 .LASF145
     /tmp/cc6mZCop.s:5126   .debug_str:0000000000000159 .LASF146
     /tmp/cc6mZCop.s:5514   .debug_str:0000000000000e09 .LASF147
     /tmp/cc6mZCop.s:5450   .debug_str:0000000000000b8f .LASF148
     /tmp/cc6mZCop.s:5344   .debug_str:000000000000089e .LASF149
     /tmp/cc6mZCop.s:5158   .debug_str:000000000000025a .LASF150
     /tmp/cc6mZCop.s:5354   .debug_str:0000000000000912 .LASF151
     /tmp/cc6mZCop.s:5072   .debug_str:000000000000001c .LASF152
     /tmp/cc6mZCop.s:5220   .debug_str:0000000000000459 .LASF153
     /tmp/cc6mZCop.s:5290   .debug_str:00000000000006db .LASF154
     /tmp/cc6mZCop.s:5496   .debug_str:0000000000000d7e .LASF155
GAS LISTING /tmp/cc6mZCop.s 			page 35


     /tmp/cc6mZCop.s:5342   .debug_str:000000000000087d .LASF156
     /tmp/cc6mZCop.s:5540   .debug_str:0000000000000ecb .LASF157
     /tmp/cc6mZCop.s:5154   .debug_str:000000000000021b .LASF158
     /tmp/cc6mZCop.s:5410   .debug_str:0000000000000a60 .LASF159
     /tmp/cc6mZCop.s:5406   .debug_str:0000000000000a41 .LASF160
     /tmp/cc6mZCop.s:5336   .debug_str:0000000000000843 .LASF161
     /tmp/cc6mZCop.s:5184   .debug_str:000000000000031f .LASF162
     /tmp/cc6mZCop.s:5348   .debug_str:00000000000008c5 .LASF163
     /tmp/cc6mZCop.s:5118   .debug_str:0000000000000127 .LASF164
     /tmp/cc6mZCop.s:5506   .debug_str:0000000000000dbb .LASF165
     /tmp/cc6mZCop.s:5454   .debug_str:0000000000000ba8 .LASF166
     /tmp/cc6mZCop.s:5144   .debug_str:00000000000001c5 .LASF167
     /tmp/cc6mZCop.s:5558   .debug_str:0000000000000f5b .LASF199
     /tmp/cc6mZCop.s:5492   .debug_str:0000000000000d70 .LASF168
     /tmp/cc6mZCop.s:5146   .debug_str:00000000000001cd .LASF169
     /tmp/cc6mZCop.s:5142   .debug_str:00000000000001bd .LASF170
     /tmp/cc6mZCop.s:5404   .debug_str:0000000000000a37 .LASF171
     /tmp/cc6mZCop.s:5266   .debug_str:0000000000000612 .LASF172
     /tmp/cc6mZCop.s:5538   .debug_str:0000000000000ec3 .LASF173
     /tmp/cc6mZCop.s:5110   .debug_str:0000000000000109 .LASF174
     /tmp/cc6mZCop.s:5518   .debug_str:0000000000000e20 .LASF175
     /tmp/cc6mZCop.s:5250   .debug_str:000000000000059b .LASF176
     /tmp/cc6mZCop.s:5502   .debug_str:0000000000000daa .LASF177
     /tmp/cc6mZCop.s:5088   .debug_str:0000000000000090 .LASF178
     /tmp/cc6mZCop.s:5328   .debug_str:00000000000007ff .LASF179
     /tmp/cc6mZCop.s:5480   .debug_str:0000000000000d1b .LASF180
     /tmp/cc6mZCop.s:5182   .debug_str:0000000000000311 .LASF181
     /tmp/cc6mZCop.s:5340   .debug_str:000000000000086f .LASF182
     /tmp/cc6mZCop.s:5468   .debug_str:0000000000000cb9 .LASF183
     /tmp/cc6mZCop.s:5472   .debug_str:0000000000000ccc .LASF184
     /tmp/cc6mZCop.s:5460   .debug_str:0000000000000bd5 .LASF185
     /tmp/cc6mZCop.s:5380   .debug_str:00000000000009a7 .LASF186
     /tmp/cc6mZCop.s:5192   .debug_str:000000000000035e .LASF187
     /tmp/cc6mZCop.s:5070   .debug_str:000000000000000f .LASF188
     /tmp/cc6mZCop.s:5338   .debug_str:0000000000000862 .LASF189
     /tmp/cc6mZCop.s:5202   .debug_str:00000000000003c9 .LASF190
     /tmp/cc6mZCop.s:5412   .debug_str:0000000000000a73 .LASF191
     /tmp/cc6mZCop.s:5382   .debug_str:00000000000009b6 .LASF192
     /tmp/cc6mZCop.s:5128   .debug_str:0000000000000163 .LASF193
     /tmp/cc6mZCop.s:5296   .debug_str:000000000000071a .LASF194
     /tmp/cc6mZCop.s:5138   .debug_str:000000000000019e .LASF195
     /tmp/cc6mZCop.s:5082   .debug_str:0000000000000059 .LASF196
     /tmp/cc6mZCop.s:5464   .debug_str:0000000000000bec .LASF197
     /tmp/cc6mZCop.s:5190   .debug_str:0000000000000354 .LASF198
     /tmp/cc6mZCop.s:5218   .debug_str:0000000000000452 .LASF200
     /tmp/cc6mZCop.s:5256   .debug_str:00000000000005d9 .LASF201
     /tmp/cc6mZCop.s:5100   .debug_str:00000000000000d6 .LASF202
     /tmp/cc6mZCop.s:5286   .debug_str:00000000000006bf .LASF203
     /tmp/cc6mZCop.s:5532   .debug_str:0000000000000e9e .LASF204
     /tmp/cc6mZCop.s:5356   .debug_str:0000000000000921 .LASF205
     /tmp/cc6mZCop.s:5402   .debug_str:0000000000000a32 .LASF243
     /tmp/cc6mZCop.s:5302   .debug_str:000000000000073a .LASF206
     /tmp/cc6mZCop.s:5300   .debug_str:0000000000000731 .LASF207
     /tmp/cc6mZCop.s:5452   .debug_str:0000000000000b9a .LASF208
     /tmp/cc6mZCop.s:5376   .debug_str:000000000000098e .LASF209
     /tmp/cc6mZCop.s:5106   .debug_str:00000000000000f7 .LASF210
     /tmp/cc6mZCop.s:5396   .debug_str:0000000000000a14 .LASF211
GAS LISTING /tmp/cc6mZCop.s 			page 36


     /tmp/cc6mZCop.s:5136   .debug_str:0000000000000195 .LASF212
     /tmp/cc6mZCop.s:5078   .debug_str:0000000000000048 .LASF213
     /tmp/cc6mZCop.s:5490   .debug_str:0000000000000d67 .LASF214
     /tmp/cc6mZCop.s:5398   .debug_str:0000000000000a20 .LASF215
     /tmp/cc6mZCop.s:5164   .debug_str:000000000000027c .LASF216
     /tmp/cc6mZCop.s:5394   .debug_str:0000000000000a07 .LASF217
     /tmp/cc6mZCop.s:5066   .debug_str:0000000000000000 .LASF218
     /tmp/cc6mZCop.s:5268   .debug_str:000000000000061a .LASF219
     /tmp/cc6mZCop.s:5326   .debug_str:00000000000007fa .LASF220
     /tmp/cc6mZCop.s:5216   .debug_str:0000000000000449 .LASF221
     /tmp/cc6mZCop.s:5488   .debug_str:0000000000000d55 .LASF222
     /tmp/cc6mZCop.s:856    .text:000000000000041c .LFB4
     /tmp/cc6mZCop.s:887    .text:0000000000000450 .LFE4
     /tmp/cc6mZCop.s:870    .text:0000000000000434 .LVL93
     /tmp/cc6mZCop.s:874    .text:000000000000043c .LVL94
     /tmp/cc6mZCop.s:5332   .debug_str:0000000000000825 .LASF223
     /tmp/cc6mZCop.s:10     .text:0000000000000000 .LFB3
     /tmp/cc6mZCop.s:850    .text:000000000000041c .LFE3
     /tmp/cc6mZCop.s:5262   .debug_str:0000000000000600 .LASF244
     /tmp/cc6mZCop.s:4575   .debug_loc:0000000000000000 .LLST0
     /tmp/cc6mZCop.s:5428   .debug_str:0000000000000af6 .LASF224
     /tmp/cc6mZCop.s:4608   .debug_loc:0000000000000088 .LLST1
     /tmp/cc6mZCop.s:5368   .debug_str:0000000000000969 .LASF225
     /tmp/cc6mZCop.s:4627   .debug_loc:00000000000000e4 .LLST2
     /tmp/cc6mZCop.s:5180   .debug_str:000000000000030c .LASF226
     /tmp/cc6mZCop.s:4666   .debug_loc:000000000000019f .LLST3
     /tmp/cc6mZCop.s:5056   .debug_ranges:0000000000000000 .Ldebug_ranges0
     /tmp/cc6mZCop.s:4770   .debug_loc:0000000000000351 .LLST4
     /tmp/cc6mZCop.s:4781   .debug_loc:0000000000000387 .LLST5
     /tmp/cc6mZCop.s:61     .text:000000000000004c .LBB25
     /tmp/cc6mZCop.s:83     .text:0000000000000074 .LBE25
     /tmp/cc6mZCop.s:4792   .debug_loc:00000000000003bd .LLST6
     /tmp/cc6mZCop.s:138    .text:00000000000000c4 .LBB27
     /tmp/cc6mZCop.s:158    .text:00000000000000d0 .LBE27
     /tmp/cc6mZCop.s:4803   .debug_loc:00000000000003f3 .LLST7
     /tmp/cc6mZCop.s:358    .text:0000000000000198 .LBB30
     /tmp/cc6mZCop.s:382    .text:00000000000001b8 .LBE30
     /tmp/cc6mZCop.s:4816   .debug_loc:000000000000042b .LLST8
     /tmp/cc6mZCop.s:4823   .debug_loc:000000000000044e .LLST9
     /tmp/cc6mZCop.s:366    .text:00000000000001a4 .LVL26
     /tmp/cc6mZCop.s:370    .text:00000000000001b0 .LVL27
     /tmp/cc6mZCop.s:385    .text:00000000000001b8 .LBB31
     /tmp/cc6mZCop.s:402    .text:00000000000001d4 .LBE31
     /tmp/cc6mZCop.s:4830   .debug_loc:0000000000000471 .LLST10
     /tmp/cc6mZCop.s:393    .text:00000000000001c4 .LVL30
     /tmp/cc6mZCop.s:397    .text:00000000000001d0 .LVL31
     /tmp/cc6mZCop.s:405    .text:00000000000001d4 .LBB32
     /tmp/cc6mZCop.s:508    .text:0000000000000270 .LBE32
     /tmp/cc6mZCop.s:5318   .debug_str:00000000000007cb .LASF227
     /tmp/cc6mZCop.s:4837   .debug_loc:0000000000000494 .LLST11
     /tmp/cc6mZCop.s:5372   .debug_str:0000000000000978 .LASF228
     /tmp/cc6mZCop.s:4844   .debug_loc:00000000000004b7 .LLST12
     /tmp/cc6mZCop.s:5510   .debug_str:0000000000000df6 .LASF229
     /tmp/cc6mZCop.s:4851   .debug_loc:00000000000004da .LLST13
     /tmp/cc6mZCop.s:5310   .debug_str:0000000000000785 .LASF230
     /tmp/cc6mZCop.s:4858   .debug_loc:00000000000004fd .LLST14
     /tmp/cc6mZCop.s:4865   .debug_loc:0000000000000520 .LLST15
GAS LISTING /tmp/cc6mZCop.s 			page 37


     /tmp/cc6mZCop.s:4884   .debug_loc:000000000000057c .LLST16
     /tmp/cc6mZCop.s:441    .text:0000000000000208 .LBB33
     /tmp/cc6mZCop.s:452    .text:0000000000000210 .LBE33
     /tmp/cc6mZCop.s:4895   .debug_loc:00000000000005b2 .LLST17
     /tmp/cc6mZCop.s:4902   .debug_loc:00000000000005d5 .LLST18
     /tmp/cc6mZCop.s:4909   .debug_loc:00000000000005f8 .LLST19
     /tmp/cc6mZCop.s:425    .text:00000000000001ec .LVL37
     /tmp/cc6mZCop.s:429    .text:00000000000001f8 .LVL38
     /tmp/cc6mZCop.s:439    .text:0000000000000208 .LVL41
     /tmp/cc6mZCop.s:459    .text:0000000000000224 .LVL43
     /tmp/cc6mZCop.s:472    .text:000000000000023c .LVL44
     /tmp/cc6mZCop.s:501    .text:0000000000000264 .LVL47
     /tmp/cc6mZCop.s:503    .text:000000000000026c .LVL48
     /tmp/cc6mZCop.s:541    .text:0000000000000298 .LBB35
     /tmp/cc6mZCop.s:552    .text:00000000000002a8 .LBE35
     /tmp/cc6mZCop.s:4916   .debug_loc:000000000000061b .LLST20
     /tmp/cc6mZCop.s:547    .text:00000000000002a4 .LVL54
     /tmp/cc6mZCop.s:555    .text:00000000000002a8 .LBB36
     /tmp/cc6mZCop.s:608    .text:00000000000002ec .LBE36
     /tmp/cc6mZCop.s:4924   .debug_loc:0000000000000640 .LLST21
     /tmp/cc6mZCop.s:5322   .debug_str:00000000000007de .LASF231
     /tmp/cc6mZCop.s:4931   .debug_loc:0000000000000663 .LLST22
     /tmp/cc6mZCop.s:4938   .debug_loc:0000000000000686 .LLST23
     /tmp/cc6mZCop.s:5316   .debug_str:00000000000007c1 .LASF232
     /tmp/cc6mZCop.s:4945   .debug_loc:00000000000006a9 .LLST24
     /tmp/cc6mZCop.s:567    .text:00000000000002b8 .LVL58
     /tmp/cc6mZCop.s:571    .text:00000000000002c4 .LVL59
     /tmp/cc6mZCop.s:582    .text:00000000000002d8 .LVL62
     /tmp/cc6mZCop.s:611    .text:00000000000002ec .LBB37
     /tmp/cc6mZCop.s:641    .text:0000000000000318 .LBE37
     /tmp/cc6mZCop.s:4952   .debug_loc:00000000000006cc .LLST25
     /tmp/cc6mZCop.s:621    .text:00000000000002fc .LVL67
     /tmp/cc6mZCop.s:625    .text:0000000000000304 .LVL68
     /tmp/cc6mZCop.s:629    .text:0000000000000310 .LVL69
     /tmp/cc6mZCop.s:644    .text:0000000000000318 .LBB38
     /tmp/cc6mZCop.s:674    .text:0000000000000344 .LBE38
     /tmp/cc6mZCop.s:4959   .debug_loc:00000000000006ef .LLST26
     /tmp/cc6mZCop.s:5544   .debug_str:0000000000000eeb .LASF233
     /tmp/cc6mZCop.s:4967   .debug_loc:0000000000000714 .LLST27
     /tmp/cc6mZCop.s:651    .text:0000000000000328 .LVL71
     /tmp/cc6mZCop.s:669    .text:0000000000000340 .LVL73
     /tmp/cc6mZCop.s:677    .text:0000000000000344 .LBB39
     /tmp/cc6mZCop.s:695    .text:0000000000000358 .LBE39
     /tmp/cc6mZCop.s:4974   .debug_loc:0000000000000737 .LLST28
     /tmp/cc6mZCop.s:683    .text:0000000000000350 .LVL75
     /tmp/cc6mZCop.s:698    .text:0000000000000358 .LBB40
     /tmp/cc6mZCop.s:730    .text:0000000000000388 .LBE40
     /tmp/cc6mZCop.s:4982   .debug_loc:000000000000075c .LLST29
     /tmp/cc6mZCop.s:4990   .debug_loc:0000000000000781 .LLST30
     /tmp/cc6mZCop.s:4998   .debug_loc:00000000000007a6 .LLST31
     /tmp/cc6mZCop.s:707    .text:000000000000036c .LVL77
     /tmp/cc6mZCop.s:725    .text:0000000000000384 .LVL79
     /tmp/cc6mZCop.s:733    .text:0000000000000388 .LBB41
     /tmp/cc6mZCop.s:753    .text:00000000000003a0 .LBE41
     /tmp/cc6mZCop.s:5005   .debug_loc:00000000000007c9 .LLST32
     /tmp/cc6mZCop.s:5013   .debug_loc:00000000000007ee .LLST33
     /tmp/cc6mZCop.s:741    .text:0000000000000398 .LVL81
GAS LISTING /tmp/cc6mZCop.s 			page 38


     /tmp/cc6mZCop.s:756    .text:00000000000003a0 .LBB42
     /tmp/cc6mZCop.s:794    .text:00000000000003d4 .LBE42
     /tmp/cc6mZCop.s:5021   .debug_loc:0000000000000813 .LLST34
     /tmp/cc6mZCop.s:784    .text:00000000000003c4 .LVL85
     /tmp/cc6mZCop.s:789    .text:00000000000003d0 .LVL86
     /tmp/cc6mZCop.s:797    .text:00000000000003d4 .LBB43
     /tmp/cc6mZCop.s:826    .text:0000000000000404 .LBE43
     /tmp/cc6mZCop.s:5028   .debug_loc:0000000000000836 .LLST35
     /tmp/cc6mZCop.s:802    .text:00000000000003e0 .LVL88
     /tmp/cc6mZCop.s:822    .text:0000000000000400 .LVL90
     /tmp/cc6mZCop.s:829    .text:0000000000000404 .LBB44
     /tmp/cc6mZCop.s:846    .text:000000000000041c .LBE44
     /tmp/cc6mZCop.s:5035   .debug_loc:0000000000000859 .LLST36
     /tmp/cc6mZCop.s:836    .text:0000000000000414 .LVL92
     /tmp/cc6mZCop.s:50     .text:000000000000003c .LVL2
     /tmp/cc6mZCop.s:54     .text:0000000000000044 .LVL3
     /tmp/cc6mZCop.s:266    .text:0000000000000114 .LVL18
     /tmp/cc6mZCop.s:283    .text:000000000000012c .LVL19
     /tmp/cc6mZCop.s:305    .text:0000000000000150 .LVL20
     /tmp/cc6mZCop.s:515    .text:000000000000027c .LVL50
     /tmp/cc6mZCop.s:526    .text:000000000000028c .LVL52
     /tmp/cc6mZCop.s:5116   .debug_str:0000000000000122 .LASF245
     /tmp/cc6mZCop.s:5542   .debug_str:0000000000000edc .LASF246
     /tmp/cc6mZCop.s:14     .text:0000000000000000 .LVL0
     /tmp/cc6mZCop.s:332    .text:000000000000017c .LVL21
     /tmp/cc6mZCop.s:563    .text:00000000000002b0 .LVL57
     /tmp/cc6mZCop.s:606    .text:00000000000002ec .LVL64
     /tmp/cc6mZCop.s:45     .text:0000000000000034 .LVL1
     /tmp/cc6mZCop.s:431    .text:00000000000001fc .LVL39
     /tmp/cc6mZCop.s:506    .text:0000000000000270 .LVL49
     /tmp/cc6mZCop.s:559    .text:00000000000002ac .LVL56
     /tmp/cc6mZCop.s:56     .text:0000000000000048 .LVL4
     /tmp/cc6mZCop.s:362    .text:000000000000019c .LVL25
     /tmp/cc6mZCop.s:380    .text:00000000000001b8 .LVL28
     /tmp/cc6mZCop.s:389    .text:00000000000001bc .LVL29
     /tmp/cc6mZCop.s:400    .text:00000000000001d4 .LVL32
     /tmp/cc6mZCop.s:573    .text:00000000000002c8 .LVL60
     /tmp/cc6mZCop.s:615    .text:00000000000002f0 .LVL65
     /tmp/cc6mZCop.s:619    .text:00000000000002f4 .LVL66
     /tmp/cc6mZCop.s:639    .text:0000000000000318 .LVL70
     /tmp/cc6mZCop.s:162    .text:00000000000000d4 .LVL13
     /tmp/cc6mZCop.s:170    .text:00000000000000e8 .LVL14
     /tmp/cc6mZCop.s:248    .text:0000000000000100 .LVL15
     /tmp/cc6mZCop.s:346    .text:000000000000018c .LVL22
     /tmp/cc6mZCop.s:349    .text:0000000000000194 .LVL23
     /tmp/cc6mZCop.s:354    .text:0000000000000198 .LVL24
     /tmp/cc6mZCop.s:518    .text:0000000000000280 .LVL51
     /tmp/cc6mZCop.s:537    .text:0000000000000298 .LVL53
     /tmp/cc6mZCop.s:550    .text:00000000000002a8 .LVL55
     /tmp/cc6mZCop.s:672    .text:0000000000000344 .LVL74
     /tmp/cc6mZCop.s:693    .text:0000000000000358 .LVL76
     /tmp/cc6mZCop.s:728    .text:0000000000000388 .LVL80
     /tmp/cc6mZCop.s:751    .text:00000000000003a0 .LVL82
     /tmp/cc6mZCop.s:766    .text:00000000000003ac .LVL84
     /tmp/cc6mZCop.s:792    .text:00000000000003d4 .LVL87
     /tmp/cc6mZCop.s:824    .text:0000000000000404 .LVL91
     /tmp/cc6mZCop.s:96     .text:0000000000000080 .LVL8
GAS LISTING /tmp/cc6mZCop.s 			page 39


     /tmp/cc6mZCop.s:117    .text:0000000000000098 .LVL10
     /tmp/cc6mZCop.s:258    .text:0000000000000108 .LVL17
     /tmp/cc6mZCop.s:102    .text:0000000000000084 .LVL9
     /tmp/cc6mZCop.s:65     .text:0000000000000050 .LVL5
     /tmp/cc6mZCop.s:79     .text:0000000000000070 .LVL6
     /tmp/cc6mZCop.s:81     .text:0000000000000074 .LVL7
     /tmp/cc6mZCop.s:146    .text:00000000000000c8 .LVL11
     /tmp/cc6mZCop.s:151    .text:00000000000000cc .LVL12
     /tmp/cc6mZCop.s:409    .text:00000000000001d8 .LVL33
     /tmp/cc6mZCop.s:413    .text:00000000000001dc .LVL34
     /tmp/cc6mZCop.s:417    .text:00000000000001e0 .LVL35
     /tmp/cc6mZCop.s:421    .text:00000000000001e4 .LVL36
     /tmp/cc6mZCop.s:488    .text:000000000000024c .LVL45
     /tmp/cc6mZCop.s:499    .text:000000000000025c .LVL46
     /tmp/cc6mZCop.s:435    .text:0000000000000200 .LVL40
     /tmp/cc6mZCop.s:450    .text:0000000000000210 .LVL42
     /tmp/cc6mZCop.s:577    .text:00000000000002cc .LVL61
     /tmp/cc6mZCop.s:595    .text:00000000000002e4 .LVL63
     /tmp/cc6mZCop.s:667    .text:0000000000000338 .LVL72
     /tmp/cc6mZCop.s:723    .text:000000000000037c .LVL78
     /tmp/cc6mZCop.s:760    .text:00000000000003a4 .LVL83
     /tmp/cc6mZCop.s:820    .text:00000000000003f8 .LVL89
     /tmp/cc6mZCop.s:902    .debug_info:0000000000000000 .Ldebug_info0
     /tmp/cc6mZCop.s:60     .text:000000000000004c .LBB24
     /tmp/cc6mZCop.s:119    .text:0000000000000098 .LBE24
     /tmp/cc6mZCop.s:252    .text:0000000000000100 .LBB26
     /tmp/cc6mZCop.s:260    .text:0000000000000108 .LBE26

UNDEFINED SYMBOLS
_ZN9Scheduler8freeDeadEv
_ZN9Scheduler10GetRunningEv
_ZN9Scheduler9timerTickEP7KThread
_ZN7Konsole15handleInterruptEv
_ZN9Scheduler10ThreadExitEP7KThread
_ZN15MemoryAllocator11GetInstanceEv
_ZN15MemoryAllocator16AllocateFragmentEm
_ZN15MemoryAllocator12FreeFragmentEPv
_ZN7KThread4initEv
_ZN7KThread5setupEPS_Pm
_ZN9Scheduler3PutEP7KThread
_ZN7KThread10getContextEv
restoreContext
_ZN9Scheduler12yieldCurrentEP7KThread
_ZN9Scheduler10joinThreadEP7KThread
_ZN10KSemaphore4initEj
_ZN10KSemaphore5closeEv
_ZN10KSemaphore4waitEP7KThread
_ZN9Scheduler12blockCurrentEP7KThread
_ZN10KSemaphore6signalEv
_ZN10KSemaphore5waitNEP7KThreadj
_ZN10KSemaphore7signalNEj
_ZN9Scheduler5sleepEP7KThreadm
_ZN7Konsole10getcKernelEP7KThread
_ZN7Konsole10putcKernelEP7KThreadc
_ZN9Scheduler16SetupStartThreadEv
_ZN7Konsole4initEv
