GAS LISTING /tmp/ccj96rbJ.s 			page 1


   1              		.file	"API.c"
   2              		.option nopic
   3              		.option norelax
   4              		.text
   5              	.Ltext0:
   6              		.cfi_sections	.debug_frame
   7              		.align	2
   8              		.globl	mem_alloc
  10              	mem_alloc:
  11              	.LFB0:
  12              		.file 1 "src/API.c"
   1:src/API.c     **** //
   2:src/API.c     **** // Created by os on 5/6/26.
   3:src/API.c     **** //
   4:src/API.c     **** 
   5:src/API.c     **** #include "./syscall_c.h"
   6:src/API.c     **** #include "../lib/hw.h"
   7:src/API.c     **** 
   8:src/API.c     **** void* mem_alloc(size_t size){
  13              		.loc 1 8 29
  14              		.cfi_startproc
  15              	.LVL0:
  16 0000 130101FF 		addi	sp,sp,-16
  17              		.cfi_def_cfa_offset 16
  18 0004 23348100 		sd	s0,8(sp)
  19              		.cfi_offset 8, -8
  20 0008 13040101 		addi	s0,sp,16
  21              		.cfi_def_cfa 8, 0
   9:src/API.c     ****     uint64 code=0x01;
  22              		.loc 1 9 5
  23              	.LVL1:
  10:src/API.c     ****     __asm__ volatile("mv a1,%[size]"::[size]"r"(size));
  24              		.loc 1 10 5
  25              	#APP
  26              	# 10 "src/API.c" 1
  11              	    __asm__ volatile("mv a0,%[code]"::[code]"r"(code));
  27              		mv a1,a0
  28              	# 0 "" 2
  29              		.loc 1 11 5
  30              	#NO_APP
  31 0010 93071000 		li	a5,1
  32              	#APP
  33              	# 11 "src/API.c" 1
  12              	    __asm__ volatile("ecall");
  34              		mv a0,a5
  35              	# 0 "" 2
  36              		.loc 1 12 5
  37              	# 12 "src/API.c" 1
  13              	    void* value;
  38              		ecall
  39              	# 0 "" 2
  40              		.loc 1 13 5
  14:src/API.c     ****     __asm__ volatile ("mv %0, a0" : "=r"(value));
  41              		.loc 1 14 5
  42              	# 14 "src/API.c" 1
  15              	    return (void*)value;
  43              		mv a0, a0
GAS LISTING /tmp/ccj96rbJ.s 			page 2


  44              	# 0 "" 2
  45              	.LVL2:
  46              		.loc 1 15 5
  16:src/API.c     **** }
  47              		.loc 1 16 1 is_stmt 0
  48              	#NO_APP
  49 0020 03348100 		ld	s0,8(sp)
  50              		.cfi_restore 8
  51              		.cfi_def_cfa 2, 16
  52 0024 13010101 		addi	sp,sp,16
  53              		.cfi_def_cfa_offset 0
  54 0028 67800000 		jr	ra
  55              		.cfi_endproc
  56              	.LFE0:
  58              		.align	2
  59              		.globl	mem_free
  61              	mem_free:
  62              	.LFB1:
  17:src/API.c     **** 
  18:src/API.c     **** int mem_free(void* ptr){
  63              		.loc 1 18 24 is_stmt 1
  64              		.cfi_startproc
  65              	.LVL3:
  66 002c 130101FF 		addi	sp,sp,-16
  67              		.cfi_def_cfa_offset 16
  68 0030 23348100 		sd	s0,8(sp)
  69              		.cfi_offset 8, -8
  70 0034 13040101 		addi	s0,sp,16
  71              		.cfi_def_cfa 8, 0
  19:src/API.c     ****     uint64 code=0x02;
  72              		.loc 1 19 5
  73              	.LVL4:
  20:src/API.c     ****     __asm__ volatile("mv a1,a0");
  74              		.loc 1 20 5
  75              	#APP
  76              	# 20 "src/API.c" 1
  21              	    __asm__ volatile("mv a0,%[code]"::[code]"r"(code));
  77              		mv a1,a0
  78              	# 0 "" 2
  79              		.loc 1 21 5
  80              	#NO_APP
  81 003c 93072000 		li	a5,2
  82              	#APP
  83              	# 21 "src/API.c" 1
  22              	    __asm__ volatile("ecall");
  84              		mv a0,a5
  85              	# 0 "" 2
  86              		.loc 1 22 5
  87              	# 22 "src/API.c" 1
  23              	    return 0;
  88              		ecall
  89              	# 0 "" 2
  90              		.loc 1 23 5
  24:src/API.c     **** }
  91              		.loc 1 24 1 is_stmt 0
  92              	#NO_APP
  93 0048 13050000 		li	a0,0
GAS LISTING /tmp/ccj96rbJ.s 			page 3


  94              	.LVL5:
  95 004c 03348100 		ld	s0,8(sp)
  96              		.cfi_restore 8
  97              		.cfi_def_cfa 2, 16
  98 0050 13010101 		addi	sp,sp,16
  99              		.cfi_def_cfa_offset 0
 100 0054 67800000 		jr	ra
 101              		.cfi_endproc
 102              	.LFE1:
 104              		.align	2
 105              		.globl	thread_create
 107              	thread_create:
 108              	.LFB2:
  25:src/API.c     **** 
  26:src/API.c     **** int thread_create(thread_t* handle, void (*start_routine)(void*), void* arg) {
 109              		.loc 1 26 78 is_stmt 1
 110              		.cfi_startproc
 111              	.LVL6:
 112 0058 130101FD 		addi	sp,sp,-48
 113              		.cfi_def_cfa_offset 48
 114 005c 23341102 		sd	ra,40(sp)
 115 0060 23308102 		sd	s0,32(sp)
 116 0064 233C9100 		sd	s1,24(sp)
 117 0068 23382101 		sd	s2,16(sp)
 118 006c 23343101 		sd	s3,8(sp)
 119              		.cfi_offset 1, -8
 120              		.cfi_offset 8, -16
 121              		.cfi_offset 9, -24
 122              		.cfi_offset 18, -32
 123              		.cfi_offset 19, -40
 124 0070 13040103 		addi	s0,sp,48
 125              		.cfi_def_cfa 8, 0
 126 0074 93090500 		mv	s3,a0
 127 0078 13890500 		mv	s2,a1
 128 007c 93040600 		mv	s1,a2
  27:src/API.c     ****     // allocate stack separately; pass top pointer as a4 (stack_space)
  28:src/API.c     ****     void* stack = mem_alloc(DEFAULT_STACK_SIZE * sizeof(size_t));
 129              		.loc 1 28 5
 130              		.loc 1 28 19 is_stmt 0
 131 0080 37850000 		li	a0,32768
 132              	.LVL7:
 133 0084 97000000 		call	mem_alloc
 133      E7800000 
 134              	.LVL8:
  29:src/API.c     ****     if (!stack) return -1;
 135              		.loc 1 29 5 is_stmt 1
 136              		.loc 1 29 8 is_stmt 0
 137 008c 63020504 		beqz	a0,.L7
 138 0090 93070500 		mv	a5,a0
  30:src/API.c     ****     register size_t a0 asm("a0") = 0x11;
 139              		.loc 1 30 5 is_stmt 1
 140              		.loc 1 30 21 is_stmt 0
 141 0094 13051001 		li	a0,17
 142              	.LVL9:
  31:src/API.c     ****     register size_t a1 asm("a1") = (size_t)handle;
 143              		.loc 1 31 5 is_stmt 1
 144              		.loc 1 31 21 is_stmt 0
GAS LISTING /tmp/ccj96rbJ.s 			page 4


 145 0098 93850900 		mv	a1,s3
  32:src/API.c     ****     register size_t a2 asm("a2") = (size_t)start_routine;
 146              		.loc 1 32 5 is_stmt 1
 147              		.loc 1 32 21 is_stmt 0
 148 009c 13060900 		mv	a2,s2
  33:src/API.c     ****     register size_t a3 asm("a3") = (size_t)arg;
 149              		.loc 1 33 5 is_stmt 1
 150              		.loc 1 33 21 is_stmt 0
 151 00a0 93860400 		mv	a3,s1
  34:src/API.c     ****     register size_t a4 asm("a4") = (size_t)stack + DEFAULT_STACK_SIZE * sizeof(size_t);
 152              		.loc 1 34 5 is_stmt 1
 153              		.loc 1 34 21 is_stmt 0
 154 00a4 37870000 		li	a4,32768
 155 00a8 3387E700 		add	a4,a5,a4
  35:src/API.c     ****     register size_t a5 asm("a5") = (size_t)stack;
 156              		.loc 1 35 5 is_stmt 1
  36:src/API.c     ****     __asm__ volatile("ecall"
 157              		.loc 1 36 5
 158              	#APP
 159              	# 36 "src/API.c" 1
  37              	        : "+r"(a0)
  38:src/API.c     ****         : "r"(a1), "r"(a2), "r"(a3), "r"(a4), "r"(a5)
  39:src/API.c     ****     );
  40:src/API.c     ****     return (int)a0;
 160              		ecall
 161              	# 0 "" 2
 162              		.loc 1 40 5
 163              		.loc 1 40 12 is_stmt 0
 164              	#NO_APP
 165 00b0 1B050500 		sext.w	a0,a0
 166              	.LVL10:
 167              	.L6:
  41:src/API.c     **** }
 168              		.loc 1 41 1
 169 00b4 83308102 		ld	ra,40(sp)
 170              		.cfi_remember_state
 171              		.cfi_restore 1
 172 00b8 03340102 		ld	s0,32(sp)
 173              		.cfi_restore 8
 174              		.cfi_def_cfa 2, 48
 175 00bc 83348101 		ld	s1,24(sp)
 176              		.cfi_restore 9
 177              	.LVL11:
 178 00c0 03390101 		ld	s2,16(sp)
 179              		.cfi_restore 18
 180              	.LVL12:
 181 00c4 83398100 		ld	s3,8(sp)
 182              		.cfi_restore 19
 183              	.LVL13:
 184 00c8 13010103 		addi	sp,sp,48
 185              		.cfi_def_cfa_offset 0
 186 00cc 67800000 		jr	ra
 187              	.LVL14:
 188              	.L7:
 189              		.cfi_restore_state
  29:src/API.c     ****     register size_t a0 asm("a0") = 0x11;
 190              		.loc 1 29 24
GAS LISTING /tmp/ccj96rbJ.s 			page 5


 191 00d0 1305F0FF 		li	a0,-1
 192              	.LVL15:
 193 00d4 6FF01FFE 		j	.L6
 194              		.cfi_endproc
 195              	.LFE2:
 197              		.align	2
 198              		.globl	thread_exit
 200              	thread_exit:
 201              	.LFB3:
  42:src/API.c     **** 
  43:src/API.c     **** int thread_exit(void) {
 202              		.loc 1 43 23 is_stmt 1
 203              		.cfi_startproc
 204 00d8 130101FF 		addi	sp,sp,-16
 205              		.cfi_def_cfa_offset 16
 206 00dc 23348100 		sd	s0,8(sp)
 207              		.cfi_offset 8, -8
 208 00e0 13040101 		addi	s0,sp,16
 209              		.cfi_def_cfa 8, 0
  44:src/API.c     ****     register size_t a0 asm("a0") = 0x12;
 210              		.loc 1 44 5
 211              		.loc 1 44 21 is_stmt 0
 212 00e4 13052001 		li	a0,18
  45:src/API.c     ****     __asm__ volatile("ecall" : "+r"(a0));
 213              		.loc 1 45 5 is_stmt 1
 214              	#APP
 215              	# 45 "src/API.c" 1
  46              	    return (int)a0;
 216              		ecall
 217              	# 0 "" 2
 218              		.loc 1 46 5
  47:src/API.c     **** }
 219              		.loc 1 47 1 is_stmt 0
 220              	#NO_APP
 221 00ec 1B050500 		sext.w	a0,a0
 222 00f0 03348100 		ld	s0,8(sp)
 223              		.cfi_restore 8
 224              		.cfi_def_cfa 2, 16
 225 00f4 13010101 		addi	sp,sp,16
 226              		.cfi_def_cfa_offset 0
 227 00f8 67800000 		jr	ra
 228              		.cfi_endproc
 229              	.LFE3:
 231              		.align	2
 232              		.globl	thread_dispatch
 234              	thread_dispatch:
 235              	.LFB4:
  48:src/API.c     **** 
  49:src/API.c     **** void thread_dispatch(void) {
 236              		.loc 1 49 28 is_stmt 1
 237              		.cfi_startproc
 238 00fc 130101FF 		addi	sp,sp,-16
 239              		.cfi_def_cfa_offset 16
 240 0100 23348100 		sd	s0,8(sp)
 241              		.cfi_offset 8, -8
 242 0104 13040101 		addi	s0,sp,16
 243              		.cfi_def_cfa 8, 0
GAS LISTING /tmp/ccj96rbJ.s 			page 6


  50:src/API.c     ****     register size_t a0 asm("a0") = 0x13;
 244              		.loc 1 50 5
 245              		.loc 1 50 21 is_stmt 0
 246 0108 13053001 		li	a0,19
  51:src/API.c     ****     __asm__ volatile("ecall" : "+r"(a0));
 247              		.loc 1 51 5 is_stmt 1
 248              	#APP
 249              	# 51 "src/API.c" 1
  52              	}
 250              		ecall
 251              	# 0 "" 2
 252              		.loc 1 52 1 is_stmt 0
 253              	#NO_APP
 254 0110 03348100 		ld	s0,8(sp)
 255              		.cfi_restore 8
 256              		.cfi_def_cfa 2, 16
 257 0114 13010101 		addi	sp,sp,16
 258              		.cfi_def_cfa_offset 0
 259 0118 67800000 		jr	ra
 260              		.cfi_endproc
 261              	.LFE4:
 263              		.align	2
 264              		.globl	time_sleep
 266              	time_sleep:
 267              	.LFB5:
  53:src/API.c     **** 
  54:src/API.c     **** int time_sleep(time_t dur) {
 268              		.loc 1 54 28 is_stmt 1
 269              		.cfi_startproc
 270              	.LVL16:
 271 011c 130101FF 		addi	sp,sp,-16
 272              		.cfi_def_cfa_offset 16
 273 0120 23348100 		sd	s0,8(sp)
 274              		.cfi_offset 8, -8
 275 0124 13040101 		addi	s0,sp,16
 276              		.cfi_def_cfa 8, 0
 277 0128 93050500 		mv	a1,a0
  55:src/API.c     ****     register size_t a0 asm("a0") = 0x31;
 278              		.loc 1 55 5
 279              		.loc 1 55 21 is_stmt 0
 280 012c 13051003 		li	a0,49
 281              	.LVL17:
  56:src/API.c     ****     register size_t a1 asm("a1") = (size_t)dur;
 282              		.loc 1 56 5 is_stmt 1
  57:src/API.c     ****     __asm__ volatile("ecall" : "+r"(a0) : "r"(a1));
 283              		.loc 1 57 5
 284              	#APP
 285              	# 57 "src/API.c" 1
  58              	    return (int)a0;
 286              		ecall
 287              	# 0 "" 2
 288              		.loc 1 58 5
  59:src/API.c     **** }
 289              		.loc 1 59 1 is_stmt 0
 290              	#NO_APP
 291 0134 1B050500 		sext.w	a0,a0
 292 0138 03348100 		ld	s0,8(sp)
GAS LISTING /tmp/ccj96rbJ.s 			page 7


 293              		.cfi_restore 8
 294              		.cfi_def_cfa 2, 16
 295 013c 13010101 		addi	sp,sp,16
 296              		.cfi_def_cfa_offset 0
 297 0140 67800000 		jr	ra
 298              		.cfi_endproc
 299              	.LFE5:
 301              		.align	2
 302              		.globl	sem_open
 304              	sem_open:
 305              	.LFB6:
  60:src/API.c     **** 
  61:src/API.c     **** int sem_open(sem_t* handle, unsigned init) {
 306              		.loc 1 61 44 is_stmt 1
 307              		.cfi_startproc
 308              	.LVL18:
 309 0144 130101FF 		addi	sp,sp,-16
 310              		.cfi_def_cfa_offset 16
 311 0148 23348100 		sd	s0,8(sp)
 312              		.cfi_offset 8, -8
 313 014c 13040101 		addi	s0,sp,16
 314              		.cfi_def_cfa 8, 0
 315 0150 93070500 		mv	a5,a0
 316 0154 13860500 		mv	a2,a1
  62:src/API.c     ****     register size_t a0 asm("a0") = 0x21;
 317              		.loc 1 62 5
 318              		.loc 1 62 21 is_stmt 0
 319 0158 13051002 		li	a0,33
 320              	.LVL19:
  63:src/API.c     ****     register size_t a1 asm("a1") = (size_t)handle;
 321              		.loc 1 63 5 is_stmt 1
 322              		.loc 1 63 21 is_stmt 0
 323 015c 93850700 		mv	a1,a5
 324              	.LVL20:
  64:src/API.c     ****     register size_t a2 asm("a2") = (size_t)init;
 325              		.loc 1 64 5 is_stmt 1
 326              		.loc 1 64 21 is_stmt 0
 327 0160 13160602 		slli	a2,a2,32
 328 0164 13560602 		srli	a2,a2,32
  65:src/API.c     ****     __asm__ volatile("ecall" : "+r"(a0) : "r"(a1), "r"(a2));
 329              		.loc 1 65 5 is_stmt 1
 330              	#APP
 331              	# 65 "src/API.c" 1
  66              	    return (int)a0;
 332              		ecall
 333              	# 0 "" 2
 334              		.loc 1 66 5
  67:src/API.c     **** }
 335              		.loc 1 67 1 is_stmt 0
 336              	#NO_APP
 337 016c 1B050500 		sext.w	a0,a0
 338 0170 03348100 		ld	s0,8(sp)
 339              		.cfi_restore 8
 340              		.cfi_def_cfa 2, 16
 341 0174 13010101 		addi	sp,sp,16
 342              		.cfi_def_cfa_offset 0
 343 0178 67800000 		jr	ra
GAS LISTING /tmp/ccj96rbJ.s 			page 8


 344              		.cfi_endproc
 345              	.LFE6:
 347              		.align	2
 348              		.globl	sem_close
 350              	sem_close:
 351              	.LFB7:
  68:src/API.c     **** 
  69:src/API.c     **** int sem_close(sem_t handle) {
 352              		.loc 1 69 29 is_stmt 1
 353              		.cfi_startproc
 354              	.LVL21:
 355 017c 130101FF 		addi	sp,sp,-16
 356              		.cfi_def_cfa_offset 16
 357 0180 23348100 		sd	s0,8(sp)
 358              		.cfi_offset 8, -8
 359 0184 13040101 		addi	s0,sp,16
 360              		.cfi_def_cfa 8, 0
 361 0188 93050500 		mv	a1,a0
  70:src/API.c     ****     register size_t a0 asm("a0") = 0x22;
 362              		.loc 1 70 5
 363              		.loc 1 70 21 is_stmt 0
 364 018c 13052002 		li	a0,34
 365              	.LVL22:
  71:src/API.c     ****     register size_t a1 asm("a1") = (size_t)handle;
 366              		.loc 1 71 5 is_stmt 1
  72:src/API.c     ****     __asm__ volatile("ecall" : "+r"(a0) : "r"(a1));
 367              		.loc 1 72 5
 368              	#APP
 369              	# 72 "src/API.c" 1
  73              	    return (int)a0;
 370              		ecall
 371              	# 0 "" 2
 372              		.loc 1 73 5
  74:src/API.c     **** }
 373              		.loc 1 74 1 is_stmt 0
 374              	#NO_APP
 375 0194 1B050500 		sext.w	a0,a0
 376 0198 03348100 		ld	s0,8(sp)
 377              		.cfi_restore 8
 378              		.cfi_def_cfa 2, 16
 379 019c 13010101 		addi	sp,sp,16
 380              		.cfi_def_cfa_offset 0
 381 01a0 67800000 		jr	ra
 382              		.cfi_endproc
 383              	.LFE7:
 385              		.align	2
 386              		.globl	sem_wait
 388              	sem_wait:
 389              	.LFB8:
  75:src/API.c     **** 
  76:src/API.c     **** int sem_wait(sem_t id) {
 390              		.loc 1 76 24 is_stmt 1
 391              		.cfi_startproc
 392              	.LVL23:
 393 01a4 130101FF 		addi	sp,sp,-16
 394              		.cfi_def_cfa_offset 16
 395 01a8 23348100 		sd	s0,8(sp)
GAS LISTING /tmp/ccj96rbJ.s 			page 9


 396              		.cfi_offset 8, -8
 397 01ac 13040101 		addi	s0,sp,16
 398              		.cfi_def_cfa 8, 0
 399 01b0 93050500 		mv	a1,a0
  77:src/API.c     ****     register size_t a0 asm("a0") = 0x23;
 400              		.loc 1 77 5
 401              		.loc 1 77 21 is_stmt 0
 402 01b4 13053002 		li	a0,35
 403              	.LVL24:
  78:src/API.c     ****     register size_t a1 asm("a1") = (size_t)id;
 404              		.loc 1 78 5 is_stmt 1
  79:src/API.c     ****     __asm__ volatile("ecall" : "+r"(a0) : "r"(a1));
 405              		.loc 1 79 5
 406              	#APP
 407              	# 79 "src/API.c" 1
  80              	    return (int)a0;
 408              		ecall
 409              	# 0 "" 2
 410              		.loc 1 80 5
  81:src/API.c     **** }
 411              		.loc 1 81 1 is_stmt 0
 412              	#NO_APP
 413 01bc 1B050500 		sext.w	a0,a0
 414 01c0 03348100 		ld	s0,8(sp)
 415              		.cfi_restore 8
 416              		.cfi_def_cfa 2, 16
 417 01c4 13010101 		addi	sp,sp,16
 418              		.cfi_def_cfa_offset 0
 419 01c8 67800000 		jr	ra
 420              		.cfi_endproc
 421              	.LFE8:
 423              		.align	2
 424              		.globl	sem_signal
 426              	sem_signal:
 427              	.LFB9:
  82:src/API.c     **** 
  83:src/API.c     **** int sem_signal(sem_t id) {
 428              		.loc 1 83 26 is_stmt 1
 429              		.cfi_startproc
 430              	.LVL25:
 431 01cc 130101FF 		addi	sp,sp,-16
 432              		.cfi_def_cfa_offset 16
 433 01d0 23348100 		sd	s0,8(sp)
 434              		.cfi_offset 8, -8
 435 01d4 13040101 		addi	s0,sp,16
 436              		.cfi_def_cfa 8, 0
 437 01d8 93050500 		mv	a1,a0
  84:src/API.c     ****     register size_t a0 asm("a0") = 0x24;
 438              		.loc 1 84 5
 439              		.loc 1 84 21 is_stmt 0
 440 01dc 13054002 		li	a0,36
 441              	.LVL26:
  85:src/API.c     ****     register size_t a1 asm("a1") = (size_t)id;
 442              		.loc 1 85 5 is_stmt 1
  86:src/API.c     ****     __asm__ volatile("ecall" : "+r"(a0) : "r"(a1));
 443              		.loc 1 86 5
 444              	#APP
GAS LISTING /tmp/ccj96rbJ.s 			page 10


 445              	# 86 "src/API.c" 1
  87              	    return (int)a0;
 446              		ecall
 447              	# 0 "" 2
 448              		.loc 1 87 5
  88:src/API.c     **** }
 449              		.loc 1 88 1 is_stmt 0
 450              	#NO_APP
 451 01e4 1B050500 		sext.w	a0,a0
 452 01e8 03348100 		ld	s0,8(sp)
 453              		.cfi_restore 8
 454              		.cfi_def_cfa 2, 16
 455 01ec 13010101 		addi	sp,sp,16
 456              		.cfi_def_cfa_offset 0
 457 01f0 67800000 		jr	ra
 458              		.cfi_endproc
 459              	.LFE9:
 461              		.align	2
 462              		.globl	sem_wait_n
 464              	sem_wait_n:
 465              	.LFB10:
  89:src/API.c     **** 
  90:src/API.c     **** int sem_wait_n(sem_t id, unsigned n) {
 466              		.loc 1 90 38 is_stmt 1
 467              		.cfi_startproc
 468              	.LVL27:
 469 01f4 130101FF 		addi	sp,sp,-16
 470              		.cfi_def_cfa_offset 16
 471 01f8 23348100 		sd	s0,8(sp)
 472              		.cfi_offset 8, -8
 473 01fc 13040101 		addi	s0,sp,16
 474              		.cfi_def_cfa 8, 0
 475 0200 93070500 		mv	a5,a0
 476 0204 13860500 		mv	a2,a1
  91:src/API.c     ****     register size_t a0 asm("a0") = 0x25;
 477              		.loc 1 91 5
 478              		.loc 1 91 21 is_stmt 0
 479 0208 13055002 		li	a0,37
 480              	.LVL28:
  92:src/API.c     ****     register size_t a1 asm("a1") = (size_t)id;
 481              		.loc 1 92 5 is_stmt 1
 482              		.loc 1 92 21 is_stmt 0
 483 020c 93850700 		mv	a1,a5
 484              	.LVL29:
  93:src/API.c     ****     register size_t a2 asm("a2") = (size_t)n;
 485              		.loc 1 93 5 is_stmt 1
 486              		.loc 1 93 21 is_stmt 0
 487 0210 13160602 		slli	a2,a2,32
 488 0214 13560602 		srli	a2,a2,32
  94:src/API.c     ****     __asm__ volatile("ecall" : "+r"(a0) : "r"(a1), "r"(a2));
 489              		.loc 1 94 5 is_stmt 1
 490              	#APP
 491              	# 94 "src/API.c" 1
  95              	    return (int)a0;
 492              		ecall
 493              	# 0 "" 2
 494              		.loc 1 95 5
GAS LISTING /tmp/ccj96rbJ.s 			page 11


  96:src/API.c     **** }
 495              		.loc 1 96 1 is_stmt 0
 496              	#NO_APP
 497 021c 1B050500 		sext.w	a0,a0
 498 0220 03348100 		ld	s0,8(sp)
 499              		.cfi_restore 8
 500              		.cfi_def_cfa 2, 16
 501 0224 13010101 		addi	sp,sp,16
 502              		.cfi_def_cfa_offset 0
 503 0228 67800000 		jr	ra
 504              		.cfi_endproc
 505              	.LFE10:
 507              		.align	2
 508              		.globl	getc
 510              	getc:
 511              	.LFB11:
  97:src/API.c     **** 
  98:src/API.c     **** char getc(void) {
 512              		.loc 1 98 17 is_stmt 1
 513              		.cfi_startproc
 514 022c 130101FF 		addi	sp,sp,-16
 515              		.cfi_def_cfa_offset 16
 516 0230 23348100 		sd	s0,8(sp)
 517              		.cfi_offset 8, -8
 518 0234 13040101 		addi	s0,sp,16
 519              		.cfi_def_cfa 8, 0
  99:src/API.c     ****     register size_t a0 asm("a0") = 0x41;
 520              		.loc 1 99 5
 521              		.loc 1 99 21 is_stmt 0
 522 0238 13051004 		li	a0,65
 100:src/API.c     ****     __asm__ volatile("ecall" : "+r"(a0));
 523              		.loc 1 100 5 is_stmt 1
 524              	#APP
 525              	# 100 "src/API.c" 1
 101              	    return (char)a0;
 526              		ecall
 527              	# 0 "" 2
 528              		.loc 1 101 5
 102:src/API.c     **** }
 529              		.loc 1 102 1 is_stmt 0
 530              	#NO_APP
 531 0240 1375F50F 		andi	a0,a0,0xff
 532 0244 03348100 		ld	s0,8(sp)
 533              		.cfi_restore 8
 534              		.cfi_def_cfa 2, 16
 535 0248 13010101 		addi	sp,sp,16
 536              		.cfi_def_cfa_offset 0
 537 024c 67800000 		jr	ra
 538              		.cfi_endproc
 539              	.LFE11:
 541              		.align	2
 542              		.globl	putc
 544              	putc:
 545              	.LFB12:
 103:src/API.c     **** 
 104:src/API.c     **** void putc(char c) {
 546              		.loc 1 104 19 is_stmt 1
GAS LISTING /tmp/ccj96rbJ.s 			page 12


 547              		.cfi_startproc
 548              	.LVL30:
 549 0250 130101FF 		addi	sp,sp,-16
 550              		.cfi_def_cfa_offset 16
 551 0254 23348100 		sd	s0,8(sp)
 552              		.cfi_offset 8, -8
 553 0258 13040101 		addi	s0,sp,16
 554              		.cfi_def_cfa 8, 0
 555 025c 93050500 		mv	a1,a0
 105:src/API.c     ****     register size_t a0 asm("a0") = 0x42;
 556              		.loc 1 105 5
 557              		.loc 1 105 21 is_stmt 0
 558 0260 13052004 		li	a0,66
 559              	.LVL31:
 106:src/API.c     ****     register size_t a1 asm("a1") = (size_t)(unsigned char)c;
 560              		.loc 1 106 5 is_stmt 1
 107:src/API.c     ****     __asm__ volatile("ecall" : "+r"(a0) : "r"(a1));
 561              		.loc 1 107 5
 562              	#APP
 563              	# 107 "src/API.c" 1
 108              	}
 564              		ecall
 565              	# 0 "" 2
 566              		.loc 1 108 1 is_stmt 0
 567              	#NO_APP
 568 0268 03348100 		ld	s0,8(sp)
 569              		.cfi_restore 8
 570              		.cfi_def_cfa 2, 16
 571 026c 13010101 		addi	sp,sp,16
 572              		.cfi_def_cfa_offset 0
 573 0270 67800000 		jr	ra
 574              		.cfi_endproc
 575              	.LFE12:
 577              		.align	2
 578              		.globl	sys_halt
 580              	sys_halt:
 581              	.LFB13:
 109:src/API.c     **** 
 110:src/API.c     **** void sys_halt(void) {
 582              		.loc 1 110 21 is_stmt 1
 583              		.cfi_startproc
 584 0274 130101FF 		addi	sp,sp,-16
 585              		.cfi_def_cfa_offset 16
 586 0278 23348100 		sd	s0,8(sp)
 587              		.cfi_offset 8, -8
 588 027c 13040101 		addi	s0,sp,16
 589              		.cfi_def_cfa 8, 0
 111:src/API.c     ****     register size_t a0 asm("a0") = 0xFF;
 590              		.loc 1 111 5
 591              		.loc 1 111 21 is_stmt 0
 592 0280 1305F00F 		li	a0,255
 112:src/API.c     ****     __asm__ volatile("ecall" : "+r"(a0));
 593              		.loc 1 112 5 is_stmt 1
 594              	#APP
 595              	# 112 "src/API.c" 1
 113              	}
 596              		ecall
GAS LISTING /tmp/ccj96rbJ.s 			page 13


 597              	# 0 "" 2
 598              		.loc 1 113 1 is_stmt 0
 599              	#NO_APP
 600 0288 03348100 		ld	s0,8(sp)
 601              		.cfi_restore 8
 602              		.cfi_def_cfa 2, 16
 603 028c 13010101 		addi	sp,sp,16
 604              		.cfi_def_cfa_offset 0
 605 0290 67800000 		jr	ra
 606              		.cfi_endproc
 607              	.LFE13:
 609              		.align	2
 610              		.globl	sem_signal_n
 612              	sem_signal_n:
 613              	.LFB14:
 114:src/API.c     **** 
 115:src/API.c     **** int sem_signal_n(sem_t id, unsigned n) {
 614              		.loc 1 115 40 is_stmt 1
 615              		.cfi_startproc
 616              	.LVL32:
 617 0294 130101FF 		addi	sp,sp,-16
 618              		.cfi_def_cfa_offset 16
 619 0298 23348100 		sd	s0,8(sp)
 620              		.cfi_offset 8, -8
 621 029c 13040101 		addi	s0,sp,16
 622              		.cfi_def_cfa 8, 0
 623 02a0 93070500 		mv	a5,a0
 624 02a4 13860500 		mv	a2,a1
 116:src/API.c     ****     register size_t a0 asm("a0") = 0x26;
 625              		.loc 1 116 5
 626              		.loc 1 116 21 is_stmt 0
 627 02a8 13056002 		li	a0,38
 628              	.LVL33:
 117:src/API.c     ****     register size_t a1 asm("a1") = (size_t)id;
 629              		.loc 1 117 5 is_stmt 1
 630              		.loc 1 117 21 is_stmt 0
 631 02ac 93850700 		mv	a1,a5
 632              	.LVL34:
 118:src/API.c     ****     register size_t a2 asm("a2") = (size_t)n;
 633              		.loc 1 118 5 is_stmt 1
 634              		.loc 1 118 21 is_stmt 0
 635 02b0 13160602 		slli	a2,a2,32
 636 02b4 13560602 		srli	a2,a2,32
 119:src/API.c     ****     __asm__ volatile("ecall" : "+r"(a0) : "r"(a1), "r"(a2));
 637              		.loc 1 119 5 is_stmt 1
 638              	#APP
 639              	# 119 "src/API.c" 1
 120              	    return (int)a0;
 640              		ecall
 641              	# 0 "" 2
 642              		.loc 1 120 5
 121:src/API.c     **** }...
 643              		.loc 1 121 1 is_stmt 0
 644              	#NO_APP
 645 02bc 1B050500 		sext.w	a0,a0
 646 02c0 03348100 		ld	s0,8(sp)
 647              		.cfi_restore 8
GAS LISTING /tmp/ccj96rbJ.s 			page 14


 648              		.cfi_def_cfa 2, 16
 649 02c4 13010101 		addi	sp,sp,16
 650              		.cfi_def_cfa_offset 0
 651 02c8 67800000 		jr	ra
 652              		.cfi_endproc
 653              	.LFE14:
 655              	.Letext0:
 656              		.file 2 "src/./../lib/hw.h"
 657              		.file 3 "src/./syscall_c.h"
GAS LISTING /tmp/ccj96rbJ.s 			page 15


DEFINED SYMBOLS
                            *ABS*:0000000000000000 API.c
     /tmp/ccj96rbJ.s:10     .text:0000000000000000 mem_alloc
     /tmp/ccj96rbJ.s:14     .text:0000000000000000 .L0 
     /tmp/ccj96rbJ.s:16     .text:0000000000000000 .L0 
     /tmp/ccj96rbJ.s:17     .text:0000000000000004 .L0 
     /tmp/ccj96rbJ.s:19     .text:0000000000000008 .L0 
     /tmp/ccj96rbJ.s:21     .text:000000000000000c .L0 
     /tmp/ccj96rbJ.s:24     .text:000000000000000c .L0 
           src/API.c:10     .text:000000000000000c .L0 
     /tmp/ccj96rbJ.s:31     .text:0000000000000010 .L0 
           src/API.c:12     .text:0000000000000018 .L0 
     /tmp/ccj96rbJ.s:41     .text:000000000000001c .L0 
           src/API.c:14     .text:000000000000001c .L0 
     /tmp/ccj96rbJ.s:47     .text:0000000000000020 .L0 
     /tmp/ccj96rbJ.s:49     .text:0000000000000020 .L0 
     /tmp/ccj96rbJ.s:50     .text:0000000000000024 .L0 
     /tmp/ccj96rbJ.s:51     .text:0000000000000024 .L0 
     /tmp/ccj96rbJ.s:53     .text:0000000000000028 .L0 
     /tmp/ccj96rbJ.s:55     .text:000000000000002c .L0 
     /tmp/ccj96rbJ.s:61     .text:000000000000002c mem_free
     /tmp/ccj96rbJ.s:64     .text:000000000000002c .L0 
     /tmp/ccj96rbJ.s:66     .text:000000000000002c .L0 
     /tmp/ccj96rbJ.s:67     .text:0000000000000030 .L0 
     /tmp/ccj96rbJ.s:69     .text:0000000000000034 .L0 
     /tmp/ccj96rbJ.s:71     .text:0000000000000038 .L0 
     /tmp/ccj96rbJ.s:74     .text:0000000000000038 .L0 
           src/API.c:20     .text:0000000000000038 .L0 
     /tmp/ccj96rbJ.s:81     .text:000000000000003c .L0 
           src/API.c:22     .text:0000000000000044 .L0 
     /tmp/ccj96rbJ.s:91     .text:0000000000000048 .L0 
     /tmp/ccj96rbJ.s:93     .text:0000000000000048 .L0 
     /tmp/ccj96rbJ.s:96     .text:0000000000000050 .L0 
     /tmp/ccj96rbJ.s:97     .text:0000000000000050 .L0 
     /tmp/ccj96rbJ.s:99     .text:0000000000000054 .L0 
     /tmp/ccj96rbJ.s:101    .text:0000000000000058 .L0 
     /tmp/ccj96rbJ.s:107    .text:0000000000000058 thread_create
     /tmp/ccj96rbJ.s:110    .text:0000000000000058 .L0 
     /tmp/ccj96rbJ.s:112    .text:0000000000000058 .L0 
     /tmp/ccj96rbJ.s:113    .text:000000000000005c .L0 
     /tmp/ccj96rbJ.s:119    .text:0000000000000070 .L0 
     /tmp/ccj96rbJ.s:120    .text:0000000000000070 .L0 
     /tmp/ccj96rbJ.s:121    .text:0000000000000070 .L0 
     /tmp/ccj96rbJ.s:122    .text:0000000000000070 .L0 
     /tmp/ccj96rbJ.s:123    .text:0000000000000070 .L0 
     /tmp/ccj96rbJ.s:125    .text:0000000000000074 .L0 
     /tmp/ccj96rbJ.s:130    .text:0000000000000080 .L0 
     /tmp/ccj96rbJ.s:131    .text:0000000000000080 .L0 
     /tmp/ccj96rbJ.s:136    .text:000000000000008c .L0 
     /tmp/ccj96rbJ.s:137    .text:000000000000008c .L0 
     /tmp/ccj96rbJ.s:140    .text:0000000000000094 .L0 
     /tmp/ccj96rbJ.s:141    .text:0000000000000094 .L0 
     /tmp/ccj96rbJ.s:144    .text:0000000000000098 .L0 
     /tmp/ccj96rbJ.s:145    .text:0000000000000098 .L0 
     /tmp/ccj96rbJ.s:147    .text:000000000000009c .L0 
     /tmp/ccj96rbJ.s:148    .text:000000000000009c .L0 
     /tmp/ccj96rbJ.s:150    .text:00000000000000a0 .L0 
GAS LISTING /tmp/ccj96rbJ.s 			page 16


     /tmp/ccj96rbJ.s:151    .text:00000000000000a0 .L0 
     /tmp/ccj96rbJ.s:153    .text:00000000000000a4 .L0 
     /tmp/ccj96rbJ.s:154    .text:00000000000000a4 .L0 
     /tmp/ccj96rbJ.s:157    .text:00000000000000ac .L0 
           src/API.c:36     .text:00000000000000ac .L0 
     /tmp/ccj96rbJ.s:163    .text:00000000000000b0 .L0 
     /tmp/ccj96rbJ.s:165    .text:00000000000000b0 .L0 
     /tmp/ccj96rbJ.s:169    .text:00000000000000b4 .L0 
     /tmp/ccj96rbJ.s:170    .text:00000000000000b8 .L0 
     /tmp/ccj96rbJ.s:171    .text:00000000000000b8 .L0 
     /tmp/ccj96rbJ.s:173    .text:00000000000000bc .L0 
     /tmp/ccj96rbJ.s:174    .text:00000000000000bc .L0 
     /tmp/ccj96rbJ.s:176    .text:00000000000000c0 .L0 
     /tmp/ccj96rbJ.s:179    .text:00000000000000c4 .L0 
     /tmp/ccj96rbJ.s:182    .text:00000000000000c8 .L0 
     /tmp/ccj96rbJ.s:185    .text:00000000000000cc .L0 
     /tmp/ccj96rbJ.s:189    .text:00000000000000d0 .L0 
     /tmp/ccj96rbJ.s:191    .text:00000000000000d0 .L0 
     /tmp/ccj96rbJ.s:194    .text:00000000000000d8 .L0 
     /tmp/ccj96rbJ.s:200    .text:00000000000000d8 thread_exit
     /tmp/ccj96rbJ.s:203    .text:00000000000000d8 .L0 
     /tmp/ccj96rbJ.s:204    .text:00000000000000d8 .L0 
     /tmp/ccj96rbJ.s:205    .text:00000000000000dc .L0 
     /tmp/ccj96rbJ.s:207    .text:00000000000000e0 .L0 
     /tmp/ccj96rbJ.s:209    .text:00000000000000e4 .L0 
     /tmp/ccj96rbJ.s:211    .text:00000000000000e4 .L0 
     /tmp/ccj96rbJ.s:212    .text:00000000000000e4 .L0 
           src/API.c:45     .text:00000000000000e8 .L0 
     /tmp/ccj96rbJ.s:219    .text:00000000000000ec .L0 
     /tmp/ccj96rbJ.s:221    .text:00000000000000ec .L0 
     /tmp/ccj96rbJ.s:223    .text:00000000000000f4 .L0 
     /tmp/ccj96rbJ.s:224    .text:00000000000000f4 .L0 
     /tmp/ccj96rbJ.s:226    .text:00000000000000f8 .L0 
     /tmp/ccj96rbJ.s:228    .text:00000000000000fc .L0 
     /tmp/ccj96rbJ.s:234    .text:00000000000000fc thread_dispatch
     /tmp/ccj96rbJ.s:237    .text:00000000000000fc .L0 
     /tmp/ccj96rbJ.s:238    .text:00000000000000fc .L0 
     /tmp/ccj96rbJ.s:239    .text:0000000000000100 .L0 
     /tmp/ccj96rbJ.s:241    .text:0000000000000104 .L0 
     /tmp/ccj96rbJ.s:243    .text:0000000000000108 .L0 
     /tmp/ccj96rbJ.s:245    .text:0000000000000108 .L0 
     /tmp/ccj96rbJ.s:246    .text:0000000000000108 .L0 
           src/API.c:51     .text:000000000000010c .L0 
     /tmp/ccj96rbJ.s:254    .text:0000000000000110 .L0 
     /tmp/ccj96rbJ.s:255    .text:0000000000000114 .L0 
     /tmp/ccj96rbJ.s:256    .text:0000000000000114 .L0 
     /tmp/ccj96rbJ.s:258    .text:0000000000000118 .L0 
     /tmp/ccj96rbJ.s:260    .text:000000000000011c .L0 
     /tmp/ccj96rbJ.s:266    .text:000000000000011c time_sleep
     /tmp/ccj96rbJ.s:269    .text:000000000000011c .L0 
     /tmp/ccj96rbJ.s:271    .text:000000000000011c .L0 
     /tmp/ccj96rbJ.s:272    .text:0000000000000120 .L0 
     /tmp/ccj96rbJ.s:274    .text:0000000000000124 .L0 
     /tmp/ccj96rbJ.s:276    .text:0000000000000128 .L0 
     /tmp/ccj96rbJ.s:279    .text:000000000000012c .L0 
     /tmp/ccj96rbJ.s:280    .text:000000000000012c .L0 
     /tmp/ccj96rbJ.s:283    .text:0000000000000130 .L0 
GAS LISTING /tmp/ccj96rbJ.s 			page 17


           src/API.c:57     .text:0000000000000130 .L0 
     /tmp/ccj96rbJ.s:289    .text:0000000000000134 .L0 
     /tmp/ccj96rbJ.s:291    .text:0000000000000134 .L0 
     /tmp/ccj96rbJ.s:293    .text:000000000000013c .L0 
     /tmp/ccj96rbJ.s:294    .text:000000000000013c .L0 
     /tmp/ccj96rbJ.s:296    .text:0000000000000140 .L0 
     /tmp/ccj96rbJ.s:298    .text:0000000000000144 .L0 
     /tmp/ccj96rbJ.s:304    .text:0000000000000144 sem_open
     /tmp/ccj96rbJ.s:307    .text:0000000000000144 .L0 
     /tmp/ccj96rbJ.s:309    .text:0000000000000144 .L0 
     /tmp/ccj96rbJ.s:310    .text:0000000000000148 .L0 
     /tmp/ccj96rbJ.s:312    .text:000000000000014c .L0 
     /tmp/ccj96rbJ.s:314    .text:0000000000000150 .L0 
     /tmp/ccj96rbJ.s:318    .text:0000000000000158 .L0 
     /tmp/ccj96rbJ.s:319    .text:0000000000000158 .L0 
     /tmp/ccj96rbJ.s:322    .text:000000000000015c .L0 
     /tmp/ccj96rbJ.s:323    .text:000000000000015c .L0 
     /tmp/ccj96rbJ.s:326    .text:0000000000000160 .L0 
     /tmp/ccj96rbJ.s:327    .text:0000000000000160 .L0 
           src/API.c:65     .text:0000000000000168 .L0 
     /tmp/ccj96rbJ.s:335    .text:000000000000016c .L0 
     /tmp/ccj96rbJ.s:337    .text:000000000000016c .L0 
     /tmp/ccj96rbJ.s:339    .text:0000000000000174 .L0 
     /tmp/ccj96rbJ.s:340    .text:0000000000000174 .L0 
     /tmp/ccj96rbJ.s:342    .text:0000000000000178 .L0 
     /tmp/ccj96rbJ.s:344    .text:000000000000017c .L0 
     /tmp/ccj96rbJ.s:350    .text:000000000000017c sem_close
     /tmp/ccj96rbJ.s:353    .text:000000000000017c .L0 
     /tmp/ccj96rbJ.s:355    .text:000000000000017c .L0 
     /tmp/ccj96rbJ.s:356    .text:0000000000000180 .L0 
     /tmp/ccj96rbJ.s:358    .text:0000000000000184 .L0 
     /tmp/ccj96rbJ.s:360    .text:0000000000000188 .L0 
     /tmp/ccj96rbJ.s:363    .text:000000000000018c .L0 
     /tmp/ccj96rbJ.s:364    .text:000000000000018c .L0 
     /tmp/ccj96rbJ.s:367    .text:0000000000000190 .L0 
           src/API.c:72     .text:0000000000000190 .L0 
     /tmp/ccj96rbJ.s:373    .text:0000000000000194 .L0 
     /tmp/ccj96rbJ.s:375    .text:0000000000000194 .L0 
     /tmp/ccj96rbJ.s:377    .text:000000000000019c .L0 
     /tmp/ccj96rbJ.s:378    .text:000000000000019c .L0 
     /tmp/ccj96rbJ.s:380    .text:00000000000001a0 .L0 
     /tmp/ccj96rbJ.s:382    .text:00000000000001a4 .L0 
     /tmp/ccj96rbJ.s:388    .text:00000000000001a4 sem_wait
     /tmp/ccj96rbJ.s:391    .text:00000000000001a4 .L0 
     /tmp/ccj96rbJ.s:393    .text:00000000000001a4 .L0 
     /tmp/ccj96rbJ.s:394    .text:00000000000001a8 .L0 
     /tmp/ccj96rbJ.s:396    .text:00000000000001ac .L0 
     /tmp/ccj96rbJ.s:398    .text:00000000000001b0 .L0 
     /tmp/ccj96rbJ.s:401    .text:00000000000001b4 .L0 
     /tmp/ccj96rbJ.s:402    .text:00000000000001b4 .L0 
     /tmp/ccj96rbJ.s:405    .text:00000000000001b8 .L0 
           src/API.c:79     .text:00000000000001b8 .L0 
     /tmp/ccj96rbJ.s:411    .text:00000000000001bc .L0 
     /tmp/ccj96rbJ.s:413    .text:00000000000001bc .L0 
     /tmp/ccj96rbJ.s:415    .text:00000000000001c4 .L0 
     /tmp/ccj96rbJ.s:416    .text:00000000000001c4 .L0 
     /tmp/ccj96rbJ.s:418    .text:00000000000001c8 .L0 
GAS LISTING /tmp/ccj96rbJ.s 			page 18


     /tmp/ccj96rbJ.s:420    .text:00000000000001cc .L0 
     /tmp/ccj96rbJ.s:426    .text:00000000000001cc sem_signal
     /tmp/ccj96rbJ.s:429    .text:00000000000001cc .L0 
     /tmp/ccj96rbJ.s:431    .text:00000000000001cc .L0 
     /tmp/ccj96rbJ.s:432    .text:00000000000001d0 .L0 
     /tmp/ccj96rbJ.s:434    .text:00000000000001d4 .L0 
     /tmp/ccj96rbJ.s:436    .text:00000000000001d8 .L0 
     /tmp/ccj96rbJ.s:439    .text:00000000000001dc .L0 
     /tmp/ccj96rbJ.s:440    .text:00000000000001dc .L0 
     /tmp/ccj96rbJ.s:443    .text:00000000000001e0 .L0 
           src/API.c:86     .text:00000000000001e0 .L0 
     /tmp/ccj96rbJ.s:449    .text:00000000000001e4 .L0 
     /tmp/ccj96rbJ.s:451    .text:00000000000001e4 .L0 
     /tmp/ccj96rbJ.s:453    .text:00000000000001ec .L0 
     /tmp/ccj96rbJ.s:454    .text:00000000000001ec .L0 
     /tmp/ccj96rbJ.s:456    .text:00000000000001f0 .L0 
     /tmp/ccj96rbJ.s:458    .text:00000000000001f4 .L0 
     /tmp/ccj96rbJ.s:464    .text:00000000000001f4 sem_wait_n
     /tmp/ccj96rbJ.s:467    .text:00000000000001f4 .L0 
     /tmp/ccj96rbJ.s:469    .text:00000000000001f4 .L0 
     /tmp/ccj96rbJ.s:470    .text:00000000000001f8 .L0 
     /tmp/ccj96rbJ.s:472    .text:00000000000001fc .L0 
     /tmp/ccj96rbJ.s:474    .text:0000000000000200 .L0 
     /tmp/ccj96rbJ.s:478    .text:0000000000000208 .L0 
     /tmp/ccj96rbJ.s:479    .text:0000000000000208 .L0 
     /tmp/ccj96rbJ.s:482    .text:000000000000020c .L0 
     /tmp/ccj96rbJ.s:483    .text:000000000000020c .L0 
     /tmp/ccj96rbJ.s:486    .text:0000000000000210 .L0 
     /tmp/ccj96rbJ.s:487    .text:0000000000000210 .L0 
           src/API.c:94     .text:0000000000000218 .L0 
     /tmp/ccj96rbJ.s:495    .text:000000000000021c .L0 
     /tmp/ccj96rbJ.s:497    .text:000000000000021c .L0 
     /tmp/ccj96rbJ.s:499    .text:0000000000000224 .L0 
     /tmp/ccj96rbJ.s:500    .text:0000000000000224 .L0 
     /tmp/ccj96rbJ.s:502    .text:0000000000000228 .L0 
     /tmp/ccj96rbJ.s:504    .text:000000000000022c .L0 
     /tmp/ccj96rbJ.s:510    .text:000000000000022c getc
     /tmp/ccj96rbJ.s:513    .text:000000000000022c .L0 
     /tmp/ccj96rbJ.s:514    .text:000000000000022c .L0 
     /tmp/ccj96rbJ.s:515    .text:0000000000000230 .L0 
     /tmp/ccj96rbJ.s:517    .text:0000000000000234 .L0 
     /tmp/ccj96rbJ.s:519    .text:0000000000000238 .L0 
     /tmp/ccj96rbJ.s:521    .text:0000000000000238 .L0 
     /tmp/ccj96rbJ.s:522    .text:0000000000000238 .L0 
           src/API.c:100    .text:000000000000023c .L0 
     /tmp/ccj96rbJ.s:529    .text:0000000000000240 .L0 
     /tmp/ccj96rbJ.s:531    .text:0000000000000240 .L0 
     /tmp/ccj96rbJ.s:533    .text:0000000000000248 .L0 
     /tmp/ccj96rbJ.s:534    .text:0000000000000248 .L0 
     /tmp/ccj96rbJ.s:536    .text:000000000000024c .L0 
     /tmp/ccj96rbJ.s:538    .text:0000000000000250 .L0 
     /tmp/ccj96rbJ.s:544    .text:0000000000000250 putc
     /tmp/ccj96rbJ.s:547    .text:0000000000000250 .L0 
     /tmp/ccj96rbJ.s:549    .text:0000000000000250 .L0 
     /tmp/ccj96rbJ.s:550    .text:0000000000000254 .L0 
     /tmp/ccj96rbJ.s:552    .text:0000000000000258 .L0 
     /tmp/ccj96rbJ.s:554    .text:000000000000025c .L0 
GAS LISTING /tmp/ccj96rbJ.s 			page 19


     /tmp/ccj96rbJ.s:557    .text:0000000000000260 .L0 
     /tmp/ccj96rbJ.s:558    .text:0000000000000260 .L0 
     /tmp/ccj96rbJ.s:561    .text:0000000000000264 .L0 
           src/API.c:107    .text:0000000000000264 .L0 
     /tmp/ccj96rbJ.s:568    .text:0000000000000268 .L0 
     /tmp/ccj96rbJ.s:569    .text:000000000000026c .L0 
     /tmp/ccj96rbJ.s:570    .text:000000000000026c .L0 
     /tmp/ccj96rbJ.s:572    .text:0000000000000270 .L0 
     /tmp/ccj96rbJ.s:574    .text:0000000000000274 .L0 
     /tmp/ccj96rbJ.s:580    .text:0000000000000274 sys_halt
     /tmp/ccj96rbJ.s:583    .text:0000000000000274 .L0 
     /tmp/ccj96rbJ.s:584    .text:0000000000000274 .L0 
     /tmp/ccj96rbJ.s:585    .text:0000000000000278 .L0 
     /tmp/ccj96rbJ.s:587    .text:000000000000027c .L0 
     /tmp/ccj96rbJ.s:589    .text:0000000000000280 .L0 
     /tmp/ccj96rbJ.s:591    .text:0000000000000280 .L0 
     /tmp/ccj96rbJ.s:592    .text:0000000000000280 .L0 
           src/API.c:112    .text:0000000000000284 .L0 
     /tmp/ccj96rbJ.s:600    .text:0000000000000288 .L0 
     /tmp/ccj96rbJ.s:601    .text:000000000000028c .L0 
     /tmp/ccj96rbJ.s:602    .text:000000000000028c .L0 
     /tmp/ccj96rbJ.s:604    .text:0000000000000290 .L0 
     /tmp/ccj96rbJ.s:606    .text:0000000000000294 .L0 
     /tmp/ccj96rbJ.s:612    .text:0000000000000294 sem_signal_n
     /tmp/ccj96rbJ.s:615    .text:0000000000000294 .L0 
     /tmp/ccj96rbJ.s:617    .text:0000000000000294 .L0 
     /tmp/ccj96rbJ.s:618    .text:0000000000000298 .L0 
     /tmp/ccj96rbJ.s:620    .text:000000000000029c .L0 
     /tmp/ccj96rbJ.s:622    .text:00000000000002a0 .L0 
     /tmp/ccj96rbJ.s:626    .text:00000000000002a8 .L0 
     /tmp/ccj96rbJ.s:627    .text:00000000000002a8 .L0 
     /tmp/ccj96rbJ.s:630    .text:00000000000002ac .L0 
     /tmp/ccj96rbJ.s:631    .text:00000000000002ac .L0 
     /tmp/ccj96rbJ.s:634    .text:00000000000002b0 .L0 
     /tmp/ccj96rbJ.s:635    .text:00000000000002b0 .L0 
           src/API.c:119    .text:00000000000002b8 .L0 
     /tmp/ccj96rbJ.s:643    .text:00000000000002bc .L0 
     /tmp/ccj96rbJ.s:645    .text:00000000000002bc .L0 
     /tmp/ccj96rbJ.s:647    .text:00000000000002c4 .L0 
     /tmp/ccj96rbJ.s:648    .text:00000000000002c4 .L0 
     /tmp/ccj96rbJ.s:650    .text:00000000000002c8 .L0 
     /tmp/ccj96rbJ.s:652    .text:00000000000002cc .L0 
     /tmp/ccj96rbJ.s:658    .text:00000000000002cc .L0 
                     .debug_frame:0000000000000000 .L0 
     /tmp/ccj96rbJ.s:188    .text:00000000000000d0 .L7
     /tmp/ccj96rbJ.s:167    .text:00000000000000b4 .L6
     /tmp/ccj96rbJ.s:1383   .debug_abbrev:0000000000000000 .Ldebug_abbrev0
     /tmp/ccj96rbJ.s:2033   .debug_str:0000000000000143 .LASF43
     /tmp/ccj96rbJ.s:2041   .debug_str:00000000000001fe .LASF44
     /tmp/ccj96rbJ.s:2025   .debug_str:0000000000000107 .LASF45
     /tmp/ccj96rbJ.s:5      .text:0000000000000000 .Ltext0
     /tmp/ccj96rbJ.s:655    .text:00000000000002cc .Letext0
     /tmp/ccj96rbJ.s:1981   .debug_line:0000000000000000 .Ldebug_line0
     /tmp/ccj96rbJ.s:2035   .debug_str:00000000000001e1 .LASF0
     /tmp/ccj96rbJ.s:2013   .debug_str:00000000000000ba .LASF1
     /tmp/ccj96rbJ.s:2005   .debug_str:000000000000008b .LASF2
     /tmp/ccj96rbJ.s:1991   .debug_str:000000000000002e .LASF4
GAS LISTING /tmp/ccj96rbJ.s 			page 20


     /tmp/ccj96rbJ.s:2011   .debug_str:00000000000000a8 .LASF3
     /tmp/ccj96rbJ.s:1985   .debug_str:0000000000000013 .LASF5
     /tmp/ccj96rbJ.s:2043   .debug_str:0000000000000208 .LASF6
     /tmp/ccj96rbJ.s:1983   .debug_str:0000000000000000 .LASF7
     /tmp/ccj96rbJ.s:1999   .debug_str:000000000000005e .LASF8
     /tmp/ccj96rbJ.s:2045   .debug_str:000000000000020f .LASF9
     /tmp/ccj96rbJ.s:1989   .debug_str:0000000000000020 .LASF10
     /tmp/ccj96rbJ.s:2073   .debug_str:00000000000002ab .LASF11
     /tmp/ccj96rbJ.s:2001   .debug_str:0000000000000071 .LASF12
     /tmp/ccj96rbJ.s:2065   .debug_str:0000000000000280 .LASF13
     /tmp/ccj96rbJ.s:2051   .debug_str:000000000000023e .LASF14
     /tmp/ccj96rbJ.s:2017   .debug_str:00000000000000db .LASF15
     /tmp/ccj96rbJ.s:1997   .debug_str:0000000000000048 .LASF16
     /tmp/ccj96rbJ.s:2047   .debug_str:000000000000021f .LASF17
     /tmp/ccj96rbJ.s:2049   .debug_str:0000000000000235 .LASF18
     /tmp/ccj96rbJ.s:1987   .debug_str:000000000000001a .LASF19
     /tmp/ccj96rbJ.s:1995   .debug_str:000000000000003b .LASF23
     /tmp/ccj96rbJ.s:613    .text:0000000000000294 .LFB14
     /tmp/ccj96rbJ.s:653    .text:00000000000002cc .LFE14
     /tmp/ccj96rbJ.s:1726   .debug_loc:0000000000000000 .LLST15
     /tmp/ccj96rbJ.s:1737   .debug_loc:0000000000000036 .LLST16
     /tmp/ccj96rbJ.s:2031   .debug_str:000000000000013a .LASF20
     /tmp/ccj96rbJ.s:581    .text:0000000000000274 .LFB13
     /tmp/ccj96rbJ.s:607    .text:0000000000000294 .LFE13
     /tmp/ccj96rbJ.s:2061   .debug_str:0000000000000272 .LASF21
     /tmp/ccj96rbJ.s:545    .text:0000000000000250 .LFB12
     /tmp/ccj96rbJ.s:575    .text:0000000000000274 .LFE12
     /tmp/ccj96rbJ.s:1751   .debug_loc:000000000000006f .LLST14
     /tmp/ccj96rbJ.s:2039   .debug_str:00000000000001f9 .LASF22
     /tmp/ccj96rbJ.s:2007   .debug_str:0000000000000099 .LASF24
     /tmp/ccj96rbJ.s:511    .text:000000000000022c .LFB11
     /tmp/ccj96rbJ.s:539    .text:0000000000000250 .LFE11
     /tmp/ccj96rbJ.s:2003   .debug_str:0000000000000080 .LASF25
     /tmp/ccj96rbJ.s:465    .text:00000000000001f4 .LFB10
     /tmp/ccj96rbJ.s:505    .text:000000000000022c .LFE10
     /tmp/ccj96rbJ.s:1765   .debug_loc:00000000000000a8 .LLST12
     /tmp/ccj96rbJ.s:1776   .debug_loc:00000000000000de .LLST13
     /tmp/ccj96rbJ.s:2021   .debug_str:00000000000000ee .LASF26
     /tmp/ccj96rbJ.s:427    .text:00000000000001cc .LFB9
     /tmp/ccj96rbJ.s:459    .text:00000000000001f4 .LFE9
     /tmp/ccj96rbJ.s:1790   .debug_loc:0000000000000117 .LLST11
     /tmp/ccj96rbJ.s:2027   .debug_str:000000000000012c .LASF27
     /tmp/ccj96rbJ.s:389    .text:00000000000001a4 .LFB8
     /tmp/ccj96rbJ.s:421    .text:00000000000001cc .LFE8
     /tmp/ccj96rbJ.s:1801   .debug_loc:000000000000014d .LLST10
     /tmp/ccj96rbJ.s:2009   .debug_str:000000000000009e .LASF28
     /tmp/ccj96rbJ.s:351    .text:000000000000017c .LFB7
     /tmp/ccj96rbJ.s:383    .text:00000000000001a4 .LFE7
     /tmp/ccj96rbJ.s:2019   .debug_str:00000000000000e7 .LASF29
     /tmp/ccj96rbJ.s:1812   .debug_loc:0000000000000183 .LLST9
     /tmp/ccj96rbJ.s:2063   .debug_str:0000000000000277 .LASF30
     /tmp/ccj96rbJ.s:305    .text:0000000000000144 .LFB6
     /tmp/ccj96rbJ.s:345    .text:000000000000017c .LFE6
     /tmp/ccj96rbJ.s:1823   .debug_loc:00000000000001b9 .LLST7
     /tmp/ccj96rbJ.s:2055   .debug_str:0000000000000257 .LASF31
     /tmp/ccj96rbJ.s:1834   .debug_loc:00000000000001ef .LLST8
     /tmp/ccj96rbJ.s:2037   .debug_str:00000000000001ee .LASF32
GAS LISTING /tmp/ccj96rbJ.s 			page 21


     /tmp/ccj96rbJ.s:267    .text:000000000000011c .LFB5
     /tmp/ccj96rbJ.s:299    .text:0000000000000144 .LFE5
     /tmp/ccj96rbJ.s:1848   .debug_loc:0000000000000228 .LLST6
     /tmp/ccj96rbJ.s:2057   .debug_str:000000000000025c .LASF33
     /tmp/ccj96rbJ.s:235    .text:00000000000000fc .LFB4
     /tmp/ccj96rbJ.s:261    .text:000000000000011c .LFE4
     /tmp/ccj96rbJ.s:2067   .debug_str:0000000000000290 .LASF34
     /tmp/ccj96rbJ.s:201    .text:00000000000000d8 .LFB3
     /tmp/ccj96rbJ.s:229    .text:00000000000000fc .LFE3
     /tmp/ccj96rbJ.s:2015   .debug_str:00000000000000cd .LASF35
     /tmp/ccj96rbJ.s:108    .text:0000000000000058 .LFB2
     /tmp/ccj96rbJ.s:195    .text:00000000000000d8 .LFE2
     /tmp/ccj96rbJ.s:1859   .debug_loc:000000000000025e .LLST2
     /tmp/ccj96rbJ.s:2023   .debug_str:00000000000000f9 .LASF36
     /tmp/ccj96rbJ.s:1881   .debug_loc:00000000000002bd .LLST3
     /tmp/ccj96rbJ.s:1903   .debug_loc:000000000000031c .LLST4
     /tmp/ccj96rbJ.s:1993   .debug_str:0000000000000035 .LASF37
     /tmp/ccj96rbJ.s:1925   .debug_loc:000000000000037b .LLST5
     /tmp/ccj96rbJ.s:134    .text:000000000000008c .LVL8
     /tmp/ccj96rbJ.s:2053   .debug_str:000000000000024e .LASF38
     /tmp/ccj96rbJ.s:62     .text:000000000000002c .LFB1
     /tmp/ccj96rbJ.s:102    .text:0000000000000058 .LFE1
     /tmp/ccj96rbJ.s:1940   .debug_loc:00000000000003c4 .LLST1
     /tmp/ccj96rbJ.s:2029   .debug_str:0000000000000135 .LASF39
     /tmp/ccj96rbJ.s:2069   .debug_str:000000000000029c .LASF40
     /tmp/ccj96rbJ.s:11     .text:0000000000000000 .LFB0
     /tmp/ccj96rbJ.s:56     .text:000000000000002c .LFE0
     /tmp/ccj96rbJ.s:2071   .debug_str:00000000000002a6 .LASF41
     /tmp/ccj96rbJ.s:1954   .debug_loc:00000000000003fd .LLST0
     /tmp/ccj96rbJ.s:2059   .debug_str:000000000000026c .LASF42
     /tmp/ccj96rbJ.s:616    .text:0000000000000294 .LVL32
     /tmp/ccj96rbJ.s:628    .text:00000000000002ac .LVL33
     /tmp/ccj96rbJ.s:632    .text:00000000000002b0 .LVL34
     /tmp/ccj96rbJ.s:548    .text:0000000000000250 .LVL30
     /tmp/ccj96rbJ.s:559    .text:0000000000000264 .LVL31
     /tmp/ccj96rbJ.s:468    .text:00000000000001f4 .LVL27
     /tmp/ccj96rbJ.s:480    .text:000000000000020c .LVL28
     /tmp/ccj96rbJ.s:484    .text:0000000000000210 .LVL29
     /tmp/ccj96rbJ.s:430    .text:00000000000001cc .LVL25
     /tmp/ccj96rbJ.s:441    .text:00000000000001e0 .LVL26
     /tmp/ccj96rbJ.s:392    .text:00000000000001a4 .LVL23
     /tmp/ccj96rbJ.s:403    .text:00000000000001b8 .LVL24
     /tmp/ccj96rbJ.s:354    .text:000000000000017c .LVL21
     /tmp/ccj96rbJ.s:365    .text:0000000000000190 .LVL22
     /tmp/ccj96rbJ.s:308    .text:0000000000000144 .LVL18
     /tmp/ccj96rbJ.s:320    .text:000000000000015c .LVL19
     /tmp/ccj96rbJ.s:324    .text:0000000000000160 .LVL20
     /tmp/ccj96rbJ.s:270    .text:000000000000011c .LVL16
     /tmp/ccj96rbJ.s:281    .text:0000000000000130 .LVL17
     /tmp/ccj96rbJ.s:111    .text:0000000000000058 .LVL6
     /tmp/ccj96rbJ.s:132    .text:0000000000000084 .LVL7
     /tmp/ccj96rbJ.s:183    .text:00000000000000c8 .LVL13
     /tmp/ccj96rbJ.s:187    .text:00000000000000d0 .LVL14
     /tmp/ccj96rbJ.s:180    .text:00000000000000c4 .LVL12
     /tmp/ccj96rbJ.s:177    .text:00000000000000c0 .LVL11
     /tmp/ccj96rbJ.s:142    .text:0000000000000098 .LVL9
     /tmp/ccj96rbJ.s:166    .text:00000000000000b4 .LVL10
GAS LISTING /tmp/ccj96rbJ.s 			page 22


     /tmp/ccj96rbJ.s:192    .text:00000000000000d4 .LVL15
     /tmp/ccj96rbJ.s:65     .text:000000000000002c .LVL3
     /tmp/ccj96rbJ.s:94     .text:000000000000004c .LVL5
     /tmp/ccj96rbJ.s:15     .text:0000000000000000 .LVL0
     /tmp/ccj96rbJ.s:45     .text:0000000000000020 .LVL2
     /tmp/ccj96rbJ.s:659    .debug_info:0000000000000000 .Ldebug_info0

NO UNDEFINED SYMBOLS
