GAS LISTING /tmp/cc6CxKtm.s 			page 1


   1              		.file	"API.c"
   2              		.option nopic
   3              		.option norelax
   4              		.text
   5              	.Ltext0:
   6              		.cfi_sections	.debug_frame
   7              		.align	2
   8              		.globl	mem_alloc
  10              	mem_alloc:
  11              	.LFB0:
  12              		.file 1 "src/API.c"
   1:src/API.c     **** //
   2:src/API.c     **** // Created by os on 5/6/26.
   3:src/API.c     **** //
   4:src/API.c     **** 
   5:src/API.c     **** #include "../h/syscall_c.h"
   6:src/API.c     **** #include "../lib/hw.h"
   7:src/API.c     **** 
   8:src/API.c     **** void* mem_alloc(size_t size){
  13              		.loc 1 8 29
  14              		.cfi_startproc
  15              	.LVL0:
  16 0000 130101FF 		addi	sp,sp,-16
  17              		.cfi_def_cfa_offset 16
  18 0004 23348100 		sd	s0,8(sp)
  19              		.cfi_offset 8, -8
  20 0008 13040101 		addi	s0,sp,16
  21              		.cfi_def_cfa 8, 0
   9:src/API.c     ****     uint64 code=0x01;
  22              		.loc 1 9 5
  23              	.LVL1:
  10:src/API.c     ****     __asm__ volatile("mv a1,%[size]"::[size]"r"(size));
  24              		.loc 1 10 5
  25              	#APP
  26              	# 10 "src/API.c" 1
  11              	    __asm__ volatile("mv a0,%[code]"::[code]"r"(code));
  27              		mv a1,a0
  28              	# 0 "" 2
  29              		.loc 1 11 5
  30              	#NO_APP
  31 0010 93071000 		li	a5,1
  32              	#APP
  33              	# 11 "src/API.c" 1
  12              	    __asm__ volatile("ecall");
  34              		mv a0,a5
  35              	# 0 "" 2
  36              		.loc 1 12 5
  37              	# 12 "src/API.c" 1
  13              	    void* value;
  38              		ecall
  39              	# 0 "" 2
  40              		.loc 1 13 5
  14:src/API.c     ****     __asm__ volatile ("mv %0, a0" : "=r"(value));
  41              		.loc 1 14 5
  42              	# 14 "src/API.c" 1
  15              	    return (void*)value;
  43              		mv a0, a0
GAS LISTING /tmp/cc6CxKtm.s 			page 2


  44              	# 0 "" 2
  45              	.LVL2:
  46              		.loc 1 15 5
  16:src/API.c     **** }
  47              		.loc 1 16 1 is_stmt 0
  48              	#NO_APP
  49 0020 03348100 		ld	s0,8(sp)
  50              		.cfi_restore 8
  51              		.cfi_def_cfa 2, 16
  52 0024 13010101 		addi	sp,sp,16
  53              		.cfi_def_cfa_offset 0
  54 0028 67800000 		jr	ra
  55              		.cfi_endproc
  56              	.LFE0:
  58              		.align	2
  59              		.globl	mem_free
  61              	mem_free:
  62              	.LFB1:
  17:src/API.c     **** 
  18:src/API.c     **** int mem_free(void* ptr){
  63              		.loc 1 18 24 is_stmt 1
  64              		.cfi_startproc
  65              	.LVL3:
  66 002c 130101FF 		addi	sp,sp,-16
  67              		.cfi_def_cfa_offset 16
  68 0030 23348100 		sd	s0,8(sp)
  69              		.cfi_offset 8, -8
  70 0034 13040101 		addi	s0,sp,16
  71              		.cfi_def_cfa 8, 0
  19:src/API.c     ****     uint64 code=0x02;
  72              		.loc 1 19 5
  73              	.LVL4:
  20:src/API.c     ****     __asm__ volatile("mv a1,a0");
  74              		.loc 1 20 5
  75              	#APP
  76              	# 20 "src/API.c" 1
  21              	    __asm__ volatile("mv a0,%[code]"::[code]"r"(code));
  77              		mv a1,a0
  78              	# 0 "" 2
  79              		.loc 1 21 5
  80              	#NO_APP
  81 003c 93072000 		li	a5,2
  82              	#APP
  83              	# 21 "src/API.c" 1
  22              	    __asm__ volatile("ecall");
  84              		mv a0,a5
  85              	# 0 "" 2
  86              		.loc 1 22 5
  87              	# 22 "src/API.c" 1
  23              	    return 0;
  88              		ecall
  89              	# 0 "" 2
  90              		.loc 1 23 5
  24:src/API.c     **** }
  91              		.loc 1 24 1 is_stmt 0
  92              	#NO_APP
  93 0048 13050000 		li	a0,0
GAS LISTING /tmp/cc6CxKtm.s 			page 3


  94              	.LVL5:
  95 004c 03348100 		ld	s0,8(sp)
  96              		.cfi_restore 8
  97              		.cfi_def_cfa 2, 16
  98 0050 13010101 		addi	sp,sp,16
  99              		.cfi_def_cfa_offset 0
 100 0054 67800000 		jr	ra
 101              		.cfi_endproc
 102              	.LFE1:
 104              		.align	2
 105              		.globl	thread_create
 107              	thread_create:
 108              	.LFB2:
  25:src/API.c     **** 
  26:src/API.c     **** int thread_create(thread_t* handle, void (*start_routine)(void*), void* arg) {
 109              		.loc 1 26 78 is_stmt 1
 110              		.cfi_startproc
 111              	.LVL6:
 112 0058 130101FD 		addi	sp,sp,-48
 113              		.cfi_def_cfa_offset 48
 114 005c 23341102 		sd	ra,40(sp)
 115 0060 23308102 		sd	s0,32(sp)
 116 0064 233C9100 		sd	s1,24(sp)
 117 0068 23382101 		sd	s2,16(sp)
 118 006c 23343101 		sd	s3,8(sp)
 119              		.cfi_offset 1, -8
 120              		.cfi_offset 8, -16
 121              		.cfi_offset 9, -24
 122              		.cfi_offset 18, -32
 123              		.cfi_offset 19, -40
 124 0070 13040103 		addi	s0,sp,48
 125              		.cfi_def_cfa 8, 0
 126 0074 93090500 		mv	s3,a0
 127 0078 13890500 		mv	s2,a1
 128 007c 93040600 		mv	s1,a2
  27:src/API.c     ****     // allocate stack separately; pass top pointer as a4 (stack_space)
  28:src/API.c     ****     void* stack = mem_alloc(DEFAULT_STACK_SIZE * sizeof(size_t));
 129              		.loc 1 28 5
 130              		.loc 1 28 19 is_stmt 0
 131 0080 37850000 		li	a0,32768
 132              	.LVL7:
 133 0084 97000000 		call	mem_alloc
 133      E7800000 
 134              	.LVL8:
  29:src/API.c     ****     if (!stack) return -1;
 135              		.loc 1 29 5 is_stmt 1
 136              		.loc 1 29 8 is_stmt 0
 137 008c 63020504 		beqz	a0,.L7
 138 0090 93070500 		mv	a5,a0
  30:src/API.c     ****     register size_t a0 asm("a0") = 0x11;
 139              		.loc 1 30 5 is_stmt 1
 140              		.loc 1 30 21 is_stmt 0
 141 0094 13051001 		li	a0,17
 142              	.LVL9:
  31:src/API.c     ****     register size_t a1 asm("a1") = (size_t)handle;
 143              		.loc 1 31 5 is_stmt 1
 144              		.loc 1 31 21 is_stmt 0
GAS LISTING /tmp/cc6CxKtm.s 			page 4


 145 0098 93850900 		mv	a1,s3
  32:src/API.c     ****     register size_t a2 asm("a2") = (size_t)start_routine;
 146              		.loc 1 32 5 is_stmt 1
 147              		.loc 1 32 21 is_stmt 0
 148 009c 13060900 		mv	a2,s2
  33:src/API.c     ****     register size_t a3 asm("a3") = (size_t)arg;
 149              		.loc 1 33 5 is_stmt 1
 150              		.loc 1 33 21 is_stmt 0
 151 00a0 93860400 		mv	a3,s1
  34:src/API.c     ****     register size_t a4 asm("a4") = (size_t)stack + DEFAULT_STACK_SIZE * sizeof(size_t);
 152              		.loc 1 34 5 is_stmt 1
 153              		.loc 1 34 21 is_stmt 0
 154 00a4 37870000 		li	a4,32768
 155 00a8 3387E700 		add	a4,a5,a4
  35:src/API.c     ****     register size_t a5 asm("a5") = (size_t)stack;
 156              		.loc 1 35 5 is_stmt 1
  36:src/API.c     ****     __asm__ volatile("ecall"
 157              		.loc 1 36 5
 158              	#APP
 159              	# 36 "src/API.c" 1
  37              	        : "+r"(a0)
  38:src/API.c     ****         : "r"(a1), "r"(a2), "r"(a3), "r"(a4), "r"(a5)
  39:src/API.c     ****     );
  40:src/API.c     ****     return (int)a0;
 160              		ecall
 161              	# 0 "" 2
 162              		.loc 1 40 5
 163              		.loc 1 40 12 is_stmt 0
 164              	#NO_APP
 165 00b0 1B050500 		sext.w	a0,a0
 166              	.LVL10:
 167              	.L6:
  41:src/API.c     **** }
 168              		.loc 1 41 1
 169 00b4 83308102 		ld	ra,40(sp)
 170              		.cfi_remember_state
 171              		.cfi_restore 1
 172 00b8 03340102 		ld	s0,32(sp)
 173              		.cfi_restore 8
 174              		.cfi_def_cfa 2, 48
 175 00bc 83348101 		ld	s1,24(sp)
 176              		.cfi_restore 9
 177              	.LVL11:
 178 00c0 03390101 		ld	s2,16(sp)
 179              		.cfi_restore 18
 180              	.LVL12:
 181 00c4 83398100 		ld	s3,8(sp)
 182              		.cfi_restore 19
 183              	.LVL13:
 184 00c8 13010103 		addi	sp,sp,48
 185              		.cfi_def_cfa_offset 0
 186 00cc 67800000 		jr	ra
 187              	.LVL14:
 188              	.L7:
 189              		.cfi_restore_state
  29:src/API.c     ****     register size_t a0 asm("a0") = 0x11;
 190              		.loc 1 29 24
GAS LISTING /tmp/cc6CxKtm.s 			page 5


 191 00d0 1305F0FF 		li	a0,-1
 192              	.LVL15:
 193 00d4 6FF01FFE 		j	.L6
 194              		.cfi_endproc
 195              	.LFE2:
 197              		.align	2
 198              		.globl	join
 200              	join:
 201              	.LFB3:
  42:src/API.c     **** 
  43:src/API.c     **** void join(thread_t* thread) {
 202              		.loc 1 43 29 is_stmt 1
 203              		.cfi_startproc
 204              	.LVL16:
 205 00d8 130101FF 		addi	sp,sp,-16
 206              		.cfi_def_cfa_offset 16
 207 00dc 23348100 		sd	s0,8(sp)
 208              		.cfi_offset 8, -8
 209 00e0 13040101 		addi	s0,sp,16
 210              		.cfi_def_cfa 8, 0
 211 00e4 93070500 		mv	a5,a0
  44:src/API.c     ****     register size_t a0 asm("a0") = 0x14;
 212              		.loc 1 44 5
 213              		.loc 1 44 21 is_stmt 0
 214 00e8 13054001 		li	a0,20
 215              	.LVL17:
  45:src/API.c     ****     register size_t a1 asm("a1") = (size_t)*thread;
 216              		.loc 1 45 5 is_stmt 1
 217              		.loc 1 45 21 is_stmt 0
 218 00ec 83B50700 		ld	a1,0(a5)
  46:src/API.c     ****     __asm__ volatile("ecall" : "+r"(a0):"r"(a1));
 219              		.loc 1 46 5 is_stmt 1
 220              	#APP
 221              	# 46 "src/API.c" 1
  47              	}
 222              		ecall
 223              	# 0 "" 2
 224              		.loc 1 47 1 is_stmt 0
 225              	#NO_APP
 226 00f4 03348100 		ld	s0,8(sp)
 227              		.cfi_restore 8
 228              		.cfi_def_cfa 2, 16
 229 00f8 13010101 		addi	sp,sp,16
 230              		.cfi_def_cfa_offset 0
 231 00fc 67800000 		jr	ra
 232              		.cfi_endproc
 233              	.LFE3:
 235              		.align	2
 236              		.globl	thread_exit
 238              	thread_exit:
 239              	.LFB4:
  48:src/API.c     **** 
  49:src/API.c     **** int thread_exit(void) {
 240              		.loc 1 49 23 is_stmt 1
 241              		.cfi_startproc
 242 0100 130101FF 		addi	sp,sp,-16
 243              		.cfi_def_cfa_offset 16
GAS LISTING /tmp/cc6CxKtm.s 			page 6


 244 0104 23348100 		sd	s0,8(sp)
 245              		.cfi_offset 8, -8
 246 0108 13040101 		addi	s0,sp,16
 247              		.cfi_def_cfa 8, 0
  50:src/API.c     ****     register size_t a0 asm("a0") = 0x12;
 248              		.loc 1 50 5
 249              		.loc 1 50 21 is_stmt 0
 250 010c 13052001 		li	a0,18
  51:src/API.c     ****     __asm__ volatile("ecall" : "+r"(a0));
 251              		.loc 1 51 5 is_stmt 1
 252              	#APP
 253              	# 51 "src/API.c" 1
  52              	    return (int)a0;
 254              		ecall
 255              	# 0 "" 2
 256              		.loc 1 52 5
  53:src/API.c     **** }
 257              		.loc 1 53 1 is_stmt 0
 258              	#NO_APP
 259 0114 1B050500 		sext.w	a0,a0
 260 0118 03348100 		ld	s0,8(sp)
 261              		.cfi_restore 8
 262              		.cfi_def_cfa 2, 16
 263 011c 13010101 		addi	sp,sp,16
 264              		.cfi_def_cfa_offset 0
 265 0120 67800000 		jr	ra
 266              		.cfi_endproc
 267              	.LFE4:
 269              		.align	2
 270              		.globl	thread_dispatch
 272              	thread_dispatch:
 273              	.LFB5:
  54:src/API.c     **** 
  55:src/API.c     **** void thread_dispatch(void) {
 274              		.loc 1 55 28 is_stmt 1
 275              		.cfi_startproc
 276 0124 130101FF 		addi	sp,sp,-16
 277              		.cfi_def_cfa_offset 16
 278 0128 23348100 		sd	s0,8(sp)
 279              		.cfi_offset 8, -8
 280 012c 13040101 		addi	s0,sp,16
 281              		.cfi_def_cfa 8, 0
  56:src/API.c     ****     register size_t a0 asm("a0") = 0x13;
 282              		.loc 1 56 5
 283              		.loc 1 56 21 is_stmt 0
 284 0130 13053001 		li	a0,19
  57:src/API.c     ****     __asm__ volatile("ecall" : "+r"(a0));
 285              		.loc 1 57 5 is_stmt 1
 286              	#APP
 287              	# 57 "src/API.c" 1
  58              	}
 288              		ecall
 289              	# 0 "" 2
 290              		.loc 1 58 1 is_stmt 0
 291              	#NO_APP
 292 0138 03348100 		ld	s0,8(sp)
 293              		.cfi_restore 8
GAS LISTING /tmp/cc6CxKtm.s 			page 7


 294              		.cfi_def_cfa 2, 16
 295 013c 13010101 		addi	sp,sp,16
 296              		.cfi_def_cfa_offset 0
 297 0140 67800000 		jr	ra
 298              		.cfi_endproc
 299              	.LFE5:
 301              		.align	2
 302              		.globl	time_sleep
 304              	time_sleep:
 305              	.LFB6:
  59:src/API.c     **** 
  60:src/API.c     **** int time_sleep(time_t dur) {
 306              		.loc 1 60 28 is_stmt 1
 307              		.cfi_startproc
 308              	.LVL18:
 309 0144 130101FF 		addi	sp,sp,-16
 310              		.cfi_def_cfa_offset 16
 311 0148 23348100 		sd	s0,8(sp)
 312              		.cfi_offset 8, -8
 313 014c 13040101 		addi	s0,sp,16
 314              		.cfi_def_cfa 8, 0
 315 0150 93050500 		mv	a1,a0
  61:src/API.c     ****     register size_t a0 asm("a0") = 0x31;
 316              		.loc 1 61 5
 317              		.loc 1 61 21 is_stmt 0
 318 0154 13051003 		li	a0,49
 319              	.LVL19:
  62:src/API.c     ****     register size_t a1 asm("a1") = (size_t)dur;
 320              		.loc 1 62 5 is_stmt 1
  63:src/API.c     ****     __asm__ volatile("ecall" : "+r"(a0) : "r"(a1));
 321              		.loc 1 63 5
 322              	#APP
 323              	# 63 "src/API.c" 1
  64              	    return (int)a0;
 324              		ecall
 325              	# 0 "" 2
 326              		.loc 1 64 5
  65:src/API.c     **** }
 327              		.loc 1 65 1 is_stmt 0
 328              	#NO_APP
 329 015c 1B050500 		sext.w	a0,a0
 330 0160 03348100 		ld	s0,8(sp)
 331              		.cfi_restore 8
 332              		.cfi_def_cfa 2, 16
 333 0164 13010101 		addi	sp,sp,16
 334              		.cfi_def_cfa_offset 0
 335 0168 67800000 		jr	ra
 336              		.cfi_endproc
 337              	.LFE6:
 339              		.align	2
 340              		.globl	sem_open
 342              	sem_open:
 343              	.LFB7:
  66:src/API.c     **** 
  67:src/API.c     **** int sem_open(sem_t* handle, unsigned init) {
 344              		.loc 1 67 44 is_stmt 1
 345              		.cfi_startproc
GAS LISTING /tmp/cc6CxKtm.s 			page 8


 346              	.LVL20:
 347 016c 130101FF 		addi	sp,sp,-16
 348              		.cfi_def_cfa_offset 16
 349 0170 23348100 		sd	s0,8(sp)
 350              		.cfi_offset 8, -8
 351 0174 13040101 		addi	s0,sp,16
 352              		.cfi_def_cfa 8, 0
 353 0178 93070500 		mv	a5,a0
 354 017c 13860500 		mv	a2,a1
  68:src/API.c     ****     register size_t a0 asm("a0") = 0x21;
 355              		.loc 1 68 5
 356              		.loc 1 68 21 is_stmt 0
 357 0180 13051002 		li	a0,33
 358              	.LVL21:
  69:src/API.c     ****     register size_t a1 asm("a1") = (size_t)handle;
 359              		.loc 1 69 5 is_stmt 1
 360              		.loc 1 69 21 is_stmt 0
 361 0184 93850700 		mv	a1,a5
 362              	.LVL22:
  70:src/API.c     ****     register size_t a2 asm("a2") = (size_t)init;
 363              		.loc 1 70 5 is_stmt 1
 364              		.loc 1 70 21 is_stmt 0
 365 0188 13160602 		slli	a2,a2,32
 366 018c 13560602 		srli	a2,a2,32
  71:src/API.c     ****     __asm__ volatile("ecall" : "+r"(a0) : "r"(a1), "r"(a2));
 367              		.loc 1 71 5 is_stmt 1
 368              	#APP
 369              	# 71 "src/API.c" 1
  72              	    return (int)a0;
 370              		ecall
 371              	# 0 "" 2
 372              		.loc 1 72 5
  73:src/API.c     **** }
 373              		.loc 1 73 1 is_stmt 0
 374              	#NO_APP
 375 0194 1B050500 		sext.w	a0,a0
 376 0198 03348100 		ld	s0,8(sp)
 377              		.cfi_restore 8
 378              		.cfi_def_cfa 2, 16
 379 019c 13010101 		addi	sp,sp,16
 380              		.cfi_def_cfa_offset 0
 381 01a0 67800000 		jr	ra
 382              		.cfi_endproc
 383              	.LFE7:
 385              		.align	2
 386              		.globl	sem_close
 388              	sem_close:
 389              	.LFB8:
  74:src/API.c     **** 
  75:src/API.c     **** int sem_close(sem_t handle) {
 390              		.loc 1 75 29 is_stmt 1
 391              		.cfi_startproc
 392              	.LVL23:
 393 01a4 130101FF 		addi	sp,sp,-16
 394              		.cfi_def_cfa_offset 16
 395 01a8 23348100 		sd	s0,8(sp)
 396              		.cfi_offset 8, -8
GAS LISTING /tmp/cc6CxKtm.s 			page 9


 397 01ac 13040101 		addi	s0,sp,16
 398              		.cfi_def_cfa 8, 0
 399 01b0 93050500 		mv	a1,a0
  76:src/API.c     ****     register size_t a0 asm("a0") = 0x22;
 400              		.loc 1 76 5
 401              		.loc 1 76 21 is_stmt 0
 402 01b4 13052002 		li	a0,34
 403              	.LVL24:
  77:src/API.c     ****     register size_t a1 asm("a1") = (size_t)handle;
 404              		.loc 1 77 5 is_stmt 1
  78:src/API.c     ****     __asm__ volatile("ecall" : "+r"(a0) : "r"(a1));
 405              		.loc 1 78 5
 406              	#APP
 407              	# 78 "src/API.c" 1
  79              	    return (int)a0;
 408              		ecall
 409              	# 0 "" 2
 410              		.loc 1 79 5
  80:src/API.c     **** }
 411              		.loc 1 80 1 is_stmt 0
 412              	#NO_APP
 413 01bc 1B050500 		sext.w	a0,a0
 414 01c0 03348100 		ld	s0,8(sp)
 415              		.cfi_restore 8
 416              		.cfi_def_cfa 2, 16
 417 01c4 13010101 		addi	sp,sp,16
 418              		.cfi_def_cfa_offset 0
 419 01c8 67800000 		jr	ra
 420              		.cfi_endproc
 421              	.LFE8:
 423              		.align	2
 424              		.globl	sem_wait
 426              	sem_wait:
 427              	.LFB9:
  81:src/API.c     **** 
  82:src/API.c     **** int sem_wait(sem_t id) {
 428              		.loc 1 82 24 is_stmt 1
 429              		.cfi_startproc
 430              	.LVL25:
 431 01cc 130101FF 		addi	sp,sp,-16
 432              		.cfi_def_cfa_offset 16
 433 01d0 23348100 		sd	s0,8(sp)
 434              		.cfi_offset 8, -8
 435 01d4 13040101 		addi	s0,sp,16
 436              		.cfi_def_cfa 8, 0
 437 01d8 93050500 		mv	a1,a0
  83:src/API.c     ****     register size_t a0 asm("a0") = 0x23;
 438              		.loc 1 83 5
 439              		.loc 1 83 21 is_stmt 0
 440 01dc 13053002 		li	a0,35
 441              	.LVL26:
  84:src/API.c     ****     register size_t a1 asm("a1") = (size_t)id;
 442              		.loc 1 84 5 is_stmt 1
  85:src/API.c     ****     __asm__ volatile("ecall" : "+r"(a0) : "r"(a1));
 443              		.loc 1 85 5
 444              	#APP
 445              	# 85 "src/API.c" 1
GAS LISTING /tmp/cc6CxKtm.s 			page 10


  86              	    return (int)a0;
 446              		ecall
 447              	# 0 "" 2
 448              		.loc 1 86 5
  87:src/API.c     **** }
 449              		.loc 1 87 1 is_stmt 0
 450              	#NO_APP
 451 01e4 1B050500 		sext.w	a0,a0
 452 01e8 03348100 		ld	s0,8(sp)
 453              		.cfi_restore 8
 454              		.cfi_def_cfa 2, 16
 455 01ec 13010101 		addi	sp,sp,16
 456              		.cfi_def_cfa_offset 0
 457 01f0 67800000 		jr	ra
 458              		.cfi_endproc
 459              	.LFE9:
 461              		.align	2
 462              		.globl	sem_signal
 464              	sem_signal:
 465              	.LFB10:
  88:src/API.c     **** 
  89:src/API.c     **** int sem_signal(sem_t id) {
 466              		.loc 1 89 26 is_stmt 1
 467              		.cfi_startproc
 468              	.LVL27:
 469 01f4 130101FF 		addi	sp,sp,-16
 470              		.cfi_def_cfa_offset 16
 471 01f8 23348100 		sd	s0,8(sp)
 472              		.cfi_offset 8, -8
 473 01fc 13040101 		addi	s0,sp,16
 474              		.cfi_def_cfa 8, 0
 475 0200 93050500 		mv	a1,a0
  90:src/API.c     ****     register size_t a0 asm("a0") = 0x24;
 476              		.loc 1 90 5
 477              		.loc 1 90 21 is_stmt 0
 478 0204 13054002 		li	a0,36
 479              	.LVL28:
  91:src/API.c     ****     register size_t a1 asm("a1") = (size_t)id;
 480              		.loc 1 91 5 is_stmt 1
  92:src/API.c     ****     __asm__ volatile("ecall" : "+r"(a0) : "r"(a1));
 481              		.loc 1 92 5
 482              	#APP
 483              	# 92 "src/API.c" 1
  93              	    return (int)a0;
 484              		ecall
 485              	# 0 "" 2
 486              		.loc 1 93 5
  94:src/API.c     **** }
 487              		.loc 1 94 1 is_stmt 0
 488              	#NO_APP
 489 020c 1B050500 		sext.w	a0,a0
 490 0210 03348100 		ld	s0,8(sp)
 491              		.cfi_restore 8
 492              		.cfi_def_cfa 2, 16
 493 0214 13010101 		addi	sp,sp,16
 494              		.cfi_def_cfa_offset 0
 495 0218 67800000 		jr	ra
GAS LISTING /tmp/cc6CxKtm.s 			page 11


 496              		.cfi_endproc
 497              	.LFE10:
 499              		.align	2
 500              		.globl	sem_wait_n
 502              	sem_wait_n:
 503              	.LFB11:
  95:src/API.c     **** 
  96:src/API.c     **** int sem_wait_n(sem_t id, unsigned n) {
 504              		.loc 1 96 38 is_stmt 1
 505              		.cfi_startproc
 506              	.LVL29:
 507 021c 130101FF 		addi	sp,sp,-16
 508              		.cfi_def_cfa_offset 16
 509 0220 23348100 		sd	s0,8(sp)
 510              		.cfi_offset 8, -8
 511 0224 13040101 		addi	s0,sp,16
 512              		.cfi_def_cfa 8, 0
 513 0228 93070500 		mv	a5,a0
 514 022c 13860500 		mv	a2,a1
  97:src/API.c     ****     register size_t a0 asm("a0") = 0x25;
 515              		.loc 1 97 5
 516              		.loc 1 97 21 is_stmt 0
 517 0230 13055002 		li	a0,37
 518              	.LVL30:
  98:src/API.c     ****     register size_t a1 asm("a1") = (size_t)id;
 519              		.loc 1 98 5 is_stmt 1
 520              		.loc 1 98 21 is_stmt 0
 521 0234 93850700 		mv	a1,a5
 522              	.LVL31:
  99:src/API.c     ****     register size_t a2 asm("a2") = (size_t)n;
 523              		.loc 1 99 5 is_stmt 1
 524              		.loc 1 99 21 is_stmt 0
 525 0238 13160602 		slli	a2,a2,32
 526 023c 13560602 		srli	a2,a2,32
 100:src/API.c     ****     __asm__ volatile("ecall" : "+r"(a0) : "r"(a1), "r"(a2));
 527              		.loc 1 100 5 is_stmt 1
 528              	#APP
 529              	# 100 "src/API.c" 1
 101              	    return (int)a0;
 530              		ecall
 531              	# 0 "" 2
 532              		.loc 1 101 5
 102:src/API.c     **** }
 533              		.loc 1 102 1 is_stmt 0
 534              	#NO_APP
 535 0244 1B050500 		sext.w	a0,a0
 536 0248 03348100 		ld	s0,8(sp)
 537              		.cfi_restore 8
 538              		.cfi_def_cfa 2, 16
 539 024c 13010101 		addi	sp,sp,16
 540              		.cfi_def_cfa_offset 0
 541 0250 67800000 		jr	ra
 542              		.cfi_endproc
 543              	.LFE11:
 545              		.align	2
 546              		.globl	getc
 548              	getc:
GAS LISTING /tmp/cc6CxKtm.s 			page 12


 549              	.LFB12:
 103:src/API.c     **** 
 104:src/API.c     **** char getc(void) {
 550              		.loc 1 104 17 is_stmt 1
 551              		.cfi_startproc
 552 0254 130101FF 		addi	sp,sp,-16
 553              		.cfi_def_cfa_offset 16
 554 0258 23348100 		sd	s0,8(sp)
 555              		.cfi_offset 8, -8
 556 025c 13040101 		addi	s0,sp,16
 557              		.cfi_def_cfa 8, 0
 105:src/API.c     ****     register size_t a0 asm("a0") = 0x41;
 558              		.loc 1 105 5
 559              		.loc 1 105 21 is_stmt 0
 560 0260 13051004 		li	a0,65
 106:src/API.c     ****     __asm__ volatile("ecall" : "+r"(a0));
 561              		.loc 1 106 5 is_stmt 1
 562              	#APP
 563              	# 106 "src/API.c" 1
 107              	    return (char)a0;
 564              		ecall
 565              	# 0 "" 2
 566              		.loc 1 107 5
 108:src/API.c     **** }
 567              		.loc 1 108 1 is_stmt 0
 568              	#NO_APP
 569 0268 1375F50F 		andi	a0,a0,0xff
 570 026c 03348100 		ld	s0,8(sp)
 571              		.cfi_restore 8
 572              		.cfi_def_cfa 2, 16
 573 0270 13010101 		addi	sp,sp,16
 574              		.cfi_def_cfa_offset 0
 575 0274 67800000 		jr	ra
 576              		.cfi_endproc
 577              	.LFE12:
 579              		.align	2
 580              		.globl	putc
 582              	putc:
 583              	.LFB13:
 109:src/API.c     **** 
 110:src/API.c     **** void putc(char c) {
 584              		.loc 1 110 19 is_stmt 1
 585              		.cfi_startproc
 586              	.LVL32:
 587 0278 130101FF 		addi	sp,sp,-16
 588              		.cfi_def_cfa_offset 16
 589 027c 23348100 		sd	s0,8(sp)
 590              		.cfi_offset 8, -8
 591 0280 13040101 		addi	s0,sp,16
 592              		.cfi_def_cfa 8, 0
 593 0284 93050500 		mv	a1,a0
 111:src/API.c     ****     register size_t a0 asm("a0") = 0x42;
 594              		.loc 1 111 5
 595              		.loc 1 111 21 is_stmt 0
 596 0288 13052004 		li	a0,66
 597              	.LVL33:
 112:src/API.c     ****     register size_t a1 asm("a1") = (size_t)(unsigned char)c;
GAS LISTING /tmp/cc6CxKtm.s 			page 13


 598              		.loc 1 112 5 is_stmt 1
 113:src/API.c     ****     __asm__ volatile("ecall" : "+r"(a0) : "r"(a1));
 599              		.loc 1 113 5
 600              	#APP
 601              	# 113 "src/API.c" 1
 114              	}
 602              		ecall
 603              	# 0 "" 2
 604              		.loc 1 114 1 is_stmt 0
 605              	#NO_APP
 606 0290 03348100 		ld	s0,8(sp)
 607              		.cfi_restore 8
 608              		.cfi_def_cfa 2, 16
 609 0294 13010101 		addi	sp,sp,16
 610              		.cfi_def_cfa_offset 0
 611 0298 67800000 		jr	ra
 612              		.cfi_endproc
 613              	.LFE13:
 615              		.align	2
 616              		.globl	sys_halt
 618              	sys_halt:
 619              	.LFB14:
 115:src/API.c     **** 
 116:src/API.c     **** void sys_halt(void) {
 620              		.loc 1 116 21 is_stmt 1
 621              		.cfi_startproc
 622 029c 130101FF 		addi	sp,sp,-16
 623              		.cfi_def_cfa_offset 16
 624 02a0 23348100 		sd	s0,8(sp)
 625              		.cfi_offset 8, -8
 626 02a4 13040101 		addi	s0,sp,16
 627              		.cfi_def_cfa 8, 0
 117:src/API.c     ****     register size_t a0 asm("a0") = 0xFF;
 628              		.loc 1 117 5
 629              		.loc 1 117 21 is_stmt 0
 630 02a8 1305F00F 		li	a0,255
 118:src/API.c     ****     __asm__ volatile("ecall" : "+r"(a0));
 631              		.loc 1 118 5 is_stmt 1
 632              	#APP
 633              	# 118 "src/API.c" 1
 119              	}
 634              		ecall
 635              	# 0 "" 2
 636              		.loc 1 119 1 is_stmt 0
 637              	#NO_APP
 638 02b0 03348100 		ld	s0,8(sp)
 639              		.cfi_restore 8
 640              		.cfi_def_cfa 2, 16
 641 02b4 13010101 		addi	sp,sp,16
 642              		.cfi_def_cfa_offset 0
 643 02b8 67800000 		jr	ra
 644              		.cfi_endproc
 645              	.LFE14:
 647              		.align	2
 648              		.globl	sem_signal_n
 650              	sem_signal_n:
 651              	.LFB15:
GAS LISTING /tmp/cc6CxKtm.s 			page 14


 120:src/API.c     **** 
 121:src/API.c     **** int sem_signal_n(sem_t id, unsigned n) {
 652              		.loc 1 121 40 is_stmt 1
 653              		.cfi_startproc
 654              	.LVL34:
 655 02bc 130101FF 		addi	sp,sp,-16
 656              		.cfi_def_cfa_offset 16
 657 02c0 23348100 		sd	s0,8(sp)
 658              		.cfi_offset 8, -8
 659 02c4 13040101 		addi	s0,sp,16
 660              		.cfi_def_cfa 8, 0
 661 02c8 93070500 		mv	a5,a0
 662 02cc 13860500 		mv	a2,a1
 122:src/API.c     ****     register size_t a0 asm("a0") = 0x26;
 663              		.loc 1 122 5
 664              		.loc 1 122 21 is_stmt 0
 665 02d0 13056002 		li	a0,38
 666              	.LVL35:
 123:src/API.c     ****     register size_t a1 asm("a1") = (size_t)id;
 667              		.loc 1 123 5 is_stmt 1
 668              		.loc 1 123 21 is_stmt 0
 669 02d4 93850700 		mv	a1,a5
 670              	.LVL36:
 124:src/API.c     ****     register size_t a2 asm("a2") = (size_t)n;
 671              		.loc 1 124 5 is_stmt 1
 672              		.loc 1 124 21 is_stmt 0
 673 02d8 13160602 		slli	a2,a2,32
 674 02dc 13560602 		srli	a2,a2,32
 125:src/API.c     ****     __asm__ volatile("ecall" : "+r"(a0) : "r"(a1), "r"(a2));
 675              		.loc 1 125 5 is_stmt 1
 676              	#APP
 677              	# 125 "src/API.c" 1
 126              	    return (int)a0;
 678              		ecall
 679              	# 0 "" 2
 680              		.loc 1 126 5
 127:src/API.c     **** }...
 681              		.loc 1 127 1 is_stmt 0
 682              	#NO_APP
 683 02e4 1B050500 		sext.w	a0,a0
 684 02e8 03348100 		ld	s0,8(sp)
 685              		.cfi_restore 8
 686              		.cfi_def_cfa 2, 16
 687 02ec 13010101 		addi	sp,sp,16
 688              		.cfi_def_cfa_offset 0
 689 02f0 67800000 		jr	ra
 690              		.cfi_endproc
 691              	.LFE15:
 693              	.Letext0:
 694              		.file 2 "src/../h/../lib/hw.h"
 695              		.file 3 "src/../h/syscall_c.h"
GAS LISTING /tmp/cc6CxKtm.s 			page 15


DEFINED SYMBOLS
                            *ABS*:0000000000000000 API.c
     /tmp/cc6CxKtm.s:10     .text:0000000000000000 mem_alloc
     /tmp/cc6CxKtm.s:14     .text:0000000000000000 .L0 
     /tmp/cc6CxKtm.s:16     .text:0000000000000000 .L0 
     /tmp/cc6CxKtm.s:17     .text:0000000000000004 .L0 
     /tmp/cc6CxKtm.s:19     .text:0000000000000008 .L0 
     /tmp/cc6CxKtm.s:21     .text:000000000000000c .L0 
     /tmp/cc6CxKtm.s:24     .text:000000000000000c .L0 
           src/API.c:10     .text:000000000000000c .L0 
     /tmp/cc6CxKtm.s:31     .text:0000000000000010 .L0 
           src/API.c:12     .text:0000000000000018 .L0 
     /tmp/cc6CxKtm.s:41     .text:000000000000001c .L0 
           src/API.c:14     .text:000000000000001c .L0 
     /tmp/cc6CxKtm.s:47     .text:0000000000000020 .L0 
     /tmp/cc6CxKtm.s:49     .text:0000000000000020 .L0 
     /tmp/cc6CxKtm.s:50     .text:0000000000000024 .L0 
     /tmp/cc6CxKtm.s:51     .text:0000000000000024 .L0 
     /tmp/cc6CxKtm.s:53     .text:0000000000000028 .L0 
     /tmp/cc6CxKtm.s:55     .text:000000000000002c .L0 
     /tmp/cc6CxKtm.s:61     .text:000000000000002c mem_free
     /tmp/cc6CxKtm.s:64     .text:000000000000002c .L0 
     /tmp/cc6CxKtm.s:66     .text:000000000000002c .L0 
     /tmp/cc6CxKtm.s:67     .text:0000000000000030 .L0 
     /tmp/cc6CxKtm.s:69     .text:0000000000000034 .L0 
     /tmp/cc6CxKtm.s:71     .text:0000000000000038 .L0 
     /tmp/cc6CxKtm.s:74     .text:0000000000000038 .L0 
           src/API.c:20     .text:0000000000000038 .L0 
     /tmp/cc6CxKtm.s:81     .text:000000000000003c .L0 
           src/API.c:22     .text:0000000000000044 .L0 
     /tmp/cc6CxKtm.s:91     .text:0000000000000048 .L0 
     /tmp/cc6CxKtm.s:93     .text:0000000000000048 .L0 
     /tmp/cc6CxKtm.s:96     .text:0000000000000050 .L0 
     /tmp/cc6CxKtm.s:97     .text:0000000000000050 .L0 
     /tmp/cc6CxKtm.s:99     .text:0000000000000054 .L0 
     /tmp/cc6CxKtm.s:101    .text:0000000000000058 .L0 
     /tmp/cc6CxKtm.s:107    .text:0000000000000058 thread_create
     /tmp/cc6CxKtm.s:110    .text:0000000000000058 .L0 
     /tmp/cc6CxKtm.s:112    .text:0000000000000058 .L0 
     /tmp/cc6CxKtm.s:113    .text:000000000000005c .L0 
     /tmp/cc6CxKtm.s:119    .text:0000000000000070 .L0 
     /tmp/cc6CxKtm.s:120    .text:0000000000000070 .L0 
     /tmp/cc6CxKtm.s:121    .text:0000000000000070 .L0 
     /tmp/cc6CxKtm.s:122    .text:0000000000000070 .L0 
     /tmp/cc6CxKtm.s:123    .text:0000000000000070 .L0 
     /tmp/cc6CxKtm.s:125    .text:0000000000000074 .L0 
     /tmp/cc6CxKtm.s:130    .text:0000000000000080 .L0 
     /tmp/cc6CxKtm.s:131    .text:0000000000000080 .L0 
     /tmp/cc6CxKtm.s:136    .text:000000000000008c .L0 
     /tmp/cc6CxKtm.s:137    .text:000000000000008c .L0 
     /tmp/cc6CxKtm.s:140    .text:0000000000000094 .L0 
     /tmp/cc6CxKtm.s:141    .text:0000000000000094 .L0 
     /tmp/cc6CxKtm.s:144    .text:0000000000000098 .L0 
     /tmp/cc6CxKtm.s:145    .text:0000000000000098 .L0 
     /tmp/cc6CxKtm.s:147    .text:000000000000009c .L0 
     /tmp/cc6CxKtm.s:148    .text:000000000000009c .L0 
     /tmp/cc6CxKtm.s:150    .text:00000000000000a0 .L0 
GAS LISTING /tmp/cc6CxKtm.s 			page 16


     /tmp/cc6CxKtm.s:151    .text:00000000000000a0 .L0 
     /tmp/cc6CxKtm.s:153    .text:00000000000000a4 .L0 
     /tmp/cc6CxKtm.s:154    .text:00000000000000a4 .L0 
     /tmp/cc6CxKtm.s:157    .text:00000000000000ac .L0 
           src/API.c:36     .text:00000000000000ac .L0 
     /tmp/cc6CxKtm.s:163    .text:00000000000000b0 .L0 
     /tmp/cc6CxKtm.s:165    .text:00000000000000b0 .L0 
     /tmp/cc6CxKtm.s:169    .text:00000000000000b4 .L0 
     /tmp/cc6CxKtm.s:170    .text:00000000000000b8 .L0 
     /tmp/cc6CxKtm.s:171    .text:00000000000000b8 .L0 
     /tmp/cc6CxKtm.s:173    .text:00000000000000bc .L0 
     /tmp/cc6CxKtm.s:174    .text:00000000000000bc .L0 
     /tmp/cc6CxKtm.s:176    .text:00000000000000c0 .L0 
     /tmp/cc6CxKtm.s:179    .text:00000000000000c4 .L0 
     /tmp/cc6CxKtm.s:182    .text:00000000000000c8 .L0 
     /tmp/cc6CxKtm.s:185    .text:00000000000000cc .L0 
     /tmp/cc6CxKtm.s:189    .text:00000000000000d0 .L0 
     /tmp/cc6CxKtm.s:191    .text:00000000000000d0 .L0 
     /tmp/cc6CxKtm.s:194    .text:00000000000000d8 .L0 
     /tmp/cc6CxKtm.s:200    .text:00000000000000d8 join
     /tmp/cc6CxKtm.s:203    .text:00000000000000d8 .L0 
     /tmp/cc6CxKtm.s:205    .text:00000000000000d8 .L0 
     /tmp/cc6CxKtm.s:206    .text:00000000000000dc .L0 
     /tmp/cc6CxKtm.s:208    .text:00000000000000e0 .L0 
     /tmp/cc6CxKtm.s:210    .text:00000000000000e4 .L0 
     /tmp/cc6CxKtm.s:213    .text:00000000000000e8 .L0 
     /tmp/cc6CxKtm.s:214    .text:00000000000000e8 .L0 
     /tmp/cc6CxKtm.s:217    .text:00000000000000ec .L0 
     /tmp/cc6CxKtm.s:218    .text:00000000000000ec .L0 
           src/API.c:46     .text:00000000000000f0 .L0 
     /tmp/cc6CxKtm.s:226    .text:00000000000000f4 .L0 
     /tmp/cc6CxKtm.s:227    .text:00000000000000f8 .L0 
     /tmp/cc6CxKtm.s:228    .text:00000000000000f8 .L0 
     /tmp/cc6CxKtm.s:230    .text:00000000000000fc .L0 
     /tmp/cc6CxKtm.s:232    .text:0000000000000100 .L0 
     /tmp/cc6CxKtm.s:238    .text:0000000000000100 thread_exit
     /tmp/cc6CxKtm.s:241    .text:0000000000000100 .L0 
     /tmp/cc6CxKtm.s:242    .text:0000000000000100 .L0 
     /tmp/cc6CxKtm.s:243    .text:0000000000000104 .L0 
     /tmp/cc6CxKtm.s:245    .text:0000000000000108 .L0 
     /tmp/cc6CxKtm.s:247    .text:000000000000010c .L0 
     /tmp/cc6CxKtm.s:249    .text:000000000000010c .L0 
     /tmp/cc6CxKtm.s:250    .text:000000000000010c .L0 
           src/API.c:51     .text:0000000000000110 .L0 
     /tmp/cc6CxKtm.s:257    .text:0000000000000114 .L0 
     /tmp/cc6CxKtm.s:259    .text:0000000000000114 .L0 
     /tmp/cc6CxKtm.s:261    .text:000000000000011c .L0 
     /tmp/cc6CxKtm.s:262    .text:000000000000011c .L0 
     /tmp/cc6CxKtm.s:264    .text:0000000000000120 .L0 
     /tmp/cc6CxKtm.s:266    .text:0000000000000124 .L0 
     /tmp/cc6CxKtm.s:272    .text:0000000000000124 thread_dispatch
     /tmp/cc6CxKtm.s:275    .text:0000000000000124 .L0 
     /tmp/cc6CxKtm.s:276    .text:0000000000000124 .L0 
     /tmp/cc6CxKtm.s:277    .text:0000000000000128 .L0 
     /tmp/cc6CxKtm.s:279    .text:000000000000012c .L0 
     /tmp/cc6CxKtm.s:281    .text:0000000000000130 .L0 
     /tmp/cc6CxKtm.s:283    .text:0000000000000130 .L0 
GAS LISTING /tmp/cc6CxKtm.s 			page 17


     /tmp/cc6CxKtm.s:284    .text:0000000000000130 .L0 
           src/API.c:57     .text:0000000000000134 .L0 
     /tmp/cc6CxKtm.s:292    .text:0000000000000138 .L0 
     /tmp/cc6CxKtm.s:293    .text:000000000000013c .L0 
     /tmp/cc6CxKtm.s:294    .text:000000000000013c .L0 
     /tmp/cc6CxKtm.s:296    .text:0000000000000140 .L0 
     /tmp/cc6CxKtm.s:298    .text:0000000000000144 .L0 
     /tmp/cc6CxKtm.s:304    .text:0000000000000144 time_sleep
     /tmp/cc6CxKtm.s:307    .text:0000000000000144 .L0 
     /tmp/cc6CxKtm.s:309    .text:0000000000000144 .L0 
     /tmp/cc6CxKtm.s:310    .text:0000000000000148 .L0 
     /tmp/cc6CxKtm.s:312    .text:000000000000014c .L0 
     /tmp/cc6CxKtm.s:314    .text:0000000000000150 .L0 
     /tmp/cc6CxKtm.s:317    .text:0000000000000154 .L0 
     /tmp/cc6CxKtm.s:318    .text:0000000000000154 .L0 
     /tmp/cc6CxKtm.s:321    .text:0000000000000158 .L0 
           src/API.c:63     .text:0000000000000158 .L0 
     /tmp/cc6CxKtm.s:327    .text:000000000000015c .L0 
     /tmp/cc6CxKtm.s:329    .text:000000000000015c .L0 
     /tmp/cc6CxKtm.s:331    .text:0000000000000164 .L0 
     /tmp/cc6CxKtm.s:332    .text:0000000000000164 .L0 
     /tmp/cc6CxKtm.s:334    .text:0000000000000168 .L0 
     /tmp/cc6CxKtm.s:336    .text:000000000000016c .L0 
     /tmp/cc6CxKtm.s:342    .text:000000000000016c sem_open
     /tmp/cc6CxKtm.s:345    .text:000000000000016c .L0 
     /tmp/cc6CxKtm.s:347    .text:000000000000016c .L0 
     /tmp/cc6CxKtm.s:348    .text:0000000000000170 .L0 
     /tmp/cc6CxKtm.s:350    .text:0000000000000174 .L0 
     /tmp/cc6CxKtm.s:352    .text:0000000000000178 .L0 
     /tmp/cc6CxKtm.s:356    .text:0000000000000180 .L0 
     /tmp/cc6CxKtm.s:357    .text:0000000000000180 .L0 
     /tmp/cc6CxKtm.s:360    .text:0000000000000184 .L0 
     /tmp/cc6CxKtm.s:361    .text:0000000000000184 .L0 
     /tmp/cc6CxKtm.s:364    .text:0000000000000188 .L0 
     /tmp/cc6CxKtm.s:365    .text:0000000000000188 .L0 
           src/API.c:71     .text:0000000000000190 .L0 
     /tmp/cc6CxKtm.s:373    .text:0000000000000194 .L0 
     /tmp/cc6CxKtm.s:375    .text:0000000000000194 .L0 
     /tmp/cc6CxKtm.s:377    .text:000000000000019c .L0 
     /tmp/cc6CxKtm.s:378    .text:000000000000019c .L0 
     /tmp/cc6CxKtm.s:380    .text:00000000000001a0 .L0 
     /tmp/cc6CxKtm.s:382    .text:00000000000001a4 .L0 
     /tmp/cc6CxKtm.s:388    .text:00000000000001a4 sem_close
     /tmp/cc6CxKtm.s:391    .text:00000000000001a4 .L0 
     /tmp/cc6CxKtm.s:393    .text:00000000000001a4 .L0 
     /tmp/cc6CxKtm.s:394    .text:00000000000001a8 .L0 
     /tmp/cc6CxKtm.s:396    .text:00000000000001ac .L0 
     /tmp/cc6CxKtm.s:398    .text:00000000000001b0 .L0 
     /tmp/cc6CxKtm.s:401    .text:00000000000001b4 .L0 
     /tmp/cc6CxKtm.s:402    .text:00000000000001b4 .L0 
     /tmp/cc6CxKtm.s:405    .text:00000000000001b8 .L0 
           src/API.c:78     .text:00000000000001b8 .L0 
     /tmp/cc6CxKtm.s:411    .text:00000000000001bc .L0 
     /tmp/cc6CxKtm.s:413    .text:00000000000001bc .L0 
     /tmp/cc6CxKtm.s:415    .text:00000000000001c4 .L0 
     /tmp/cc6CxKtm.s:416    .text:00000000000001c4 .L0 
     /tmp/cc6CxKtm.s:418    .text:00000000000001c8 .L0 
GAS LISTING /tmp/cc6CxKtm.s 			page 18


     /tmp/cc6CxKtm.s:420    .text:00000000000001cc .L0 
     /tmp/cc6CxKtm.s:426    .text:00000000000001cc sem_wait
     /tmp/cc6CxKtm.s:429    .text:00000000000001cc .L0 
     /tmp/cc6CxKtm.s:431    .text:00000000000001cc .L0 
     /tmp/cc6CxKtm.s:432    .text:00000000000001d0 .L0 
     /tmp/cc6CxKtm.s:434    .text:00000000000001d4 .L0 
     /tmp/cc6CxKtm.s:436    .text:00000000000001d8 .L0 
     /tmp/cc6CxKtm.s:439    .text:00000000000001dc .L0 
     /tmp/cc6CxKtm.s:440    .text:00000000000001dc .L0 
     /tmp/cc6CxKtm.s:443    .text:00000000000001e0 .L0 
           src/API.c:85     .text:00000000000001e0 .L0 
     /tmp/cc6CxKtm.s:449    .text:00000000000001e4 .L0 
     /tmp/cc6CxKtm.s:451    .text:00000000000001e4 .L0 
     /tmp/cc6CxKtm.s:453    .text:00000000000001ec .L0 
     /tmp/cc6CxKtm.s:454    .text:00000000000001ec .L0 
     /tmp/cc6CxKtm.s:456    .text:00000000000001f0 .L0 
     /tmp/cc6CxKtm.s:458    .text:00000000000001f4 .L0 
     /tmp/cc6CxKtm.s:464    .text:00000000000001f4 sem_signal
     /tmp/cc6CxKtm.s:467    .text:00000000000001f4 .L0 
     /tmp/cc6CxKtm.s:469    .text:00000000000001f4 .L0 
     /tmp/cc6CxKtm.s:470    .text:00000000000001f8 .L0 
     /tmp/cc6CxKtm.s:472    .text:00000000000001fc .L0 
     /tmp/cc6CxKtm.s:474    .text:0000000000000200 .L0 
     /tmp/cc6CxKtm.s:477    .text:0000000000000204 .L0 
     /tmp/cc6CxKtm.s:478    .text:0000000000000204 .L0 
     /tmp/cc6CxKtm.s:481    .text:0000000000000208 .L0 
           src/API.c:92     .text:0000000000000208 .L0 
     /tmp/cc6CxKtm.s:487    .text:000000000000020c .L0 
     /tmp/cc6CxKtm.s:489    .text:000000000000020c .L0 
     /tmp/cc6CxKtm.s:491    .text:0000000000000214 .L0 
     /tmp/cc6CxKtm.s:492    .text:0000000000000214 .L0 
     /tmp/cc6CxKtm.s:494    .text:0000000000000218 .L0 
     /tmp/cc6CxKtm.s:496    .text:000000000000021c .L0 
     /tmp/cc6CxKtm.s:502    .text:000000000000021c sem_wait_n
     /tmp/cc6CxKtm.s:505    .text:000000000000021c .L0 
     /tmp/cc6CxKtm.s:507    .text:000000000000021c .L0 
     /tmp/cc6CxKtm.s:508    .text:0000000000000220 .L0 
     /tmp/cc6CxKtm.s:510    .text:0000000000000224 .L0 
     /tmp/cc6CxKtm.s:512    .text:0000000000000228 .L0 
     /tmp/cc6CxKtm.s:516    .text:0000000000000230 .L0 
     /tmp/cc6CxKtm.s:517    .text:0000000000000230 .L0 
     /tmp/cc6CxKtm.s:520    .text:0000000000000234 .L0 
     /tmp/cc6CxKtm.s:521    .text:0000000000000234 .L0 
     /tmp/cc6CxKtm.s:524    .text:0000000000000238 .L0 
     /tmp/cc6CxKtm.s:525    .text:0000000000000238 .L0 
           src/API.c:100    .text:0000000000000240 .L0 
     /tmp/cc6CxKtm.s:533    .text:0000000000000244 .L0 
     /tmp/cc6CxKtm.s:535    .text:0000000000000244 .L0 
     /tmp/cc6CxKtm.s:537    .text:000000000000024c .L0 
     /tmp/cc6CxKtm.s:538    .text:000000000000024c .L0 
     /tmp/cc6CxKtm.s:540    .text:0000000000000250 .L0 
     /tmp/cc6CxKtm.s:542    .text:0000000000000254 .L0 
     /tmp/cc6CxKtm.s:548    .text:0000000000000254 getc
     /tmp/cc6CxKtm.s:551    .text:0000000000000254 .L0 
     /tmp/cc6CxKtm.s:552    .text:0000000000000254 .L0 
     /tmp/cc6CxKtm.s:553    .text:0000000000000258 .L0 
     /tmp/cc6CxKtm.s:555    .text:000000000000025c .L0 
GAS LISTING /tmp/cc6CxKtm.s 			page 19


     /tmp/cc6CxKtm.s:557    .text:0000000000000260 .L0 
     /tmp/cc6CxKtm.s:559    .text:0000000000000260 .L0 
     /tmp/cc6CxKtm.s:560    .text:0000000000000260 .L0 
           src/API.c:106    .text:0000000000000264 .L0 
     /tmp/cc6CxKtm.s:567    .text:0000000000000268 .L0 
     /tmp/cc6CxKtm.s:569    .text:0000000000000268 .L0 
     /tmp/cc6CxKtm.s:571    .text:0000000000000270 .L0 
     /tmp/cc6CxKtm.s:572    .text:0000000000000270 .L0 
     /tmp/cc6CxKtm.s:574    .text:0000000000000274 .L0 
     /tmp/cc6CxKtm.s:576    .text:0000000000000278 .L0 
     /tmp/cc6CxKtm.s:582    .text:0000000000000278 putc
     /tmp/cc6CxKtm.s:585    .text:0000000000000278 .L0 
     /tmp/cc6CxKtm.s:587    .text:0000000000000278 .L0 
     /tmp/cc6CxKtm.s:588    .text:000000000000027c .L0 
     /tmp/cc6CxKtm.s:590    .text:0000000000000280 .L0 
     /tmp/cc6CxKtm.s:592    .text:0000000000000284 .L0 
     /tmp/cc6CxKtm.s:595    .text:0000000000000288 .L0 
     /tmp/cc6CxKtm.s:596    .text:0000000000000288 .L0 
     /tmp/cc6CxKtm.s:599    .text:000000000000028c .L0 
           src/API.c:113    .text:000000000000028c .L0 
     /tmp/cc6CxKtm.s:606    .text:0000000000000290 .L0 
     /tmp/cc6CxKtm.s:607    .text:0000000000000294 .L0 
     /tmp/cc6CxKtm.s:608    .text:0000000000000294 .L0 
     /tmp/cc6CxKtm.s:610    .text:0000000000000298 .L0 
     /tmp/cc6CxKtm.s:612    .text:000000000000029c .L0 
     /tmp/cc6CxKtm.s:618    .text:000000000000029c sys_halt
     /tmp/cc6CxKtm.s:621    .text:000000000000029c .L0 
     /tmp/cc6CxKtm.s:622    .text:000000000000029c .L0 
     /tmp/cc6CxKtm.s:623    .text:00000000000002a0 .L0 
     /tmp/cc6CxKtm.s:625    .text:00000000000002a4 .L0 
     /tmp/cc6CxKtm.s:627    .text:00000000000002a8 .L0 
     /tmp/cc6CxKtm.s:629    .text:00000000000002a8 .L0 
     /tmp/cc6CxKtm.s:630    .text:00000000000002a8 .L0 
           src/API.c:118    .text:00000000000002ac .L0 
     /tmp/cc6CxKtm.s:638    .text:00000000000002b0 .L0 
     /tmp/cc6CxKtm.s:639    .text:00000000000002b4 .L0 
     /tmp/cc6CxKtm.s:640    .text:00000000000002b4 .L0 
     /tmp/cc6CxKtm.s:642    .text:00000000000002b8 .L0 
     /tmp/cc6CxKtm.s:644    .text:00000000000002bc .L0 
     /tmp/cc6CxKtm.s:650    .text:00000000000002bc sem_signal_n
     /tmp/cc6CxKtm.s:653    .text:00000000000002bc .L0 
     /tmp/cc6CxKtm.s:655    .text:00000000000002bc .L0 
     /tmp/cc6CxKtm.s:656    .text:00000000000002c0 .L0 
     /tmp/cc6CxKtm.s:658    .text:00000000000002c4 .L0 
     /tmp/cc6CxKtm.s:660    .text:00000000000002c8 .L0 
     /tmp/cc6CxKtm.s:664    .text:00000000000002d0 .L0 
     /tmp/cc6CxKtm.s:665    .text:00000000000002d0 .L0 
     /tmp/cc6CxKtm.s:668    .text:00000000000002d4 .L0 
     /tmp/cc6CxKtm.s:669    .text:00000000000002d4 .L0 
     /tmp/cc6CxKtm.s:672    .text:00000000000002d8 .L0 
     /tmp/cc6CxKtm.s:673    .text:00000000000002d8 .L0 
           src/API.c:125    .text:00000000000002e0 .L0 
     /tmp/cc6CxKtm.s:681    .text:00000000000002e4 .L0 
     /tmp/cc6CxKtm.s:683    .text:00000000000002e4 .L0 
     /tmp/cc6CxKtm.s:685    .text:00000000000002ec .L0 
     /tmp/cc6CxKtm.s:686    .text:00000000000002ec .L0 
     /tmp/cc6CxKtm.s:688    .text:00000000000002f0 .L0 
GAS LISTING /tmp/cc6CxKtm.s 			page 20


     /tmp/cc6CxKtm.s:690    .text:00000000000002f4 .L0 
     /tmp/cc6CxKtm.s:696    .text:00000000000002f4 .L0 
                     .debug_frame:0000000000000000 .L0 
     /tmp/cc6CxKtm.s:188    .text:00000000000000d0 .L7
     /tmp/cc6CxKtm.s:167    .text:00000000000000b4 .L6
     /tmp/cc6CxKtm.s:1455   .debug_abbrev:0000000000000000 .Ldebug_abbrev0
     /tmp/cc6CxKtm.s:2118   .debug_str:0000000000000141 .LASF45
     /tmp/cc6CxKtm.s:2126   .debug_str:00000000000001fc .LASF46
     /tmp/cc6CxKtm.s:2110   .debug_str:0000000000000105 .LASF47
     /tmp/cc6CxKtm.s:5      .text:0000000000000000 .Ltext0
     /tmp/cc6CxKtm.s:693    .text:00000000000002f4 .Letext0
     /tmp/cc6CxKtm.s:2064   .debug_line:0000000000000000 .Ldebug_line0
     /tmp/cc6CxKtm.s:2120   .debug_str:00000000000001df .LASF0
     /tmp/cc6CxKtm.s:2098   .debug_str:00000000000000bf .LASF1
     /tmp/cc6CxKtm.s:2090   .debug_str:0000000000000090 .LASF2
     /tmp/cc6CxKtm.s:2074   .debug_str:000000000000002e .LASF4
     /tmp/cc6CxKtm.s:2096   .debug_str:00000000000000ad .LASF3
     /tmp/cc6CxKtm.s:2068   .debug_str:0000000000000013 .LASF5
     /tmp/cc6CxKtm.s:2128   .debug_str:0000000000000206 .LASF6
     /tmp/cc6CxKtm.s:2066   .debug_str:0000000000000000 .LASF7
     /tmp/cc6CxKtm.s:2084   .debug_str:0000000000000063 .LASF8
     /tmp/cc6CxKtm.s:2130   .debug_str:000000000000020d .LASF9
     /tmp/cc6CxKtm.s:2072   .debug_str:0000000000000020 .LASF10
     /tmp/cc6CxKtm.s:2160   .debug_str:00000000000002b7 .LASF11
     /tmp/cc6CxKtm.s:2086   .debug_str:0000000000000076 .LASF12
     /tmp/cc6CxKtm.s:2152   .debug_str:000000000000028c .LASF13
     /tmp/cc6CxKtm.s:2136   .debug_str:000000000000023c .LASF14
     /tmp/cc6CxKtm.s:2102   .debug_str:00000000000000d9 .LASF15
     /tmp/cc6CxKtm.s:2080   .debug_str:0000000000000048 .LASF16
     /tmp/cc6CxKtm.s:2132   .debug_str:000000000000021d .LASF17
     /tmp/cc6CxKtm.s:2134   .debug_str:0000000000000233 .LASF18
     /tmp/cc6CxKtm.s:2070   .debug_str:000000000000001a .LASF19
     /tmp/cc6CxKtm.s:2078   .debug_str:000000000000003b .LASF23
     /tmp/cc6CxKtm.s:651    .text:00000000000002bc .LFB15
     /tmp/cc6CxKtm.s:691    .text:00000000000002f4 .LFE15
     /tmp/cc6CxKtm.s:1798   .debug_loc:0000000000000000 .LLST16
     /tmp/cc6CxKtm.s:1809   .debug_loc:0000000000000036 .LLST17
     /tmp/cc6CxKtm.s:2116   .debug_str:0000000000000138 .LASF20
     /tmp/cc6CxKtm.s:619    .text:000000000000029c .LFB14
     /tmp/cc6CxKtm.s:645    .text:00000000000002bc .LFE14
     /tmp/cc6CxKtm.s:2146   .debug_str:0000000000000270 .LASF21
     /tmp/cc6CxKtm.s:583    .text:0000000000000278 .LFB13
     /tmp/cc6CxKtm.s:613    .text:000000000000029c .LFE13
     /tmp/cc6CxKtm.s:1823   .debug_loc:000000000000006f .LLST15
     /tmp/cc6CxKtm.s:2124   .debug_str:00000000000001f7 .LASF22
     /tmp/cc6CxKtm.s:2092   .debug_str:000000000000009e .LASF24
     /tmp/cc6CxKtm.s:549    .text:0000000000000254 .LFB12
     /tmp/cc6CxKtm.s:577    .text:0000000000000278 .LFE12
     /tmp/cc6CxKtm.s:2088   .debug_str:0000000000000085 .LASF25
     /tmp/cc6CxKtm.s:503    .text:000000000000021c .LFB11
     /tmp/cc6CxKtm.s:543    .text:0000000000000254 .LFE11
     /tmp/cc6CxKtm.s:1837   .debug_loc:00000000000000a8 .LLST13
     /tmp/cc6CxKtm.s:1848   .debug_loc:00000000000000de .LLST14
     /tmp/cc6CxKtm.s:2106   .debug_str:00000000000000ec .LASF26
     /tmp/cc6CxKtm.s:465    .text:00000000000001f4 .LFB10
     /tmp/cc6CxKtm.s:497    .text:000000000000021c .LFE10
     /tmp/cc6CxKtm.s:1862   .debug_loc:0000000000000117 .LLST12
GAS LISTING /tmp/cc6CxKtm.s 			page 21


     /tmp/cc6CxKtm.s:2112   .debug_str:000000000000012a .LASF27
     /tmp/cc6CxKtm.s:427    .text:00000000000001cc .LFB9
     /tmp/cc6CxKtm.s:459    .text:00000000000001f4 .LFE9
     /tmp/cc6CxKtm.s:1873   .debug_loc:000000000000014d .LLST11
     /tmp/cc6CxKtm.s:2094   .debug_str:00000000000000a3 .LASF28
     /tmp/cc6CxKtm.s:389    .text:00000000000001a4 .LFB8
     /tmp/cc6CxKtm.s:421    .text:00000000000001cc .LFE8
     /tmp/cc6CxKtm.s:2104   .debug_str:00000000000000e5 .LASF29
     /tmp/cc6CxKtm.s:1884   .debug_loc:0000000000000183 .LLST10
     /tmp/cc6CxKtm.s:2148   .debug_str:0000000000000275 .LASF30
     /tmp/cc6CxKtm.s:343    .text:000000000000016c .LFB7
     /tmp/cc6CxKtm.s:383    .text:00000000000001a4 .LFE7
     /tmp/cc6CxKtm.s:1895   .debug_loc:00000000000001b9 .LLST8
     /tmp/cc6CxKtm.s:2140   .debug_str:0000000000000255 .LASF31
     /tmp/cc6CxKtm.s:1906   .debug_loc:00000000000001ef .LLST9
     /tmp/cc6CxKtm.s:2122   .debug_str:00000000000001ec .LASF32
     /tmp/cc6CxKtm.s:305    .text:0000000000000144 .LFB6
     /tmp/cc6CxKtm.s:337    .text:000000000000016c .LFE6
     /tmp/cc6CxKtm.s:1920   .debug_loc:0000000000000228 .LLST7
     /tmp/cc6CxKtm.s:2142   .debug_str:000000000000025a .LASF33
     /tmp/cc6CxKtm.s:273    .text:0000000000000124 .LFB5
     /tmp/cc6CxKtm.s:299    .text:0000000000000144 .LFE5
     /tmp/cc6CxKtm.s:2154   .debug_str:000000000000029c .LASF34
     /tmp/cc6CxKtm.s:239    .text:0000000000000100 .LFB4
     /tmp/cc6CxKtm.s:267    .text:0000000000000124 .LFE4
     /tmp/cc6CxKtm.s:2082   .debug_str:000000000000005e .LASF35
     /tmp/cc6CxKtm.s:201    .text:00000000000000d8 .LFB3
     /tmp/cc6CxKtm.s:233    .text:0000000000000100 .LFE3
     /tmp/cc6CxKtm.s:2100   .debug_str:00000000000000d2 .LASF36
     /tmp/cc6CxKtm.s:1931   .debug_loc:000000000000025e .LLST6
     /tmp/cc6CxKtm.s:2150   .debug_str:000000000000027e .LASF37
     /tmp/cc6CxKtm.s:108    .text:0000000000000058 .LFB2
     /tmp/cc6CxKtm.s:195    .text:00000000000000d8 .LFE2
     /tmp/cc6CxKtm.s:1942   .debug_loc:0000000000000294 .LLST2
     /tmp/cc6CxKtm.s:2108   .debug_str:00000000000000f7 .LASF38
     /tmp/cc6CxKtm.s:1964   .debug_loc:00000000000002f3 .LLST3
     /tmp/cc6CxKtm.s:1986   .debug_loc:0000000000000352 .LLST4
     /tmp/cc6CxKtm.s:2076   .debug_str:0000000000000035 .LASF39
     /tmp/cc6CxKtm.s:2008   .debug_loc:00000000000003b1 .LLST5
     /tmp/cc6CxKtm.s:134    .text:000000000000008c .LVL8
     /tmp/cc6CxKtm.s:2138   .debug_str:000000000000024c .LASF40
     /tmp/cc6CxKtm.s:62     .text:000000000000002c .LFB1
     /tmp/cc6CxKtm.s:102    .text:0000000000000058 .LFE1
     /tmp/cc6CxKtm.s:2023   .debug_loc:00000000000003fa .LLST1
     /tmp/cc6CxKtm.s:2114   .debug_str:0000000000000133 .LASF41
     /tmp/cc6CxKtm.s:2156   .debug_str:00000000000002a8 .LASF42
     /tmp/cc6CxKtm.s:11     .text:0000000000000000 .LFB0
     /tmp/cc6CxKtm.s:56     .text:000000000000002c .LFE0
     /tmp/cc6CxKtm.s:2158   .debug_str:00000000000002b2 .LASF43
     /tmp/cc6CxKtm.s:2037   .debug_loc:0000000000000433 .LLST0
     /tmp/cc6CxKtm.s:2144   .debug_str:000000000000026a .LASF44
     /tmp/cc6CxKtm.s:654    .text:00000000000002bc .LVL34
     /tmp/cc6CxKtm.s:666    .text:00000000000002d4 .LVL35
     /tmp/cc6CxKtm.s:670    .text:00000000000002d8 .LVL36
     /tmp/cc6CxKtm.s:586    .text:0000000000000278 .LVL32
     /tmp/cc6CxKtm.s:597    .text:000000000000028c .LVL33
     /tmp/cc6CxKtm.s:506    .text:000000000000021c .LVL29
GAS LISTING /tmp/cc6CxKtm.s 			page 22


     /tmp/cc6CxKtm.s:518    .text:0000000000000234 .LVL30
     /tmp/cc6CxKtm.s:522    .text:0000000000000238 .LVL31
     /tmp/cc6CxKtm.s:468    .text:00000000000001f4 .LVL27
     /tmp/cc6CxKtm.s:479    .text:0000000000000208 .LVL28
     /tmp/cc6CxKtm.s:430    .text:00000000000001cc .LVL25
     /tmp/cc6CxKtm.s:441    .text:00000000000001e0 .LVL26
     /tmp/cc6CxKtm.s:392    .text:00000000000001a4 .LVL23
     /tmp/cc6CxKtm.s:403    .text:00000000000001b8 .LVL24
     /tmp/cc6CxKtm.s:346    .text:000000000000016c .LVL20
     /tmp/cc6CxKtm.s:358    .text:0000000000000184 .LVL21
     /tmp/cc6CxKtm.s:362    .text:0000000000000188 .LVL22
     /tmp/cc6CxKtm.s:308    .text:0000000000000144 .LVL18
     /tmp/cc6CxKtm.s:319    .text:0000000000000158 .LVL19
     /tmp/cc6CxKtm.s:204    .text:00000000000000d8 .LVL16
     /tmp/cc6CxKtm.s:215    .text:00000000000000ec .LVL17
     /tmp/cc6CxKtm.s:111    .text:0000000000000058 .LVL6
     /tmp/cc6CxKtm.s:132    .text:0000000000000084 .LVL7
     /tmp/cc6CxKtm.s:183    .text:00000000000000c8 .LVL13
     /tmp/cc6CxKtm.s:187    .text:00000000000000d0 .LVL14
     /tmp/cc6CxKtm.s:180    .text:00000000000000c4 .LVL12
     /tmp/cc6CxKtm.s:177    .text:00000000000000c0 .LVL11
     /tmp/cc6CxKtm.s:142    .text:0000000000000098 .LVL9
     /tmp/cc6CxKtm.s:166    .text:00000000000000b4 .LVL10
     /tmp/cc6CxKtm.s:192    .text:00000000000000d4 .LVL15
     /tmp/cc6CxKtm.s:65     .text:000000000000002c .LVL3
     /tmp/cc6CxKtm.s:94     .text:000000000000004c .LVL5
     /tmp/cc6CxKtm.s:15     .text:0000000000000000 .LVL0
     /tmp/cc6CxKtm.s:45     .text:0000000000000020 .LVL2
     /tmp/cc6CxKtm.s:697    .debug_info:0000000000000000 .Ldebug_info0

NO UNDEFINED SYMBOLS
