GAS LISTING /tmp/ccKWmJPY.s 			page 1


   1              		.file	"API.c"
   2              		.option nopic
   3              		.option norelax
   4              		.text
   5              	.Ltext0:
   6              		.cfi_sections	.debug_frame
   7              		.align	2
   8              		.globl	mem_alloc
  10              	mem_alloc:
  11              	.LFB0:
  12              		.file 1 "src/API.c"
   1:src/API.c     **** //
   2:src/API.c     **** // Created by os on 5/6/26.
   3:src/API.c     **** //
   4:src/API.c     **** 
   5:src/API.c     **** #include "./APIC.h"
   6:src/API.c     **** #include "../lib/hw.h"
   7:src/API.c     **** 
   8:src/API.c     **** void* mem_alloc(size_t size){
  13              		.loc 1 8 29
  14              		.cfi_startproc
  15              	.LVL0:
  16 0000 130101FF 		addi	sp,sp,-16
  17              		.cfi_def_cfa_offset 16
  18 0004 23348100 		sd	s0,8(sp)
  19              		.cfi_offset 8, -8
  20 0008 13040101 		addi	s0,sp,16
  21              		.cfi_def_cfa 8, 0
   9:src/API.c     ****     uint64 code=0x01;
  22              		.loc 1 9 5
  23              	.LVL1:
  10:src/API.c     ****     __asm__ volatile("mv a1,%[size]"::[size]"r"(size));
  24              		.loc 1 10 5
  25              	#APP
  26              	# 10 "src/API.c" 1
  11              	    __asm__ volatile("mv a0,%[code]"::[code]"r"(code));
  27              		mv a1,a0
  28              	# 0 "" 2
  29              		.loc 1 11 5
  30              	#NO_APP
  31 0010 93071000 		li	a5,1
  32              	#APP
  33              	# 11 "src/API.c" 1
  12              	    __asm__ volatile("ecall");
  34              		mv a0,a5
  35              	# 0 "" 2
  36              		.loc 1 12 5
  37              	# 12 "src/API.c" 1
  13              	    void* value;
  38              		ecall
  39              	# 0 "" 2
  40              		.loc 1 13 5
  14:src/API.c     ****     __asm__ volatile ("mv %0, a0" : "=r"(value));
  41              		.loc 1 14 5
  42              	# 14 "src/API.c" 1
  15              	    return (void*)value;
  43              		mv a0, a0
GAS LISTING /tmp/ccKWmJPY.s 			page 2


  44              	# 0 "" 2
  45              	.LVL2:
  46              		.loc 1 15 5
  16:src/API.c     **** }
  47              		.loc 1 16 1 is_stmt 0
  48              	#NO_APP
  49 0020 03348100 		ld	s0,8(sp)
  50              		.cfi_restore 8
  51              		.cfi_def_cfa 2, 16
  52 0024 13010101 		addi	sp,sp,16
  53              		.cfi_def_cfa_offset 0
  54 0028 67800000 		jr	ra
  55              		.cfi_endproc
  56              	.LFE0:
  58              		.align	2
  59              		.globl	mem_free
  61              	mem_free:
  62              	.LFB1:
  17:src/API.c     **** 
  18:src/API.c     **** int mem_free(void* ptr){
  63              		.loc 1 18 24 is_stmt 1
  64              		.cfi_startproc
  65              	.LVL3:
  66 002c 130101FF 		addi	sp,sp,-16
  67              		.cfi_def_cfa_offset 16
  68 0030 23348100 		sd	s0,8(sp)
  69              		.cfi_offset 8, -8
  70 0034 13040101 		addi	s0,sp,16
  71              		.cfi_def_cfa 8, 0
  19:src/API.c     ****     uint64 code=0x02;
  72              		.loc 1 19 5
  73              	.LVL4:
  20:src/API.c     ****     __asm__ volatile("mv a1,a0");
  74              		.loc 1 20 5
  75              	#APP
  76              	# 20 "src/API.c" 1
  21              	    __asm__ volatile("mv a0,%[code]"::[code]"r"(code));
  77              		mv a1,a0
  78              	# 0 "" 2
  79              		.loc 1 21 5
  80              	#NO_APP
  81 003c 93072000 		li	a5,2
  82              	#APP
  83              	# 21 "src/API.c" 1
  22              	    __asm__ volatile("ecall");
  84              		mv a0,a5
  85              	# 0 "" 2
  86              		.loc 1 22 5
  87              	# 22 "src/API.c" 1
  23              	    return 0;
  88              		ecall
  89              	# 0 "" 2
  90              		.loc 1 23 5
  24:src/API.c     **** }
  91              		.loc 1 24 1 is_stmt 0
  92              	#NO_APP
  93 0048 13050000 		li	a0,0
GAS LISTING /tmp/ccKWmJPY.s 			page 3


  94              	.LVL5:
  95 004c 03348100 		ld	s0,8(sp)
  96              		.cfi_restore 8
  97              		.cfi_def_cfa 2, 16
  98 0050 13010101 		addi	sp,sp,16
  99              		.cfi_def_cfa_offset 0
 100 0054 67800000 		jr	ra
 101              		.cfi_endproc
 102              	.LFE1:
 104              		.align	2
 105              		.globl	thread_create
 107              	thread_create:
 108              	.LFB2:
  25:src/API.c     **** 
  26:src/API.c     **** int thread_create(thread_t* handle, void (*start_routine)(void*), void* arg) {
 109              		.loc 1 26 78 is_stmt 1
 110              		.cfi_startproc
 111              	.LVL6:
 112 0058 130101FD 		addi	sp,sp,-48
 113              		.cfi_def_cfa_offset 48
 114 005c 23341102 		sd	ra,40(sp)
 115 0060 23308102 		sd	s0,32(sp)
 116 0064 233C9100 		sd	s1,24(sp)
 117 0068 23382101 		sd	s2,16(sp)
 118 006c 23343101 		sd	s3,8(sp)
 119              		.cfi_offset 1, -8
 120              		.cfi_offset 8, -16
 121              		.cfi_offset 9, -24
 122              		.cfi_offset 18, -32
 123              		.cfi_offset 19, -40
 124 0070 13040103 		addi	s0,sp,48
 125              		.cfi_def_cfa 8, 0
 126 0074 93090500 		mv	s3,a0
 127 0078 13890500 		mv	s2,a1
 128 007c 93040600 		mv	s1,a2
  27:src/API.c     ****     // allocate stack separately; pass top pointer as a4
  28:src/API.c     ****     void* stack = mem_alloc(DEFAULT_STACK_SIZE * sizeof(size_t));
 129              		.loc 1 28 5
 130              		.loc 1 28 19 is_stmt 0
 131 0080 37850000 		li	a0,32768
 132              	.LVL7:
 133 0084 97000000 		call	mem_alloc
 133      E7800000 
 134              	.LVL8:
  29:src/API.c     ****     if (!stack) return -1;
 135              		.loc 1 29 5 is_stmt 1
 136              		.loc 1 29 8 is_stmt 0
 137 008c 63020504 		beqz	a0,.L7
 138 0090 13070500 		mv	a4,a0
  30:src/API.c     ****     register size_t a0 asm("a0") = 0x11;
 139              		.loc 1 30 5 is_stmt 1
 140              		.loc 1 30 21 is_stmt 0
 141 0094 13051001 		li	a0,17
 142              	.LVL9:
  31:src/API.c     ****     register size_t a1 asm("a1") = (size_t)handle;
 143              		.loc 1 31 5 is_stmt 1
 144              		.loc 1 31 21 is_stmt 0
GAS LISTING /tmp/ccKWmJPY.s 			page 4


 145 0098 93850900 		mv	a1,s3
  32:src/API.c     ****     register size_t a2 asm("a2") = (size_t)start_routine;
 146              		.loc 1 32 5 is_stmt 1
 147              		.loc 1 32 21 is_stmt 0
 148 009c 13060900 		mv	a2,s2
  33:src/API.c     ****     register size_t a3 asm("a3") = (size_t)arg;
 149              		.loc 1 33 5 is_stmt 1
 150              		.loc 1 33 21 is_stmt 0
 151 00a0 93860400 		mv	a3,s1
  34:src/API.c     ****     register size_t a4 asm("a4") = (size_t)stack + DEFAULT_STACK_SIZE * sizeof(size_t);
 152              		.loc 1 34 5 is_stmt 1
 153              		.loc 1 34 21 is_stmt 0
 154 00a4 B7870000 		li	a5,32768
 155 00a8 3307F700 		add	a4,a4,a5
 156              	.LVL10:
  35:src/API.c     ****     __asm__ volatile("ecall"
 157              		.loc 1 35 5 is_stmt 1
 158              	#APP
 159              	# 35 "src/API.c" 1
  36              	        : "+r"(a0)
  37:src/API.c     ****         : "r"(a1), "r"(a2), "r"(a3), "r"(a4)
  38:src/API.c     ****     );
  39:src/API.c     ****     return (int)a0;
 160              		ecall
 161              	# 0 "" 2
 162              		.loc 1 39 5
 163              		.loc 1 39 12 is_stmt 0
 164              	#NO_APP
 165 00b0 1B050500 		sext.w	a0,a0
 166              	.LVL11:
 167              	.L6:
  40:src/API.c     **** }
 168              		.loc 1 40 1
 169 00b4 83308102 		ld	ra,40(sp)
 170              		.cfi_remember_state
 171              		.cfi_restore 1
 172 00b8 03340102 		ld	s0,32(sp)
 173              		.cfi_restore 8
 174              		.cfi_def_cfa 2, 48
 175 00bc 83348101 		ld	s1,24(sp)
 176              		.cfi_restore 9
 177              	.LVL12:
 178 00c0 03390101 		ld	s2,16(sp)
 179              		.cfi_restore 18
 180              	.LVL13:
 181 00c4 83398100 		ld	s3,8(sp)
 182              		.cfi_restore 19
 183              	.LVL14:
 184 00c8 13010103 		addi	sp,sp,48
 185              		.cfi_def_cfa_offset 0
 186 00cc 67800000 		jr	ra
 187              	.LVL15:
 188              	.L7:
 189              		.cfi_restore_state
  29:src/API.c     ****     register size_t a0 asm("a0") = 0x11;
 190              		.loc 1 29 24
 191 00d0 1305F0FF 		li	a0,-1
GAS LISTING /tmp/ccKWmJPY.s 			page 5


 192              	.LVL16:
 193 00d4 6FF01FFE 		j	.L6
 194              		.cfi_endproc
 195              	.LFE2:
 197              		.align	2
 198              		.globl	thread_exit
 200              	thread_exit:
 201              	.LFB3:
  41:src/API.c     **** 
  42:src/API.c     **** int thread_exit(void) {
 202              		.loc 1 42 23 is_stmt 1
 203              		.cfi_startproc
 204 00d8 130101FF 		addi	sp,sp,-16
 205              		.cfi_def_cfa_offset 16
 206 00dc 23348100 		sd	s0,8(sp)
 207              		.cfi_offset 8, -8
 208 00e0 13040101 		addi	s0,sp,16
 209              		.cfi_def_cfa 8, 0
  43:src/API.c     ****     register size_t a0 asm("a0") = 0x12;
 210              		.loc 1 43 5
 211              		.loc 1 43 21 is_stmt 0
 212 00e4 13052001 		li	a0,18
  44:src/API.c     ****     __asm__ volatile("ecall" : "+r"(a0));
 213              		.loc 1 44 5 is_stmt 1
 214              	#APP
 215              	# 44 "src/API.c" 1
  45              	    return (int)a0;
 216              		ecall
 217              	# 0 "" 2
 218              		.loc 1 45 5
  46:src/API.c     **** }
 219              		.loc 1 46 1 is_stmt 0
 220              	#NO_APP
 221 00ec 1B050500 		sext.w	a0,a0
 222 00f0 03348100 		ld	s0,8(sp)
 223              		.cfi_restore 8
 224              		.cfi_def_cfa 2, 16
 225 00f4 13010101 		addi	sp,sp,16
 226              		.cfi_def_cfa_offset 0
 227 00f8 67800000 		jr	ra
 228              		.cfi_endproc
 229              	.LFE3:
 231              		.align	2
 232              		.globl	thread_dispatch
 234              	thread_dispatch:
 235              	.LFB4:
  47:src/API.c     **** 
  48:src/API.c     **** void thread_dispatch(void) {
 236              		.loc 1 48 28 is_stmt 1
 237              		.cfi_startproc
 238 00fc 130101FF 		addi	sp,sp,-16
 239              		.cfi_def_cfa_offset 16
 240 0100 23348100 		sd	s0,8(sp)
 241              		.cfi_offset 8, -8
 242 0104 13040101 		addi	s0,sp,16
 243              		.cfi_def_cfa 8, 0
  49:src/API.c     ****     register size_t a0 asm("a0") = 0x13;
GAS LISTING /tmp/ccKWmJPY.s 			page 6


 244              		.loc 1 49 5
 245              		.loc 1 49 21 is_stmt 0
 246 0108 13053001 		li	a0,19
  50:src/API.c     ****     __asm__ volatile("ecall" : "+r"(a0));
 247              		.loc 1 50 5 is_stmt 1
 248              	#APP
 249              	# 50 "src/API.c" 1
  51              	}
 250              		ecall
 251              	# 0 "" 2
 252              		.loc 1 51 1 is_stmt 0
 253              	#NO_APP
 254 0110 03348100 		ld	s0,8(sp)
 255              		.cfi_restore 8
 256              		.cfi_def_cfa 2, 16
 257 0114 13010101 		addi	sp,sp,16
 258              		.cfi_def_cfa_offset 0
 259 0118 67800000 		jr	ra
 260              		.cfi_endproc
 261              	.LFE4:
 263              		.align	2
 264              		.globl	time_sleep
 266              	time_sleep:
 267              	.LFB5:
  52:src/API.c     **** 
  53:src/API.c     **** int time_sleep(time_t dur) {
 268              		.loc 1 53 28 is_stmt 1
 269              		.cfi_startproc
 270              	.LVL17:
 271 011c 130101FF 		addi	sp,sp,-16
 272              		.cfi_def_cfa_offset 16
 273 0120 23348100 		sd	s0,8(sp)
 274              		.cfi_offset 8, -8
 275 0124 13040101 		addi	s0,sp,16
 276              		.cfi_def_cfa 8, 0
 277 0128 93050500 		mv	a1,a0
  54:src/API.c     ****     register size_t a0 asm("a0") = 0x31;
 278              		.loc 1 54 5
 279              		.loc 1 54 21 is_stmt 0
 280 012c 13051003 		li	a0,49
 281              	.LVL18:
  55:src/API.c     ****     register size_t a1 asm("a1") = (size_t)dur;
 282              		.loc 1 55 5 is_stmt 1
  56:src/API.c     ****     __asm__ volatile("ecall" : "+r"(a0) : "r"(a1));
 283              		.loc 1 56 5
 284              	#APP
 285              	# 56 "src/API.c" 1
  57              	    return (int)a0;
 286              		ecall
 287              	# 0 "" 2
 288              		.loc 1 57 5
  58:src/API.c     **** }
 289              		.loc 1 58 1 is_stmt 0
 290              	#NO_APP
 291 0134 1B050500 		sext.w	a0,a0
 292 0138 03348100 		ld	s0,8(sp)
 293              		.cfi_restore 8
GAS LISTING /tmp/ccKWmJPY.s 			page 7


 294              		.cfi_def_cfa 2, 16
 295 013c 13010101 		addi	sp,sp,16
 296              		.cfi_def_cfa_offset 0
 297 0140 67800000 		jr	ra
 298              		.cfi_endproc
 299              	.LFE5:
 301              		.align	2
 302              		.globl	sem_open
 304              	sem_open:
 305              	.LFB6:
  59:src/API.c     **** 
  60:src/API.c     **** int sem_open(sem_t* handle, unsigned init) {
 306              		.loc 1 60 44 is_stmt 1
 307              		.cfi_startproc
 308              	.LVL19:
 309 0144 130101FF 		addi	sp,sp,-16
 310              		.cfi_def_cfa_offset 16
 311 0148 23348100 		sd	s0,8(sp)
 312              		.cfi_offset 8, -8
 313 014c 13040101 		addi	s0,sp,16
 314              		.cfi_def_cfa 8, 0
 315 0150 93070500 		mv	a5,a0
 316 0154 13860500 		mv	a2,a1
  61:src/API.c     ****     register size_t a0 asm("a0") = 0x21;
 317              		.loc 1 61 5
 318              		.loc 1 61 21 is_stmt 0
 319 0158 13051002 		li	a0,33
 320              	.LVL20:
  62:src/API.c     ****     register size_t a1 asm("a1") = (size_t)handle;
 321              		.loc 1 62 5 is_stmt 1
 322              		.loc 1 62 21 is_stmt 0
 323 015c 93850700 		mv	a1,a5
 324              	.LVL21:
  63:src/API.c     ****     register size_t a2 asm("a2") = (size_t)init;
 325              		.loc 1 63 5 is_stmt 1
 326              		.loc 1 63 21 is_stmt 0
 327 0160 13160602 		slli	a2,a2,32
 328 0164 13560602 		srli	a2,a2,32
  64:src/API.c     ****     __asm__ volatile("ecall" : "+r"(a0) : "r"(a1), "r"(a2));
 329              		.loc 1 64 5 is_stmt 1
 330              	#APP
 331              	# 64 "src/API.c" 1
  65              	    return (int)a0;
 332              		ecall
 333              	# 0 "" 2
 334              		.loc 1 65 5
  66:src/API.c     **** }
 335              		.loc 1 66 1 is_stmt 0
 336              	#NO_APP
 337 016c 1B050500 		sext.w	a0,a0
 338 0170 03348100 		ld	s0,8(sp)
 339              		.cfi_restore 8
 340              		.cfi_def_cfa 2, 16
 341 0174 13010101 		addi	sp,sp,16
 342              		.cfi_def_cfa_offset 0
 343 0178 67800000 		jr	ra
 344              		.cfi_endproc
GAS LISTING /tmp/ccKWmJPY.s 			page 8


 345              	.LFE6:
 347              		.align	2
 348              		.globl	sem_close
 350              	sem_close:
 351              	.LFB7:
  67:src/API.c     **** 
  68:src/API.c     **** int sem_close(sem_t handle) {
 352              		.loc 1 68 29 is_stmt 1
 353              		.cfi_startproc
 354              	.LVL22:
 355 017c 130101FF 		addi	sp,sp,-16
 356              		.cfi_def_cfa_offset 16
 357 0180 23348100 		sd	s0,8(sp)
 358              		.cfi_offset 8, -8
 359 0184 13040101 		addi	s0,sp,16
 360              		.cfi_def_cfa 8, 0
 361 0188 93050500 		mv	a1,a0
  69:src/API.c     ****     register size_t a0 asm("a0") = 0x22;
 362              		.loc 1 69 5
 363              		.loc 1 69 21 is_stmt 0
 364 018c 13052002 		li	a0,34
 365              	.LVL23:
  70:src/API.c     ****     register size_t a1 asm("a1") = (size_t)handle;
 366              		.loc 1 70 5 is_stmt 1
  71:src/API.c     ****     __asm__ volatile("ecall" : "+r"(a0) : "r"(a1));
 367              		.loc 1 71 5
 368              	#APP
 369              	# 71 "src/API.c" 1
  72              	    return (int)a0;
 370              		ecall
 371              	# 0 "" 2
 372              		.loc 1 72 5
  73:src/API.c     **** }
 373              		.loc 1 73 1 is_stmt 0
 374              	#NO_APP
 375 0194 1B050500 		sext.w	a0,a0
 376 0198 03348100 		ld	s0,8(sp)
 377              		.cfi_restore 8
 378              		.cfi_def_cfa 2, 16
 379 019c 13010101 		addi	sp,sp,16
 380              		.cfi_def_cfa_offset 0
 381 01a0 67800000 		jr	ra
 382              		.cfi_endproc
 383              	.LFE7:
 385              		.align	2
 386              		.globl	sem_wait
 388              	sem_wait:
 389              	.LFB8:
  74:src/API.c     **** 
  75:src/API.c     **** int sem_wait(sem_t id) {
 390              		.loc 1 75 24 is_stmt 1
 391              		.cfi_startproc
 392              	.LVL24:
 393 01a4 130101FF 		addi	sp,sp,-16
 394              		.cfi_def_cfa_offset 16
 395 01a8 23348100 		sd	s0,8(sp)
 396              		.cfi_offset 8, -8
GAS LISTING /tmp/ccKWmJPY.s 			page 9


 397 01ac 13040101 		addi	s0,sp,16
 398              		.cfi_def_cfa 8, 0
 399 01b0 93050500 		mv	a1,a0
  76:src/API.c     ****     register size_t a0 asm("a0") = 0x23;
 400              		.loc 1 76 5
 401              		.loc 1 76 21 is_stmt 0
 402 01b4 13053002 		li	a0,35
 403              	.LVL25:
  77:src/API.c     ****     register size_t a1 asm("a1") = (size_t)id;
 404              		.loc 1 77 5 is_stmt 1
  78:src/API.c     ****     __asm__ volatile("ecall" : "+r"(a0) : "r"(a1));
 405              		.loc 1 78 5
 406              	#APP
 407              	# 78 "src/API.c" 1
  79              	    return (int)a0;
 408              		ecall
 409              	# 0 "" 2
 410              		.loc 1 79 5
  80:src/API.c     **** }
 411              		.loc 1 80 1 is_stmt 0
 412              	#NO_APP
 413 01bc 1B050500 		sext.w	a0,a0
 414 01c0 03348100 		ld	s0,8(sp)
 415              		.cfi_restore 8
 416              		.cfi_def_cfa 2, 16
 417 01c4 13010101 		addi	sp,sp,16
 418              		.cfi_def_cfa_offset 0
 419 01c8 67800000 		jr	ra
 420              		.cfi_endproc
 421              	.LFE8:
 423              		.align	2
 424              		.globl	sem_signal
 426              	sem_signal:
 427              	.LFB9:
  81:src/API.c     **** 
  82:src/API.c     **** int sem_signal(sem_t id) {
 428              		.loc 1 82 26 is_stmt 1
 429              		.cfi_startproc
 430              	.LVL26:
 431 01cc 130101FF 		addi	sp,sp,-16
 432              		.cfi_def_cfa_offset 16
 433 01d0 23348100 		sd	s0,8(sp)
 434              		.cfi_offset 8, -8
 435 01d4 13040101 		addi	s0,sp,16
 436              		.cfi_def_cfa 8, 0
 437 01d8 93050500 		mv	a1,a0
  83:src/API.c     ****     register size_t a0 asm("a0") = 0x24;
 438              		.loc 1 83 5
 439              		.loc 1 83 21 is_stmt 0
 440 01dc 13054002 		li	a0,36
 441              	.LVL27:
  84:src/API.c     ****     register size_t a1 asm("a1") = (size_t)id;
 442              		.loc 1 84 5 is_stmt 1
  85:src/API.c     ****     __asm__ volatile("ecall" : "+r"(a0) : "r"(a1));
 443              		.loc 1 85 5
 444              	#APP
 445              	# 85 "src/API.c" 1
GAS LISTING /tmp/ccKWmJPY.s 			page 10


  86              	    return (int)a0;
 446              		ecall
 447              	# 0 "" 2
 448              		.loc 1 86 5
  87:src/API.c     **** }
 449              		.loc 1 87 1 is_stmt 0
 450              	#NO_APP
 451 01e4 1B050500 		sext.w	a0,a0
 452 01e8 03348100 		ld	s0,8(sp)
 453              		.cfi_restore 8
 454              		.cfi_def_cfa 2, 16
 455 01ec 13010101 		addi	sp,sp,16
 456              		.cfi_def_cfa_offset 0
 457 01f0 67800000 		jr	ra
 458              		.cfi_endproc
 459              	.LFE9:
 461              		.align	2
 462              		.globl	sem_wait_n
 464              	sem_wait_n:
 465              	.LFB10:
  88:src/API.c     **** 
  89:src/API.c     **** int sem_wait_n(sem_t id, unsigned n) {
 466              		.loc 1 89 38 is_stmt 1
 467              		.cfi_startproc
 468              	.LVL28:
 469 01f4 130101FF 		addi	sp,sp,-16
 470              		.cfi_def_cfa_offset 16
 471 01f8 23348100 		sd	s0,8(sp)
 472              		.cfi_offset 8, -8
 473 01fc 13040101 		addi	s0,sp,16
 474              		.cfi_def_cfa 8, 0
 475 0200 93070500 		mv	a5,a0
 476 0204 13860500 		mv	a2,a1
  90:src/API.c     ****     register size_t a0 asm("a0") = 0x25;
 477              		.loc 1 90 5
 478              		.loc 1 90 21 is_stmt 0
 479 0208 13055002 		li	a0,37
 480              	.LVL29:
  91:src/API.c     ****     register size_t a1 asm("a1") = (size_t)id;
 481              		.loc 1 91 5 is_stmt 1
 482              		.loc 1 91 21 is_stmt 0
 483 020c 93850700 		mv	a1,a5
 484              	.LVL30:
  92:src/API.c     ****     register size_t a2 asm("a2") = (size_t)n;
 485              		.loc 1 92 5 is_stmt 1
 486              		.loc 1 92 21 is_stmt 0
 487 0210 13160602 		slli	a2,a2,32
 488 0214 13560602 		srli	a2,a2,32
  93:src/API.c     ****     __asm__ volatile("ecall" : "+r"(a0) : "r"(a1), "r"(a2));
 489              		.loc 1 93 5 is_stmt 1
 490              	#APP
 491              	# 93 "src/API.c" 1
  94              	    return (int)a0;
 492              		ecall
 493              	# 0 "" 2
 494              		.loc 1 94 5
  95:src/API.c     **** }
GAS LISTING /tmp/ccKWmJPY.s 			page 11


 495              		.loc 1 95 1 is_stmt 0
 496              	#NO_APP
 497 021c 1B050500 		sext.w	a0,a0
 498 0220 03348100 		ld	s0,8(sp)
 499              		.cfi_restore 8
 500              		.cfi_def_cfa 2, 16
 501 0224 13010101 		addi	sp,sp,16
 502              		.cfi_def_cfa_offset 0
 503 0228 67800000 		jr	ra
 504              		.cfi_endproc
 505              	.LFE10:
 507              		.align	2
 508              		.globl	sem_signal_n
 510              	sem_signal_n:
 511              	.LFB11:
  96:src/API.c     **** 
  97:src/API.c     **** int sem_signal_n(sem_t id, unsigned n) {
 512              		.loc 1 97 40 is_stmt 1
 513              		.cfi_startproc
 514              	.LVL31:
 515 022c 130101FF 		addi	sp,sp,-16
 516              		.cfi_def_cfa_offset 16
 517 0230 23348100 		sd	s0,8(sp)
 518              		.cfi_offset 8, -8
 519 0234 13040101 		addi	s0,sp,16
 520              		.cfi_def_cfa 8, 0
 521 0238 93070500 		mv	a5,a0
 522 023c 13860500 		mv	a2,a1
  98:src/API.c     ****     register size_t a0 asm("a0") = 0x26;
 523              		.loc 1 98 5
 524              		.loc 1 98 21 is_stmt 0
 525 0240 13056002 		li	a0,38
 526              	.LVL32:
  99:src/API.c     ****     register size_t a1 asm("a1") = (size_t)id;
 527              		.loc 1 99 5 is_stmt 1
 528              		.loc 1 99 21 is_stmt 0
 529 0244 93850700 		mv	a1,a5
 530              	.LVL33:
 100:src/API.c     ****     register size_t a2 asm("a2") = (size_t)n;
 531              		.loc 1 100 5 is_stmt 1
 532              		.loc 1 100 21 is_stmt 0
 533 0248 13160602 		slli	a2,a2,32
 534 024c 13560602 		srli	a2,a2,32
 101:src/API.c     ****     __asm__ volatile("ecall" : "+r"(a0) : "r"(a1), "r"(a2));
 535              		.loc 1 101 5 is_stmt 1
 536              	#APP
 537              	# 101 "src/API.c" 1
 102              	    return (int)a0;
 538              		ecall
 539              	# 0 "" 2
 540              		.loc 1 102 5
 103:src/API.c     **** }...
 541              		.loc 1 103 1 is_stmt 0
 542              	#NO_APP
 543 0254 1B050500 		sext.w	a0,a0
 544 0258 03348100 		ld	s0,8(sp)
 545              		.cfi_restore 8
GAS LISTING /tmp/ccKWmJPY.s 			page 12


 546              		.cfi_def_cfa 2, 16
 547 025c 13010101 		addi	sp,sp,16
 548              		.cfi_def_cfa_offset 0
 549 0260 67800000 		jr	ra
 550              		.cfi_endproc
 551              	.LFE11:
 553              	.Letext0:
 554              		.file 2 "src/./../lib/hw.h"
 555              		.file 3 "src/./APIC.h"
GAS LISTING /tmp/ccKWmJPY.s 			page 13


DEFINED SYMBOLS
                            *ABS*:0000000000000000 API.c
     /tmp/ccKWmJPY.s:10     .text:0000000000000000 mem_alloc
     /tmp/ccKWmJPY.s:14     .text:0000000000000000 .L0 
     /tmp/ccKWmJPY.s:16     .text:0000000000000000 .L0 
     /tmp/ccKWmJPY.s:17     .text:0000000000000004 .L0 
     /tmp/ccKWmJPY.s:19     .text:0000000000000008 .L0 
     /tmp/ccKWmJPY.s:21     .text:000000000000000c .L0 
     /tmp/ccKWmJPY.s:24     .text:000000000000000c .L0 
           src/API.c:10     .text:000000000000000c .L0 
     /tmp/ccKWmJPY.s:31     .text:0000000000000010 .L0 
           src/API.c:12     .text:0000000000000018 .L0 
     /tmp/ccKWmJPY.s:41     .text:000000000000001c .L0 
           src/API.c:14     .text:000000000000001c .L0 
     /tmp/ccKWmJPY.s:47     .text:0000000000000020 .L0 
     /tmp/ccKWmJPY.s:49     .text:0000000000000020 .L0 
     /tmp/ccKWmJPY.s:50     .text:0000000000000024 .L0 
     /tmp/ccKWmJPY.s:51     .text:0000000000000024 .L0 
     /tmp/ccKWmJPY.s:53     .text:0000000000000028 .L0 
     /tmp/ccKWmJPY.s:55     .text:000000000000002c .L0 
     /tmp/ccKWmJPY.s:61     .text:000000000000002c mem_free
     /tmp/ccKWmJPY.s:64     .text:000000000000002c .L0 
     /tmp/ccKWmJPY.s:66     .text:000000000000002c .L0 
     /tmp/ccKWmJPY.s:67     .text:0000000000000030 .L0 
     /tmp/ccKWmJPY.s:69     .text:0000000000000034 .L0 
     /tmp/ccKWmJPY.s:71     .text:0000000000000038 .L0 
     /tmp/ccKWmJPY.s:74     .text:0000000000000038 .L0 
           src/API.c:20     .text:0000000000000038 .L0 
     /tmp/ccKWmJPY.s:81     .text:000000000000003c .L0 
           src/API.c:22     .text:0000000000000044 .L0 
     /tmp/ccKWmJPY.s:91     .text:0000000000000048 .L0 
     /tmp/ccKWmJPY.s:93     .text:0000000000000048 .L0 
     /tmp/ccKWmJPY.s:96     .text:0000000000000050 .L0 
     /tmp/ccKWmJPY.s:97     .text:0000000000000050 .L0 
     /tmp/ccKWmJPY.s:99     .text:0000000000000054 .L0 
     /tmp/ccKWmJPY.s:101    .text:0000000000000058 .L0 
     /tmp/ccKWmJPY.s:107    .text:0000000000000058 thread_create
     /tmp/ccKWmJPY.s:110    .text:0000000000000058 .L0 
     /tmp/ccKWmJPY.s:112    .text:0000000000000058 .L0 
     /tmp/ccKWmJPY.s:113    .text:000000000000005c .L0 
     /tmp/ccKWmJPY.s:119    .text:0000000000000070 .L0 
     /tmp/ccKWmJPY.s:120    .text:0000000000000070 .L0 
     /tmp/ccKWmJPY.s:121    .text:0000000000000070 .L0 
     /tmp/ccKWmJPY.s:122    .text:0000000000000070 .L0 
     /tmp/ccKWmJPY.s:123    .text:0000000000000070 .L0 
     /tmp/ccKWmJPY.s:125    .text:0000000000000074 .L0 
     /tmp/ccKWmJPY.s:130    .text:0000000000000080 .L0 
     /tmp/ccKWmJPY.s:131    .text:0000000000000080 .L0 
     /tmp/ccKWmJPY.s:136    .text:000000000000008c .L0 
     /tmp/ccKWmJPY.s:137    .text:000000000000008c .L0 
     /tmp/ccKWmJPY.s:140    .text:0000000000000094 .L0 
     /tmp/ccKWmJPY.s:141    .text:0000000000000094 .L0 
     /tmp/ccKWmJPY.s:144    .text:0000000000000098 .L0 
     /tmp/ccKWmJPY.s:145    .text:0000000000000098 .L0 
     /tmp/ccKWmJPY.s:147    .text:000000000000009c .L0 
     /tmp/ccKWmJPY.s:148    .text:000000000000009c .L0 
     /tmp/ccKWmJPY.s:150    .text:00000000000000a0 .L0 
GAS LISTING /tmp/ccKWmJPY.s 			page 14


     /tmp/ccKWmJPY.s:151    .text:00000000000000a0 .L0 
     /tmp/ccKWmJPY.s:153    .text:00000000000000a4 .L0 
     /tmp/ccKWmJPY.s:154    .text:00000000000000a4 .L0 
           src/API.c:35     .text:00000000000000ac .L0 
     /tmp/ccKWmJPY.s:163    .text:00000000000000b0 .L0 
     /tmp/ccKWmJPY.s:165    .text:00000000000000b0 .L0 
     /tmp/ccKWmJPY.s:169    .text:00000000000000b4 .L0 
     /tmp/ccKWmJPY.s:170    .text:00000000000000b8 .L0 
     /tmp/ccKWmJPY.s:171    .text:00000000000000b8 .L0 
     /tmp/ccKWmJPY.s:173    .text:00000000000000bc .L0 
     /tmp/ccKWmJPY.s:174    .text:00000000000000bc .L0 
     /tmp/ccKWmJPY.s:176    .text:00000000000000c0 .L0 
     /tmp/ccKWmJPY.s:179    .text:00000000000000c4 .L0 
     /tmp/ccKWmJPY.s:182    .text:00000000000000c8 .L0 
     /tmp/ccKWmJPY.s:185    .text:00000000000000cc .L0 
     /tmp/ccKWmJPY.s:189    .text:00000000000000d0 .L0 
     /tmp/ccKWmJPY.s:191    .text:00000000000000d0 .L0 
     /tmp/ccKWmJPY.s:194    .text:00000000000000d8 .L0 
     /tmp/ccKWmJPY.s:200    .text:00000000000000d8 thread_exit
     /tmp/ccKWmJPY.s:203    .text:00000000000000d8 .L0 
     /tmp/ccKWmJPY.s:204    .text:00000000000000d8 .L0 
     /tmp/ccKWmJPY.s:205    .text:00000000000000dc .L0 
     /tmp/ccKWmJPY.s:207    .text:00000000000000e0 .L0 
     /tmp/ccKWmJPY.s:209    .text:00000000000000e4 .L0 
     /tmp/ccKWmJPY.s:211    .text:00000000000000e4 .L0 
     /tmp/ccKWmJPY.s:212    .text:00000000000000e4 .L0 
           src/API.c:44     .text:00000000000000e8 .L0 
     /tmp/ccKWmJPY.s:219    .text:00000000000000ec .L0 
     /tmp/ccKWmJPY.s:221    .text:00000000000000ec .L0 
     /tmp/ccKWmJPY.s:223    .text:00000000000000f4 .L0 
     /tmp/ccKWmJPY.s:224    .text:00000000000000f4 .L0 
     /tmp/ccKWmJPY.s:226    .text:00000000000000f8 .L0 
     /tmp/ccKWmJPY.s:228    .text:00000000000000fc .L0 
     /tmp/ccKWmJPY.s:234    .text:00000000000000fc thread_dispatch
     /tmp/ccKWmJPY.s:237    .text:00000000000000fc .L0 
     /tmp/ccKWmJPY.s:238    .text:00000000000000fc .L0 
     /tmp/ccKWmJPY.s:239    .text:0000000000000100 .L0 
     /tmp/ccKWmJPY.s:241    .text:0000000000000104 .L0 
     /tmp/ccKWmJPY.s:243    .text:0000000000000108 .L0 
     /tmp/ccKWmJPY.s:245    .text:0000000000000108 .L0 
     /tmp/ccKWmJPY.s:246    .text:0000000000000108 .L0 
           src/API.c:50     .text:000000000000010c .L0 
     /tmp/ccKWmJPY.s:254    .text:0000000000000110 .L0 
     /tmp/ccKWmJPY.s:255    .text:0000000000000114 .L0 
     /tmp/ccKWmJPY.s:256    .text:0000000000000114 .L0 
     /tmp/ccKWmJPY.s:258    .text:0000000000000118 .L0 
     /tmp/ccKWmJPY.s:260    .text:000000000000011c .L0 
     /tmp/ccKWmJPY.s:266    .text:000000000000011c time_sleep
     /tmp/ccKWmJPY.s:269    .text:000000000000011c .L0 
     /tmp/ccKWmJPY.s:271    .text:000000000000011c .L0 
     /tmp/ccKWmJPY.s:272    .text:0000000000000120 .L0 
     /tmp/ccKWmJPY.s:274    .text:0000000000000124 .L0 
     /tmp/ccKWmJPY.s:276    .text:0000000000000128 .L0 
     /tmp/ccKWmJPY.s:279    .text:000000000000012c .L0 
     /tmp/ccKWmJPY.s:280    .text:000000000000012c .L0 
     /tmp/ccKWmJPY.s:283    .text:0000000000000130 .L0 
           src/API.c:56     .text:0000000000000130 .L0 
GAS LISTING /tmp/ccKWmJPY.s 			page 15


     /tmp/ccKWmJPY.s:289    .text:0000000000000134 .L0 
     /tmp/ccKWmJPY.s:291    .text:0000000000000134 .L0 
     /tmp/ccKWmJPY.s:293    .text:000000000000013c .L0 
     /tmp/ccKWmJPY.s:294    .text:000000000000013c .L0 
     /tmp/ccKWmJPY.s:296    .text:0000000000000140 .L0 
     /tmp/ccKWmJPY.s:298    .text:0000000000000144 .L0 
     /tmp/ccKWmJPY.s:304    .text:0000000000000144 sem_open
     /tmp/ccKWmJPY.s:307    .text:0000000000000144 .L0 
     /tmp/ccKWmJPY.s:309    .text:0000000000000144 .L0 
     /tmp/ccKWmJPY.s:310    .text:0000000000000148 .L0 
     /tmp/ccKWmJPY.s:312    .text:000000000000014c .L0 
     /tmp/ccKWmJPY.s:314    .text:0000000000000150 .L0 
     /tmp/ccKWmJPY.s:318    .text:0000000000000158 .L0 
     /tmp/ccKWmJPY.s:319    .text:0000000000000158 .L0 
     /tmp/ccKWmJPY.s:322    .text:000000000000015c .L0 
     /tmp/ccKWmJPY.s:323    .text:000000000000015c .L0 
     /tmp/ccKWmJPY.s:326    .text:0000000000000160 .L0 
     /tmp/ccKWmJPY.s:327    .text:0000000000000160 .L0 
           src/API.c:64     .text:0000000000000168 .L0 
     /tmp/ccKWmJPY.s:335    .text:000000000000016c .L0 
     /tmp/ccKWmJPY.s:337    .text:000000000000016c .L0 
     /tmp/ccKWmJPY.s:339    .text:0000000000000174 .L0 
     /tmp/ccKWmJPY.s:340    .text:0000000000000174 .L0 
     /tmp/ccKWmJPY.s:342    .text:0000000000000178 .L0 
     /tmp/ccKWmJPY.s:344    .text:000000000000017c .L0 
     /tmp/ccKWmJPY.s:350    .text:000000000000017c sem_close
     /tmp/ccKWmJPY.s:353    .text:000000000000017c .L0 
     /tmp/ccKWmJPY.s:355    .text:000000000000017c .L0 
     /tmp/ccKWmJPY.s:356    .text:0000000000000180 .L0 
     /tmp/ccKWmJPY.s:358    .text:0000000000000184 .L0 
     /tmp/ccKWmJPY.s:360    .text:0000000000000188 .L0 
     /tmp/ccKWmJPY.s:363    .text:000000000000018c .L0 
     /tmp/ccKWmJPY.s:364    .text:000000000000018c .L0 
     /tmp/ccKWmJPY.s:367    .text:0000000000000190 .L0 
           src/API.c:71     .text:0000000000000190 .L0 
     /tmp/ccKWmJPY.s:373    .text:0000000000000194 .L0 
     /tmp/ccKWmJPY.s:375    .text:0000000000000194 .L0 
     /tmp/ccKWmJPY.s:377    .text:000000000000019c .L0 
     /tmp/ccKWmJPY.s:378    .text:000000000000019c .L0 
     /tmp/ccKWmJPY.s:380    .text:00000000000001a0 .L0 
     /tmp/ccKWmJPY.s:382    .text:00000000000001a4 .L0 
     /tmp/ccKWmJPY.s:388    .text:00000000000001a4 sem_wait
     /tmp/ccKWmJPY.s:391    .text:00000000000001a4 .L0 
     /tmp/ccKWmJPY.s:393    .text:00000000000001a4 .L0 
     /tmp/ccKWmJPY.s:394    .text:00000000000001a8 .L0 
     /tmp/ccKWmJPY.s:396    .text:00000000000001ac .L0 
     /tmp/ccKWmJPY.s:398    .text:00000000000001b0 .L0 
     /tmp/ccKWmJPY.s:401    .text:00000000000001b4 .L0 
     /tmp/ccKWmJPY.s:402    .text:00000000000001b4 .L0 
     /tmp/ccKWmJPY.s:405    .text:00000000000001b8 .L0 
           src/API.c:78     .text:00000000000001b8 .L0 
     /tmp/ccKWmJPY.s:411    .text:00000000000001bc .L0 
     /tmp/ccKWmJPY.s:413    .text:00000000000001bc .L0 
     /tmp/ccKWmJPY.s:415    .text:00000000000001c4 .L0 
     /tmp/ccKWmJPY.s:416    .text:00000000000001c4 .L0 
     /tmp/ccKWmJPY.s:418    .text:00000000000001c8 .L0 
     /tmp/ccKWmJPY.s:420    .text:00000000000001cc .L0 
GAS LISTING /tmp/ccKWmJPY.s 			page 16


     /tmp/ccKWmJPY.s:426    .text:00000000000001cc sem_signal
     /tmp/ccKWmJPY.s:429    .text:00000000000001cc .L0 
     /tmp/ccKWmJPY.s:431    .text:00000000000001cc .L0 
     /tmp/ccKWmJPY.s:432    .text:00000000000001d0 .L0 
     /tmp/ccKWmJPY.s:434    .text:00000000000001d4 .L0 
     /tmp/ccKWmJPY.s:436    .text:00000000000001d8 .L0 
     /tmp/ccKWmJPY.s:439    .text:00000000000001dc .L0 
     /tmp/ccKWmJPY.s:440    .text:00000000000001dc .L0 
     /tmp/ccKWmJPY.s:443    .text:00000000000001e0 .L0 
           src/API.c:85     .text:00000000000001e0 .L0 
     /tmp/ccKWmJPY.s:449    .text:00000000000001e4 .L0 
     /tmp/ccKWmJPY.s:451    .text:00000000000001e4 .L0 
     /tmp/ccKWmJPY.s:453    .text:00000000000001ec .L0 
     /tmp/ccKWmJPY.s:454    .text:00000000000001ec .L0 
     /tmp/ccKWmJPY.s:456    .text:00000000000001f0 .L0 
     /tmp/ccKWmJPY.s:458    .text:00000000000001f4 .L0 
     /tmp/ccKWmJPY.s:464    .text:00000000000001f4 sem_wait_n
     /tmp/ccKWmJPY.s:467    .text:00000000000001f4 .L0 
     /tmp/ccKWmJPY.s:469    .text:00000000000001f4 .L0 
     /tmp/ccKWmJPY.s:470    .text:00000000000001f8 .L0 
     /tmp/ccKWmJPY.s:472    .text:00000000000001fc .L0 
     /tmp/ccKWmJPY.s:474    .text:0000000000000200 .L0 
     /tmp/ccKWmJPY.s:478    .text:0000000000000208 .L0 
     /tmp/ccKWmJPY.s:479    .text:0000000000000208 .L0 
     /tmp/ccKWmJPY.s:482    .text:000000000000020c .L0 
     /tmp/ccKWmJPY.s:483    .text:000000000000020c .L0 
     /tmp/ccKWmJPY.s:486    .text:0000000000000210 .L0 
     /tmp/ccKWmJPY.s:487    .text:0000000000000210 .L0 
           src/API.c:93     .text:0000000000000218 .L0 
     /tmp/ccKWmJPY.s:495    .text:000000000000021c .L0 
     /tmp/ccKWmJPY.s:497    .text:000000000000021c .L0 
     /tmp/ccKWmJPY.s:499    .text:0000000000000224 .L0 
     /tmp/ccKWmJPY.s:500    .text:0000000000000224 .L0 
     /tmp/ccKWmJPY.s:502    .text:0000000000000228 .L0 
     /tmp/ccKWmJPY.s:504    .text:000000000000022c .L0 
     /tmp/ccKWmJPY.s:510    .text:000000000000022c sem_signal_n
     /tmp/ccKWmJPY.s:513    .text:000000000000022c .L0 
     /tmp/ccKWmJPY.s:515    .text:000000000000022c .L0 
     /tmp/ccKWmJPY.s:516    .text:0000000000000230 .L0 
     /tmp/ccKWmJPY.s:518    .text:0000000000000234 .L0 
     /tmp/ccKWmJPY.s:520    .text:0000000000000238 .L0 
     /tmp/ccKWmJPY.s:524    .text:0000000000000240 .L0 
     /tmp/ccKWmJPY.s:525    .text:0000000000000240 .L0 
     /tmp/ccKWmJPY.s:528    .text:0000000000000244 .L0 
     /tmp/ccKWmJPY.s:529    .text:0000000000000244 .L0 
     /tmp/ccKWmJPY.s:532    .text:0000000000000248 .L0 
     /tmp/ccKWmJPY.s:533    .text:0000000000000248 .L0 
           src/API.c:101    .text:0000000000000250 .L0 
     /tmp/ccKWmJPY.s:541    .text:0000000000000254 .L0 
     /tmp/ccKWmJPY.s:543    .text:0000000000000254 .L0 
     /tmp/ccKWmJPY.s:545    .text:000000000000025c .L0 
     /tmp/ccKWmJPY.s:546    .text:000000000000025c .L0 
     /tmp/ccKWmJPY.s:548    .text:0000000000000260 .L0 
     /tmp/ccKWmJPY.s:550    .text:0000000000000264 .L0 
     /tmp/ccKWmJPY.s:556    .text:0000000000000264 .L0 
                     .debug_frame:0000000000000000 .L0 
     /tmp/ccKWmJPY.s:188    .text:00000000000000d0 .L7
GAS LISTING /tmp/ccKWmJPY.s 			page 17


     /tmp/ccKWmJPY.s:167    .text:00000000000000b4 .L6
     /tmp/ccKWmJPY.s:1196   .debug_abbrev:0000000000000000 .Ldebug_abbrev0
     /tmp/ccKWmJPY.s:1834   .debug_str:000000000000012e .LASF39
     /tmp/ccKWmJPY.s:1840   .debug_str:00000000000001e4 .LASF40
     /tmp/ccKWmJPY.s:1812   .debug_str:0000000000000099 .LASF41
     /tmp/ccKWmJPY.s:5      .text:0000000000000000 .Ltext0
     /tmp/ccKWmJPY.s:553    .text:0000000000000264 .Letext0
     /tmp/ccKWmJPY.s:1786   .debug_line:0000000000000000 .Ldebug_line0
     /tmp/ccKWmJPY.s:1836   .debug_str:00000000000001cc .LASF0
     /tmp/ccKWmJPY.s:1818   .debug_str:00000000000000d3 .LASF1
     /tmp/ccKWmJPY.s:1810   .debug_str:000000000000008b .LASF2
     /tmp/ccKWmJPY.s:1796   .debug_str:000000000000002e .LASF4
     /tmp/ccKWmJPY.s:1816   .debug_str:00000000000000c1 .LASF3
     /tmp/ccKWmJPY.s:1790   .debug_str:0000000000000013 .LASF5
     /tmp/ccKWmJPY.s:1842   .debug_str:00000000000001ee .LASF6
     /tmp/ccKWmJPY.s:1788   .debug_str:0000000000000000 .LASF7
     /tmp/ccKWmJPY.s:1804   .debug_str:000000000000005e .LASF8
     /tmp/ccKWmJPY.s:1844   .debug_str:00000000000001f5 .LASF9
     /tmp/ccKWmJPY.s:1794   .debug_str:0000000000000020 .LASF10
     /tmp/ccKWmJPY.s:1870   .debug_str:000000000000028c .LASF11
     /tmp/ccKWmJPY.s:1806   .debug_str:0000000000000071 .LASF12
     /tmp/ccKWmJPY.s:1862   .debug_str:0000000000000261 .LASF13
     /tmp/ccKWmJPY.s:1850   .debug_str:0000000000000224 .LASF14
     /tmp/ccKWmJPY.s:1822   .debug_str:00000000000000f4 .LASF15
     /tmp/ccKWmJPY.s:1802   .debug_str:0000000000000048 .LASF16
     /tmp/ccKWmJPY.s:1846   .debug_str:0000000000000205 .LASF17
     /tmp/ccKWmJPY.s:1848   .debug_str:000000000000021b .LASF18
     /tmp/ccKWmJPY.s:1792   .debug_str:000000000000001a .LASF19
     /tmp/ccKWmJPY.s:1800   .debug_str:000000000000003b .LASF20
     /tmp/ccKWmJPY.s:511    .text:000000000000022c .LFB11
     /tmp/ccKWmJPY.s:551    .text:0000000000000264 .LFE11
     /tmp/ccKWmJPY.s:1539   .debug_loc:0000000000000000 .LLST14
     /tmp/ccKWmJPY.s:1550   .debug_loc:0000000000000036 .LLST15
     /tmp/ccKWmJPY.s:1808   .debug_str:0000000000000080 .LASF21
     /tmp/ccKWmJPY.s:465    .text:00000000000001f4 .LFB10
     /tmp/ccKWmJPY.s:505    .text:000000000000022c .LFE10
     /tmp/ccKWmJPY.s:1564   .debug_loc:000000000000006f .LLST12
     /tmp/ccKWmJPY.s:1575   .debug_loc:00000000000000a5 .LLST13
     /tmp/ccKWmJPY.s:1826   .debug_str:0000000000000107 .LASF22
     /tmp/ccKWmJPY.s:427    .text:00000000000001cc .LFB9
     /tmp/ccKWmJPY.s:459    .text:00000000000001f4 .LFE9
     /tmp/ccKWmJPY.s:1589   .debug_loc:00000000000000de .LLST11
     /tmp/ccKWmJPY.s:1830   .debug_str:0000000000000120 .LASF23
     /tmp/ccKWmJPY.s:389    .text:00000000000001a4 .LFB8
     /tmp/ccKWmJPY.s:421    .text:00000000000001cc .LFE8
     /tmp/ccKWmJPY.s:1600   .debug_loc:0000000000000114 .LLST10
     /tmp/ccKWmJPY.s:1814   .debug_str:00000000000000b7 .LASF24
     /tmp/ccKWmJPY.s:351    .text:000000000000017c .LFB7
     /tmp/ccKWmJPY.s:383    .text:00000000000001a4 .LFE7
     /tmp/ccKWmJPY.s:1824   .debug_str:0000000000000100 .LASF25
     /tmp/ccKWmJPY.s:1611   .debug_loc:000000000000014a .LLST9
     /tmp/ccKWmJPY.s:1860   .debug_str:0000000000000258 .LASF26
     /tmp/ccKWmJPY.s:305    .text:0000000000000144 .LFB6
     /tmp/ccKWmJPY.s:345    .text:000000000000017c .LFE6
     /tmp/ccKWmJPY.s:1622   .debug_loc:0000000000000180 .LLST7
     /tmp/ccKWmJPY.s:1854   .debug_str:000000000000023d .LASF27
     /tmp/ccKWmJPY.s:1633   .debug_loc:00000000000001b6 .LLST8
GAS LISTING /tmp/ccKWmJPY.s 			page 18


     /tmp/ccKWmJPY.s:1838   .debug_str:00000000000001d9 .LASF28
     /tmp/ccKWmJPY.s:267    .text:000000000000011c .LFB5
     /tmp/ccKWmJPY.s:299    .text:0000000000000144 .LFE5
     /tmp/ccKWmJPY.s:1647   .debug_loc:00000000000001ef .LLST6
     /tmp/ccKWmJPY.s:1856   .debug_str:0000000000000242 .LASF35
     /tmp/ccKWmJPY.s:235    .text:00000000000000fc .LFB4
     /tmp/ccKWmJPY.s:261    .text:000000000000011c .LFE4
     /tmp/ccKWmJPY.s:1864   .debug_str:0000000000000271 .LASF29
     /tmp/ccKWmJPY.s:201    .text:00000000000000d8 .LFB3
     /tmp/ccKWmJPY.s:229    .text:00000000000000fc .LFE3
     /tmp/ccKWmJPY.s:1820   .debug_str:00000000000000e6 .LASF30
     /tmp/ccKWmJPY.s:108    .text:0000000000000058 .LFB2
     /tmp/ccKWmJPY.s:195    .text:00000000000000d8 .LFE2
     /tmp/ccKWmJPY.s:1658   .debug_loc:0000000000000225 .LLST2
     /tmp/ccKWmJPY.s:1828   .debug_str:0000000000000112 .LASF31
     /tmp/ccKWmJPY.s:1680   .debug_loc:0000000000000284 .LLST3
     /tmp/ccKWmJPY.s:1702   .debug_loc:00000000000002e3 .LLST4
     /tmp/ccKWmJPY.s:1798   .debug_str:0000000000000035 .LASF32
     /tmp/ccKWmJPY.s:1724   .debug_loc:0000000000000342 .LLST5
     /tmp/ccKWmJPY.s:134    .text:000000000000008c .LVL8
     /tmp/ccKWmJPY.s:1852   .debug_str:0000000000000234 .LASF33
     /tmp/ccKWmJPY.s:62     .text:000000000000002c .LFB1
     /tmp/ccKWmJPY.s:102    .text:0000000000000058 .LFE1
     /tmp/ccKWmJPY.s:1745   .debug_loc:00000000000003a2 .LLST1
     /tmp/ccKWmJPY.s:1832   .debug_str:0000000000000129 .LASF34
     /tmp/ccKWmJPY.s:1866   .debug_str:000000000000027d .LASF36
     /tmp/ccKWmJPY.s:11     .text:0000000000000000 .LFB0
     /tmp/ccKWmJPY.s:56     .text:000000000000002c .LFE0
     /tmp/ccKWmJPY.s:1868   .debug_str:0000000000000287 .LASF37
     /tmp/ccKWmJPY.s:1759   .debug_loc:00000000000003db .LLST0
     /tmp/ccKWmJPY.s:1858   .debug_str:0000000000000252 .LASF38
     /tmp/ccKWmJPY.s:514    .text:000000000000022c .LVL31
     /tmp/ccKWmJPY.s:526    .text:0000000000000244 .LVL32
     /tmp/ccKWmJPY.s:530    .text:0000000000000248 .LVL33
     /tmp/ccKWmJPY.s:468    .text:00000000000001f4 .LVL28
     /tmp/ccKWmJPY.s:480    .text:000000000000020c .LVL29
     /tmp/ccKWmJPY.s:484    .text:0000000000000210 .LVL30
     /tmp/ccKWmJPY.s:430    .text:00000000000001cc .LVL26
     /tmp/ccKWmJPY.s:441    .text:00000000000001e0 .LVL27
     /tmp/ccKWmJPY.s:392    .text:00000000000001a4 .LVL24
     /tmp/ccKWmJPY.s:403    .text:00000000000001b8 .LVL25
     /tmp/ccKWmJPY.s:354    .text:000000000000017c .LVL22
     /tmp/ccKWmJPY.s:365    .text:0000000000000190 .LVL23
     /tmp/ccKWmJPY.s:308    .text:0000000000000144 .LVL19
     /tmp/ccKWmJPY.s:320    .text:000000000000015c .LVL20
     /tmp/ccKWmJPY.s:324    .text:0000000000000160 .LVL21
     /tmp/ccKWmJPY.s:270    .text:000000000000011c .LVL17
     /tmp/ccKWmJPY.s:281    .text:0000000000000130 .LVL18
     /tmp/ccKWmJPY.s:111    .text:0000000000000058 .LVL6
     /tmp/ccKWmJPY.s:132    .text:0000000000000084 .LVL7
     /tmp/ccKWmJPY.s:183    .text:00000000000000c8 .LVL14
     /tmp/ccKWmJPY.s:187    .text:00000000000000d0 .LVL15
     /tmp/ccKWmJPY.s:180    .text:00000000000000c4 .LVL13
     /tmp/ccKWmJPY.s:177    .text:00000000000000c0 .LVL12
     /tmp/ccKWmJPY.s:142    .text:0000000000000098 .LVL9
     /tmp/ccKWmJPY.s:156    .text:00000000000000ac .LVL10
     /tmp/ccKWmJPY.s:166    .text:00000000000000b4 .LVL11
GAS LISTING /tmp/ccKWmJPY.s 			page 19


     /tmp/ccKWmJPY.s:192    .text:00000000000000d4 .LVL16
     /tmp/ccKWmJPY.s:65     .text:000000000000002c .LVL3
     /tmp/ccKWmJPY.s:94     .text:000000000000004c .LVL5
     /tmp/ccKWmJPY.s:15     .text:0000000000000000 .LVL0
     /tmp/ccKWmJPY.s:45     .text:0000000000000020 .LVL2
     /tmp/ccKWmJPY.s:557    .debug_info:0000000000000000 .Ldebug_info0

NO UNDEFINED SYMBOLS
