GAS LISTING /tmp/ccXTE6El.s 			page 1


   1              		.file	"API.c"
   2              		.option nopic
   3              		.option norelax
   4              		.text
   5              	.Ltext0:
   6              		.cfi_sections	.debug_frame
   7              		.align	2
   8              		.globl	mem_alloc
  10              	mem_alloc:
  11              	.LFB0:
  12              		.file 1 "src/API.c"
   1:src/API.c     **** //
   2:src/API.c     **** // Created by os on 5/6/26.
   3:src/API.c     **** //
   4:src/API.c     **** 
   5:src/API.c     **** #include "./APIC.h"
   6:src/API.c     **** #include "../lib/hw.h"
   7:src/API.c     **** 
   8:src/API.c     **** void* mem_alloc(size_t size){
  13              		.loc 1 8 29
  14              		.cfi_startproc
  15              	.LVL0:
  16 0000 130101FF 		addi	sp,sp,-16
  17              		.cfi_def_cfa_offset 16
  18 0004 23348100 		sd	s0,8(sp)
  19              		.cfi_offset 8, -8
  20 0008 13040101 		addi	s0,sp,16
  21              		.cfi_def_cfa 8, 0
   9:src/API.c     ****     uint64 code=0x01;
  22              		.loc 1 9 5
  23              	.LVL1:
  10:src/API.c     ****     __asm__ volatile("mv a1,%[size]"::[size]"r"(size));
  24              		.loc 1 10 5
  25              	#APP
  26              	# 10 "src/API.c" 1
  11              	    __asm__ volatile("mv a0,%[code]"::[code]"r"(code));
  27              		mv a1,a0
  28              	# 0 "" 2
  29              		.loc 1 11 5
  30              	#NO_APP
  31 0010 93071000 		li	a5,1
  32              	#APP
  33              	# 11 "src/API.c" 1
  12              	    __asm__ volatile("ecall");
  34              		mv a0,a5
  35              	# 0 "" 2
  36              		.loc 1 12 5
  37              	# 12 "src/API.c" 1
  13              	    void* value;
  38              		ecall
  39              	# 0 "" 2
  40              		.loc 1 13 5
  14:src/API.c     ****     __asm__ volatile ("mv %0, a0" : "=r"(value));
  41              		.loc 1 14 5
  42              	# 14 "src/API.c" 1
  15              	    return (void*)value;
  43              		mv a0, a0
GAS LISTING /tmp/ccXTE6El.s 			page 2


  44              	# 0 "" 2
  45              	.LVL2:
  46              		.loc 1 15 5
  16:src/API.c     **** }
  47              		.loc 1 16 1 is_stmt 0
  48              	#NO_APP
  49 0020 03348100 		ld	s0,8(sp)
  50              		.cfi_restore 8
  51              		.cfi_def_cfa 2, 16
  52 0024 13010101 		addi	sp,sp,16
  53              		.cfi_def_cfa_offset 0
  54 0028 67800000 		jr	ra
  55              		.cfi_endproc
  56              	.LFE0:
  58              		.align	2
  59              		.globl	mem_free
  61              	mem_free:
  62              	.LFB1:
  17:src/API.c     **** 
  18:src/API.c     **** int mem_free(void* ptr){
  63              		.loc 1 18 24 is_stmt 1
  64              		.cfi_startproc
  65              	.LVL3:
  66 002c 130101FF 		addi	sp,sp,-16
  67              		.cfi_def_cfa_offset 16
  68 0030 23348100 		sd	s0,8(sp)
  69              		.cfi_offset 8, -8
  70 0034 13040101 		addi	s0,sp,16
  71              		.cfi_def_cfa 8, 0
  19:src/API.c     ****     uint64 code=0x02;
  72              		.loc 1 19 5
  73              	.LVL4:
  20:src/API.c     ****     __asm__ volatile("mv a1,a0");
  74              		.loc 1 20 5
  75              	#APP
  76              	# 20 "src/API.c" 1
  21              	    __asm__ volatile("mv a0,%[code]"::[code]"r"(code));
  77              		mv a1,a0
  78              	# 0 "" 2
  79              		.loc 1 21 5
  80              	#NO_APP
  81 003c 93072000 		li	a5,2
  82              	#APP
  83              	# 21 "src/API.c" 1
  22              	    __asm__ volatile("ecall");
  84              		mv a0,a5
  85              	# 0 "" 2
  86              		.loc 1 22 5
  87              	# 22 "src/API.c" 1
  23              	    return 0;
  88              		ecall
  89              	# 0 "" 2
  90              		.loc 1 23 5
  24:src/API.c     **** }
  91              		.loc 1 24 1 is_stmt 0
  92              	#NO_APP
  93 0048 13050000 		li	a0,0
GAS LISTING /tmp/ccXTE6El.s 			page 3


  94              	.LVL5:
  95 004c 03348100 		ld	s0,8(sp)
  96              		.cfi_restore 8
  97              		.cfi_def_cfa 2, 16
  98 0050 13010101 		addi	sp,sp,16
  99              		.cfi_def_cfa_offset 0
 100 0054 67800000 		jr	ra
 101              		.cfi_endproc
 102              	.LFE1:
 104              		.align	2
 105              		.globl	thread_create
 107              	thread_create:
 108              	.LFB2:
  25:src/API.c     **** 
  26:src/API.c     **** int thread_create(thread_t* handle, void (*start_routine)(void*), void* arg) {
 109              		.loc 1 26 78 is_stmt 1
 110              		.cfi_startproc
 111              	.LVL6:
 112 0058 130101FD 		addi	sp,sp,-48
 113              		.cfi_def_cfa_offset 48
 114 005c 23341102 		sd	ra,40(sp)
 115 0060 23308102 		sd	s0,32(sp)
 116 0064 233C9100 		sd	s1,24(sp)
 117 0068 23382101 		sd	s2,16(sp)
 118 006c 23343101 		sd	s3,8(sp)
 119              		.cfi_offset 1, -8
 120              		.cfi_offset 8, -16
 121              		.cfi_offset 9, -24
 122              		.cfi_offset 18, -32
 123              		.cfi_offset 19, -40
 124 0070 13040103 		addi	s0,sp,48
 125              		.cfi_def_cfa 8, 0
 126 0074 93090500 		mv	s3,a0
 127 0078 13890500 		mv	s2,a1
 128 007c 93040600 		mv	s1,a2
  27:src/API.c     ****     // allocate stack separately; pass top pointer as a4 (stack_space)
  28:src/API.c     ****     void* stack = mem_alloc(DEFAULT_STACK_SIZE * sizeof(size_t));
 129              		.loc 1 28 5
 130              		.loc 1 28 19 is_stmt 0
 131 0080 37850000 		li	a0,32768
 132              	.LVL7:
 133 0084 97000000 		call	mem_alloc
 133      E7800000 
 134              	.LVL8:
  29:src/API.c     ****     if (!stack) return -1;
 135              		.loc 1 29 5 is_stmt 1
 136              		.loc 1 29 8 is_stmt 0
 137 008c 63020504 		beqz	a0,.L7
 138 0090 13070500 		mv	a4,a0
  30:src/API.c     ****     register size_t a0 asm("a0") = 0x11;
 139              		.loc 1 30 5 is_stmt 1
 140              		.loc 1 30 21 is_stmt 0
 141 0094 13051001 		li	a0,17
 142              	.LVL9:
  31:src/API.c     ****     register size_t a1 asm("a1") = (size_t)handle;
 143              		.loc 1 31 5 is_stmt 1
 144              		.loc 1 31 21 is_stmt 0
GAS LISTING /tmp/ccXTE6El.s 			page 4


 145 0098 93850900 		mv	a1,s3
  32:src/API.c     ****     register size_t a2 asm("a2") = (size_t)start_routine;
 146              		.loc 1 32 5 is_stmt 1
 147              		.loc 1 32 21 is_stmt 0
 148 009c 13060900 		mv	a2,s2
  33:src/API.c     ****     register size_t a3 asm("a3") = (size_t)arg;
 149              		.loc 1 33 5 is_stmt 1
 150              		.loc 1 33 21 is_stmt 0
 151 00a0 93860400 		mv	a3,s1
  34:src/API.c     ****     register size_t a4 asm("a4") = (size_t)stack + DEFAULT_STACK_SIZE * sizeof(size_t);
 152              		.loc 1 34 5 is_stmt 1
 153              		.loc 1 34 21 is_stmt 0
 154 00a4 B7870000 		li	a5,32768
 155 00a8 3307F700 		add	a4,a4,a5
 156              	.LVL10:
  35:src/API.c     ****     __asm__ volatile("ecall"
 157              		.loc 1 35 5 is_stmt 1
 158              	#APP
 159              	# 35 "src/API.c" 1
  36              	        : "+r"(a0)
  37:src/API.c     ****         : "r"(a1), "r"(a2), "r"(a3), "r"(a4)
  38:src/API.c     ****     );
  39:src/API.c     ****     return (int)a0;
 160              		ecall
 161              	# 0 "" 2
 162              		.loc 1 39 5
 163              		.loc 1 39 12 is_stmt 0
 164              	#NO_APP
 165 00b0 1B050500 		sext.w	a0,a0
 166              	.LVL11:
 167              	.L6:
  40:src/API.c     **** }
 168              		.loc 1 40 1
 169 00b4 83308102 		ld	ra,40(sp)
 170              		.cfi_remember_state
 171              		.cfi_restore 1
 172 00b8 03340102 		ld	s0,32(sp)
 173              		.cfi_restore 8
 174              		.cfi_def_cfa 2, 48
 175 00bc 83348101 		ld	s1,24(sp)
 176              		.cfi_restore 9
 177              	.LVL12:
 178 00c0 03390101 		ld	s2,16(sp)
 179              		.cfi_restore 18
 180              	.LVL13:
 181 00c4 83398100 		ld	s3,8(sp)
 182              		.cfi_restore 19
 183              	.LVL14:
 184 00c8 13010103 		addi	sp,sp,48
 185              		.cfi_def_cfa_offset 0
 186 00cc 67800000 		jr	ra
 187              	.LVL15:
 188              	.L7:
 189              		.cfi_restore_state
  29:src/API.c     ****     register size_t a0 asm("a0") = 0x11;
 190              		.loc 1 29 24
 191 00d0 1305F0FF 		li	a0,-1
GAS LISTING /tmp/ccXTE6El.s 			page 5


 192              	.LVL16:
 193 00d4 6FF01FFE 		j	.L6
 194              		.cfi_endproc
 195              	.LFE2:
 197              		.align	2
 198              		.globl	thread_exit
 200              	thread_exit:
 201              	.LFB3:
  41:src/API.c     **** 
  42:src/API.c     **** int thread_exit(void) {
 202              		.loc 1 42 23 is_stmt 1
 203              		.cfi_startproc
 204 00d8 130101FF 		addi	sp,sp,-16
 205              		.cfi_def_cfa_offset 16
 206 00dc 23348100 		sd	s0,8(sp)
 207              		.cfi_offset 8, -8
 208 00e0 13040101 		addi	s0,sp,16
 209              		.cfi_def_cfa 8, 0
  43:src/API.c     ****     register size_t a0 asm("a0") = 0x12;
 210              		.loc 1 43 5
 211              		.loc 1 43 21 is_stmt 0
 212 00e4 13052001 		li	a0,18
  44:src/API.c     ****     __asm__ volatile("ecall" : "+r"(a0));
 213              		.loc 1 44 5 is_stmt 1
 214              	#APP
 215              	# 44 "src/API.c" 1
  45              	    return (int)a0;
 216              		ecall
 217              	# 0 "" 2
 218              		.loc 1 45 5
  46:src/API.c     **** }
 219              		.loc 1 46 1 is_stmt 0
 220              	#NO_APP
 221 00ec 1B050500 		sext.w	a0,a0
 222 00f0 03348100 		ld	s0,8(sp)
 223              		.cfi_restore 8
 224              		.cfi_def_cfa 2, 16
 225 00f4 13010101 		addi	sp,sp,16
 226              		.cfi_def_cfa_offset 0
 227 00f8 67800000 		jr	ra
 228              		.cfi_endproc
 229              	.LFE3:
 231              		.align	2
 232              		.globl	thread_dispatch
 234              	thread_dispatch:
 235              	.LFB4:
  47:src/API.c     **** 
  48:src/API.c     **** void thread_dispatch(void) {
 236              		.loc 1 48 28 is_stmt 1
 237              		.cfi_startproc
 238 00fc 130101FF 		addi	sp,sp,-16
 239              		.cfi_def_cfa_offset 16
 240 0100 23348100 		sd	s0,8(sp)
 241              		.cfi_offset 8, -8
 242 0104 13040101 		addi	s0,sp,16
 243              		.cfi_def_cfa 8, 0
  49:src/API.c     ****     register size_t a0 asm("a0") = 0x13;
GAS LISTING /tmp/ccXTE6El.s 			page 6


 244              		.loc 1 49 5
 245              		.loc 1 49 21 is_stmt 0
 246 0108 13053001 		li	a0,19
  50:src/API.c     ****     __asm__ volatile("ecall" : "+r"(a0));
 247              		.loc 1 50 5 is_stmt 1
 248              	#APP
 249              	# 50 "src/API.c" 1
  51              	}
 250              		ecall
 251              	# 0 "" 2
 252              		.loc 1 51 1 is_stmt 0
 253              	#NO_APP
 254 0110 03348100 		ld	s0,8(sp)
 255              		.cfi_restore 8
 256              		.cfi_def_cfa 2, 16
 257 0114 13010101 		addi	sp,sp,16
 258              		.cfi_def_cfa_offset 0
 259 0118 67800000 		jr	ra
 260              		.cfi_endproc
 261              	.LFE4:
 263              		.align	2
 264              		.globl	time_sleep
 266              	time_sleep:
 267              	.LFB5:
  52:src/API.c     **** 
  53:src/API.c     **** int time_sleep(time_t dur) {
 268              		.loc 1 53 28 is_stmt 1
 269              		.cfi_startproc
 270              	.LVL17:
 271 011c 130101FF 		addi	sp,sp,-16
 272              		.cfi_def_cfa_offset 16
 273 0120 23348100 		sd	s0,8(sp)
 274              		.cfi_offset 8, -8
 275 0124 13040101 		addi	s0,sp,16
 276              		.cfi_def_cfa 8, 0
 277 0128 93050500 		mv	a1,a0
  54:src/API.c     ****     register size_t a0 asm("a0") = 0x31;
 278              		.loc 1 54 5
 279              		.loc 1 54 21 is_stmt 0
 280 012c 13051003 		li	a0,49
 281              	.LVL18:
  55:src/API.c     ****     register size_t a1 asm("a1") = (size_t)dur;
 282              		.loc 1 55 5 is_stmt 1
  56:src/API.c     ****     __asm__ volatile("ecall" : "+r"(a0) : "r"(a1));
 283              		.loc 1 56 5
 284              	#APP
 285              	# 56 "src/API.c" 1
  57              	    return (int)a0;
 286              		ecall
 287              	# 0 "" 2
 288              		.loc 1 57 5
  58:src/API.c     **** }...
 289              		.loc 1 58 1 is_stmt 0
 290              	#NO_APP
 291 0134 1B050500 		sext.w	a0,a0
 292 0138 03348100 		ld	s0,8(sp)
 293              		.cfi_restore 8
GAS LISTING /tmp/ccXTE6El.s 			page 7


 294              		.cfi_def_cfa 2, 16
 295 013c 13010101 		addi	sp,sp,16
 296              		.cfi_def_cfa_offset 0
 297 0140 67800000 		jr	ra
 298              		.cfi_endproc
 299              	.LFE5:
 301              	.Letext0:
 302              		.file 2 "src/./../lib/hw.h"
 303              		.file 3 "src/./APIC.h"
GAS LISTING /tmp/ccXTE6El.s 			page 8

