GAS LISTING /tmp/ccPhtrNX.s 			page 1


   1              		.file	"InteruptHandler.cpp"
   2              		.option pic
   3              		.option norelax
   4              		.text
   5              	.Ltext0:
   6              		.align	2
   7              		.globl	HandleInterupt
   9              	HandleInterupt:
  10              	.LFB0:
  11              		.file 1 "src/InteruptHandler.cpp"
   1:src/InteruptHandler.cpp **** //
   2:src/InteruptHandler.cpp **** // Created by os on 5/6/26.
   3:src/InteruptHandler.cpp **** //
   4:src/InteruptHandler.cpp **** #include "./MemoryAllocator.h"
   5:src/InteruptHandler.cpp **** 
   6:src/InteruptHandler.cpp **** extern "C" void HandleInterupt(uint64 code){
  12              		.loc 1 6 44
  13              		.cfi_startproc
  14              	.LVL0:
   7:src/InteruptHandler.cpp ****     __asm__ volatile("mv %[code],a0":[code]"=r"(code));
  15              		.loc 1 7 5
  16              		.loc 1 7 55 is_stmt 0
  17              	#APP
  18              	# 7 "src/InteruptHandler.cpp" 1
   8              	    uint64 scause=0;
  19              		mv a4,a0
  20              	# 0 "" 2
  21              	.LVL1:
  22              		.loc 1 8 5 is_stmt 1
   9:src/InteruptHandler.cpp ****     __asm__ volatile("csrr %[scause],scause":[scause]"=r"(scause));
  23              		.loc 1 9 5
  24              		.loc 1 9 67 is_stmt 0
  25              	# 9 "src/InteruptHandler.cpp" 1
  10              	    if (scause !=8&&scause !=9) {
  26              		csrr a5,scause
  27              	# 0 "" 2
  28              	.LVL2:
  29              		.loc 1 10 5 is_stmt 1
  30              		.loc 1 10 19 is_stmt 0
  31              	#NO_APP
  32 0008 938787FF 		addi	a5,a5,-8
  33              	.LVL3:
  34              		.loc 1 10 5
  35 000c 93061000 		li	a3,1
  36 0010 63E4F604 		bgtu	a5,a3,.L9
   6:src/InteruptHandler.cpp ****     __asm__ volatile("mv %[code],a0":[code]"=r"(code));
  37              		.loc 1 6 44
  38 0014 130101FE 		addi	sp,sp,-32
  39              		.cfi_def_cfa_offset 32
  40 0018 233C1100 		sd	ra,24(sp)
  41 001c 23388100 		sd	s0,16(sp)
  42 0020 23349100 		sd	s1,8(sp)
  43              		.cfi_offset 1, -8
  44              		.cfi_offset 8, -16
  45              		.cfi_offset 9, -24
  46 0024 13040102 		addi	s0,sp,32
  47              		.cfi_def_cfa 8, 0
GAS LISTING /tmp/ccPhtrNX.s 			page 2


  11:src/InteruptHandler.cpp ****         __asm__ volatile("csrw scause,0");
  12:src/InteruptHandler.cpp ****         return;
  13:src/InteruptHandler.cpp ****     }
  14:src/InteruptHandler.cpp ****     uint64 sepc;
  48              		.loc 1 14 5 is_stmt 1
  15:src/InteruptHandler.cpp ****     __asm__ volatile("csrr %0, sepc" : "=r"(sepc));
  49              		.loc 1 15 5
  50              		.loc 1 15 51 is_stmt 0
  51              	#APP
  52              	# 15 "src/InteruptHandler.cpp" 1
  16              	    __asm__ volatile("csrw sepc, %0" :: "r"(sepc + 4));
  53              		csrr a5, sepc
  54              	# 0 "" 2
  55              	.LVL4:
  56              		.loc 1 16 5 is_stmt 1
  57              		.loc 1 16 50 is_stmt 0
  58              	#NO_APP
  59 002c 93874700 		addi	a5,a5,4
  60              	.LVL5:
  61              		.loc 1 16 55
  62              	#APP
  63              	# 16 "src/InteruptHandler.cpp" 1
  17              	    switch (code) {
  64              		csrw sepc, a5
  65              	# 0 "" 2
  66              		.loc 1 17 5 is_stmt 1
  67              	#NO_APP
  68              	.LBB2:
  69 0034 93071000 		li	a5,1
  70              	.LVL6:
  71 0038 6304F702 		beq	a4,a5,.L4
  72 003c 93072000 		li	a5,2
  73 0040 6300F704 		beq	a4,a5,.L5
  74              	.LVL7:
  75              	.L1:
  76              	.LBE2:
  18:src/InteruptHandler.cpp ****         case 0x01: {
  19:src/InteruptHandler.cpp ****             size_t size=0;
  20:src/InteruptHandler.cpp ****             __asm__ volatile("mv %[size],a1":[size]"=r"(size));
  21:src/InteruptHandler.cpp ****             void* ptr = MemoryAllocator::GetInstance().AllocateFragment(size);
  22:src/InteruptHandler.cpp ****             __asm__ volatile("mv a0,%[res]"::[res]"r"(ptr));
  23:src/InteruptHandler.cpp ****             break;
  24:src/InteruptHandler.cpp ****         }
  25:src/InteruptHandler.cpp ****         case 0x02: {
  26:src/InteruptHandler.cpp ****             void* ptr=nullptr;
  27:src/InteruptHandler.cpp ****             __asm__ volatile("mv %[ptr],a1":[ptr]"=r"(ptr));
  28:src/InteruptHandler.cpp ****             MemoryAllocator::GetInstance().FreeFragment(ptr);
  29:src/InteruptHandler.cpp ****             break;
  30:src/InteruptHandler.cpp ****         }
  31:src/InteruptHandler.cpp ****         default: {
  32:src/InteruptHandler.cpp ****             break;
  33:src/InteruptHandler.cpp ****         }
  34:src/InteruptHandler.cpp ****     }
  35:src/InteruptHandler.cpp ****     return;
  36:src/InteruptHandler.cpp **** }
  77              		.loc 1 36 1 is_stmt 0
  78 0044 83308101 		ld	ra,24(sp)
GAS LISTING /tmp/ccPhtrNX.s 			page 3


  79              		.cfi_restore 1
  80 0048 03340101 		ld	s0,16(sp)
  81              		.cfi_restore 8
  82              		.cfi_def_cfa 2, 32
  83 004c 83348100 		ld	s1,8(sp)
  84              		.cfi_restore 9
  85 0050 13010102 		addi	sp,sp,32
  86              		.cfi_def_cfa_offset 0
  87 0054 67800000 		jr	ra
  88              	.LVL8:
  89              	.L9:
  11:src/InteruptHandler.cpp ****         return;
  90              		.loc 1 11 9 is_stmt 1
  11:src/InteruptHandler.cpp ****         return;
  91              		.loc 1 11 42 is_stmt 0
  92              	#APP
  93              	# 11 "src/InteruptHandler.cpp" 1
  12:src/InteruptHandler.cpp ****     }
  94              		csrw scause,0
  95              	# 0 "" 2
  96              		.loc 1 12 9 is_stmt 1
  97              	#NO_APP
  98 005c 67800000 		ret
  99              	.LVL9:
 100              	.L4:
 101              		.cfi_def_cfa_register 8
 102              		.cfi_offset 1, -8
 103              		.cfi_offset 8, -16
 104              		.cfi_offset 9, -24
  18:src/InteruptHandler.cpp ****         case 0x01: {
 105              		.loc 1 18 9
  18:src/InteruptHandler.cpp ****         case 0x01: {
 106              		.loc 1 18 20
 107              	.LBB5:
 108              	.LBB3:
  19:src/InteruptHandler.cpp ****             __asm__ volatile("mv %[size],a1":[size]"=r"(size));
 109              		.loc 1 19 13
  20:src/InteruptHandler.cpp ****             void* ptr = MemoryAllocator::GetInstance().AllocateFragment(size);
 110              		.loc 1 20 13
  20:src/InteruptHandler.cpp ****             void* ptr = MemoryAllocator::GetInstance().AllocateFragment(size);
 111              		.loc 1 20 63 is_stmt 0
 112              	#APP
 113              	# 20 "src/InteruptHandler.cpp" 1
 114              		mv s1,a1
 115              	# 0 "" 2
 116              	.LVL10:
  21:src/InteruptHandler.cpp ****             __asm__ volatile("mv a0,%[res]"::[res]"r"(ptr));
 117              		.loc 1 21 13 is_stmt 1
  21:src/InteruptHandler.cpp ****             __asm__ volatile("mv a0,%[res]"::[res]"r"(ptr));
 118              		.loc 1 21 54 is_stmt 0
 119              	#NO_APP
 120 0064 97000000 		call	_ZN15MemoryAllocator11GetInstanceEv@plt
 120      E7800000 
 121              	.LVL11:
  21:src/InteruptHandler.cpp ****             __asm__ volatile("mv a0,%[res]"::[res]"r"(ptr));
 122              		.loc 1 21 72
 123 006c 93850400 		mv	a1,s1
GAS LISTING /tmp/ccPhtrNX.s 			page 4


 124 0070 97000000 		call	_ZN15MemoryAllocator16AllocateFragmentEm@plt
 124      E7800000 
 125              	.LVL12:
  22:src/InteruptHandler.cpp ****             break;
 126              		.loc 1 22 13 is_stmt 1
  22:src/InteruptHandler.cpp ****             break;
 127              		.loc 1 22 60 is_stmt 0
 128              	#APP
 129              	# 22 "src/InteruptHandler.cpp" 1
  23:src/InteruptHandler.cpp ****         }
 130              		mv a0,a0
 131              	# 0 "" 2
 132              		.loc 1 23 13 is_stmt 1
 133              	#NO_APP
 134 007c 6FF09FFC 		j	.L1
 135              	.LVL13:
 136              	.L5:
 137              	.LBE3:
 138              	.LBE5:
  25:src/InteruptHandler.cpp ****             void* ptr=nullptr;
 139              		.loc 1 25 9
  25:src/InteruptHandler.cpp ****             void* ptr=nullptr;
 140              		.loc 1 25 20
 141              	.LBB6:
 142              	.LBB4:
  26:src/InteruptHandler.cpp ****             __asm__ volatile("mv %[ptr],a1":[ptr]"=r"(ptr));
 143              		.loc 1 26 13
  27:src/InteruptHandler.cpp ****             MemoryAllocator::GetInstance().FreeFragment(ptr);
 144              		.loc 1 27 13
  27:src/InteruptHandler.cpp ****             MemoryAllocator::GetInstance().FreeFragment(ptr);
 145              		.loc 1 27 60 is_stmt 0
 146              	#APP
 147              	# 27 "src/InteruptHandler.cpp" 1
 148              		mv s1,a1
 149              	# 0 "" 2
 150              	.LVL14:
  28:src/InteruptHandler.cpp ****             break;
 151              		.loc 1 28 13 is_stmt 1
  28:src/InteruptHandler.cpp ****             break;
 152              		.loc 1 28 42 is_stmt 0
 153              	#NO_APP
 154 0084 97000000 		call	_ZN15MemoryAllocator11GetInstanceEv@plt
 154      E7800000 
 155              	.LVL15:
  28:src/InteruptHandler.cpp ****             break;
 156              		.loc 1 28 56
 157 008c 93850400 		mv	a1,s1
 158 0090 97000000 		call	_ZN15MemoryAllocator12FreeFragmentEPv@plt
 158      E7800000 
 159              	.LVL16:
  29:src/InteruptHandler.cpp ****         }
 160              		.loc 1 29 13 is_stmt 1
 161 0098 6FF0DFFA 		j	.L1
 162              	.LBE4:
 163              	.LBE6:
 164              		.cfi_endproc
 165              	.LFE0:
GAS LISTING /tmp/ccPhtrNX.s 			page 5


 167              	.Letext0:
 168              		.file 2 "src/./../lib/hw.h"
 169              		.file 3 "src/./MemoryAllocator.h"
GAS LISTING /tmp/ccPhtrNX.s 			page 6

