GAS LISTING /tmp/ccIzNjGY.s 			page 1


   1              		.file	"Konsole.cpp"
   2              		.option pic
   3              		.option norelax
   4              		.text
   5              	.Ltext0:
   6              		.align	2
   7              		.globl	_ZN7Konsole16outputThreadBodyEPv
   9              	_ZN7Konsole16outputThreadBodyEPv:
  10              	.LFB5:
  11              		.file 1 "src/Konsole.cpp"
   1:src/Konsole.cpp **** //
   2:src/Konsole.cpp **** // Created by os on 6/24/26.
   3:src/Konsole.cpp **** //
   4:src/Konsole.cpp **** 
   5:src/Konsole.cpp **** #include "Konsole.hpp"
   6:src/Konsole.cpp **** #include "Scheduler.hpp"
   7:src/Konsole.cpp **** #include "MemoryAllocator.hpp"
   8:src/Konsole.cpp **** #include "syscall_c.h"
   9:src/Konsole.cpp **** 
  10:src/Konsole.cpp **** char Konsole::inputBuffer[BUFFER_SIZE];
  11:src/Konsole.cpp **** int Konsole::inputHead = 0;
  12:src/Konsole.cpp **** int Konsole::inputTail = 0;
  13:src/Konsole.cpp **** 
  14:src/Konsole.cpp **** char Konsole::outputBuffer[BUFFER_SIZE];
  15:src/Konsole.cpp **** int Konsole::outputHead = 0;
  16:src/Konsole.cpp **** int Konsole::outputTail = 0;
  17:src/Konsole.cpp **** KSemaphore Konsole::outputItems;
  18:src/Konsole.cpp **** 
  19:src/Konsole.cpp **** KThread* Konsole::getcWaiterHead = nullptr;
  20:src/Konsole.cpp **** KThread* Konsole::getcWaiterTail = nullptr;
  21:src/Konsole.cpp **** 
  22:src/Konsole.cpp **** void Konsole::enqueueGetcWaiter(KThread* thread) {
  23:src/Konsole.cpp ****     thread->setNextInQueue(nullptr);
  24:src/Konsole.cpp ****     if (getcWaiterTail != nullptr) {
  25:src/Konsole.cpp ****         thread->setPrevInQueue(getcWaiterTail);
  26:src/Konsole.cpp ****         getcWaiterTail->setNextInQueue(thread);
  27:src/Konsole.cpp ****     } else {
  28:src/Konsole.cpp ****         thread->setPrevInQueue(nullptr);
  29:src/Konsole.cpp ****         getcWaiterHead = thread;
  30:src/Konsole.cpp ****     }
  31:src/Konsole.cpp ****     getcWaiterTail = thread;
  32:src/Konsole.cpp **** }
  33:src/Konsole.cpp **** 
  34:src/Konsole.cpp **** KThread* Konsole::dequeueGetcWaiter() {
  35:src/Konsole.cpp ****     if (getcWaiterHead == nullptr) return nullptr;
  36:src/Konsole.cpp ****     KThread* thread = getcWaiterHead;
  37:src/Konsole.cpp ****     getcWaiterHead = thread->getNextInQueue();
  38:src/Konsole.cpp ****     if (getcWaiterHead != nullptr) getcWaiterHead->setPrevInQueue(nullptr);
  39:src/Konsole.cpp ****     else getcWaiterTail = nullptr;
  40:src/Konsole.cpp ****     thread->setNextInQueue(nullptr);
  41:src/Konsole.cpp ****     thread->setPrevInQueue(nullptr);
  42:src/Konsole.cpp ****     return thread;
  43:src/Konsole.cpp **** }
  44:src/Konsole.cpp **** 
  45:src/Konsole.cpp **** void Konsole::outputThreadBody(void*) {
  12              		.loc 1 45 39
  13              		.cfi_startproc
GAS LISTING /tmp/ccIzNjGY.s 			page 2


  14 0000 130101FF 		addi	sp,sp,-16
  15              		.cfi_def_cfa_offset 16
  16 0004 23341100 		sd	ra,8(sp)
  17 0008 23308100 		sd	s0,0(sp)
  18              		.cfi_offset 1, -8
  19              		.cfi_offset 8, -16
  20 000c 13040101 		addi	s0,sp,16
  21              		.cfi_def_cfa 8, 0
  22              	.L3:
  46:src/Konsole.cpp ****     while (true) {
  23              		.loc 1 46 5
  24              	.LBB4:
  47:src/Konsole.cpp ****         sem_wait((sem_t)&outputItems);
  25              		.loc 1 47 9
  26              		.loc 1 47 17 is_stmt 0
  27 0010 17050000 		lla	a0,.LANCHOR0
  27      13050500 
  28 0018 97000000 		call	sem_wait@plt
  28      E7800000 
  29              	.LVL0:
  30              	.L2:
  48:src/Konsole.cpp ****         while (!(*((volatile uint8*)CONSOLE_STATUS) & CONSOLE_TX_STATUS_BIT));
  31              		.loc 1 48 9 is_stmt 1
  32              		.loc 1 48 16
  33              		.loc 1 48 18 is_stmt 0
  34 0020 97070000 		la	a5,CONSOLE_STATUS
  34      83B70700 
  35 0028 83B70700 		ld	a5,0(a5)
  36 002c 83C70700 		lbu	a5,0(a5)
  37 0030 93F7F70F 		andi	a5,a5,0xff
  38              		.loc 1 48 16
  39 0034 93F70702 		andi	a5,a5,32
  40 0038 E38407FE 		beqz	a5,.L2
  49:src/Konsole.cpp ****         if (outputHead!=outputTail) {
  41              		.loc 1 49 9 is_stmt 1
  42              	.LBB5:
  43              		.loc 1 49 23 is_stmt 0
  44 003c 17070000 		lla	a4,.LANCHOR0
  44      13070700 
  45 0044 83278701 		lw	a5,24(a4)
  46 0048 0327C701 		lw	a4,28(a4)
  47              		.loc 1 49 9
  48 004c E382E7FC 		beq	a5,a4,.L3
  49              	.LBB6:
  50:src/Konsole.cpp ****             char c = outputBuffer[outputHead];
  50              		.loc 1 50 13 is_stmt 1
  51              		.loc 1 50 18 is_stmt 0
  52 0050 97060000 		lla	a3,.LANCHOR0
  52      93860600 
  53 0058 3387F600 		add	a4,a3,a5
  54 005c 03460702 		lbu	a2,32(a4)
  55              	.LVL1:
  51:src/Konsole.cpp ****             outputHead = (outputHead + 1) % BUFFER_SIZE;
  56              		.loc 1 51 13 is_stmt 1
  57              		.loc 1 51 38 is_stmt 0
  58 0060 9B871700 		addiw	a5,a5,1
  59              		.loc 1 51 43
GAS LISTING /tmp/ccIzNjGY.s 			page 3


  60 0064 1BD7F741 		sraiw	a4,a5,31
  61 0068 1B578701 		srliw	a4,a4,24
  62 006c BB87E700 		addw	a5,a5,a4
  63 0070 93F7F70F 		andi	a5,a5,255
  64 0074 BB87E740 		subw	a5,a5,a4
  65              		.loc 1 51 24
  66 0078 23ACF600 		sw	a5,24(a3)
  52:src/Konsole.cpp ****             *((volatile uint8*)CONSOLE_TX_DATA) = c;
  67              		.loc 1 52 13 is_stmt 1
  68 007c 97070000 		la	a5,CONSOLE_TX_DATA
  68      83B70700 
  69 0084 83B70700 		ld	a5,0(a5)
  70              		.loc 1 52 49 is_stmt 0
  71 0088 2380C700 		sb	a2,0(a5)
  72              	.LBE6:
  73 008c 6FF05FF8 		j	.L3
  74              	.LBE5:
  75              	.LBE4:
  76              		.cfi_endproc
  77              	.LFE5:
  79              		.align	2
  80              		.globl	_ZN7Konsole17enqueueGetcWaiterEP7KThread
  82              	_ZN7Konsole17enqueueGetcWaiterEP7KThread:
  83              	.LFB3:
  22:src/Konsole.cpp ****     thread->setNextInQueue(nullptr);
  84              		.loc 1 22 50 is_stmt 1
  85              		.cfi_startproc
  86              	.LVL2:
  87 0090 130101FE 		addi	sp,sp,-32
  88              		.cfi_def_cfa_offset 32
  89 0094 233C1100 		sd	ra,24(sp)
  90 0098 23388100 		sd	s0,16(sp)
  91 009c 23349100 		sd	s1,8(sp)
  92              		.cfi_offset 1, -8
  93              		.cfi_offset 8, -16
  94              		.cfi_offset 9, -24
  95 00a0 13040102 		addi	s0,sp,32
  96              		.cfi_def_cfa 8, 0
  97 00a4 93040500 		mv	s1,a0
  23:src/Konsole.cpp ****     if (getcWaiterTail != nullptr) {
  98              		.loc 1 23 5
  23:src/Konsole.cpp ****     if (getcWaiterTail != nullptr) {
  99              		.loc 1 23 27 is_stmt 0
 100 00a8 93050000 		li	a1,0
 101 00ac 97000000 		call	_ZN7KThread14setNextInQueueEPS_@plt
 101      E7800000 
 102              	.LVL3:
  24:src/Konsole.cpp ****         thread->setPrevInQueue(getcWaiterTail);
 103              		.loc 1 24 5 is_stmt 1
  24:src/Konsole.cpp ****         thread->setPrevInQueue(getcWaiterTail);
 104              		.loc 1 24 24 is_stmt 0
 105 00b4 97050000 		ld	a1,.LANCHOR0+288
 105      83B50500 
  24:src/Konsole.cpp ****         thread->setPrevInQueue(getcWaiterTail);
 106              		.loc 1 24 5
 107 00bc 63800504 		beqz	a1,.L7
  25:src/Konsole.cpp ****         getcWaiterTail->setNextInQueue(thread);
GAS LISTING /tmp/ccIzNjGY.s 			page 4


 108              		.loc 1 25 9 is_stmt 1
  25:src/Konsole.cpp ****         getcWaiterTail->setNextInQueue(thread);
 109              		.loc 1 25 31 is_stmt 0
 110 00c0 13850400 		mv	a0,s1
 111 00c4 97000000 		call	_ZN7KThread14setPrevInQueueEPS_@plt
 111      E7800000 
 112              	.LVL4:
  26:src/Konsole.cpp ****     } else {
 113              		.loc 1 26 9 is_stmt 1
  26:src/Konsole.cpp ****     } else {
 114              		.loc 1 26 39 is_stmt 0
 115 00cc 93850400 		mv	a1,s1
 116 00d0 17050000 		ld	a0,.LANCHOR0+288
 116      03350500 
 117 00d8 97000000 		call	_ZN7KThread14setNextInQueueEPS_@plt
 117      E7800000 
 118              	.LVL5:
 119              	.L8:
  31:src/Konsole.cpp **** }
 120              		.loc 1 31 5 is_stmt 1
  31:src/Konsole.cpp **** }
 121              		.loc 1 31 20 is_stmt 0
 122 00e0 97070000 		sd	s1,.LANCHOR0+288,a5
 122      23B09700 
  32:src/Konsole.cpp **** 
 123              		.loc 1 32 1
 124 00e8 83308101 		ld	ra,24(sp)
 125              		.cfi_remember_state
 126              		.cfi_restore 1
 127 00ec 03340101 		ld	s0,16(sp)
 128              		.cfi_restore 8
 129              		.cfi_def_cfa 2, 32
 130 00f0 83348100 		ld	s1,8(sp)
 131              		.cfi_restore 9
 132              	.LVL6:
 133 00f4 13010102 		addi	sp,sp,32
 134              		.cfi_def_cfa_offset 0
 135 00f8 67800000 		jr	ra
 136              	.LVL7:
 137              	.L7:
 138              		.cfi_restore_state
  28:src/Konsole.cpp ****         getcWaiterHead = thread;
 139              		.loc 1 28 9 is_stmt 1
  28:src/Konsole.cpp ****         getcWaiterHead = thread;
 140              		.loc 1 28 31 is_stmt 0
 141 00fc 93050000 		li	a1,0
 142 0100 13850400 		mv	a0,s1
 143 0104 97000000 		call	_ZN7KThread14setPrevInQueueEPS_@plt
 143      E7800000 
 144              	.LVL8:
  29:src/Konsole.cpp ****     }
 145              		.loc 1 29 9 is_stmt 1
  29:src/Konsole.cpp ****     }
 146              		.loc 1 29 24 is_stmt 0
 147 010c 97070000 		sd	s1,.LANCHOR0+296,a5
 147      23B09700 
 148 0114 6FF0DFFC 		j	.L8
GAS LISTING /tmp/ccIzNjGY.s 			page 5


 149              		.cfi_endproc
 150              	.LFE3:
 152              		.align	2
 153              		.globl	_ZN7Konsole17dequeueGetcWaiterEv
 155              	_ZN7Konsole17dequeueGetcWaiterEv:
 156              	.LFB4:
  34:src/Konsole.cpp ****     if (getcWaiterHead == nullptr) return nullptr;
 157              		.loc 1 34 39 is_stmt 1
 158              		.cfi_startproc
 159 0118 130101FE 		addi	sp,sp,-32
 160              		.cfi_def_cfa_offset 32
 161 011c 233C1100 		sd	ra,24(sp)
 162 0120 23388100 		sd	s0,16(sp)
 163 0124 23349100 		sd	s1,8(sp)
 164              		.cfi_offset 1, -8
 165              		.cfi_offset 8, -16
 166              		.cfi_offset 9, -24
 167 0128 13040102 		addi	s0,sp,32
 168              		.cfi_def_cfa 8, 0
  35:src/Konsole.cpp ****     KThread* thread = getcWaiterHead;
 169              		.loc 1 35 5
  35:src/Konsole.cpp ****     KThread* thread = getcWaiterHead;
 170              		.loc 1 35 24 is_stmt 0
 171 012c 97040000 		ld	s1,.LANCHOR0+296
 171      83B40400 
  35:src/Konsole.cpp ****     KThread* thread = getcWaiterHead;
 172              		.loc 1 35 5
 173 0134 63840404 		beqz	s1,.L10
  36:src/Konsole.cpp ****     getcWaiterHead = thread->getNextInQueue();
 174              		.loc 1 36 5 is_stmt 1
 175              	.LVL9:
  37:src/Konsole.cpp ****     if (getcWaiterHead != nullptr) getcWaiterHead->setPrevInQueue(nullptr);
 176              		.loc 1 37 5
  37:src/Konsole.cpp ****     if (getcWaiterHead != nullptr) getcWaiterHead->setPrevInQueue(nullptr);
 177              		.loc 1 37 44 is_stmt 0
 178 0138 13850400 		mv	a0,s1
 179 013c 97000000 		call	_ZN7KThread14getNextInQueueEv@plt
 179      E7800000 
 180              	.LVL10:
  37:src/Konsole.cpp ****     if (getcWaiterHead != nullptr) getcWaiterHead->setPrevInQueue(nullptr);
 181              		.loc 1 37 20
 182 0144 97070000 		sd	a0,.LANCHOR0+296,a5
 182      23B0A700 
  38:src/Konsole.cpp ****     else getcWaiterTail = nullptr;
 183              		.loc 1 38 5 is_stmt 1
 184 014c 63040504 		beqz	a0,.L12
  38:src/Konsole.cpp ****     else getcWaiterTail = nullptr;
 185              		.loc 1 38 36 discriminator 1
  38:src/Konsole.cpp ****     else getcWaiterTail = nullptr;
 186              		.loc 1 38 66 is_stmt 0 discriminator 1
 187 0150 93050000 		li	a1,0
 188 0154 97000000 		call	_ZN7KThread14setPrevInQueueEPS_@plt
 188      E7800000 
 189              	.LVL11:
 190              	.L13:
  40:src/Konsole.cpp ****     thread->setPrevInQueue(nullptr);
 191              		.loc 1 40 5 is_stmt 1
GAS LISTING /tmp/ccIzNjGY.s 			page 6


  40:src/Konsole.cpp ****     thread->setPrevInQueue(nullptr);
 192              		.loc 1 40 27 is_stmt 0
 193 015c 93050000 		li	a1,0
 194 0160 13850400 		mv	a0,s1
 195 0164 97000000 		call	_ZN7KThread14setNextInQueueEPS_@plt
 195      E7800000 
 196              	.LVL12:
  41:src/Konsole.cpp ****     return thread;
 197              		.loc 1 41 5 is_stmt 1
  41:src/Konsole.cpp ****     return thread;
 198              		.loc 1 41 27 is_stmt 0
 199 016c 93050000 		li	a1,0
 200 0170 13850400 		mv	a0,s1
 201 0174 97000000 		call	_ZN7KThread14setPrevInQueueEPS_@plt
 201      E7800000 
 202              	.LVL13:
  42:src/Konsole.cpp **** }
 203              		.loc 1 42 5 is_stmt 1
 204              	.L10:
  43:src/Konsole.cpp **** 
 205              		.loc 1 43 1 is_stmt 0
 206 017c 13850400 		mv	a0,s1
 207 0180 83308101 		ld	ra,24(sp)
 208              		.cfi_remember_state
 209              		.cfi_restore 1
 210 0184 03340101 		ld	s0,16(sp)
 211              		.cfi_restore 8
 212              		.cfi_def_cfa 2, 32
 213 0188 83348100 		ld	s1,8(sp)
 214              		.cfi_restore 9
 215 018c 13010102 		addi	sp,sp,32
 216              		.cfi_def_cfa_offset 0
 217 0190 67800000 		jr	ra
 218              	.LVL14:
 219              	.L12:
 220              		.cfi_restore_state
  39:src/Konsole.cpp ****     thread->setNextInQueue(nullptr);
 221              		.loc 1 39 10 is_stmt 1
  39:src/Konsole.cpp ****     thread->setNextInQueue(nullptr);
 222              		.loc 1 39 25 is_stmt 0
 223 0194 97070000 		sd	zero,.LANCHOR0+288,a5
 223      23B00700 
 224 019c 6FF01FFC 		j	.L13
 225              		.cfi_endproc
 226              	.LFE4:
 228              		.align	2
 229              		.globl	_ZN7Konsole4initEv
 231              	_ZN7Konsole4initEv:
 232              	.LFB6:
  53:src/Konsole.cpp ****         }
  54:src/Konsole.cpp ****     }
  55:src/Konsole.cpp **** }
  56:src/Konsole.cpp **** 
  57:src/Konsole.cpp **** void Konsole::init() {
 233              		.loc 1 57 22 is_stmt 1
 234              		.cfi_startproc
 235 01a0 130101FE 		addi	sp,sp,-32
GAS LISTING /tmp/ccIzNjGY.s 			page 7


 236              		.cfi_def_cfa_offset 32
 237 01a4 233C1100 		sd	ra,24(sp)
 238 01a8 23388100 		sd	s0,16(sp)
 239 01ac 23349100 		sd	s1,8(sp)
 240              		.cfi_offset 1, -8
 241              		.cfi_offset 8, -16
 242              		.cfi_offset 9, -24
 243 01b0 13040102 		addi	s0,sp,32
 244              		.cfi_def_cfa 8, 0
  58:src/Konsole.cpp ****     inputHead = 0; inputTail = 0;
 245              		.loc 1 58 5
 246              		.loc 1 58 15 is_stmt 0
 247 01b4 17050000 		lla	a0,.LANCHOR0
 247      13050500 
 248 01bc 23280512 		sw	zero,304(a0)
 249              		.loc 1 58 20 is_stmt 1
 250              		.loc 1 58 30 is_stmt 0
 251 01c0 232A0512 		sw	zero,308(a0)
  59:src/Konsole.cpp ****     outputHead = 0; outputTail = 0;
 252              		.loc 1 59 5 is_stmt 1
 253              		.loc 1 59 16 is_stmt 0
 254 01c4 232C0500 		sw	zero,24(a0)
 255              		.loc 1 59 21 is_stmt 1
 256              		.loc 1 59 32 is_stmt 0
 257 01c8 232E0500 		sw	zero,28(a0)
  60:src/Konsole.cpp ****     getcWaiterHead = nullptr; getcWaiterTail = nullptr;
 258              		.loc 1 60 5 is_stmt 1
 259              		.loc 1 60 20 is_stmt 0
 260 01cc 23340512 		sd	zero,296(a0)
 261              		.loc 1 60 31 is_stmt 1
 262              		.loc 1 60 46 is_stmt 0
 263 01d0 23300512 		sd	zero,288(a0)
  61:src/Konsole.cpp ****     outputItems.init(0);
 264              		.loc 1 61 5 is_stmt 1
 265              		.loc 1 61 21 is_stmt 0
 266 01d4 93050000 		li	a1,0
 267 01d8 97000000 		call	_ZN10KSemaphore4initEj@plt
 267      E7800000 
 268              	.LVL15:
  62:src/Konsole.cpp **** 
  63:src/Konsole.cpp ****     void* threadMem = MemoryAllocator::GetInstance().AllocateFragment(sizeof(KThread));
 269              		.loc 1 63 5 is_stmt 1
 270              		.loc 1 63 52 is_stmt 0
 271 01e0 97000000 		call	_ZN15MemoryAllocator11GetInstanceEv@plt
 271      E7800000 
 272              	.LVL16:
 273              		.loc 1 63 70
 274 01e8 93058015 		li	a1,344
 275 01ec 97000000 		call	_ZN15MemoryAllocator16AllocateFragmentEm@plt
 275      E7800000 
 276              	.LVL17:
 277 01f4 93040500 		mv	s1,a0
 278              	.LVL18:
  64:src/Konsole.cpp ****     KThread* outputThread = reinterpret_cast<KThread*>(threadMem);
 279              		.loc 1 64 5 is_stmt 1
  65:src/Konsole.cpp ****     outputThread->init();
 280              		.loc 1 65 5
GAS LISTING /tmp/ccIzNjGY.s 			page 8


 281              		.loc 1 65 23 is_stmt 0
 282 01f8 97000000 		call	_ZN7KThread4initEv@plt
 282      E7800000 
 283              	.LVL19:
  66:src/Konsole.cpp ****     outputThread->setBody(outputThreadBody, nullptr);
 284              		.loc 1 66 5 is_stmt 1
 285              	.LBB7:
 286              	.LBB8:
 287              		.file 2 "src/Thread.hpp"
   1:src/Thread.hpp **** //
   2:src/Thread.hpp **** // Created by os on 6/10/26.
   3:src/Thread.hpp **** //
   4:src/Thread.hpp **** 
   5:src/Thread.hpp **** #ifndef OSPROJEKAT_THREAD_H
   6:src/Thread.hpp **** #define OSPROJEKAT_THREAD_H
   7:src/Thread.hpp **** 
   8:src/Thread.hpp **** #include "../lib/hw.h"
   9:src/Thread.hpp **** struct Context {
  10:src/Thread.hpp ****     size_t x[32];    // x0-x31, offsets 0x00-0xF8
  11:src/Thread.hpp ****     size_t sepc;     // offset 0x100
  12:src/Thread.hpp ****     size_t sstatus;  // offset 0x108
  13:src/Thread.hpp ****     size_t pc;
  14:src/Thread.hpp **** };
  15:src/Thread.hpp **** 
  16:src/Thread.hpp **** class KThread{
  17:src/Thread.hpp ****     friend class Scheduler;
  18:src/Thread.hpp ****     friend class KSemaphore;
  19:src/Thread.hpp **** protected:
  20:src/Thread.hpp ****     static void threadTrampoline(KThread* t);
  21:src/Thread.hpp ****     void (*body)(void*);
  22:src/Thread.hpp ****     void* arg;
  23:src/Thread.hpp ****     KThread* parent;
  24:src/Thread.hpp **** 
  25:src/Thread.hpp ****     KThread* prev;
  26:src/Thread.hpp ****     KThread* next;
  27:src/Thread.hpp ****     size_t* stackPtr;
  28:src/Thread.hpp ****     size_t* supervisorSp;
  29:src/Thread.hpp ****     time_t sleepDelta;
  30:src/Thread.hpp **** public:
  31:src/Thread.hpp ****     Context threadContext;
  32:src/Thread.hpp ****     KThread();
  33:src/Thread.hpp ****     void copyContext(size_t* ctx);
  34:src/Thread.hpp ****     void init();
  35:src/Thread.hpp ****     size_t* getStackTop() { return stackPtr; }
  36:src/Thread.hpp ****     size_t* getContext();
  37:src/Thread.hpp ****     KThread* getParent() { return parent; }
  38:src/Thread.hpp ****     KThread* getNextInQueue();
  39:src/Thread.hpp ****     KThread* getPrevInQueue();
  40:src/Thread.hpp ****     void setNextInQueue(KThread* next);
  41:src/Thread.hpp ****     void setPrevInQueue(KThread* prev);
  42:src/Thread.hpp ****     void setNextAndPrevInQueue(KThread* next, KThread* prev);
  43:src/Thread.hpp ****     void setup(KThread* parentThread, size_t* stack_top);
  44:src/Thread.hpp ****     void setBody(void (*b)(void*), void* a) { body = b; arg = a; }
 288              		.loc 2 44 47
 289              		.loc 2 44 52 is_stmt 0
 290 0200 97070000 		lla	a5,_ZN7Konsole16outputThreadBodyEPv
 290      93870700 
GAS LISTING /tmp/ccIzNjGY.s 			page 9


 291 0208 23B0F400 		sd	a5,0(s1)
 292              		.loc 2 44 57 is_stmt 1
 293              		.loc 2 44 61 is_stmt 0
 294 020c 23B40400 		sd	zero,8(s1)
 295              	.LVL20:
 296              	.LBE8:
 297              	.LBE7:
  67:src/Konsole.cpp **** 
  68:src/Konsole.cpp ****     void* stackMem = MemoryAllocator::GetInstance().AllocateFragment(DEFAULT_STACK_SIZE * sizeof(si
 298              		.loc 1 68 5 is_stmt 1
 299              		.loc 1 68 51 is_stmt 0
 300 0210 97000000 		call	_ZN15MemoryAllocator11GetInstanceEv@plt
 300      E7800000 
 301              	.LVL21:
 302              		.loc 1 68 69
 303 0218 B7850000 		li	a1,32768
 304 021c 97000000 		call	_ZN15MemoryAllocator16AllocateFragmentEm@plt
 304      E7800000 
 305              	.LVL22:
  69:src/Konsole.cpp ****     size_t* stackTop = reinterpret_cast<size_t*>((char*)stackMem + DEFAULT_STACK_SIZE * sizeof(size
 306              		.loc 1 69 5 is_stmt 1
  70:src/Konsole.cpp ****     outputThread->setup(nullptr, stackTop);
 307              		.loc 1 70 5
 308              		.loc 1 70 24 is_stmt 0
 309 0224 37860000 		li	a2,32768
 310 0228 3306C500 		add	a2,a0,a2
 311              	.LVL23:
 312 022c 93050000 		li	a1,0
 313 0230 13850400 		mv	a0,s1
 314              	.LVL24:
 315 0234 97000000 		call	_ZN7KThread5setupEPS_Pm@plt
 315      E7800000 
 316              	.LVL25:
  71:src/Konsole.cpp ****     Scheduler::Put(outputThread);
 317              		.loc 1 71 5 is_stmt 1
 318              		.loc 1 71 19 is_stmt 0
 319 023c 13850400 		mv	a0,s1
 320 0240 97000000 		call	_ZN9Scheduler3PutEP7KThread@plt
 320      E7800000 
 321              	.LVL26:
  72:src/Konsole.cpp **** }
 322              		.loc 1 72 1
 323 0248 83308101 		ld	ra,24(sp)
 324              		.cfi_restore 1
 325 024c 03340101 		ld	s0,16(sp)
 326              		.cfi_restore 8
 327              		.cfi_def_cfa 2, 32
 328 0250 83348100 		ld	s1,8(sp)
 329              		.cfi_restore 9
 330              	.LVL27:
 331 0254 13010102 		addi	sp,sp,32
 332              		.cfi_def_cfa_offset 0
 333 0258 67800000 		jr	ra
 334              		.cfi_endproc
 335              	.LFE6:
 337              		.align	2
 338              		.globl	_ZN7Konsole15handleInterruptEv
GAS LISTING /tmp/ccIzNjGY.s 			page 10


 340              	_ZN7Konsole15handleInterruptEv:
 341              	.LFB7:
  73:src/Konsole.cpp **** 
  74:src/Konsole.cpp **** void Konsole::handleInterrupt() {
 342              		.loc 1 74 33 is_stmt 1
 343              		.cfi_startproc
 344 025c 130101FE 		addi	sp,sp,-32
 345              		.cfi_def_cfa_offset 32
 346 0260 233C1100 		sd	ra,24(sp)
 347 0264 23388100 		sd	s0,16(sp)
 348 0268 23349100 		sd	s1,8(sp)
 349 026c 23302101 		sd	s2,0(sp)
 350              		.cfi_offset 1, -8
 351              		.cfi_offset 8, -16
 352              		.cfi_offset 9, -24
 353              		.cfi_offset 18, -32
 354 0270 13040102 		addi	s0,sp,32
 355              		.cfi_def_cfa 8, 0
  75:src/Konsole.cpp ****     int irq = plic_claim();
 356              		.loc 1 75 5
 357              		.loc 1 75 25 is_stmt 0
 358 0274 97000000 		call	plic_claim@plt
 358      E7800000 
 359              	.LVL28:
 360 027c 93040500 		mv	s1,a0
 361              	.LVL29:
  76:src/Konsole.cpp ****     if (irq == (int)CONSOLE_IRQ) {
 362              		.loc 1 76 5 is_stmt 1
 363              	.LBB9:
 364 0280 9307A000 		li	a5,10
 365 0284 6306F502 		beq	a0,a5,.L18
 366              	.LVL30:
 367              	.L19:
 368              	.LBE9:
  77:src/Konsole.cpp ****         while (*((volatile uint8*)CONSOLE_STATUS) & CONSOLE_RX_STATUS_BIT) {
  78:src/Konsole.cpp ****             char c = (char)*((volatile uint8*)CONSOLE_RX_DATA);
  79:src/Konsole.cpp ****             KThread* waiter = dequeueGetcWaiter();
  80:src/Konsole.cpp ****             if (waiter != nullptr) {
  81:src/Konsole.cpp ****                 waiter->threadContext.x[10] = (size_t)(unsigned char)c;
  82:src/Konsole.cpp ****                 Scheduler::Put(waiter);
  83:src/Konsole.cpp ****             } else {
  84:src/Konsole.cpp ****                 int nextTail = (inputTail + 1) % BUFFER_SIZE;
  85:src/Konsole.cpp ****                 if (nextTail != inputHead) {
  86:src/Konsole.cpp ****                     inputBuffer[inputTail] = c;
  87:src/Konsole.cpp ****                     inputTail = nextTail;
  88:src/Konsole.cpp ****                 }
  89:src/Konsole.cpp ****             }
  90:src/Konsole.cpp ****         }
  91:src/Konsole.cpp ****     }
  92:src/Konsole.cpp ****     if (irq) plic_complete(irq);
 369              		.loc 1 92 5
 370 0288 6394040A 		bnez	s1,.L24
 371              	.L17:
  93:src/Konsole.cpp **** }
 372              		.loc 1 93 1 is_stmt 0
 373 028c 83308101 		ld	ra,24(sp)
 374              		.cfi_remember_state
GAS LISTING /tmp/ccIzNjGY.s 			page 11


 375              		.cfi_restore 1
 376 0290 03340101 		ld	s0,16(sp)
 377              		.cfi_restore 8
 378              		.cfi_def_cfa 2, 32
 379 0294 83348100 		ld	s1,8(sp)
 380              		.cfi_restore 9
 381 0298 03390100 		ld	s2,0(sp)
 382              		.cfi_restore 18
 383 029c 13010102 		addi	sp,sp,32
 384              		.cfi_def_cfa_offset 0
 385 02a0 67800000 		jr	ra
 386              	.LVL31:
 387              	.L25:
 388              		.cfi_restore_state
 389              	.LBB16:
 390              	.LBB10:
 391              	.LBB11:
 392              	.LBB12:
  81:src/Konsole.cpp ****                 Scheduler::Put(waiter);
 393              		.loc 1 81 17 is_stmt 1
  81:src/Konsole.cpp ****                 Scheduler::Put(waiter);
 394              		.loc 1 81 45 is_stmt 0
 395 02a4 23382509 		sd	s2,144(a0)
  82:src/Konsole.cpp ****             } else {
 396              		.loc 1 82 17 is_stmt 1
  82:src/Konsole.cpp ****             } else {
 397              		.loc 1 82 31 is_stmt 0
 398 02a8 97000000 		call	_ZN9Scheduler3PutEP7KThread@plt
 398      E7800000 
 399              	.LVL32:
 400              	.L18:
 401              	.LBE12:
 402              	.LBE11:
  77:src/Konsole.cpp ****             char c = (char)*((volatile uint8*)CONSOLE_RX_DATA);
 403              		.loc 1 77 9 is_stmt 1
  77:src/Konsole.cpp ****             char c = (char)*((volatile uint8*)CONSOLE_RX_DATA);
 404              		.loc 1 77 53
  77:src/Konsole.cpp ****             char c = (char)*((volatile uint8*)CONSOLE_RX_DATA);
 405              		.loc 1 77 16 is_stmt 0
 406 02b0 97070000 		la	a5,CONSOLE_STATUS
 406      83B70700 
 407 02b8 83B70700 		ld	a5,0(a5)
 408 02bc 83C70700 		lbu	a5,0(a5)
  77:src/Konsole.cpp ****             char c = (char)*((volatile uint8*)CONSOLE_RX_DATA);
 409              		.loc 1 77 53
 410 02c0 93F71700 		andi	a5,a5,1
 411 02c4 E38207FC 		beqz	a5,.L19
 412              	.LBB15:
  78:src/Konsole.cpp ****             KThread* waiter = dequeueGetcWaiter();
 413              		.loc 1 78 13 is_stmt 1
  78:src/Konsole.cpp ****             KThread* waiter = dequeueGetcWaiter();
 414              		.loc 1 78 22 is_stmt 0
 415 02c8 97070000 		la	a5,CONSOLE_RX_DATA
 415      83B70700 
 416 02d0 83B70700 		ld	a5,0(a5)
  78:src/Konsole.cpp ****             KThread* waiter = dequeueGetcWaiter();
 417              		.loc 1 78 62
GAS LISTING /tmp/ccIzNjGY.s 			page 12


 418 02d4 83C70700 		lbu	a5,0(a5)
 419 02d8 13F9F70F 		andi	s2,a5,0xff
 420              	.LVL33:
  79:src/Konsole.cpp ****             if (waiter != nullptr) {
 421              		.loc 1 79 13 is_stmt 1
  79:src/Konsole.cpp ****             if (waiter != nullptr) {
 422              		.loc 1 79 48 is_stmt 0
 423 02dc 97000000 		call	_ZN7Konsole17dequeueGetcWaiterEv
 423      E7800000 
 424              	.LVL34:
  80:src/Konsole.cpp ****                 waiter->threadContext.x[10] = (size_t)(unsigned char)c;
 425              		.loc 1 80 13 is_stmt 1
 426              	.LBB14:
 427 02e4 E31005FC 		bnez	a0,.L25
 428              	.LBB13:
  84:src/Konsole.cpp ****                 if (nextTail != inputHead) {
 429              		.loc 1 84 17
  84:src/Konsole.cpp ****                 if (nextTail != inputHead) {
 430              		.loc 1 84 43 is_stmt 0
 431 02e8 17060000 		lla	a2,.LANCHOR0
 431      13060600 
 432 02f0 83264613 		lw	a3,308(a2)
 433 02f4 9B871600 		addiw	a5,a3,1
  84:src/Konsole.cpp ****                 if (nextTail != inputHead) {
 434              		.loc 1 84 21
 435 02f8 1BD7F741 		sraiw	a4,a5,31
 436 02fc 1B578701 		srliw	a4,a4,24
 437 0300 BB87E700 		addw	a5,a5,a4
 438 0304 93F7F70F 		andi	a5,a5,255
 439 0308 BB87E740 		subw	a5,a5,a4
 440 030c 1B870700 		sext.w	a4,a5
 441              	.LVL35:
  85:src/Konsole.cpp ****                     inputBuffer[inputTail] = c;
 442              		.loc 1 85 17 is_stmt 1
  85:src/Konsole.cpp ****                     inputBuffer[inputTail] = c;
 443              		.loc 1 85 30 is_stmt 0
 444 0310 03260613 		lw	a2,304(a2)
  85:src/Konsole.cpp ****                     inputBuffer[inputTail] = c;
 445              		.loc 1 85 17
 446 0314 E30EE6F8 		beq	a2,a4,.L18
  86:src/Konsole.cpp ****                     inputTail = nextTail;
 447              		.loc 1 86 21 is_stmt 1
  86:src/Konsole.cpp ****                     inputTail = nextTail;
 448              		.loc 1 86 44 is_stmt 0
 449 0318 17070000 		lla	a4,.LANCHOR0
 449      13070700 
 450 0320 B306D700 		add	a3,a4,a3
 451 0324 238C2613 		sb	s2,312(a3)
  87:src/Konsole.cpp ****                 }
 452              		.loc 1 87 21 is_stmt 1
  87:src/Konsole.cpp ****                 }
 453              		.loc 1 87 31 is_stmt 0
 454 0328 232AF712 		sw	a5,308(a4)
 455 032c 6FF05FF8 		j	.L18
 456              	.LVL36:
 457              	.L24:
 458              	.LBE13:
GAS LISTING /tmp/ccIzNjGY.s 			page 13


 459              	.LBE14:
 460              	.LBE15:
 461              	.LBE10:
 462              	.LBE16:
  92:src/Konsole.cpp **** }
 463              		.loc 1 92 14 is_stmt 1 discriminator 1
  92:src/Konsole.cpp **** }
 464              		.loc 1 92 27 is_stmt 0 discriminator 1
 465 0330 13850400 		mv	a0,s1
 466 0334 97000000 		call	plic_complete@plt
 466      E7800000 
 467              	.LVL37:
 468              		.loc 1 93 1 discriminator 1
 469 033c 6FF01FF5 		j	.L17
 470              		.cfi_endproc
 471              	.LFE7:
 473              		.align	2
 474              		.globl	_ZN7Konsole10putcKernelEP7KThreadc
 476              	_ZN7Konsole10putcKernelEP7KThreadc:
 477              	.LFB8:
  94:src/Konsole.cpp **** 
  95:src/Konsole.cpp **** int Konsole::putcKernel(KThread* caller, char c) {
 478              		.loc 1 95 50 is_stmt 1
 479              		.cfi_startproc
 480              	.LVL38:
 481 0340 130101FF 		addi	sp,sp,-16
 482              		.cfi_def_cfa_offset 16
 483 0344 23348100 		sd	s0,8(sp)
 484              		.cfi_offset 8, -8
 485 0348 13040101 		addi	s0,sp,16
 486              		.cfi_def_cfa 8, 0
 487              	.L27:
  96:src/Konsole.cpp ****       while (!(*((volatile uint8*)CONSOLE_STATUS) & CONSOLE_TX_STATUS_BIT));
 488              		.loc 1 96 7
 489              		.loc 1 96 14
 490              		.loc 1 96 16 is_stmt 0
 491 034c 97070000 		la	a5,CONSOLE_STATUS
 491      83B70700 
 492 0354 83B70700 		ld	a5,0(a5)
 493 0358 83C70700 		lbu	a5,0(a5)
 494 035c 93F7F70F 		andi	a5,a5,0xff
 495              		.loc 1 96 14
 496 0360 93F70702 		andi	a5,a5,32
 497 0364 E38407FE 		beqz	a5,.L27
  97:src/Konsole.cpp ****       *((volatile uint8*)CONSOLE_TX_DATA) = c;
 498              		.loc 1 97 7 is_stmt 1
 499 0368 97070000 		la	a5,CONSOLE_TX_DATA
 499      83B70700 
 500 0370 83B70700 		ld	a5,0(a5)
 501              		.loc 1 97 43 is_stmt 0
 502 0374 2380B700 		sb	a1,0(a5)
  98:src/Konsole.cpp ****       if (caller) caller->threadContext.x[10] = 0;
 503              		.loc 1 98 7 is_stmt 1
 504 0378 63040500 		beqz	a0,.L28
 505              		.loc 1 98 19 discriminator 1
 506              		.loc 1 98 47 is_stmt 0 discriminator 1
 507 037c 23380508 		sd	zero,144(a0)
GAS LISTING /tmp/ccIzNjGY.s 			page 14


 508              	.L28:
  99:src/Konsole.cpp ****       return 0;
 509              		.loc 1 99 7 is_stmt 1
 100:src/Konsole.cpp ****   }
 510              		.loc 1 100 3 is_stmt 0
 511 0380 13050000 		li	a0,0
 512              	.LVL39:
 513 0384 03348100 		ld	s0,8(sp)
 514              		.cfi_restore 8
 515              		.cfi_def_cfa 2, 16
 516 0388 13010101 		addi	sp,sp,16
 517              		.cfi_def_cfa_offset 0
 518 038c 67800000 		jr	ra
 519              		.cfi_endproc
 520              	.LFE8:
 522              		.align	2
 523              		.globl	_ZN7Konsole10getcKernelEP7KThread
 525              	_ZN7Konsole10getcKernelEP7KThread:
 526              	.LFB9:
 101:src/Konsole.cpp **** 
 102:src/Konsole.cpp **** 
 103:src/Konsole.cpp **** int Konsole::getcKernel(KThread* caller) {
 527              		.loc 1 103 42 is_stmt 1
 528              		.cfi_startproc
 529              	.LVL40:
 104:src/Konsole.cpp ****     if (inputHead != inputTail) {
 530              		.loc 1 104 5
 531              	.LBB17:
 532              		.loc 1 104 19 is_stmt 0
 533 0390 17070000 		lla	a4,.LANCHOR0
 533      13070700 
 534 0398 83270713 		lw	a5,304(a4)
 535 039c 03274713 		lw	a4,308(a4)
 536              		.loc 1 104 5
 537 03a0 6380E704 		beq	a5,a4,.L31
 538              	.LBB18:
 105:src/Konsole.cpp ****         char c = inputBuffer[inputHead];
 539              		.loc 1 105 9 is_stmt 1
 540              		.loc 1 105 14 is_stmt 0
 541 03a4 17060000 		lla	a2,.LANCHOR0
 541      13060600 
 542 03ac 3307F600 		add	a4,a2,a5
 543 03b0 83468713 		lbu	a3,312(a4)
 544              	.LVL41:
 106:src/Konsole.cpp ****         inputHead = (inputHead + 1) % BUFFER_SIZE;
 545              		.loc 1 106 9 is_stmt 1
 546              		.loc 1 106 32 is_stmt 0
 547 03b4 9B871700 		addiw	a5,a5,1
 548              		.loc 1 106 37
 549 03b8 1BD7F741 		sraiw	a4,a5,31
 550 03bc 1B578701 		srliw	a4,a4,24
 551 03c0 BB87E700 		addw	a5,a5,a4
 552 03c4 93F7F70F 		andi	a5,a5,255
 553 03c8 BB87E740 		subw	a5,a5,a4
 554              		.loc 1 106 19
 555 03cc 2328F612 		sw	a5,304(a2)
 107:src/Konsole.cpp ****         if (caller) caller->threadContext.x[10] = (size_t)(unsigned char)c;
GAS LISTING /tmp/ccIzNjGY.s 			page 15


 556              		.loc 1 107 9 is_stmt 1
 557 03d0 63040500 		beqz	a0,.L32
 558              		.loc 1 107 21 discriminator 1
 559              		.loc 1 107 49 is_stmt 0 discriminator 1
 560 03d4 2338D508 		sd	a3,144(a0)
 561              	.L32:
 108:src/Konsole.cpp ****         return (unsigned char)c;
 562              		.loc 1 108 9 is_stmt 1
 563              		.loc 1 108 31 is_stmt 0
 564 03d8 1B850600 		sext.w	a0,a3
 565              	.LVL42:
 566              	.LBE18:
 567              	.LBE17:
 109:src/Konsole.cpp ****     }
 110:src/Konsole.cpp ****     enqueueGetcWaiter(caller);
 111:src/Konsole.cpp ****     return -2;
 112:src/Konsole.cpp **** }...
 568              		.loc 1 112 1
 569 03dc 67800000 		ret
 570              	.LVL43:
 571              	.L31:
 103:src/Konsole.cpp **** int Konsole::getcKernel(KThread* caller) {
 572              		.loc 1 103 42
 573 03e0 130101FF 		addi	sp,sp,-16
 574              		.cfi_def_cfa_offset 16
 575 03e4 23341100 		sd	ra,8(sp)
 576 03e8 23308100 		sd	s0,0(sp)
 577              		.cfi_offset 1, -8
 578              		.cfi_offset 8, -16
 579 03ec 13040101 		addi	s0,sp,16
 580              		.cfi_def_cfa 8, 0
 110:src/Konsole.cpp ****     enqueueGetcWaiter(caller);
 581              		.loc 1 110 5 is_stmt 1
 110:src/Konsole.cpp ****     enqueueGetcWaiter(caller);
 582              		.loc 1 110 22 is_stmt 0
 583 03f0 97000000 		call	_ZN7Konsole17enqueueGetcWaiterEP7KThread
 583      E7800000 
 584              	.LVL44:
 111:src/Konsole.cpp ****     return -2;
 585              		.loc 1 111 5 is_stmt 1
 111:src/Konsole.cpp ****     return -2;
 586              		.loc 1 111 13 is_stmt 0
 587 03f8 1305E0FF 		li	a0,-2
 588              		.loc 1 112 1
 589 03fc 83308100 		ld	ra,8(sp)
 590              		.cfi_restore 1
 591 0400 03340100 		ld	s0,0(sp)
 592              		.cfi_restore 8
 593              		.cfi_def_cfa 2, 16
 594 0404 13010101 		addi	sp,sp,16
 595              		.cfi_def_cfa_offset 0
 596 0408 67800000 		jr	ra
 597              		.cfi_endproc
 598              	.LFE9:
 600              		.globl	_ZN7Konsole14getcWaiterTailE
 601              		.globl	_ZN7Konsole14getcWaiterHeadE
 602              		.globl	_ZN7Konsole11outputItemsE
GAS LISTING /tmp/ccIzNjGY.s 			page 16


 603              		.globl	_ZN7Konsole10outputTailE
 604              		.globl	_ZN7Konsole10outputHeadE
 605              		.globl	_ZN7Konsole12outputBufferE
 606              		.globl	_ZN7Konsole9inputTailE
 607              		.globl	_ZN7Konsole9inputHeadE
 608              		.globl	_ZN7Konsole11inputBufferE
 609              		.bss
 610              		.align	3
 611              		.set	.LANCHOR0,. + 0
 614              	_ZN7Konsole11outputItemsE:
 615 0000 00000000 		.zero	24
 615      00000000 
 615      00000000 
 615      00000000 
 615      00000000 
 618              	_ZN7Konsole10outputHeadE:
 619 0018 00000000 		.zero	4
 622              	_ZN7Konsole10outputTailE:
 623 001c 00000000 		.zero	4
 626              	_ZN7Konsole12outputBufferE:
 627 0020 00000000 		.zero	256
 627      00000000 
 627      00000000 
 627      00000000 
 627      00000000 
 630              	_ZN7Konsole14getcWaiterTailE:
 631 0120 00000000 		.zero	8
 631      00000000 
 634              	_ZN7Konsole14getcWaiterHeadE:
 635 0128 00000000 		.zero	8
 635      00000000 
 638              	_ZN7Konsole9inputHeadE:
 639 0130 00000000 		.zero	4
 642              	_ZN7Konsole9inputTailE:
 643 0134 00000000 		.zero	4
 646              	_ZN7Konsole11inputBufferE:
 647 0138 00000000 		.zero	256
 647      00000000 
 647      00000000 
 647      00000000 
 647      00000000 
 648              		.text
 649              	.Letext0:
 650              		.file 3 "src/../lib/hw.h"
 651              		.file 4 "src/Semaphore.hpp"
 652              		.file 5 "src/Konsole.hpp"
 653              		.file 6 "src/Scheduler.hpp"
 654              		.file 7 "src/MemoryAllocator.hpp"
 655              		.file 8 "src/syscall_c.h"
GAS LISTING /tmp/ccIzNjGY.s 			page 17


DEFINED SYMBOLS
                            *ABS*:0000000000000000 Konsole.cpp
     /tmp/ccIzNjGY.s:9      .text:0000000000000000 _ZN7Konsole16outputThreadBodyEPv
     /tmp/ccIzNjGY.s:13     .text:0000000000000000 .L0 
     /tmp/ccIzNjGY.s:14     .text:0000000000000000 .L0 
     /tmp/ccIzNjGY.s:15     .text:0000000000000004 .L0 
     /tmp/ccIzNjGY.s:18     .text:000000000000000c .L0 
     /tmp/ccIzNjGY.s:19     .text:000000000000000c .L0 
     /tmp/ccIzNjGY.s:21     .text:0000000000000010 .L0 
     /tmp/ccIzNjGY.s:25     .text:0000000000000010 .L0 
     /tmp/ccIzNjGY.s:26     .text:0000000000000010 .L0 
     /tmp/ccIzNjGY.s:27     .text:0000000000000010 .L0 
     /tmp/ccIzNjGY.s:32     .text:0000000000000020 .L0 
     /tmp/ccIzNjGY.s:33     .text:0000000000000020 .L0 
     /tmp/ccIzNjGY.s:34     .text:0000000000000020 .L0 
     /tmp/ccIzNjGY.s:39     .text:0000000000000034 .L0 
     /tmp/ccIzNjGY.s:43     .text:000000000000003c .L0 
     /tmp/ccIzNjGY.s:44     .text:000000000000003c .L0 
     /tmp/ccIzNjGY.s:48     .text:000000000000004c .L0 
     /tmp/ccIzNjGY.s:51     .text:0000000000000050 .L0 
     /tmp/ccIzNjGY.s:52     .text:0000000000000050 .L0 
     /tmp/ccIzNjGY.s:57     .text:0000000000000060 .L0 
     /tmp/ccIzNjGY.s:58     .text:0000000000000060 .L0 
     /tmp/ccIzNjGY.s:60     .text:0000000000000064 .L0 
     /tmp/ccIzNjGY.s:66     .text:0000000000000078 .L0 
     /tmp/ccIzNjGY.s:68     .text:000000000000007c .L0 
     /tmp/ccIzNjGY.s:71     .text:0000000000000088 .L0 
     /tmp/ccIzNjGY.s:76     .text:0000000000000090 .L0 
     /tmp/ccIzNjGY.s:82     .text:0000000000000090 _ZN7Konsole17enqueueGetcWaiterEP7KThread
     /tmp/ccIzNjGY.s:85     .text:0000000000000090 .L0 
     /tmp/ccIzNjGY.s:87     .text:0000000000000090 .L0 
     /tmp/ccIzNjGY.s:88     .text:0000000000000094 .L0 
     /tmp/ccIzNjGY.s:92     .text:00000000000000a0 .L0 
     /tmp/ccIzNjGY.s:93     .text:00000000000000a0 .L0 
     /tmp/ccIzNjGY.s:94     .text:00000000000000a0 .L0 
     /tmp/ccIzNjGY.s:96     .text:00000000000000a4 .L0 
     /tmp/ccIzNjGY.s:99     .text:00000000000000a8 .L0 
     /tmp/ccIzNjGY.s:100    .text:00000000000000a8 .L0 
     /tmp/ccIzNjGY.s:104    .text:00000000000000b4 .L0 
     /tmp/ccIzNjGY.s:105    .text:00000000000000b4 .L0 
     /tmp/ccIzNjGY.s:107    .text:00000000000000bc .L0 
     /tmp/ccIzNjGY.s:109    .text:00000000000000c0 .L0 
     /tmp/ccIzNjGY.s:110    .text:00000000000000c0 .L0 
     /tmp/ccIzNjGY.s:114    .text:00000000000000cc .L0 
     /tmp/ccIzNjGY.s:115    .text:00000000000000cc .L0 
     /tmp/ccIzNjGY.s:121    .text:00000000000000e0 .L0 
     /tmp/ccIzNjGY.s:122    .text:00000000000000e0 .L0 
     /tmp/ccIzNjGY.s:124    .text:00000000000000e8 .L0 
     /tmp/ccIzNjGY.s:125    .text:00000000000000ec .L0 
     /tmp/ccIzNjGY.s:126    .text:00000000000000ec .L0 
     /tmp/ccIzNjGY.s:128    .text:00000000000000f0 .L0 
     /tmp/ccIzNjGY.s:129    .text:00000000000000f0 .L0 
     /tmp/ccIzNjGY.s:131    .text:00000000000000f4 .L0 
     /tmp/ccIzNjGY.s:134    .text:00000000000000f8 .L0 
     /tmp/ccIzNjGY.s:138    .text:00000000000000fc .L0 
     /tmp/ccIzNjGY.s:140    .text:00000000000000fc .L0 
     /tmp/ccIzNjGY.s:141    .text:00000000000000fc .L0 
GAS LISTING /tmp/ccIzNjGY.s 			page 18


     /tmp/ccIzNjGY.s:146    .text:000000000000010c .L0 
     /tmp/ccIzNjGY.s:147    .text:000000000000010c .L0 
     /tmp/ccIzNjGY.s:149    .text:0000000000000118 .L0 
     /tmp/ccIzNjGY.s:155    .text:0000000000000118 _ZN7Konsole17dequeueGetcWaiterEv
     /tmp/ccIzNjGY.s:158    .text:0000000000000118 .L0 
     /tmp/ccIzNjGY.s:159    .text:0000000000000118 .L0 
     /tmp/ccIzNjGY.s:160    .text:000000000000011c .L0 
     /tmp/ccIzNjGY.s:164    .text:0000000000000128 .L0 
     /tmp/ccIzNjGY.s:165    .text:0000000000000128 .L0 
     /tmp/ccIzNjGY.s:166    .text:0000000000000128 .L0 
     /tmp/ccIzNjGY.s:168    .text:000000000000012c .L0 
     /tmp/ccIzNjGY.s:170    .text:000000000000012c .L0 
     /tmp/ccIzNjGY.s:171    .text:000000000000012c .L0 
     /tmp/ccIzNjGY.s:173    .text:0000000000000134 .L0 
     /tmp/ccIzNjGY.s:176    .text:0000000000000138 .L0 
     /tmp/ccIzNjGY.s:177    .text:0000000000000138 .L0 
     /tmp/ccIzNjGY.s:178    .text:0000000000000138 .L0 
     /tmp/ccIzNjGY.s:182    .text:0000000000000144 .L0 
     /tmp/ccIzNjGY.s:184    .text:000000000000014c .L0 
     /tmp/ccIzNjGY.s:186    .text:0000000000000150 .L0 
     /tmp/ccIzNjGY.s:187    .text:0000000000000150 .L0 
     /tmp/ccIzNjGY.s:192    .text:000000000000015c .L0 
     /tmp/ccIzNjGY.s:193    .text:000000000000015c .L0 
     /tmp/ccIzNjGY.s:198    .text:000000000000016c .L0 
     /tmp/ccIzNjGY.s:199    .text:000000000000016c .L0 
     /tmp/ccIzNjGY.s:205    .text:000000000000017c .L0 
     /tmp/ccIzNjGY.s:206    .text:000000000000017c .L0 
     /tmp/ccIzNjGY.s:208    .text:0000000000000184 .L0 
     /tmp/ccIzNjGY.s:209    .text:0000000000000184 .L0 
     /tmp/ccIzNjGY.s:211    .text:0000000000000188 .L0 
     /tmp/ccIzNjGY.s:212    .text:0000000000000188 .L0 
     /tmp/ccIzNjGY.s:214    .text:000000000000018c .L0 
     /tmp/ccIzNjGY.s:216    .text:0000000000000190 .L0 
     /tmp/ccIzNjGY.s:220    .text:0000000000000194 .L0 
     /tmp/ccIzNjGY.s:222    .text:0000000000000194 .L0 
     /tmp/ccIzNjGY.s:223    .text:0000000000000194 .L0 
     /tmp/ccIzNjGY.s:225    .text:00000000000001a0 .L0 
     /tmp/ccIzNjGY.s:231    .text:00000000000001a0 _ZN7Konsole4initEv
     /tmp/ccIzNjGY.s:234    .text:00000000000001a0 .L0 
     /tmp/ccIzNjGY.s:235    .text:00000000000001a0 .L0 
     /tmp/ccIzNjGY.s:236    .text:00000000000001a4 .L0 
     /tmp/ccIzNjGY.s:240    .text:00000000000001b0 .L0 
     /tmp/ccIzNjGY.s:241    .text:00000000000001b0 .L0 
     /tmp/ccIzNjGY.s:242    .text:00000000000001b0 .L0 
     /tmp/ccIzNjGY.s:244    .text:00000000000001b4 .L0 
     /tmp/ccIzNjGY.s:246    .text:00000000000001b4 .L0 
     /tmp/ccIzNjGY.s:247    .text:00000000000001b4 .L0 
     /tmp/ccIzNjGY.s:250    .text:00000000000001c0 .L0 
     /tmp/ccIzNjGY.s:251    .text:00000000000001c0 .L0 
     /tmp/ccIzNjGY.s:253    .text:00000000000001c4 .L0 
     /tmp/ccIzNjGY.s:254    .text:00000000000001c4 .L0 
     /tmp/ccIzNjGY.s:256    .text:00000000000001c8 .L0 
     /tmp/ccIzNjGY.s:257    .text:00000000000001c8 .L0 
     /tmp/ccIzNjGY.s:259    .text:00000000000001cc .L0 
     /tmp/ccIzNjGY.s:260    .text:00000000000001cc .L0 
     /tmp/ccIzNjGY.s:262    .text:00000000000001d0 .L0 
     /tmp/ccIzNjGY.s:263    .text:00000000000001d0 .L0 
GAS LISTING /tmp/ccIzNjGY.s 			page 19


     /tmp/ccIzNjGY.s:265    .text:00000000000001d4 .L0 
     /tmp/ccIzNjGY.s:266    .text:00000000000001d4 .L0 
     /tmp/ccIzNjGY.s:270    .text:00000000000001e0 .L0 
     /tmp/ccIzNjGY.s:271    .text:00000000000001e0 .L0 
     /tmp/ccIzNjGY.s:274    .text:00000000000001e8 .L0 
     /tmp/ccIzNjGY.s:280    .text:00000000000001f8 .L0 
     /tmp/ccIzNjGY.s:281    .text:00000000000001f8 .L0 
     /tmp/ccIzNjGY.s:282    .text:00000000000001f8 .L0 
     /tmp/ccIzNjGY.s:288    .text:0000000000000200 .L0 
     /tmp/ccIzNjGY.s:289    .text:0000000000000200 .L0 
     /tmp/ccIzNjGY.s:290    .text:0000000000000200 .L0 
     /tmp/ccIzNjGY.s:293    .text:000000000000020c .L0 
     /tmp/ccIzNjGY.s:294    .text:000000000000020c .L0 
     /tmp/ccIzNjGY.s:299    .text:0000000000000210 .L0 
     /tmp/ccIzNjGY.s:300    .text:0000000000000210 .L0 
     /tmp/ccIzNjGY.s:303    .text:0000000000000218 .L0 
     /tmp/ccIzNjGY.s:307    .text:0000000000000224 .L0 
     /tmp/ccIzNjGY.s:308    .text:0000000000000224 .L0 
     /tmp/ccIzNjGY.s:309    .text:0000000000000224 .L0 
     /tmp/ccIzNjGY.s:318    .text:000000000000023c .L0 
     /tmp/ccIzNjGY.s:319    .text:000000000000023c .L0 
     /tmp/ccIzNjGY.s:323    .text:0000000000000248 .L0 
     /tmp/ccIzNjGY.s:324    .text:000000000000024c .L0 
     /tmp/ccIzNjGY.s:326    .text:0000000000000250 .L0 
     /tmp/ccIzNjGY.s:327    .text:0000000000000250 .L0 
     /tmp/ccIzNjGY.s:329    .text:0000000000000254 .L0 
     /tmp/ccIzNjGY.s:332    .text:0000000000000258 .L0 
     /tmp/ccIzNjGY.s:334    .text:000000000000025c .L0 
     /tmp/ccIzNjGY.s:340    .text:000000000000025c _ZN7Konsole15handleInterruptEv
     /tmp/ccIzNjGY.s:343    .text:000000000000025c .L0 
     /tmp/ccIzNjGY.s:344    .text:000000000000025c .L0 
     /tmp/ccIzNjGY.s:345    .text:0000000000000260 .L0 
     /tmp/ccIzNjGY.s:350    .text:0000000000000270 .L0 
     /tmp/ccIzNjGY.s:351    .text:0000000000000270 .L0 
     /tmp/ccIzNjGY.s:352    .text:0000000000000270 .L0 
     /tmp/ccIzNjGY.s:353    .text:0000000000000270 .L0 
     /tmp/ccIzNjGY.s:355    .text:0000000000000274 .L0 
     /tmp/ccIzNjGY.s:357    .text:0000000000000274 .L0 
     /tmp/ccIzNjGY.s:358    .text:0000000000000274 .L0 
     /tmp/ccIzNjGY.s:364    .text:0000000000000280 .L0 
     /tmp/ccIzNjGY.s:370    .text:0000000000000288 .L0 
     /tmp/ccIzNjGY.s:373    .text:000000000000028c .L0 
     /tmp/ccIzNjGY.s:374    .text:0000000000000290 .L0 
     /tmp/ccIzNjGY.s:375    .text:0000000000000290 .L0 
     /tmp/ccIzNjGY.s:377    .text:0000000000000294 .L0 
     /tmp/ccIzNjGY.s:378    .text:0000000000000294 .L0 
     /tmp/ccIzNjGY.s:380    .text:0000000000000298 .L0 
     /tmp/ccIzNjGY.s:382    .text:000000000000029c .L0 
     /tmp/ccIzNjGY.s:384    .text:00000000000002a0 .L0 
     /tmp/ccIzNjGY.s:388    .text:00000000000002a4 .L0 
     /tmp/ccIzNjGY.s:394    .text:00000000000002a4 .L0 
     /tmp/ccIzNjGY.s:395    .text:00000000000002a4 .L0 
     /tmp/ccIzNjGY.s:397    .text:00000000000002a8 .L0 
     /tmp/ccIzNjGY.s:398    .text:00000000000002a8 .L0 
     /tmp/ccIzNjGY.s:404    .text:00000000000002b0 .L0 
     /tmp/ccIzNjGY.s:405    .text:00000000000002b0 .L0 
     /tmp/ccIzNjGY.s:406    .text:00000000000002b0 .L0 
GAS LISTING /tmp/ccIzNjGY.s 			page 20


     /tmp/ccIzNjGY.s:410    .text:00000000000002c0 .L0 
     /tmp/ccIzNjGY.s:414    .text:00000000000002c8 .L0 
     /tmp/ccIzNjGY.s:415    .text:00000000000002c8 .L0 
     /tmp/ccIzNjGY.s:418    .text:00000000000002d4 .L0 
     /tmp/ccIzNjGY.s:422    .text:00000000000002dc .L0 
     /tmp/ccIzNjGY.s:423    .text:00000000000002dc .L0 
     /tmp/ccIzNjGY.s:427    .text:00000000000002e4 .L0 
     /tmp/ccIzNjGY.s:430    .text:00000000000002e8 .L0 
     /tmp/ccIzNjGY.s:431    .text:00000000000002e8 .L0 
     /tmp/ccIzNjGY.s:435    .text:00000000000002f8 .L0 
     /tmp/ccIzNjGY.s:443    .text:0000000000000310 .L0 
     /tmp/ccIzNjGY.s:444    .text:0000000000000310 .L0 
     /tmp/ccIzNjGY.s:446    .text:0000000000000314 .L0 
     /tmp/ccIzNjGY.s:448    .text:0000000000000318 .L0 
     /tmp/ccIzNjGY.s:449    .text:0000000000000318 .L0 
     /tmp/ccIzNjGY.s:453    .text:0000000000000328 .L0 
     /tmp/ccIzNjGY.s:454    .text:0000000000000328 .L0 
     /tmp/ccIzNjGY.s:464    .text:0000000000000330 .L0 
     /tmp/ccIzNjGY.s:465    .text:0000000000000330 .L0 
     /tmp/ccIzNjGY.s:469    .text:000000000000033c .L0 
     /tmp/ccIzNjGY.s:470    .text:0000000000000340 .L0 
     /tmp/ccIzNjGY.s:476    .text:0000000000000340 _ZN7Konsole10putcKernelEP7KThreadc
     /tmp/ccIzNjGY.s:479    .text:0000000000000340 .L0 
     /tmp/ccIzNjGY.s:481    .text:0000000000000340 .L0 
     /tmp/ccIzNjGY.s:482    .text:0000000000000344 .L0 
     /tmp/ccIzNjGY.s:484    .text:0000000000000348 .L0 
     /tmp/ccIzNjGY.s:486    .text:000000000000034c .L0 
     /tmp/ccIzNjGY.s:489    .text:000000000000034c .L0 
     /tmp/ccIzNjGY.s:490    .text:000000000000034c .L0 
     /tmp/ccIzNjGY.s:491    .text:000000000000034c .L0 
     /tmp/ccIzNjGY.s:496    .text:0000000000000360 .L0 
     /tmp/ccIzNjGY.s:499    .text:0000000000000368 .L0 
     /tmp/ccIzNjGY.s:502    .text:0000000000000374 .L0 
     /tmp/ccIzNjGY.s:504    .text:0000000000000378 .L0 
     /tmp/ccIzNjGY.s:506    .text:000000000000037c .L0 
     /tmp/ccIzNjGY.s:507    .text:000000000000037c .L0 
     /tmp/ccIzNjGY.s:510    .text:0000000000000380 .L0 
     /tmp/ccIzNjGY.s:511    .text:0000000000000380 .L0 
     /tmp/ccIzNjGY.s:514    .text:0000000000000388 .L0 
     /tmp/ccIzNjGY.s:515    .text:0000000000000388 .L0 
     /tmp/ccIzNjGY.s:517    .text:000000000000038c .L0 
     /tmp/ccIzNjGY.s:519    .text:0000000000000390 .L0 
     /tmp/ccIzNjGY.s:525    .text:0000000000000390 _ZN7Konsole10getcKernelEP7KThread
     /tmp/ccIzNjGY.s:528    .text:0000000000000390 .L0 
     /tmp/ccIzNjGY.s:530    .text:0000000000000390 .L0 
     /tmp/ccIzNjGY.s:532    .text:0000000000000390 .L0 
     /tmp/ccIzNjGY.s:533    .text:0000000000000390 .L0 
     /tmp/ccIzNjGY.s:537    .text:00000000000003a0 .L0 
     /tmp/ccIzNjGY.s:540    .text:00000000000003a4 .L0 
     /tmp/ccIzNjGY.s:541    .text:00000000000003a4 .L0 
     /tmp/ccIzNjGY.s:546    .text:00000000000003b4 .L0 
     /tmp/ccIzNjGY.s:547    .text:00000000000003b4 .L0 
     /tmp/ccIzNjGY.s:549    .text:00000000000003b8 .L0 
     /tmp/ccIzNjGY.s:555    .text:00000000000003cc .L0 
     /tmp/ccIzNjGY.s:557    .text:00000000000003d0 .L0 
     /tmp/ccIzNjGY.s:559    .text:00000000000003d4 .L0 
     /tmp/ccIzNjGY.s:560    .text:00000000000003d4 .L0 
GAS LISTING /tmp/ccIzNjGY.s 			page 21


     /tmp/ccIzNjGY.s:563    .text:00000000000003d8 .L0 
     /tmp/ccIzNjGY.s:564    .text:00000000000003d8 .L0 
     /tmp/ccIzNjGY.s:569    .text:00000000000003dc .L0 
     /tmp/ccIzNjGY.s:573    .text:00000000000003e0 .L0 
     /tmp/ccIzNjGY.s:574    .text:00000000000003e4 .L0 
     /tmp/ccIzNjGY.s:577    .text:00000000000003ec .L0 
     /tmp/ccIzNjGY.s:578    .text:00000000000003ec .L0 
     /tmp/ccIzNjGY.s:580    .text:00000000000003f0 .L0 
     /tmp/ccIzNjGY.s:582    .text:00000000000003f0 .L0 
     /tmp/ccIzNjGY.s:583    .text:00000000000003f0 .L0 
     /tmp/ccIzNjGY.s:586    .text:00000000000003f8 .L0 
     /tmp/ccIzNjGY.s:587    .text:00000000000003f8 .L0 
     /tmp/ccIzNjGY.s:589    .text:00000000000003fc .L0 
     /tmp/ccIzNjGY.s:590    .text:0000000000000400 .L0 
     /tmp/ccIzNjGY.s:592    .text:0000000000000404 .L0 
     /tmp/ccIzNjGY.s:593    .text:0000000000000404 .L0 
     /tmp/ccIzNjGY.s:595    .text:0000000000000408 .L0 
     /tmp/ccIzNjGY.s:597    .text:000000000000040c .L0 
     /tmp/ccIzNjGY.s:630    .bss:0000000000000120 _ZN7Konsole14getcWaiterTailE
     /tmp/ccIzNjGY.s:634    .bss:0000000000000128 _ZN7Konsole14getcWaiterHeadE
     /tmp/ccIzNjGY.s:614    .bss:0000000000000000 _ZN7Konsole11outputItemsE
     /tmp/ccIzNjGY.s:622    .bss:000000000000001c _ZN7Konsole10outputTailE
     /tmp/ccIzNjGY.s:618    .bss:0000000000000018 _ZN7Konsole10outputHeadE
     /tmp/ccIzNjGY.s:626    .bss:0000000000000020 _ZN7Konsole12outputBufferE
     /tmp/ccIzNjGY.s:642    .bss:0000000000000134 _ZN7Konsole9inputTailE
     /tmp/ccIzNjGY.s:638    .bss:0000000000000130 _ZN7Konsole9inputHeadE
     /tmp/ccIzNjGY.s:646    .bss:0000000000000138 _ZN7Konsole11inputBufferE
     /tmp/ccIzNjGY.s:611    .bss:0000000000000000 .LANCHOR0
     /tmp/ccIzNjGY.s:656    .text:000000000000040c .L0 
     /tmp/ccIzNjGY.s:27     .text:0000000000000010 .L0 
     /tmp/ccIzNjGY.s:34     .text:0000000000000020 .L0 
     /tmp/ccIzNjGY.s:44     .text:000000000000003c .L0 
     /tmp/ccIzNjGY.s:52     .text:0000000000000050 .L0 
     /tmp/ccIzNjGY.s:68     .text:000000000000007c .L0 
     /tmp/ccIzNjGY.s:105    .text:00000000000000b4 .L0 
     /tmp/ccIzNjGY.s:116    .text:00000000000000d0 .L0 
     /tmp/ccIzNjGY.s:122    .text:00000000000000e0 .L0 
     /tmp/ccIzNjGY.s:147    .text:000000000000010c .L0 
     /tmp/ccIzNjGY.s:171    .text:000000000000012c .L0 
     /tmp/ccIzNjGY.s:182    .text:0000000000000144 .L0 
     /tmp/ccIzNjGY.s:223    .text:0000000000000194 .L0 
     /tmp/ccIzNjGY.s:247    .text:00000000000001b4 .L0 
     /tmp/ccIzNjGY.s:290    .text:0000000000000200 .L0 
     /tmp/ccIzNjGY.s:406    .text:00000000000002b0 .L0 
     /tmp/ccIzNjGY.s:415    .text:00000000000002c8 .L0 
     /tmp/ccIzNjGY.s:431    .text:00000000000002e8 .L0 
     /tmp/ccIzNjGY.s:449    .text:0000000000000318 .L0 
     /tmp/ccIzNjGY.s:491    .text:000000000000034c .L0 
     /tmp/ccIzNjGY.s:499    .text:0000000000000368 .L0 
     /tmp/ccIzNjGY.s:533    .text:0000000000000390 .L0 
     /tmp/ccIzNjGY.s:541    .text:00000000000003a4 .L0 
     /tmp/ccIzNjGY.s:30     .text:0000000000000020 .L2
     /tmp/ccIzNjGY.s:22     .text:0000000000000010 .L3
     /tmp/ccIzNjGY.s:137    .text:00000000000000fc .L7
     /tmp/ccIzNjGY.s:119    .text:00000000000000e0 .L8
     /tmp/ccIzNjGY.s:204    .text:000000000000017c .L10
     /tmp/ccIzNjGY.s:219    .text:0000000000000194 .L12
GAS LISTING /tmp/ccIzNjGY.s 			page 22


     /tmp/ccIzNjGY.s:190    .text:000000000000015c .L13
     /tmp/ccIzNjGY.s:400    .text:00000000000002b0 .L18
     /tmp/ccIzNjGY.s:457    .text:0000000000000330 .L24
     /tmp/ccIzNjGY.s:367    .text:0000000000000288 .L19
     /tmp/ccIzNjGY.s:387    .text:00000000000002a4 .L25
     /tmp/ccIzNjGY.s:371    .text:000000000000028c .L17
     /tmp/ccIzNjGY.s:487    .text:000000000000034c .L27
     /tmp/ccIzNjGY.s:508    .text:0000000000000380 .L28
     /tmp/ccIzNjGY.s:571    .text:00000000000003e0 .L31
     /tmp/ccIzNjGY.s:561    .text:00000000000003d8 .L32
     /tmp/ccIzNjGY.s:2300   .debug_abbrev:0000000000000000 .Ldebug_abbrev0
     /tmp/ccIzNjGY.s:3864   .debug_str:00000000000009a0 .LASF166
     /tmp/ccIzNjGY.s:3674   .debug_str:00000000000002fe .LASF167
     /tmp/ccIzNjGY.s:3860   .debug_str:000000000000097a .LASF168
     /tmp/ccIzNjGY.s:5      .text:0000000000000000 .Ltext0
     /tmp/ccIzNjGY.s:649    .text:000000000000040c .Letext0
     /tmp/ccIzNjGY.s:3574   .debug_line:0000000000000000 .Ldebug_line0
     /tmp/ccIzNjGY.s:3708   .debug_str:0000000000000456 .LASF0
     /tmp/ccIzNjGY.s:3726   .debug_str:0000000000000503 .LASF1
     /tmp/ccIzNjGY.s:3812   .debug_str:0000000000000819 .LASF2
     /tmp/ccIzNjGY.s:3664   .debug_str:000000000000029c .LASF3
     /tmp/ccIzNjGY.s:3816   .debug_str:0000000000000844 .LASF4
     /tmp/ccIzNjGY.s:3714   .debug_str:0000000000000496 .LASF5
     /tmp/ccIzNjGY.s:3588   .debug_str:000000000000005a .LASF6
     /tmp/ccIzNjGY.s:3788   .debug_str:0000000000000763 .LASF7
     /tmp/ccIzNjGY.s:3776   .debug_str:000000000000071b .LASF8
     /tmp/ccIzNjGY.s:3720   .debug_str:00000000000004c9 .LASF9
     /tmp/ccIzNjGY.s:3682   .debug_str:000000000000033f .LASF10
     /tmp/ccIzNjGY.s:3688   .debug_str:0000000000000371 .LASF11
     /tmp/ccIzNjGY.s:3624   .debug_str:0000000000000149 .LASF12
     /tmp/ccIzNjGY.s:3668   .debug_str:00000000000002c3 .LASF13
     /tmp/ccIzNjGY.s:3632   .debug_str:000000000000018b .LASF14
     /tmp/ccIzNjGY.s:3622   .debug_str:0000000000000139 .LASF15
     /tmp/ccIzNjGY.s:3840   .debug_str:00000000000008f0 .LASF16
     /tmp/ccIzNjGY.s:3658   .debug_str:0000000000000257 .LASF17
     /tmp/ccIzNjGY.s:3830   .debug_str:00000000000008aa .LASF18
     /tmp/ccIzNjGY.s:3846   .debug_str:0000000000000914 .LASF169
     /tmp/ccIzNjGY.s:3866   .debug_str:0000000000000a64 .LASF19
     /tmp/ccIzNjGY.s:3902   .debug_str:0000000000000b73 .LASF20
     /tmp/ccIzNjGY.s:3770   .debug_str:00000000000006f1 .LASF29
     /tmp/ccIzNjGY.s:3844   .debug_str:0000000000000903 .LASF53
     /tmp/ccIzNjGY.s:3722   .debug_str:00000000000004dc .LASF55
     /tmp/ccIzNjGY.s:3646   .debug_str:0000000000000211 .LASF21
     /tmp/ccIzNjGY.s:3650   .debug_str:000000000000021b .LASF22
     /tmp/ccIzNjGY.s:3602   .debug_str:00000000000000c6 .LASF23
     /tmp/ccIzNjGY.s:3626   .debug_str:0000000000000158 .LASF24
     /tmp/ccIzNjGY.s:3826   .debug_str:0000000000000889 .LASF25
     /tmp/ccIzNjGY.s:3854   .debug_str:000000000000093a .LASF26
     /tmp/ccIzNjGY.s:3920   .debug_str:0000000000000c17 .LASF27
     /tmp/ccIzNjGY.s:3600   .debug_str:00000000000000b8 .LASF28
     /tmp/ccIzNjGY.s:3652   .debug_str:0000000000000222 .LASF31
     /tmp/ccIzNjGY.s:3922   .debug_str:0000000000000c22 .LASF30
     /tmp/ccIzNjGY.s:3702   .debug_str:00000000000003f4 .LASF32
     /tmp/ccIzNjGY.s:3606   .debug_str:00000000000000d1 .LASF33
     /tmp/ccIzNjGY.s:3774   .debug_str:0000000000000708 .LASF34
     /tmp/ccIzNjGY.s:3614   .debug_str:00000000000000f1 .LASF35
     /tmp/ccIzNjGY.s:3856   .debug_str:0000000000000947 .LASF37
GAS LISTING /tmp/ccIzNjGY.s 			page 23


     /tmp/ccIzNjGY.s:3700   .debug_str:00000000000003e9 .LASF36
     /tmp/ccIzNjGY.s:3694   .debug_str:00000000000003ba .LASF38
     /tmp/ccIzNjGY.s:3810   .debug_str:000000000000080f .LASF39
     /tmp/ccIzNjGY.s:3630   .debug_str:0000000000000173 .LASF40
     /tmp/ccIzNjGY.s:3754   .debug_str:0000000000000622 .LASF41
     /tmp/ccIzNjGY.s:3906   .debug_str:0000000000000b88 .LASF42
     /tmp/ccIzNjGY.s:3794   .debug_str:0000000000000788 .LASF43
     /tmp/ccIzNjGY.s:3676   .debug_str:000000000000030e .LASF44
     /tmp/ccIzNjGY.s:3876   .debug_str:0000000000000aac .LASF45
     /tmp/ccIzNjGY.s:3838   .debug_str:00000000000008d0 .LASF46
     /tmp/ccIzNjGY.s:3696   .debug_str:00000000000003d4 .LASF47
     /tmp/ccIzNjGY.s:3592   .debug_str:000000000000006e .LASF48
     /tmp/ccIzNjGY.s:3628   .debug_str:000000000000015d .LASF49
     /tmp/ccIzNjGY.s:3728   .debug_str:0000000000000516 .LASF50
     /tmp/ccIzNjGY.s:3778   .debug_str:000000000000072e .LASF51
     /tmp/ccIzNjGY.s:3828   .debug_str:0000000000000892 .LASF52
     /tmp/ccIzNjGY.s:3608   .debug_str:00000000000000d6 .LASF54
     /tmp/ccIzNjGY.s:3638   .debug_str:00000000000001d6 .LASF56
     /tmp/ccIzNjGY.s:3802   .debug_str:00000000000007b5 .LASF57
     /tmp/ccIzNjGY.s:3698   .debug_str:00000000000003e3 .LASF58
     /tmp/ccIzNjGY.s:3896   .debug_str:0000000000000b57 .LASF59
     /tmp/ccIzNjGY.s:3824   .debug_str:000000000000087d .LASF60
     /tmp/ccIzNjGY.s:3642   .debug_str:0000000000000200 .LASF61
     /tmp/ccIzNjGY.s:3610   .debug_str:00000000000000de .LASF62
     /tmp/ccIzNjGY.s:3750   .debug_str:00000000000005f4 .LASF63
     /tmp/ccIzNjGY.s:3780   .debug_str:0000000000000734 .LASF64
     /tmp/ccIzNjGY.s:3634   .debug_str:000000000000019b .LASF65
     /tmp/ccIzNjGY.s:3908   .debug_str:0000000000000ba6 .LASF66
     /tmp/ccIzNjGY.s:3648   .debug_str:0000000000000216 .LASF67
     /tmp/ccIzNjGY.s:3918   .debug_str:0000000000000bf8 .LASF68
     /tmp/ccIzNjGY.s:3842   .debug_str:00000000000008fc .LASF69
     /tmp/ccIzNjGY.s:3758   .debug_str:000000000000064e .LASF70
     /tmp/ccIzNjGY.s:3604   .debug_str:00000000000000cb .LASF71
     /tmp/ccIzNjGY.s:3808   .debug_str:00000000000007ee .LASF72
     /tmp/ccIzNjGY.s:3716   .debug_str:00000000000004a8 .LASF73
     /tmp/ccIzNjGY.s:3892   .debug_str:0000000000000b30 .LASF74
     /tmp/ccIzNjGY.s:3594   .debug_str:000000000000008e .LASF75
     /tmp/ccIzNjGY.s:3878   .debug_str:0000000000000abb .LASF76
     /tmp/ccIzNjGY.s:3742   .debug_str:00000000000005a1 .LASF77
     /tmp/ccIzNjGY.s:3888   .debug_str:0000000000000b06 .LASF78
     /tmp/ccIzNjGY.s:3586   .debug_str:000000000000004e .LASF170
     /tmp/ccIzNjGY.s:3884   .debug_str:0000000000000aea .LASF79
     /tmp/ccIzNjGY.s:3710   .debug_str:0000000000000463 .LASF80
     /tmp/ccIzNjGY.s:3618   .debug_str:0000000000000126 .LASF81
     /tmp/ccIzNjGY.s:3894   .debug_str:0000000000000b4a .LASF82
     /tmp/ccIzNjGY.s:3848   .debug_str:000000000000091c .LASF83
     /tmp/ccIzNjGY.s:3764   .debug_str:00000000000006a7 .LASF84
     /tmp/ccIzNjGY.s:3640   .debug_str:00000000000001f4 .LASF85
     /tmp/ccIzNjGY.s:3772   .debug_str:00000000000006f9 .LASF86
     /tmp/ccIzNjGY.s:3582   .debug_str:000000000000002e .LASF87
     /tmp/ccIzNjGY.s:3686   .debug_str:000000000000035f .LASF88
     /tmp/ccIzNjGY.s:3616   .debug_str:00000000000000fd .LASF90
     /tmp/ccIzNjGY.s:3882   .debug_str:0000000000000ad8 .LASF92
     /tmp/ccIzNjGY.s:3762   .debug_str:0000000000000686 .LASF93
     /tmp/ccIzNjGY.s:3912   .debug_str:0000000000000bc3 .LASF89
     /tmp/ccIzNjGY.s:3636   .debug_str:00000000000001b5 .LASF91
     /tmp/ccIzNjGY.s:3822   .debug_str:000000000000086a .LASF94
GAS LISTING /tmp/ccIzNjGY.s 			page 24


     /tmp/ccIzNjGY.s:3818   .debug_str:000000000000084b .LASF95
     /tmp/ccIzNjGY.s:3760   .debug_str:0000000000000667 .LASF96
     /tmp/ccIzNjGY.s:3660   .debug_str:000000000000026d .LASF97
     /tmp/ccIzNjGY.s:3768   .debug_str:00000000000006ce .LASF98
     /tmp/ccIzNjGY.s:3612   .debug_str:00000000000000e6 .LASF99
     /tmp/ccIzNjGY.s:3890   .debug_str:0000000000000b0e .LASF100
     /tmp/ccIzNjGY.s:3850   .debug_str:0000000000000927 .LASF101
     /tmp/ccIzNjGY.s:3680   .debug_str:0000000000000335 .LASF102
     /tmp/ccIzNjGY.s:3740   .debug_str:000000000000058b .LASF103
     /tmp/ccIzNjGY.s:3862   .debug_str:0000000000000998 .LASF104
     /tmp/ccIzNjGY.s:3654   .debug_str:0000000000000232 .LASF105
     /tmp/ccIzNjGY.s:3852   .debug_str:000000000000092c .LASF106
     /tmp/ccIzNjGY.s:3872   .debug_str:0000000000000a9a .LASF107
     /tmp/ccIzNjGY.s:3752   .debug_str:0000000000000616 .LASF108
     /tmp/ccIzNjGY.s:3590   .debug_str:0000000000000061 .LASF109
     /tmp/ccIzNjGY.s:3900   .debug_str:0000000000000b67 .LASF171
     /tmp/ccIzNjGY.s:3730   .debug_str:0000000000000540 .LASF172
     /tmp/ccIzNjGY.s:3820   .debug_str:000000000000085b .LASF110
     /tmp/ccIzNjGY.s:3870   .debug_str:0000000000000a72 .LASF111
     /tmp/ccIzNjGY.s:3886   .debug_str:0000000000000af6 .LASF112
     /tmp/ccIzNjGY.s:3666   .debug_str:00000000000002a2 .LASF113
     /tmp/ccIzNjGY.s:3584   .debug_str:000000000000003d .LASF114
     /tmp/ccIzNjGY.s:3704   .debug_str:0000000000000410 .LASF115
     /tmp/ccIzNjGY.s:3596   .debug_str:0000000000000094 .LASF120
     /tmp/ccIzNjGY.s:3766   .debug_str:00000000000006b2 .LASF122
     /tmp/ccIzNjGY.s:3732   .debug_str:000000000000055d .LASF116
     /tmp/ccIzNjGY.s:3924   .debug_str:0000000000000c2e .LASF117
     /tmp/ccIzNjGY.s:3916   .debug_str:0000000000000bed .LASF118
     /tmp/ccIzNjGY.s:3706   .debug_str:0000000000000432 .LASF119
     /tmp/ccIzNjGY.s:3804   .debug_str:00000000000007c0 .LASF121
     /tmp/ccIzNjGY.s:3858   .debug_str:0000000000000962 .LASF123
     /tmp/ccIzNjGY.s:3692   .debug_str:000000000000039e .LASF173
     /tmp/ccIzNjGY.s:3800   .debug_str:00000000000007a8 .LASF124
     /tmp/ccIzNjGY.s:3744   .debug_str:00000000000005a6 .LASF125
     /tmp/ccIzNjGY.s:3672   .debug_str:00000000000002f4 .LASF126
     /tmp/ccIzNjGY.s:3670   .debug_str:00000000000002d2 .LASF127
     /tmp/ccIzNjGY.s:3832   .debug_str:00000000000008c0 .LASF128
     /tmp/ccIzNjGY.s:3690   .debug_str:000000000000037f .LASF129
     /tmp/ccIzNjGY.s:3898   .debug_str:0000000000000b5e .LASF130
     /tmp/ccIzNjGY.s:3880   .debug_str:0000000000000ad3 .LASF131
     /tmp/ccIzNjGY.s:3724   .debug_str:00000000000004fe .LASF132
     /tmp/ccIzNjGY.s:3684   .debug_str:000000000000034f .LASF133
     /tmp/ccIzNjGY.s:3782   .debug_str:000000000000073c .LASF134
     /tmp/ccIzNjGY.s:3662   .debug_str:0000000000000278 .LASF135
     /tmp/ccIzNjGY.s:3734   .debug_str:0000000000000563 .LASF136
     /tmp/ccIzNjGY.s:3712   .debug_str:000000000000046d .LASF137
     /tmp/ccIzNjGY.s:3904   .debug_str:0000000000000b7b .LASF138
     /tmp/ccIzNjGY.s:3806   .debug_str:00000000000007c8 .LASF139
     /tmp/ccIzNjGY.s:3834   .debug_str:00000000000008c6 .LASF140
     /tmp/ccIzNjGY.s:3598   .debug_str:000000000000009f .LASF141
     /tmp/ccIzNjGY.s:3748   .debug_str:00000000000005e6 .LASF142
     /tmp/ccIzNjGY.s:3736   .debug_str:0000000000000574 .LASF143
     /tmp/ccIzNjGY.s:3836   .debug_str:00000000000008cb .LASF144
     /tmp/ccIzNjGY.s:3796   .debug_str:0000000000000797 .LASF174
     /tmp/ccIzNjGY.s:3910   .debug_str:0000000000000bbd .LASF145
     /tmp/ccIzNjGY.s:3656   .debug_str:000000000000023d .LASF146
     /tmp/ccIzNjGY.s:3926   .debug_str:0000000000000c4f .LASF147
GAS LISTING /tmp/ccIzNjGY.s 			page 25


     /tmp/ccIzNjGY.s:3792   .debug_str:0000000000000771 .LASF148
     /tmp/ccIzNjGY.s:3580   .debug_str:0000000000000013 .LASF149
     /tmp/ccIzNjGY.s:3914   .debug_str:0000000000000bd4 .LASF150
     /tmp/ccIzNjGY.s:3718   .debug_str:00000000000004b0 .LASF151
     /tmp/ccIzNjGY.s:3746   .debug_str:00000000000005cc .LASF152
     /tmp/ccIzNjGY.s:3814   .debug_str:0000000000000827 .LASF153
     /tmp/ccIzNjGY.s:3756   .debug_str:0000000000000631 .LASF154
     /tmp/ccIzNjGY.s:526    .text:0000000000000390 .LFB9
     /tmp/ccIzNjGY.s:598    .text:000000000000040c .LFE9
     /tmp/ccIzNjGY.s:3798   .debug_str:00000000000007a1 .LASF155
     /tmp/ccIzNjGY.s:3383   .debug_loc:0000000000000000 .LLST14
     /tmp/ccIzNjGY.s:538    .text:00000000000003a4 .LBB18
     /tmp/ccIzNjGY.s:566    .text:00000000000003dc .LBE18
     /tmp/ccIzNjGY.s:3408   .debug_loc:0000000000000062 .LLST15
     /tmp/ccIzNjGY.s:584    .text:00000000000003f8 .LVL44
     /tmp/ccIzNjGY.s:477    .text:0000000000000340 .LFB8
     /tmp/ccIzNjGY.s:520    .text:0000000000000390 .LFE8
     /tmp/ccIzNjGY.s:3415   .debug_loc:0000000000000085 .LLST13
     /tmp/ccIzNjGY.s:341    .text:000000000000025c .LFB7
     /tmp/ccIzNjGY.s:471    .text:0000000000000340 .LFE7
     /tmp/ccIzNjGY.s:3429   .debug_loc:00000000000000be .LLST9
     /tmp/ccIzNjGY.s:3566   .debug_ranges:0000000000000000 .Ldebug_ranges0
     /tmp/ccIzNjGY.s:3436   .debug_loc:00000000000000e1 .LLST10
     /tmp/ccIzNjGY.s:3790   .debug_str:000000000000076a .LASF156
     /tmp/ccIzNjGY.s:3447   .debug_loc:0000000000000117 .LLST11
     /tmp/ccIzNjGY.s:428    .text:00000000000002e8 .LBB13
     /tmp/ccIzNjGY.s:458    .text:0000000000000330 .LBE13
     /tmp/ccIzNjGY.s:3868   .debug_str:0000000000000a69 .LASF157
     /tmp/ccIzNjGY.s:3458   .debug_loc:000000000000014d .LLST12
     /tmp/ccIzNjGY.s:399    .text:00000000000002b0 .LVL32
     /tmp/ccIzNjGY.s:424    .text:00000000000002e4 .LVL34
     /tmp/ccIzNjGY.s:359    .text:000000000000027c .LVL28
     /tmp/ccIzNjGY.s:467    .text:000000000000033c .LVL37
     /tmp/ccIzNjGY.s:232    .text:00000000000001a0 .LFB6
     /tmp/ccIzNjGY.s:335    .text:000000000000025c .LFE6
     /tmp/ccIzNjGY.s:3576   .debug_str:0000000000000000 .LASF158
     /tmp/ccIzNjGY.s:3465   .debug_loc:0000000000000170 .LLST2
     /tmp/ccIzNjGY.s:3786   .debug_str:0000000000000756 .LASF159
     /tmp/ccIzNjGY.s:3678   .debug_str:000000000000032c .LASF160
     /tmp/ccIzNjGY.s:3472   .debug_loc:0000000000000193 .LLST4
     /tmp/ccIzNjGY.s:3578   .debug_str:000000000000000a .LASF161
     /tmp/ccIzNjGY.s:3485   .debug_loc:00000000000001cd .LLST5
     /tmp/ccIzNjGY.s:285    .text:0000000000000200 .LBB7
     /tmp/ccIzNjGY.s:297    .text:0000000000000210 .LBE7
     /tmp/ccIzNjGY.s:3498   .debug_loc:0000000000000207 .LLST6
     /tmp/ccIzNjGY.s:3506   .debug_loc:000000000000022b .LLST7
     /tmp/ccIzNjGY.s:3515   .debug_loc:0000000000000257 .LLST8
     /tmp/ccIzNjGY.s:268    .text:00000000000001e0 .LVL15
     /tmp/ccIzNjGY.s:272    .text:00000000000001e8 .LVL16
     /tmp/ccIzNjGY.s:276    .text:00000000000001f4 .LVL17
     /tmp/ccIzNjGY.s:283    .text:0000000000000200 .LVL19
     /tmp/ccIzNjGY.s:301    .text:0000000000000218 .LVL21
     /tmp/ccIzNjGY.s:305    .text:0000000000000224 .LVL22
     /tmp/ccIzNjGY.s:316    .text:000000000000023c .LVL25
     /tmp/ccIzNjGY.s:321    .text:0000000000000248 .LVL26
     /tmp/ccIzNjGY.s:10     .text:0000000000000000 .LFB5
     /tmp/ccIzNjGY.s:77     .text:0000000000000090 .LFE5
GAS LISTING /tmp/ccIzNjGY.s 			page 26


     /tmp/ccIzNjGY.s:49     .text:0000000000000050 .LBB6
     /tmp/ccIzNjGY.s:72     .text:000000000000008c .LBE6
     /tmp/ccIzNjGY.s:29     .text:0000000000000020 .LVL0
     /tmp/ccIzNjGY.s:156    .text:0000000000000118 .LFB4
     /tmp/ccIzNjGY.s:226    .text:00000000000001a0 .LFE4
     /tmp/ccIzNjGY.s:3874   .debug_str:0000000000000aa5 .LASF162
     /tmp/ccIzNjGY.s:3522   .debug_loc:000000000000027a .LLST1
     /tmp/ccIzNjGY.s:180    .text:0000000000000144 .LVL10
     /tmp/ccIzNjGY.s:189    .text:000000000000015c .LVL11
     /tmp/ccIzNjGY.s:196    .text:000000000000016c .LVL12
     /tmp/ccIzNjGY.s:202    .text:000000000000017c .LVL13
     /tmp/ccIzNjGY.s:83     .text:0000000000000090 .LFB3
     /tmp/ccIzNjGY.s:150    .text:0000000000000118 .LFE3
     /tmp/ccIzNjGY.s:3533   .debug_loc:00000000000002b0 .LLST0
     /tmp/ccIzNjGY.s:102    .text:00000000000000b4 .LVL3
     /tmp/ccIzNjGY.s:112    .text:00000000000000cc .LVL4
     /tmp/ccIzNjGY.s:118    .text:00000000000000e0 .LVL5
     /tmp/ccIzNjGY.s:144    .text:000000000000010c .LVL8
     /tmp/ccIzNjGY.s:3644   .debug_str:000000000000020c .LASF175
     /tmp/ccIzNjGY.s:3738   .debug_str:0000000000000580 .LASF163
     /tmp/ccIzNjGY.s:3784   .debug_str:0000000000000748 .LASF164
     /tmp/ccIzNjGY.s:3620   .debug_str:0000000000000130 .LASF165
     /tmp/ccIzNjGY.s:529    .text:0000000000000390 .LVL40
     /tmp/ccIzNjGY.s:565    .text:00000000000003dc .LVL42
     /tmp/ccIzNjGY.s:570    .text:00000000000003e0 .LVL43
     /tmp/ccIzNjGY.s:544    .text:00000000000003b4 .LVL41
     /tmp/ccIzNjGY.s:480    .text:0000000000000340 .LVL38
     /tmp/ccIzNjGY.s:512    .text:0000000000000384 .LVL39
     /tmp/ccIzNjGY.s:361    .text:0000000000000280 .LVL29
     /tmp/ccIzNjGY.s:366    .text:0000000000000288 .LVL30
     /tmp/ccIzNjGY.s:386    .text:00000000000002a4 .LVL31
     /tmp/ccIzNjGY.s:420    .text:00000000000002dc .LVL33
     /tmp/ccIzNjGY.s:456    .text:0000000000000330 .LVL36
     /tmp/ccIzNjGY.s:441    .text:0000000000000310 .LVL35
     /tmp/ccIzNjGY.s:278    .text:00000000000001f8 .LVL18
     /tmp/ccIzNjGY.s:330    .text:0000000000000254 .LVL27
     /tmp/ccIzNjGY.s:314    .text:0000000000000234 .LVL24
     /tmp/ccIzNjGY.s:311    .text:000000000000022c .LVL23
     /tmp/ccIzNjGY.s:295    .text:0000000000000210 .LVL20
     /tmp/ccIzNjGY.s:175    .text:0000000000000138 .LVL9
     /tmp/ccIzNjGY.s:218    .text:0000000000000194 .LVL14
     /tmp/ccIzNjGY.s:86     .text:0000000000000090 .LVL2
     /tmp/ccIzNjGY.s:132    .text:00000000000000f4 .LVL6
     /tmp/ccIzNjGY.s:136    .text:00000000000000fc .LVL7
     /tmp/ccIzNjGY.s:657    .debug_info:0000000000000000 .Ldebug_info0
     /tmp/ccIzNjGY.s:391    .text:00000000000002a4 .LBB11
     /tmp/ccIzNjGY.s:402    .text:00000000000002b0 .LBE11
     /tmp/ccIzNjGY.s:412    .text:00000000000002c8 .LBB15
     /tmp/ccIzNjGY.s:460    .text:0000000000000330 .LBE15

UNDEFINED SYMBOLS
sem_wait
CONSOLE_STATUS
CONSOLE_TX_DATA
_ZN7KThread14setNextInQueueEPS_
_ZN7KThread14setPrevInQueueEPS_
_ZN7KThread14getNextInQueueEv
GAS LISTING /tmp/ccIzNjGY.s 			page 27


_ZN10KSemaphore4initEj
_ZN15MemoryAllocator11GetInstanceEv
_ZN15MemoryAllocator16AllocateFragmentEm
_ZN7KThread4initEv
_ZN7KThread5setupEPS_Pm
_ZN9Scheduler3PutEP7KThread
plic_claim
CONSOLE_RX_DATA
plic_complete
