GAS LISTING /tmp/ccQrDHbb.s 			page 1


   1              		.file	"Konsole.cpp"
   2              		.option pic
   3              		.option norelax
   4              		.text
   5              	.Ltext0:
   6              		.align	2
   7              		.globl	_ZN7Konsole16outputThreadBodyEPv
   9              	_ZN7Konsole16outputThreadBodyEPv:
  10              	.LFB5:
  11              		.file 1 "src/Konsole.cpp"
   1:src/Konsole.cpp **** //
   2:src/Konsole.cpp **** // Created by os on 6/24/26.
   3:src/Konsole.cpp **** //
   4:src/Konsole.cpp **** 
   5:src/Konsole.cpp **** #include "Konsole.hpp"
   6:src/Konsole.cpp **** #include "Scheduler.hpp"
   7:src/Konsole.cpp **** #include "MemoryAllocator.hpp"
   8:src/Konsole.cpp **** #include "syscall_c.h"
   9:src/Konsole.cpp **** 
  10:src/Konsole.cpp **** char Konsole::inputBuffer[BUFFER_SIZE];
  11:src/Konsole.cpp **** int Konsole::inputHead = 0;
  12:src/Konsole.cpp **** int Konsole::inputTail = 0;
  13:src/Konsole.cpp **** 
  14:src/Konsole.cpp **** char Konsole::outputBuffer[BUFFER_SIZE];
  15:src/Konsole.cpp **** int Konsole::outputHead = 0;
  16:src/Konsole.cpp **** int Konsole::outputTail = 0;
  17:src/Konsole.cpp **** KSemaphore Konsole::outputItems;
  18:src/Konsole.cpp **** 
  19:src/Konsole.cpp **** KThread* Konsole::getcWaiterHead = nullptr;
  20:src/Konsole.cpp **** KThread* Konsole::getcWaiterTail = nullptr;
  21:src/Konsole.cpp **** 
  22:src/Konsole.cpp **** void Konsole::enqueueGetcWaiter(KThread* thread) {
  23:src/Konsole.cpp ****     thread->setNextInQueue(nullptr);
  24:src/Konsole.cpp ****     if (getcWaiterTail != nullptr) {
  25:src/Konsole.cpp ****         thread->setPrevInQueue(getcWaiterTail);
  26:src/Konsole.cpp ****         getcWaiterTail->setNextInQueue(thread);
  27:src/Konsole.cpp ****     } else {
  28:src/Konsole.cpp ****         thread->setPrevInQueue(nullptr);
  29:src/Konsole.cpp ****         getcWaiterHead = thread;
  30:src/Konsole.cpp ****     }
  31:src/Konsole.cpp ****     getcWaiterTail = thread;
  32:src/Konsole.cpp **** }
  33:src/Konsole.cpp **** 
  34:src/Konsole.cpp **** KThread* Konsole::dequeueGetcWaiter() {
  35:src/Konsole.cpp ****     if (getcWaiterHead == nullptr) return nullptr;
  36:src/Konsole.cpp ****     KThread* thread = getcWaiterHead;
  37:src/Konsole.cpp ****     getcWaiterHead = thread->getNextInQueue();
  38:src/Konsole.cpp ****     if (getcWaiterHead != nullptr) getcWaiterHead->setPrevInQueue(nullptr);
  39:src/Konsole.cpp ****     else getcWaiterTail = nullptr;
  40:src/Konsole.cpp ****     thread->setNextInQueue(nullptr);
  41:src/Konsole.cpp ****     thread->setPrevInQueue(nullptr);
  42:src/Konsole.cpp ****     return thread;
  43:src/Konsole.cpp **** }
  44:src/Konsole.cpp **** 
  45:src/Konsole.cpp **** void Konsole::outputThreadBody(void*) {
  12              		.loc 1 45 39
  13              		.cfi_startproc
GAS LISTING /tmp/ccQrDHbb.s 			page 2


  14 0000 130101FF 		addi	sp,sp,-16
  15              		.cfi_def_cfa_offset 16
  16 0004 23341100 		sd	ra,8(sp)
  17 0008 23308100 		sd	s0,0(sp)
  18              		.cfi_offset 1, -8
  19              		.cfi_offset 8, -16
  20 000c 13040101 		addi	s0,sp,16
  21              		.cfi_def_cfa 8, 0
  22              	.L3:
  46:src/Konsole.cpp ****     while (true) {
  23              		.loc 1 46 5
  24              	.LBB4:
  47:src/Konsole.cpp ****         sem_wait((sem_t)&outputItems);
  25              		.loc 1 47 9
  26              		.loc 1 47 17 is_stmt 0
  27 0010 17050000 		lla	a0,.LANCHOR0
  27      13050500 
  28 0018 97000000 		call	sem_wait@plt
  28      E7800000 
  29              	.LVL0:
  30              	.L2:
  48:src/Konsole.cpp ****         while (!(*((volatile uint8*)CONSOLE_STATUS) & CONSOLE_TX_STATUS_BIT));
  31              		.loc 1 48 9 is_stmt 1
  32              		.loc 1 48 16
  33              		.loc 1 48 18 is_stmt 0
  34 0020 97070000 		la	a5,CONSOLE_STATUS
  34      83B70700 
  35 0028 83B70700 		ld	a5,0(a5)
  36 002c 83C70700 		lbu	a5,0(a5)
  37 0030 93F7F70F 		andi	a5,a5,0xff
  38              		.loc 1 48 16
  39 0034 93F70702 		andi	a5,a5,32
  40 0038 E38407FE 		beqz	a5,.L2
  49:src/Konsole.cpp ****         if (outputHead!=outputTail) {
  41              		.loc 1 49 9 is_stmt 1
  42              	.LBB5:
  43              		.loc 1 49 23 is_stmt 0
  44 003c 17070000 		lla	a4,.LANCHOR0
  44      13070700 
  45 0044 83278701 		lw	a5,24(a4)
  46 0048 0327C701 		lw	a4,28(a4)
  47              		.loc 1 49 9
  48 004c E382E7FC 		beq	a5,a4,.L3
  49              	.LBB6:
  50:src/Konsole.cpp ****             char c = outputBuffer[outputHead];
  50              		.loc 1 50 13 is_stmt 1
  51              		.loc 1 50 18 is_stmt 0
  52 0050 97060000 		lla	a3,.LANCHOR0
  52      93860600 
  53 0058 3387F600 		add	a4,a3,a5
  54 005c 03460702 		lbu	a2,32(a4)
  55              	.LVL1:
  51:src/Konsole.cpp ****             outputHead = (outputHead + 1) % BUFFER_SIZE;
  56              		.loc 1 51 13 is_stmt 1
  57              		.loc 1 51 38 is_stmt 0
  58 0060 9B871700 		addiw	a5,a5,1
  59              		.loc 1 51 43
GAS LISTING /tmp/ccQrDHbb.s 			page 3


  60 0064 1BD7F741 		sraiw	a4,a5,31
  61 0068 1B578701 		srliw	a4,a4,24
  62 006c BB87E700 		addw	a5,a5,a4
  63 0070 93F7F70F 		andi	a5,a5,255
  64 0074 BB87E740 		subw	a5,a5,a4
  65              		.loc 1 51 24
  66 0078 23ACF600 		sw	a5,24(a3)
  52:src/Konsole.cpp ****             *((volatile uint8*)CONSOLE_TX_DATA) = c;
  67              		.loc 1 52 13 is_stmt 1
  68 007c 97070000 		la	a5,CONSOLE_TX_DATA
  68      83B70700 
  69 0084 83B70700 		ld	a5,0(a5)
  70              		.loc 1 52 49 is_stmt 0
  71 0088 2380C700 		sb	a2,0(a5)
  72              	.LBE6:
  73 008c 6FF05FF8 		j	.L3
  74              	.LBE5:
  75              	.LBE4:
  76              		.cfi_endproc
  77              	.LFE5:
  79              		.align	2
  80              		.globl	_ZN7Konsole17enqueueGetcWaiterEP7KThread
  82              	_ZN7Konsole17enqueueGetcWaiterEP7KThread:
  83              	.LFB3:
  22:src/Konsole.cpp ****     thread->setNextInQueue(nullptr);
  84              		.loc 1 22 50 is_stmt 1
  85              		.cfi_startproc
  86              	.LVL2:
  87 0090 130101FE 		addi	sp,sp,-32
  88              		.cfi_def_cfa_offset 32
  89 0094 233C1100 		sd	ra,24(sp)
  90 0098 23388100 		sd	s0,16(sp)
  91 009c 23349100 		sd	s1,8(sp)
  92              		.cfi_offset 1, -8
  93              		.cfi_offset 8, -16
  94              		.cfi_offset 9, -24
  95 00a0 13040102 		addi	s0,sp,32
  96              		.cfi_def_cfa 8, 0
  97 00a4 93040500 		mv	s1,a0
  23:src/Konsole.cpp ****     if (getcWaiterTail != nullptr) {
  98              		.loc 1 23 5
  23:src/Konsole.cpp ****     if (getcWaiterTail != nullptr) {
  99              		.loc 1 23 27 is_stmt 0
 100 00a8 93050000 		li	a1,0
 101 00ac 97000000 		call	_ZN7KThread14setNextInQueueEPS_@plt
 101      E7800000 
 102              	.LVL3:
  24:src/Konsole.cpp ****         thread->setPrevInQueue(getcWaiterTail);
 103              		.loc 1 24 5 is_stmt 1
  24:src/Konsole.cpp ****         thread->setPrevInQueue(getcWaiterTail);
 104              		.loc 1 24 24 is_stmt 0
 105 00b4 97050000 		ld	a1,.LANCHOR0+288
 105      83B50500 
  24:src/Konsole.cpp ****         thread->setPrevInQueue(getcWaiterTail);
 106              		.loc 1 24 5
 107 00bc 63800504 		beqz	a1,.L7
  25:src/Konsole.cpp ****         getcWaiterTail->setNextInQueue(thread);
GAS LISTING /tmp/ccQrDHbb.s 			page 4


 108              		.loc 1 25 9 is_stmt 1
  25:src/Konsole.cpp ****         getcWaiterTail->setNextInQueue(thread);
 109              		.loc 1 25 31 is_stmt 0
 110 00c0 13850400 		mv	a0,s1
 111 00c4 97000000 		call	_ZN7KThread14setPrevInQueueEPS_@plt
 111      E7800000 
 112              	.LVL4:
  26:src/Konsole.cpp ****     } else {
 113              		.loc 1 26 9 is_stmt 1
  26:src/Konsole.cpp ****     } else {
 114              		.loc 1 26 39 is_stmt 0
 115 00cc 93850400 		mv	a1,s1
 116 00d0 17050000 		ld	a0,.LANCHOR0+288
 116      03350500 
 117 00d8 97000000 		call	_ZN7KThread14setNextInQueueEPS_@plt
 117      E7800000 
 118              	.LVL5:
 119              	.L8:
  31:src/Konsole.cpp **** }
 120              		.loc 1 31 5 is_stmt 1
  31:src/Konsole.cpp **** }
 121              		.loc 1 31 20 is_stmt 0
 122 00e0 97070000 		sd	s1,.LANCHOR0+288,a5
 122      23B09700 
  32:src/Konsole.cpp **** 
 123              		.loc 1 32 1
 124 00e8 83308101 		ld	ra,24(sp)
 125              		.cfi_remember_state
 126              		.cfi_restore 1
 127 00ec 03340101 		ld	s0,16(sp)
 128              		.cfi_restore 8
 129              		.cfi_def_cfa 2, 32
 130 00f0 83348100 		ld	s1,8(sp)
 131              		.cfi_restore 9
 132              	.LVL6:
 133 00f4 13010102 		addi	sp,sp,32
 134              		.cfi_def_cfa_offset 0
 135 00f8 67800000 		jr	ra
 136              	.LVL7:
 137              	.L7:
 138              		.cfi_restore_state
  28:src/Konsole.cpp ****         getcWaiterHead = thread;
 139              		.loc 1 28 9 is_stmt 1
  28:src/Konsole.cpp ****         getcWaiterHead = thread;
 140              		.loc 1 28 31 is_stmt 0
 141 00fc 93050000 		li	a1,0
 142 0100 13850400 		mv	a0,s1
 143 0104 97000000 		call	_ZN7KThread14setPrevInQueueEPS_@plt
 143      E7800000 
 144              	.LVL8:
  29:src/Konsole.cpp ****     }
 145              		.loc 1 29 9 is_stmt 1
  29:src/Konsole.cpp ****     }
 146              		.loc 1 29 24 is_stmt 0
 147 010c 97070000 		sd	s1,.LANCHOR0+296,a5
 147      23B09700 
 148 0114 6FF0DFFC 		j	.L8
GAS LISTING /tmp/ccQrDHbb.s 			page 5


 149              		.cfi_endproc
 150              	.LFE3:
 152              		.align	2
 153              		.globl	_ZN7Konsole17dequeueGetcWaiterEv
 155              	_ZN7Konsole17dequeueGetcWaiterEv:
 156              	.LFB4:
  34:src/Konsole.cpp ****     if (getcWaiterHead == nullptr) return nullptr;
 157              		.loc 1 34 39 is_stmt 1
 158              		.cfi_startproc
 159 0118 130101FE 		addi	sp,sp,-32
 160              		.cfi_def_cfa_offset 32
 161 011c 233C1100 		sd	ra,24(sp)
 162 0120 23388100 		sd	s0,16(sp)
 163 0124 23349100 		sd	s1,8(sp)
 164              		.cfi_offset 1, -8
 165              		.cfi_offset 8, -16
 166              		.cfi_offset 9, -24
 167 0128 13040102 		addi	s0,sp,32
 168              		.cfi_def_cfa 8, 0
  35:src/Konsole.cpp ****     KThread* thread = getcWaiterHead;
 169              		.loc 1 35 5
  35:src/Konsole.cpp ****     KThread* thread = getcWaiterHead;
 170              		.loc 1 35 24 is_stmt 0
 171 012c 97040000 		ld	s1,.LANCHOR0+296
 171      83B40400 
  35:src/Konsole.cpp ****     KThread* thread = getcWaiterHead;
 172              		.loc 1 35 5
 173 0134 63840404 		beqz	s1,.L10
  36:src/Konsole.cpp ****     getcWaiterHead = thread->getNextInQueue();
 174              		.loc 1 36 5 is_stmt 1
 175              	.LVL9:
  37:src/Konsole.cpp ****     if (getcWaiterHead != nullptr) getcWaiterHead->setPrevInQueue(nullptr);
 176              		.loc 1 37 5
  37:src/Konsole.cpp ****     if (getcWaiterHead != nullptr) getcWaiterHead->setPrevInQueue(nullptr);
 177              		.loc 1 37 44 is_stmt 0
 178 0138 13850400 		mv	a0,s1
 179 013c 97000000 		call	_ZN7KThread14getNextInQueueEv@plt
 179      E7800000 
 180              	.LVL10:
  37:src/Konsole.cpp ****     if (getcWaiterHead != nullptr) getcWaiterHead->setPrevInQueue(nullptr);
 181              		.loc 1 37 20
 182 0144 97070000 		sd	a0,.LANCHOR0+296,a5
 182      23B0A700 
  38:src/Konsole.cpp ****     else getcWaiterTail = nullptr;
 183              		.loc 1 38 5 is_stmt 1
 184 014c 63040504 		beqz	a0,.L12
  38:src/Konsole.cpp ****     else getcWaiterTail = nullptr;
 185              		.loc 1 38 36 discriminator 1
  38:src/Konsole.cpp ****     else getcWaiterTail = nullptr;
 186              		.loc 1 38 66 is_stmt 0 discriminator 1
 187 0150 93050000 		li	a1,0
 188 0154 97000000 		call	_ZN7KThread14setPrevInQueueEPS_@plt
 188      E7800000 
 189              	.LVL11:
 190              	.L13:
  40:src/Konsole.cpp ****     thread->setPrevInQueue(nullptr);
 191              		.loc 1 40 5 is_stmt 1
GAS LISTING /tmp/ccQrDHbb.s 			page 6


  40:src/Konsole.cpp ****     thread->setPrevInQueue(nullptr);
 192              		.loc 1 40 27 is_stmt 0
 193 015c 93050000 		li	a1,0
 194 0160 13850400 		mv	a0,s1
 195 0164 97000000 		call	_ZN7KThread14setNextInQueueEPS_@plt
 195      E7800000 
 196              	.LVL12:
  41:src/Konsole.cpp ****     return thread;
 197              		.loc 1 41 5 is_stmt 1
  41:src/Konsole.cpp ****     return thread;
 198              		.loc 1 41 27 is_stmt 0
 199 016c 93050000 		li	a1,0
 200 0170 13850400 		mv	a0,s1
 201 0174 97000000 		call	_ZN7KThread14setPrevInQueueEPS_@plt
 201      E7800000 
 202              	.LVL13:
  42:src/Konsole.cpp **** }
 203              		.loc 1 42 5 is_stmt 1
 204              	.L10:
  43:src/Konsole.cpp **** 
 205              		.loc 1 43 1 is_stmt 0
 206 017c 13850400 		mv	a0,s1
 207 0180 83308101 		ld	ra,24(sp)
 208              		.cfi_remember_state
 209              		.cfi_restore 1
 210 0184 03340101 		ld	s0,16(sp)
 211              		.cfi_restore 8
 212              		.cfi_def_cfa 2, 32
 213 0188 83348100 		ld	s1,8(sp)
 214              		.cfi_restore 9
 215 018c 13010102 		addi	sp,sp,32
 216              		.cfi_def_cfa_offset 0
 217 0190 67800000 		jr	ra
 218              	.LVL14:
 219              	.L12:
 220              		.cfi_restore_state
  39:src/Konsole.cpp ****     thread->setNextInQueue(nullptr);
 221              		.loc 1 39 10 is_stmt 1
  39:src/Konsole.cpp ****     thread->setNextInQueue(nullptr);
 222              		.loc 1 39 25 is_stmt 0
 223 0194 97070000 		sd	zero,.LANCHOR0+288,a5
 223      23B00700 
 224 019c 6FF01FFC 		j	.L13
 225              		.cfi_endproc
 226              	.LFE4:
 228              		.align	2
 229              		.globl	_ZN7Konsole4initEv
 231              	_ZN7Konsole4initEv:
 232              	.LFB6:
  53:src/Konsole.cpp ****         }
  54:src/Konsole.cpp ****     }
  55:src/Konsole.cpp **** }
  56:src/Konsole.cpp **** 
  57:src/Konsole.cpp **** void Konsole::init() {
 233              		.loc 1 57 22 is_stmt 1
 234              		.cfi_startproc
 235 01a0 130101FE 		addi	sp,sp,-32
GAS LISTING /tmp/ccQrDHbb.s 			page 7


 236              		.cfi_def_cfa_offset 32
 237 01a4 233C1100 		sd	ra,24(sp)
 238 01a8 23388100 		sd	s0,16(sp)
 239 01ac 23349100 		sd	s1,8(sp)
 240              		.cfi_offset 1, -8
 241              		.cfi_offset 8, -16
 242              		.cfi_offset 9, -24
 243 01b0 13040102 		addi	s0,sp,32
 244              		.cfi_def_cfa 8, 0
  58:src/Konsole.cpp ****     inputHead = 0; inputTail = 0;
 245              		.loc 1 58 5
 246              		.loc 1 58 15 is_stmt 0
 247 01b4 17050000 		lla	a0,.LANCHOR0
 247      13050500 
 248 01bc 23280512 		sw	zero,304(a0)
 249              		.loc 1 58 20 is_stmt 1
 250              		.loc 1 58 30 is_stmt 0
 251 01c0 232A0512 		sw	zero,308(a0)
  59:src/Konsole.cpp ****     outputHead = 0; outputTail = 0;
 252              		.loc 1 59 5 is_stmt 1
 253              		.loc 1 59 16 is_stmt 0
 254 01c4 232C0500 		sw	zero,24(a0)
 255              		.loc 1 59 21 is_stmt 1
 256              		.loc 1 59 32 is_stmt 0
 257 01c8 232E0500 		sw	zero,28(a0)
  60:src/Konsole.cpp ****     getcWaiterHead = nullptr; getcWaiterTail = nullptr;
 258              		.loc 1 60 5 is_stmt 1
 259              		.loc 1 60 20 is_stmt 0
 260 01cc 23340512 		sd	zero,296(a0)
 261              		.loc 1 60 31 is_stmt 1
 262              		.loc 1 60 46 is_stmt 0
 263 01d0 23300512 		sd	zero,288(a0)
  61:src/Konsole.cpp ****     outputItems.init(0);
 264              		.loc 1 61 5 is_stmt 1
 265              		.loc 1 61 21 is_stmt 0
 266 01d4 93050000 		li	a1,0
 267 01d8 97000000 		call	_ZN10KSemaphore4initEj@plt
 267      E7800000 
 268              	.LVL15:
  62:src/Konsole.cpp **** 
  63:src/Konsole.cpp ****     void* threadMem = MemoryAllocator::GetInstance().AllocateFragment(sizeof(KThread));
 269              		.loc 1 63 5 is_stmt 1
 270              		.loc 1 63 52 is_stmt 0
 271 01e0 97000000 		call	_ZN15MemoryAllocator11GetInstanceEv@plt
 271      E7800000 
 272              	.LVL16:
 273              		.loc 1 63 70
 274 01e8 93050018 		li	a1,384
 275 01ec 97000000 		call	_ZN15MemoryAllocator16AllocateFragmentEm@plt
 275      E7800000 
 276              	.LVL17:
 277 01f4 93040500 		mv	s1,a0
 278              	.LVL18:
  64:src/Konsole.cpp ****     KThread* outputThread = reinterpret_cast<KThread*>(threadMem);
 279              		.loc 1 64 5 is_stmt 1
  65:src/Konsole.cpp ****     outputThread->init();
 280              		.loc 1 65 5
GAS LISTING /tmp/ccQrDHbb.s 			page 8


 281              		.loc 1 65 23 is_stmt 0
 282 01f8 97000000 		call	_ZN7KThread4initEv@plt
 282      E7800000 
 283              	.LVL19:
  66:src/Konsole.cpp ****     outputThread->setBody(outputThreadBody, nullptr);
 284              		.loc 1 66 5 is_stmt 1
 285              	.LBB7:
 286              	.LBB8:
 287              		.file 2 "src/Thread.hpp"
   1:src/Thread.hpp **** //
   2:src/Thread.hpp **** // Created by os on 6/10/26.
   3:src/Thread.hpp **** //
   4:src/Thread.hpp **** 
   5:src/Thread.hpp **** #ifndef OSPROJEKAT_THREAD_H
   6:src/Thread.hpp **** #define OSPROJEKAT_THREAD_H
   7:src/Thread.hpp **** 
   8:src/Thread.hpp **** #include "../lib/hw.h"
   9:src/Thread.hpp **** struct Context {
  10:src/Thread.hpp ****     size_t x[32];    // x0-x31, offsets 0x00-0xF8
  11:src/Thread.hpp ****     size_t sepc;     // offset 0x100
  12:src/Thread.hpp ****     size_t sstatus;  // offset 0x108
  13:src/Thread.hpp ****     size_t pc;
  14:src/Thread.hpp **** };
  15:src/Thread.hpp **** 
  16:src/Thread.hpp **** class KThread{
  17:src/Thread.hpp ****     friend class Scheduler;
  18:src/Thread.hpp ****     friend class KSemaphore;
  19:src/Thread.hpp **** protected:
  20:src/Thread.hpp ****     static void threadTrampoline(KThread* t);
  21:src/Thread.hpp ****     void (*body)(void*);
  22:src/Thread.hpp ****     void* arg;
  23:src/Thread.hpp ****     KThread* parent;
  24:src/Thread.hpp **** 
  25:src/Thread.hpp ****     bool finished;
  26:src/Thread.hpp **** 
  27:src/Thread.hpp ****     KThread* prev;
  28:src/Thread.hpp ****     KThread* next;
  29:src/Thread.hpp ****     size_t* stackPtr;
  30:src/Thread.hpp ****     size_t* supervisorSp;
  31:src/Thread.hpp ****     time_t sleepDelta;
  32:src/Thread.hpp ****     uint8  priority;
  33:src/Thread.hpp ****     KThread* waitingThread;
  34:src/Thread.hpp ****     KThread* stopperThread;
  35:src/Thread.hpp **** public:
  36:src/Thread.hpp ****     void* stackBase;
  37:src/Thread.hpp ****     Context threadContext;
  38:src/Thread.hpp ****     KThread();
  39:src/Thread.hpp ****     void copyContext(size_t* ctx);
  40:src/Thread.hpp ****     void init();
  41:src/Thread.hpp ****     size_t* getStackTop() { return stackPtr; }
  42:src/Thread.hpp ****     size_t* getContext();
  43:src/Thread.hpp ****     KThread* getParent() { return parent; }
  44:src/Thread.hpp ****     KThread* getNextInQueue();
  45:src/Thread.hpp ****     KThread* getPrevInQueue();
  46:src/Thread.hpp ****     void setNextInQueue(KThread* next);
  47:src/Thread.hpp ****     void setPrevInQueue(KThread* prev);
  48:src/Thread.hpp ****     void setNextAndPrevInQueue(KThread* next, KThread* prev);
GAS LISTING /tmp/ccQrDHbb.s 			page 9


  49:src/Thread.hpp ****     void setup(KThread* parentThread, size_t* stack_top);
  50:src/Thread.hpp ****     void setBody(void (*b)(void*), void* a) { body = b; arg = a; }
 288              		.loc 2 50 47
 289              		.loc 2 50 52 is_stmt 0
 290 0200 97070000 		lla	a5,_ZN7Konsole16outputThreadBodyEPv
 290      93870700 
 291 0208 23B0F400 		sd	a5,0(s1)
 292              		.loc 2 50 57 is_stmt 1
 293              		.loc 2 50 61 is_stmt 0
 294 020c 23B40400 		sd	zero,8(s1)
 295              	.LVL20:
 296              	.LBE8:
 297              	.LBE7:
  67:src/Konsole.cpp **** 
  68:src/Konsole.cpp ****     void* stackMem = MemoryAllocator::GetInstance().AllocateFragment(DEFAULT_STACK_SIZE * sizeof(si
 298              		.loc 1 68 5 is_stmt 1
 299              		.loc 1 68 51 is_stmt 0
 300 0210 97000000 		call	_ZN15MemoryAllocator11GetInstanceEv@plt
 300      E7800000 
 301              	.LVL21:
 302              		.loc 1 68 69
 303 0218 B7850000 		li	a1,32768
 304 021c 97000000 		call	_ZN15MemoryAllocator16AllocateFragmentEm@plt
 304      E7800000 
 305              	.LVL22:
  69:src/Konsole.cpp ****     size_t* stackTop = reinterpret_cast<size_t*>((char*)stackMem + DEFAULT_STACK_SIZE * sizeof(size
 306              		.loc 1 69 5 is_stmt 1
  70:src/Konsole.cpp ****     outputThread->setup(nullptr, stackTop);
 307              		.loc 1 70 5
 308              		.loc 1 70 24 is_stmt 0
 309 0224 37860000 		li	a2,32768
 310 0228 3306C500 		add	a2,a0,a2
 311              	.LVL23:
 312 022c 93050000 		li	a1,0
 313 0230 13850400 		mv	a0,s1
 314              	.LVL24:
 315 0234 97000000 		call	_ZN7KThread5setupEPS_Pm@plt
 315      E7800000 
 316              	.LVL25:
  71:src/Konsole.cpp ****     outputThread->threadContext.sstatus |= (1UL << 8);
 317              		.loc 1 71 5 is_stmt 1
 318              		.loc 1 71 41 is_stmt 0
 319 023c 83B70417 		ld	a5,368(s1)
 320 0240 93E70710 		ori	a5,a5,256
 321 0244 23B8F416 		sd	a5,368(s1)
  72:src/Konsole.cpp ****     Scheduler::Put(outputThread);
 322              		.loc 1 72 5 is_stmt 1
 323              		.loc 1 72 19 is_stmt 0
 324 0248 13850400 		mv	a0,s1
 325 024c 97000000 		call	_ZN9Scheduler3PutEP7KThread@plt
 325      E7800000 
 326              	.LVL26:
  73:src/Konsole.cpp **** }
 327              		.loc 1 73 1
 328 0254 83308101 		ld	ra,24(sp)
 329              		.cfi_restore 1
 330 0258 03340101 		ld	s0,16(sp)
GAS LISTING /tmp/ccQrDHbb.s 			page 10


 331              		.cfi_restore 8
 332              		.cfi_def_cfa 2, 32
 333 025c 83348100 		ld	s1,8(sp)
 334              		.cfi_restore 9
 335              	.LVL27:
 336 0260 13010102 		addi	sp,sp,32
 337              		.cfi_def_cfa_offset 0
 338 0264 67800000 		jr	ra
 339              		.cfi_endproc
 340              	.LFE6:
 342              		.align	2
 343              		.globl	_ZN7Konsole15handleInterruptEv
 345              	_ZN7Konsole15handleInterruptEv:
 346              	.LFB7:
  74:src/Konsole.cpp **** 
  75:src/Konsole.cpp **** void Konsole::handleInterrupt() {
 347              		.loc 1 75 33 is_stmt 1
 348              		.cfi_startproc
 349 0268 130101FE 		addi	sp,sp,-32
 350              		.cfi_def_cfa_offset 32
 351 026c 233C1100 		sd	ra,24(sp)
 352 0270 23388100 		sd	s0,16(sp)
 353 0274 23349100 		sd	s1,8(sp)
 354 0278 23302101 		sd	s2,0(sp)
 355              		.cfi_offset 1, -8
 356              		.cfi_offset 8, -16
 357              		.cfi_offset 9, -24
 358              		.cfi_offset 18, -32
 359 027c 13040102 		addi	s0,sp,32
 360              		.cfi_def_cfa 8, 0
  76:src/Konsole.cpp ****     int irq = plic_claim();
 361              		.loc 1 76 5
 362              		.loc 1 76 25 is_stmt 0
 363 0280 97000000 		call	plic_claim@plt
 363      E7800000 
 364              	.LVL28:
 365 0288 93040500 		mv	s1,a0
 366              	.LVL29:
  77:src/Konsole.cpp ****     if (irq == (int)CONSOLE_IRQ) {
 367              		.loc 1 77 5 is_stmt 1
 368              	.LBB9:
 369 028c 9307A000 		li	a5,10
 370 0290 6306F502 		beq	a0,a5,.L18
 371              	.LVL30:
 372              	.L19:
 373              	.LBE9:
  78:src/Konsole.cpp ****         while (*((volatile uint8*)CONSOLE_STATUS) & CONSOLE_RX_STATUS_BIT) {
  79:src/Konsole.cpp ****             char c = (char)*((volatile uint8*)CONSOLE_RX_DATA);
  80:src/Konsole.cpp ****             KThread* waiter = dequeueGetcWaiter();
  81:src/Konsole.cpp ****             if (waiter != nullptr) {
  82:src/Konsole.cpp ****                 waiter->threadContext.x[10] = (size_t)(unsigned char)c;
  83:src/Konsole.cpp ****                 Scheduler::Put(waiter);
  84:src/Konsole.cpp ****             } else {
  85:src/Konsole.cpp ****                 int nextTail = (inputTail + 1) % BUFFER_SIZE;
  86:src/Konsole.cpp ****                 if (nextTail != inputHead) {
  87:src/Konsole.cpp ****                     inputBuffer[inputTail] = c;
  88:src/Konsole.cpp ****                     inputTail = nextTail;
GAS LISTING /tmp/ccQrDHbb.s 			page 11


  89:src/Konsole.cpp ****                 }
  90:src/Konsole.cpp ****             }
  91:src/Konsole.cpp ****         }
  92:src/Konsole.cpp ****     }
  93:src/Konsole.cpp ****     if (irq) plic_complete(irq);
 374              		.loc 1 93 5
 375 0294 6394040A 		bnez	s1,.L24
 376              	.L17:
  94:src/Konsole.cpp **** }
 377              		.loc 1 94 1 is_stmt 0
 378 0298 83308101 		ld	ra,24(sp)
 379              		.cfi_remember_state
 380              		.cfi_restore 1
 381 029c 03340101 		ld	s0,16(sp)
 382              		.cfi_restore 8
 383              		.cfi_def_cfa 2, 32
 384 02a0 83348100 		ld	s1,8(sp)
 385              		.cfi_restore 9
 386 02a4 03390100 		ld	s2,0(sp)
 387              		.cfi_restore 18
 388 02a8 13010102 		addi	sp,sp,32
 389              		.cfi_def_cfa_offset 0
 390 02ac 67800000 		jr	ra
 391              	.LVL31:
 392              	.L25:
 393              		.cfi_restore_state
 394              	.LBB16:
 395              	.LBB10:
 396              	.LBB11:
 397              	.LBB12:
  82:src/Konsole.cpp ****                 Scheduler::Put(waiter);
 398              		.loc 1 82 17 is_stmt 1
  82:src/Konsole.cpp ****                 Scheduler::Put(waiter);
 399              		.loc 1 82 45 is_stmt 0
 400 02b0 233C250B 		sd	s2,184(a0)
  83:src/Konsole.cpp ****             } else {
 401              		.loc 1 83 17 is_stmt 1
  83:src/Konsole.cpp ****             } else {
 402              		.loc 1 83 31 is_stmt 0
 403 02b4 97000000 		call	_ZN9Scheduler3PutEP7KThread@plt
 403      E7800000 
 404              	.LVL32:
 405              	.L18:
 406              	.LBE12:
 407              	.LBE11:
  78:src/Konsole.cpp ****             char c = (char)*((volatile uint8*)CONSOLE_RX_DATA);
 408              		.loc 1 78 9 is_stmt 1
  78:src/Konsole.cpp ****             char c = (char)*((volatile uint8*)CONSOLE_RX_DATA);
 409              		.loc 1 78 53
  78:src/Konsole.cpp ****             char c = (char)*((volatile uint8*)CONSOLE_RX_DATA);
 410              		.loc 1 78 16 is_stmt 0
 411 02bc 97070000 		la	a5,CONSOLE_STATUS
 411      83B70700 
 412 02c4 83B70700 		ld	a5,0(a5)
 413 02c8 83C70700 		lbu	a5,0(a5)
  78:src/Konsole.cpp ****             char c = (char)*((volatile uint8*)CONSOLE_RX_DATA);
 414              		.loc 1 78 53
GAS LISTING /tmp/ccQrDHbb.s 			page 12


 415 02cc 93F71700 		andi	a5,a5,1
 416 02d0 E38207FC 		beqz	a5,.L19
 417              	.LBB15:
  79:src/Konsole.cpp ****             KThread* waiter = dequeueGetcWaiter();
 418              		.loc 1 79 13 is_stmt 1
  79:src/Konsole.cpp ****             KThread* waiter = dequeueGetcWaiter();
 419              		.loc 1 79 22 is_stmt 0
 420 02d4 97070000 		la	a5,CONSOLE_RX_DATA
 420      83B70700 
 421 02dc 83B70700 		ld	a5,0(a5)
  79:src/Konsole.cpp ****             KThread* waiter = dequeueGetcWaiter();
 422              		.loc 1 79 62
 423 02e0 83C70700 		lbu	a5,0(a5)
 424 02e4 13F9F70F 		andi	s2,a5,0xff
 425              	.LVL33:
  80:src/Konsole.cpp ****             if (waiter != nullptr) {
 426              		.loc 1 80 13 is_stmt 1
  80:src/Konsole.cpp ****             if (waiter != nullptr) {
 427              		.loc 1 80 48 is_stmt 0
 428 02e8 97000000 		call	_ZN7Konsole17dequeueGetcWaiterEv
 428      E7800000 
 429              	.LVL34:
  81:src/Konsole.cpp ****                 waiter->threadContext.x[10] = (size_t)(unsigned char)c;
 430              		.loc 1 81 13 is_stmt 1
 431              	.LBB14:
 432 02f0 E31005FC 		bnez	a0,.L25
 433              	.LBB13:
  85:src/Konsole.cpp ****                 if (nextTail != inputHead) {
 434              		.loc 1 85 17
  85:src/Konsole.cpp ****                 if (nextTail != inputHead) {
 435              		.loc 1 85 43 is_stmt 0
 436 02f4 17060000 		lla	a2,.LANCHOR0
 436      13060600 
 437 02fc 83264613 		lw	a3,308(a2)
 438 0300 9B871600 		addiw	a5,a3,1
  85:src/Konsole.cpp ****                 if (nextTail != inputHead) {
 439              		.loc 1 85 21
 440 0304 1BD7F741 		sraiw	a4,a5,31
 441 0308 1B578701 		srliw	a4,a4,24
 442 030c BB87E700 		addw	a5,a5,a4
 443 0310 93F7F70F 		andi	a5,a5,255
 444 0314 BB87E740 		subw	a5,a5,a4
 445 0318 1B870700 		sext.w	a4,a5
 446              	.LVL35:
  86:src/Konsole.cpp ****                     inputBuffer[inputTail] = c;
 447              		.loc 1 86 17 is_stmt 1
  86:src/Konsole.cpp ****                     inputBuffer[inputTail] = c;
 448              		.loc 1 86 30 is_stmt 0
 449 031c 03260613 		lw	a2,304(a2)
  86:src/Konsole.cpp ****                     inputBuffer[inputTail] = c;
 450              		.loc 1 86 17
 451 0320 E30EE6F8 		beq	a2,a4,.L18
  87:src/Konsole.cpp ****                     inputTail = nextTail;
 452              		.loc 1 87 21 is_stmt 1
  87:src/Konsole.cpp ****                     inputTail = nextTail;
 453              		.loc 1 87 44 is_stmt 0
 454 0324 17070000 		lla	a4,.LANCHOR0
GAS LISTING /tmp/ccQrDHbb.s 			page 13


 454      13070700 
 455 032c B306D700 		add	a3,a4,a3
 456 0330 238C2613 		sb	s2,312(a3)
  88:src/Konsole.cpp ****                 }
 457              		.loc 1 88 21 is_stmt 1
  88:src/Konsole.cpp ****                 }
 458              		.loc 1 88 31 is_stmt 0
 459 0334 232AF712 		sw	a5,308(a4)
 460 0338 6FF05FF8 		j	.L18
 461              	.LVL36:
 462              	.L24:
 463              	.LBE13:
 464              	.LBE14:
 465              	.LBE15:
 466              	.LBE10:
 467              	.LBE16:
  93:src/Konsole.cpp **** }
 468              		.loc 1 93 14 is_stmt 1 discriminator 1
  93:src/Konsole.cpp **** }
 469              		.loc 1 93 27 is_stmt 0 discriminator 1
 470 033c 13850400 		mv	a0,s1
 471 0340 97000000 		call	plic_complete@plt
 471      E7800000 
 472              	.LVL37:
 473              		.loc 1 94 1 discriminator 1
 474 0348 6FF01FF5 		j	.L17
 475              		.cfi_endproc
 476              	.LFE7:
 478              		.align	2
 479              		.globl	_ZN7Konsole10putcKernelEP7KThreadc
 481              	_ZN7Konsole10putcKernelEP7KThreadc:
 482              	.LFB8:
  95:src/Konsole.cpp **** 
  96:src/Konsole.cpp **** int Konsole::putcKernel(KThread* caller, char c) {
 483              		.loc 1 96 50 is_stmt 1
 484              		.cfi_startproc
 485              	.LVL38:
 486 034c 130101FE 		addi	sp,sp,-32
 487              		.cfi_def_cfa_offset 32
 488 0350 233C1100 		sd	ra,24(sp)
 489 0354 23388100 		sd	s0,16(sp)
 490 0358 23349100 		sd	s1,8(sp)
 491              		.cfi_offset 1, -8
 492              		.cfi_offset 8, -16
 493              		.cfi_offset 9, -24
 494 035c 13040102 		addi	s0,sp,32
 495              		.cfi_def_cfa 8, 0
 496 0360 93040500 		mv	s1,a0
  97:src/Konsole.cpp ****     int nextTail = (outputTail + 1) % BUFFER_SIZE;
 497              		.loc 1 97 5
 498              		.loc 1 97 32 is_stmt 0
 499 0364 17060000 		lla	a2,.LANCHOR0
 499      13060600 
 500 036c 8326C601 		lw	a3,28(a2)
 501 0370 9B871600 		addiw	a5,a3,1
 502              		.loc 1 97 9
 503 0374 1BD7F741 		sraiw	a4,a5,31
GAS LISTING /tmp/ccQrDHbb.s 			page 14


 504 0378 1B578701 		srliw	a4,a4,24
 505 037c BB87E700 		addw	a5,a5,a4
 506 0380 93F7F70F 		andi	a5,a5,255
 507 0384 BB87E740 		subw	a5,a5,a4
 508 0388 1B870700 		sext.w	a4,a5
 509              	.LVL39:
  98:src/Konsole.cpp ****     if (nextTail == outputHead) {
 510              		.loc 1 98 5 is_stmt 1
 511              		.loc 1 98 18 is_stmt 0
 512 038c 03268601 		lw	a2,24(a2)
 513              		.loc 1 98 5
 514 0390 6300E604 		beq	a2,a4,.L32
  99:src/Konsole.cpp ****         if (caller) caller->threadContext.x[10] = (size_t)-1;
 100:src/Konsole.cpp ****         return -1;
 101:src/Konsole.cpp ****     }
 102:src/Konsole.cpp ****     outputBuffer[outputTail] = c;
 515              		.loc 1 102 5 is_stmt 1
 516              		.loc 1 102 30 is_stmt 0
 517 0394 17050000 		lla	a0,.LANCHOR0
 517      13050500 
 518              	.LVL40:
 519 039c B306D500 		add	a3,a0,a3
 520 03a0 2380B602 		sb	a1,32(a3)
 103:src/Konsole.cpp ****     outputTail = nextTail;
 521              		.loc 1 103 5 is_stmt 1
 522              		.loc 1 103 16 is_stmt 0
 523 03a4 232EF500 		sw	a5,28(a0)
 104:src/Konsole.cpp ****     outputItems.signal();
 524              		.loc 1 104 5 is_stmt 1
 525              		.loc 1 104 23 is_stmt 0
 526 03a8 97000000 		call	_ZN10KSemaphore6signalEv@plt
 526      E7800000 
 527              	.LVL41:
 105:src/Konsole.cpp ****     if (caller) caller->threadContext.x[10] = 0;
 528              		.loc 1 105 5 is_stmt 1
 529 03b0 638A0402 		beqz	s1,.L30
 530              		.loc 1 105 17 discriminator 1
 531              		.loc 1 105 45 is_stmt 0 discriminator 1
 532 03b4 23BC040A 		sd	zero,184(s1)
 106:src/Konsole.cpp ****     return 0;
 533              		.loc 1 106 12 discriminator 1
 534 03b8 13050000 		li	a0,0
 535              	.L29:
 107:src/Konsole.cpp **** }
 536              		.loc 1 107 1
 537 03bc 83308101 		ld	ra,24(sp)
 538              		.cfi_remember_state
 539              		.cfi_restore 1
 540 03c0 03340101 		ld	s0,16(sp)
 541              		.cfi_restore 8
 542              		.cfi_def_cfa 2, 32
 543 03c4 83348100 		ld	s1,8(sp)
 544              		.cfi_restore 9
 545              	.LVL42:
 546 03c8 13010102 		addi	sp,sp,32
 547              		.cfi_def_cfa_offset 0
 548 03cc 67800000 		jr	ra
GAS LISTING /tmp/ccQrDHbb.s 			page 15


 549              	.LVL43:
 550              	.L32:
 551              		.cfi_restore_state
  99:src/Konsole.cpp ****         return -1;
 552              		.loc 1 99 9 is_stmt 1
 553 03d0 63060500 		beqz	a0,.L28
  99:src/Konsole.cpp ****         return -1;
 554              		.loc 1 99 21 discriminator 1
  99:src/Konsole.cpp ****         return -1;
 555              		.loc 1 99 49 is_stmt 0 discriminator 1
 556 03d4 9307F0FF 		li	a5,-1
 557              	.LVL44:
 558 03d8 233CF50A 		sd	a5,184(a0)
 559              	.L28:
 100:src/Konsole.cpp ****     }
 560              		.loc 1 100 9 is_stmt 1
 100:src/Konsole.cpp ****     }
 561              		.loc 1 100 17 is_stmt 0
 562 03dc 1305F0FF 		li	a0,-1
 563 03e0 6FF0DFFD 		j	.L29
 564              	.LVL45:
 565              	.L30:
 106:src/Konsole.cpp **** }
 566              		.loc 1 106 12
 567 03e4 13050000 		li	a0,0
 568 03e8 6FF05FFD 		j	.L29
 569              		.cfi_endproc
 570              	.LFE8:
 572              		.align	2
 573              		.globl	_ZN7Konsole10getcKernelEP7KThread
 575              	_ZN7Konsole10getcKernelEP7KThread:
 576              	.LFB9:
 108:src/Konsole.cpp **** 
 109:src/Konsole.cpp **** 
 110:src/Konsole.cpp **** int Konsole::getcKernel(KThread* caller) {
 577              		.loc 1 110 42 is_stmt 1
 578              		.cfi_startproc
 579              	.LVL46:
 111:src/Konsole.cpp ****     if (inputHead != inputTail) {
 580              		.loc 1 111 5
 581              	.LBB17:
 582              		.loc 1 111 19 is_stmt 0
 583 03ec 17070000 		lla	a4,.LANCHOR0
 583      13070700 
 584 03f4 83270713 		lw	a5,304(a4)
 585 03f8 03274713 		lw	a4,308(a4)
 586              		.loc 1 111 5
 587 03fc 6380E704 		beq	a5,a4,.L34
 588              	.LBB18:
 112:src/Konsole.cpp ****         char c = inputBuffer[inputHead];
 589              		.loc 1 112 9 is_stmt 1
 590              		.loc 1 112 14 is_stmt 0
 591 0400 17060000 		lla	a2,.LANCHOR0
 591      13060600 
 592 0408 3307F600 		add	a4,a2,a5
 593 040c 83468713 		lbu	a3,312(a4)
 594              	.LVL47:
GAS LISTING /tmp/ccQrDHbb.s 			page 16


 113:src/Konsole.cpp ****         inputHead = (inputHead + 1) % BUFFER_SIZE;
 595              		.loc 1 113 9 is_stmt 1
 596              		.loc 1 113 32 is_stmt 0
 597 0410 9B871700 		addiw	a5,a5,1
 598              		.loc 1 113 37
 599 0414 1BD7F741 		sraiw	a4,a5,31
 600 0418 1B578701 		srliw	a4,a4,24
 601 041c BB87E700 		addw	a5,a5,a4
 602 0420 93F7F70F 		andi	a5,a5,255
 603 0424 BB87E740 		subw	a5,a5,a4
 604              		.loc 1 113 19
 605 0428 2328F612 		sw	a5,304(a2)
 114:src/Konsole.cpp ****         if (caller) caller->threadContext.x[10] = (size_t)(unsigned char)c;
 606              		.loc 1 114 9 is_stmt 1
 607 042c 63040500 		beqz	a0,.L35
 608              		.loc 1 114 21 discriminator 1
 609              		.loc 1 114 49 is_stmt 0 discriminator 1
 610 0430 233CD50A 		sd	a3,184(a0)
 611              	.L35:
 115:src/Konsole.cpp ****         return (unsigned char)c;
 612              		.loc 1 115 9 is_stmt 1
 613              		.loc 1 115 31 is_stmt 0
 614 0434 1B850600 		sext.w	a0,a3
 615              	.LVL48:
 616              	.LBE18:
 617              	.LBE17:
 116:src/Konsole.cpp ****     }
 117:src/Konsole.cpp ****     enqueueGetcWaiter(caller);
 118:src/Konsole.cpp ****     return -2;
 119:src/Konsole.cpp **** }...
 618              		.loc 1 119 1
 619 0438 67800000 		ret
 620              	.LVL49:
 621              	.L34:
 110:src/Konsole.cpp **** int Konsole::getcKernel(KThread* caller) {
 622              		.loc 1 110 42
 623 043c 130101FF 		addi	sp,sp,-16
 624              		.cfi_def_cfa_offset 16
 625 0440 23341100 		sd	ra,8(sp)
 626 0444 23308100 		sd	s0,0(sp)
 627              		.cfi_offset 1, -8
 628              		.cfi_offset 8, -16
 629 0448 13040101 		addi	s0,sp,16
 630              		.cfi_def_cfa 8, 0
 117:src/Konsole.cpp ****     enqueueGetcWaiter(caller);
 631              		.loc 1 117 5 is_stmt 1
 117:src/Konsole.cpp ****     enqueueGetcWaiter(caller);
 632              		.loc 1 117 22 is_stmt 0
 633 044c 97000000 		call	_ZN7Konsole17enqueueGetcWaiterEP7KThread
 633      E7800000 
 634              	.LVL50:
 118:src/Konsole.cpp ****     return -2;
 635              		.loc 1 118 5 is_stmt 1
 118:src/Konsole.cpp ****     return -2;
 636              		.loc 1 118 13 is_stmt 0
 637 0454 1305E0FF 		li	a0,-2
 638              		.loc 1 119 1
GAS LISTING /tmp/ccQrDHbb.s 			page 17


 639 0458 83308100 		ld	ra,8(sp)
 640              		.cfi_restore 1
 641 045c 03340100 		ld	s0,0(sp)
 642              		.cfi_restore 8
 643              		.cfi_def_cfa 2, 16
 644 0460 13010101 		addi	sp,sp,16
 645              		.cfi_def_cfa_offset 0
 646 0464 67800000 		jr	ra
 647              		.cfi_endproc
 648              	.LFE9:
 650              		.globl	_ZN7Konsole14getcWaiterTailE
 651              		.globl	_ZN7Konsole14getcWaiterHeadE
 652              		.globl	_ZN7Konsole11outputItemsE
 653              		.globl	_ZN7Konsole10outputTailE
 654              		.globl	_ZN7Konsole10outputHeadE
 655              		.globl	_ZN7Konsole12outputBufferE
 656              		.globl	_ZN7Konsole9inputTailE
 657              		.globl	_ZN7Konsole9inputHeadE
 658              		.globl	_ZN7Konsole11inputBufferE
 659              		.bss
 660              		.align	3
 661              		.set	.LANCHOR0,. + 0
 664              	_ZN7Konsole11outputItemsE:
 665 0000 00000000 		.zero	24
 665      00000000 
 665      00000000 
 665      00000000 
 665      00000000 
 668              	_ZN7Konsole10outputHeadE:
 669 0018 00000000 		.zero	4
 672              	_ZN7Konsole10outputTailE:
 673 001c 00000000 		.zero	4
 676              	_ZN7Konsole12outputBufferE:
 677 0020 00000000 		.zero	256
 677      00000000 
 677      00000000 
 677      00000000 
 677      00000000 
 680              	_ZN7Konsole14getcWaiterTailE:
 681 0120 00000000 		.zero	8
 681      00000000 
 684              	_ZN7Konsole14getcWaiterHeadE:
 685 0128 00000000 		.zero	8
 685      00000000 
 688              	_ZN7Konsole9inputHeadE:
 689 0130 00000000 		.zero	4
 692              	_ZN7Konsole9inputTailE:
 693 0134 00000000 		.zero	4
 696              	_ZN7Konsole11inputBufferE:
 697 0138 00000000 		.zero	256
 697      00000000 
 697      00000000 
 697      00000000 
 697      00000000 
 698              		.text
 699              	.Letext0:
 700              		.file 3 "src/../lib/hw.h"
GAS LISTING /tmp/ccQrDHbb.s 			page 18


 701              		.file 4 "src/Semaphore.hpp"
 702              		.file 5 "src/Konsole.hpp"
 703              		.file 6 "src/Scheduler.hpp"
 704              		.file 7 "src/MemoryAllocator.hpp"
 705              		.file 8 "src/syscall_c.h"
GAS LISTING /tmp/ccQrDHbb.s 			page 19

