GAS LISTING /tmp/ccytbXsb.s 			page 1


   1              		.file	"main.c"
   2              		.option nopic
   3              		.option norelax
   4              		.text
   5              	.Ltext0:
   6              		.cfi_sections	.debug_frame
   7              		.align	2
   8              		.globl	worker
  10              	worker:
  11              	.LFB0:
  12              		.file 1 "src/main.c"
   1:src/main.c    **** //
   2:src/main.c    **** // Created by os on 5/6/26.
   3:src/main.c    **** //
   4:src/main.c    **** #include "APIC.h"
   5:src/main.c    **** #include "../lib/console.h"
   6:src/main.c    **** 
   7:src/main.c    **** static sem_t mutex;
   8:src/main.c    **** static sem_t done;
   9:src/main.c    **** 
  10:src/main.c    **** void worker(void* arg) {
  13              		.loc 1 10 24
  14              		.cfi_startproc
  15              	.LVL0:
  16 0000 130101FD 		addi	sp,sp,-48
  17              		.cfi_def_cfa_offset 48
  18 0004 23341102 		sd	ra,40(sp)
  19 0008 23308102 		sd	s0,32(sp)
  20 000c 233C9100 		sd	s1,24(sp)
  21 0010 23382101 		sd	s2,16(sp)
  22              		.cfi_offset 1, -8
  23              		.cfi_offset 8, -16
  24              		.cfi_offset 9, -24
  25              		.cfi_offset 18, -32
  26 0014 13040103 		addi	s0,sp,48
  27              		.cfi_def_cfa 8, 0
  11:src/main.c    ****     char c = (char)(size_t)arg;
  28              		.loc 1 11 5
  29              		.loc 1 11 10 is_stmt 0
  30 0018 1379F50F 		andi	s2,a0,0xff
  31              	.LVL1:
  12:src/main.c    ****     for (int i = 0; i < 4; i++) {
  32              		.loc 1 12 5 is_stmt 1
  33              	.LBB2:
  34              		.loc 1 12 10
  35              		.loc 1 12 14 is_stmt 0
  36 001c 93040000 		li	s1,0
  37              		.loc 1 12 5
  38 0020 6F00C004 		j	.L2
  39              	.LVL2:
  40              	.L4:
  41              	.LBB3:
  13:src/main.c    ****         sem_wait(mutex);
  14:src/main.c    ****         __putc('[');
  15:src/main.c    ****         for (volatile long j = 0; j < 5000000L; j++);
  42              		.loc 1 15 53 is_stmt 1 discriminator 3
  43              		.loc 1 15 49 discriminator 3
GAS LISTING /tmp/ccytbXsb.s 			page 2


  44              		.loc 1 15 50 is_stmt 0 discriminator 3
  45 0024 833784FD 		ld	a5,-40(s0)
  46 0028 93871700 		addi	a5,a5,1
  47 002c 233CF4FC 		sd	a5,-40(s0)
  48              	.L3:
  49              		.loc 1 15 35 is_stmt 1 discriminator 1
  50              		.loc 1 15 37 is_stmt 0 discriminator 1
  51 0030 033784FD 		ld	a4,-40(s0)
  52              		.loc 1 15 9 discriminator 1
  53 0034 B7574C00 		li	a5,5001216
  54 0038 9387F7B3 		addi	a5,a5,-1217
  55 003c E3D4E7FE 		ble	a4,a5,.L4
  56              	.LBE3:
  16:src/main.c    ****         __putc(c);
  57              		.loc 1 16 9 is_stmt 1 discriminator 2
  58 0040 13050900 		mv	a0,s2
  59 0044 97000000 		call	__putc
  59      E7800000 
  60              	.LVL3:
  17:src/main.c    ****         __putc(']');
  61              		.loc 1 17 9 discriminator 2
  62 004c 1305D005 		li	a0,93
  63 0050 97000000 		call	__putc
  63      E7800000 
  64              	.LVL4:
  18:src/main.c    ****         sem_signal(mutex);
  65              		.loc 1 18 9 discriminator 2
  66 0058 17050000 		ld	a0,mutex
  66      03350500 
  67 0060 97000000 		call	sem_signal
  67      E7800000 
  68              	.LVL5:
  12:src/main.c    ****         sem_wait(mutex);
  69              		.loc 1 12 28 discriminator 2
  12:src/main.c    ****         sem_wait(mutex);
  70              		.loc 1 12 29 is_stmt 0 discriminator 2
  71 0068 9B841400 		addiw	s1,s1,1
  72              	.LVL6:
  73              	.L2:
  12:src/main.c    ****         sem_wait(mutex);
  74              		.loc 1 12 21 is_stmt 1 discriminator 1
  12:src/main.c    ****         sem_wait(mutex);
  75              		.loc 1 12 5 is_stmt 0 discriminator 1
  76 006c 93073000 		li	a5,3
  77 0070 63C49702 		bgt	s1,a5,.L7
  13:src/main.c    ****         __putc('[');
  78              		.loc 1 13 9 is_stmt 1
  79 0074 17050000 		ld	a0,mutex
  79      03350500 
  80 007c 97000000 		call	sem_wait
  80      E7800000 
  81              	.LVL7:
  14:src/main.c    ****         for (volatile long j = 0; j < 5000000L; j++);
  82              		.loc 1 14 9
  83 0084 1305B005 		li	a0,91
  84 0088 97000000 		call	__putc
  84      E7800000 
GAS LISTING /tmp/ccytbXsb.s 			page 3


  85              	.LVL8:
  15:src/main.c    ****         __putc(c);
  86              		.loc 1 15 9
  87              	.LBB4:
  15:src/main.c    ****         __putc(c);
  88              		.loc 1 15 14
  15:src/main.c    ****         __putc(c);
  89              		.loc 1 15 28 is_stmt 0
  90 0090 233C04FC 		sd	zero,-40(s0)
  15:src/main.c    ****         __putc(c);
  91              		.loc 1 15 9
  92 0094 6FF0DFF9 		j	.L3
  93              	.L7:
  94              	.LBE4:
  95              	.LBE2:
  19:src/main.c    ****     }
  20:src/main.c    ****     sem_signal(done);
  96              		.loc 1 20 5 is_stmt 1
  97 0098 17050000 		ld	a0,done
  97      03350500 
  98 00a0 97000000 		call	sem_signal
  98      E7800000 
  99              	.LVL9:
  21:src/main.c    **** }
 100              		.loc 1 21 1 is_stmt 0
 101 00a8 83308102 		ld	ra,40(sp)
 102              		.cfi_restore 1
 103 00ac 03340102 		ld	s0,32(sp)
 104              		.cfi_restore 8
 105              		.cfi_def_cfa 2, 48
 106 00b0 83348101 		ld	s1,24(sp)
 107              		.cfi_restore 9
 108              	.LVL10:
 109 00b4 03390101 		ld	s2,16(sp)
 110              		.cfi_restore 18
 111              	.LVL11:
 112 00b8 13010103 		addi	sp,sp,48
 113              		.cfi_def_cfa_offset 0
 114 00bc 67800000 		jr	ra
 115              		.cfi_endproc
 116              	.LFE0:
 118              		.align	2
 119              		.globl	userMain
 121              	userMain:
 122              	.LFB1:
  22:src/main.c    **** 
  23:src/main.c    **** void userMain() {
 123              		.loc 1 23 17 is_stmt 1
 124              		.cfi_startproc
 125 00c0 130101FC 		addi	sp,sp,-64
 126              		.cfi_def_cfa_offset 64
 127 00c4 233C1102 		sd	ra,56(sp)
 128 00c8 23388102 		sd	s0,48(sp)
 129 00cc 23349102 		sd	s1,40(sp)
 130              		.cfi_offset 1, -8
 131              		.cfi_offset 8, -16
 132              		.cfi_offset 9, -24
GAS LISTING /tmp/ccytbXsb.s 			page 4


 133 00d0 13040104 		addi	s0,sp,64
 134              		.cfi_def_cfa 8, 0
  24:src/main.c    ****     sem_open(&mutex, 1);
 135              		.loc 1 24 5
 136 00d4 93051000 		li	a1,1
 137 00d8 17050000 		lla	a0,mutex
 137      13050500 
 138 00e0 97000000 		call	sem_open
 138      E7800000 
 139              	.LVL12:
  25:src/main.c    ****     sem_open(&done, 0);
 140              		.loc 1 25 5
 141 00e8 93050000 		li	a1,0
 142 00ec 17050000 		lla	a0,done
 142      13050500 
 143 00f4 97000000 		call	sem_open
 143      E7800000 
 144              	.LVL13:
  26:src/main.c    **** 
  27:src/main.c    ****     thread_t t1, t2, t3;
 145              		.loc 1 27 5
  28:src/main.c    ****     thread_create(&t1, worker, (void*)'A');
 146              		.loc 1 28 5
 147 00fc 13061004 		li	a2,65
 148 0100 97050000 		lla	a1,worker
 148      93850500 
 149 0108 130584FD 		addi	a0,s0,-40
 150 010c 97000000 		call	thread_create
 150      E7800000 
 151              	.LVL14:
  29:src/main.c    ****     thread_create(&t2, worker, (void*)'B');
 152              		.loc 1 29 5
 153 0114 13062004 		li	a2,66
 154 0118 97050000 		lla	a1,worker
 154      93850500 
 155 0120 130504FD 		addi	a0,s0,-48
 156 0124 97000000 		call	thread_create
 156      E7800000 
 157              	.LVL15:
  30:src/main.c    ****     thread_create(&t3, worker, (void*)'C');
 158              		.loc 1 30 5
 159 012c 13063004 		li	a2,67
 160 0130 97050000 		lla	a1,worker
 160      93850500 
 161 0138 130584FC 		addi	a0,s0,-56
 162 013c 97000000 		call	thread_create
 162      E7800000 
 163              	.LVL16:
  31:src/main.c    **** 
  32:src/main.c    ****     sem_wait_n(done, 3);
 164              		.loc 1 32 5
 165 0144 97040000 		lla	s1,done
 165      93840400 
 166 014c 93053000 		li	a1,3
 167 0150 03B50400 		ld	a0,0(s1)
 168 0154 97000000 		call	sem_wait_n
 168      E7800000 
GAS LISTING /tmp/ccytbXsb.s 			page 5


 169              	.LVL17:
  33:src/main.c    **** 
  34:src/main.c    ****     sem_close(mutex);
 170              		.loc 1 34 5
 171 015c 17050000 		ld	a0,mutex
 171      03350500 
 172 0164 97000000 		call	sem_close
 172      E7800000 
 173              	.LVL18:
  35:src/main.c    ****     sem_close(done);
 174              		.loc 1 35 5
 175 016c 03B50400 		ld	a0,0(s1)
 176 0170 97000000 		call	sem_close
 176      E7800000 
 177              	.LVL19:
  36:src/main.c    ****     __putc('\n');
 178              		.loc 1 36 5
 179 0178 1305A000 		li	a0,10
 180 017c 97000000 		call	__putc
 180      E7800000 
 181              	.LVL20:
  37:src/main.c    ****     __putc('O'); __putc('K'); __putc('\n');
 182              		.loc 1 37 5
 183 0184 1305F004 		li	a0,79
 184 0188 97000000 		call	__putc
 184      E7800000 
 185              	.LVL21:
 186              		.loc 1 37 18
 187 0190 1305B004 		li	a0,75
 188 0194 97000000 		call	__putc
 188      E7800000 
 189              	.LVL22:
 190              		.loc 1 37 31
 191 019c 1305A000 		li	a0,10
 192 01a0 97000000 		call	__putc
 192      E7800000 
 193              	.LVL23:
 194              	.L9:
  38:src/main.c    ****     while (1) {}
 195              		.loc 1 38 5 discriminator 1
 196              		.loc 1 38 16 discriminator 1
 197              		.loc 1 38 11 discriminator 1
 198 01a8 6F000000 		j	.L9
 199              		.cfi_endproc
 200              	.LFE1:
 202              		.align	2
 203              		.globl	drop_to_user
 205              	drop_to_user:
 206              	.LFB2:
  39:src/main.c    **** }
  40:src/main.c    **** 
  41:src/main.c    **** 
  42:src/main.c    **** 
  43:src/main.c    **** 
  44:src/main.c    **** void drop_to_user(void (*fn)()) {
 207              		.loc 1 44 33
 208              		.cfi_startproc
GAS LISTING /tmp/ccytbXsb.s 			page 6


 209              	.LVL24:
 210 01ac 130101FF 		addi	sp,sp,-16
 211              		.cfi_def_cfa_offset 16
 212 01b0 23348100 		sd	s0,8(sp)
 213              		.cfi_offset 8, -8
 214 01b4 13040101 		addi	s0,sp,16
 215              		.cfi_def_cfa 8, 0
  45:src/main.c    ****     __asm__ volatile ("csrw sepc, %0" :: "r"(fn));
 216              		.loc 1 45 5
 217              	#APP
 218              	# 45 "src/main.c" 1
  46              	
  47:src/main.c    ****     uint64 sstatus;
 219              		csrw sepc, a0
 220              	# 0 "" 2
 221              		.loc 1 47 5
  48:src/main.c    ****     __asm__ volatile ("csrr %0, sstatus" : "=r"(sstatus));
 222              		.loc 1 48 5
 223              	# 48 "src/main.c" 1
  49              	    sstatus &= ~(1UL << 8);
 224              		csrr a5, sstatus
 225              	# 0 "" 2
 226              	.LVL25:
 227              		.loc 1 49 5
 228              		.loc 1 49 13 is_stmt 0
 229              	#NO_APP
 230 01c0 93F7F7EF 		andi	a5,a5,-257
 231              	.LVL26:
  50:src/main.c    ****     sstatus |=  (1UL << 5);
 232              		.loc 1 50 5 is_stmt 1
 233              		.loc 1 50 13 is_stmt 0
 234 01c4 93E70702 		ori	a5,a5,32
 235              	.LVL27:
  51:src/main.c    ****     __asm__ volatile ("csrw sstatus, %0" :: "r"(sstatus));
 236              		.loc 1 51 5 is_stmt 1
 237              	#APP
 238              	# 51 "src/main.c" 1
  52              	
  53:src/main.c    ****     __asm__ volatile ("sret");
 239              		csrw sstatus, a5
 240              	# 0 "" 2
 241              		.loc 1 53 5
 242              	# 53 "src/main.c" 1
  54              	}
 243              		sret
 244              	# 0 "" 2
 245              		.loc 1 54 1 is_stmt 0
 246              	#NO_APP
 247 01d0 03348100 		ld	s0,8(sp)
 248              		.cfi_restore 8
 249              		.cfi_def_cfa 2, 16
 250 01d4 13010101 		addi	sp,sp,16
 251              		.cfi_def_cfa_offset 0
 252 01d8 67800000 		jr	ra
 253              		.cfi_endproc
 254              	.LFE2:
 256              		.align	2
GAS LISTING /tmp/ccytbXsb.s 			page 7


 257              		.globl	main
 259              	main:
 260              	.LFB3:
  55:src/main.c    **** void interupt();
  56:src/main.c    **** int main() {
 261              		.loc 1 56 12 is_stmt 1
 262              		.cfi_startproc
 263 01dc 130101FF 		addi	sp,sp,-16
 264              		.cfi_def_cfa_offset 16
 265 01e0 23341100 		sd	ra,8(sp)
 266 01e4 23308100 		sd	s0,0(sp)
 267              		.cfi_offset 1, -8
 268              		.cfi_offset 8, -16
 269 01e8 13040101 		addi	s0,sp,16
 270              		.cfi_def_cfa 8, 0
  57:src/main.c    ****     start_main_thread();
 271              		.loc 1 57 5
 272 01ec 97000000 		call	start_main_thread
 272      E7800000 
 273              	.LVL28:
  58:src/main.c    ****     __asm__ volatile("csrw stvec, %[v]" :: [v]"r"(&interupt));
 274              		.loc 1 58 5
 275 01f4 97070000 		lla	a5,interupt
 275      93870700 
 276              	#APP
 277              	# 58 "src/main.c" 1
  59              	    __asm__ volatile("csrw sie, %0"    :: "r"((uint64)0x2));  // enable SSIE (timer)
 278              		csrw stvec, a5
 279              	# 0 "" 2
 280              		.loc 1 59 5
 281              	#NO_APP
 282 0200 93072000 		li	a5,2
 283              	#APP
 284              	# 59 "src/main.c" 1
  60              	    drop_to_user(userMain);
 285              		csrw sie, a5
 286              	# 0 "" 2
 287              		.loc 1 60 5
 288              	#NO_APP
 289 0208 17050000 		lla	a0,userMain
 289      13050500 
 290 0210 97000000 		call	drop_to_user
 290      E7800000 
 291              	.LVL29:
  61:src/main.c    ****     return 0;
 292              		.loc 1 61 5
  62:src/main.c    **** }...
 293              		.loc 1 62 1 is_stmt 0
 294 0218 13050000 		li	a0,0
 295 021c 83308100 		ld	ra,8(sp)
 296              		.cfi_restore 1
 297 0220 03340100 		ld	s0,0(sp)
 298              		.cfi_restore 8
 299              		.cfi_def_cfa 2, 16
 300 0224 13010101 		addi	sp,sp,16
 301              		.cfi_def_cfa_offset 0
 302 0228 67800000 		jr	ra
GAS LISTING /tmp/ccytbXsb.s 			page 8


 303              		.cfi_endproc
 304              	.LFE3:
 306              		.section	.sbss,"aw",@nobits
 307              		.align	3
 310              	done:
 311 0000 00000000 		.zero	8
 311      00000000 
 314              	mutex:
 315 0008 00000000 		.zero	8
 315      00000000 
 316              		.text
 317              	.Letext0:
 318              		.file 2 "src/../lib/hw.h"
 319              		.file 3 "src/APIC.h"
 320              		.file 4 "src/../lib/console.h"
GAS LISTING /tmp/ccytbXsb.s 			page 9


DEFINED SYMBOLS
                            *ABS*:0000000000000000 main.c
     /tmp/ccytbXsb.s:10     .text:0000000000000000 worker
     /tmp/ccytbXsb.s:14     .text:0000000000000000 .L0 
     /tmp/ccytbXsb.s:16     .text:0000000000000000 .L0 
     /tmp/ccytbXsb.s:17     .text:0000000000000004 .L0 
     /tmp/ccytbXsb.s:22     .text:0000000000000014 .L0 
     /tmp/ccytbXsb.s:23     .text:0000000000000014 .L0 
     /tmp/ccytbXsb.s:24     .text:0000000000000014 .L0 
     /tmp/ccytbXsb.s:25     .text:0000000000000014 .L0 
     /tmp/ccytbXsb.s:27     .text:0000000000000018 .L0 
     /tmp/ccytbXsb.s:29     .text:0000000000000018 .L0 
     /tmp/ccytbXsb.s:30     .text:0000000000000018 .L0 
     /tmp/ccytbXsb.s:34     .text:000000000000001c .L0 
     /tmp/ccytbXsb.s:35     .text:000000000000001c .L0 
     /tmp/ccytbXsb.s:36     .text:000000000000001c .L0 
     /tmp/ccytbXsb.s:38     .text:0000000000000020 .L0 
     /tmp/ccytbXsb.s:43     .text:0000000000000024 .L0 
     /tmp/ccytbXsb.s:44     .text:0000000000000024 .L0 
     /tmp/ccytbXsb.s:45     .text:0000000000000024 .L0 
     /tmp/ccytbXsb.s:50     .text:0000000000000030 .L0 
     /tmp/ccytbXsb.s:51     .text:0000000000000030 .L0 
     /tmp/ccytbXsb.s:53     .text:0000000000000034 .L0 
     /tmp/ccytbXsb.s:58     .text:0000000000000040 .L0 
     /tmp/ccytbXsb.s:62     .text:000000000000004c .L0 
     /tmp/ccytbXsb.s:314    .sbss:0000000000000008 mutex
     /tmp/ccytbXsb.s:66     .text:0000000000000058 .L0 
     /tmp/ccytbXsb.s:70     .text:0000000000000068 .L0 
     /tmp/ccytbXsb.s:71     .text:0000000000000068 .L0 
     /tmp/ccytbXsb.s:75     .text:000000000000006c .L0 
     /tmp/ccytbXsb.s:76     .text:000000000000006c .L0 
     /tmp/ccytbXsb.s:79     .text:0000000000000074 .L0 
     /tmp/ccytbXsb.s:83     .text:0000000000000084 .L0 
     /tmp/ccytbXsb.s:88     .text:0000000000000090 .L0 
     /tmp/ccytbXsb.s:89     .text:0000000000000090 .L0 
     /tmp/ccytbXsb.s:90     .text:0000000000000090 .L0 
     /tmp/ccytbXsb.s:92     .text:0000000000000094 .L0 
     /tmp/ccytbXsb.s:310    .sbss:0000000000000000 done
     /tmp/ccytbXsb.s:97     .text:0000000000000098 .L0 
     /tmp/ccytbXsb.s:101    .text:00000000000000a8 .L0 
     /tmp/ccytbXsb.s:102    .text:00000000000000ac .L0 
     /tmp/ccytbXsb.s:104    .text:00000000000000b0 .L0 
     /tmp/ccytbXsb.s:105    .text:00000000000000b0 .L0 
     /tmp/ccytbXsb.s:107    .text:00000000000000b4 .L0 
     /tmp/ccytbXsb.s:110    .text:00000000000000b8 .L0 
     /tmp/ccytbXsb.s:113    .text:00000000000000bc .L0 
     /tmp/ccytbXsb.s:115    .text:00000000000000c0 .L0 
     /tmp/ccytbXsb.s:121    .text:00000000000000c0 userMain
     /tmp/ccytbXsb.s:124    .text:00000000000000c0 .L0 
     /tmp/ccytbXsb.s:125    .text:00000000000000c0 .L0 
     /tmp/ccytbXsb.s:126    .text:00000000000000c4 .L0 
     /tmp/ccytbXsb.s:130    .text:00000000000000d0 .L0 
     /tmp/ccytbXsb.s:131    .text:00000000000000d0 .L0 
     /tmp/ccytbXsb.s:132    .text:00000000000000d0 .L0 
     /tmp/ccytbXsb.s:134    .text:00000000000000d4 .L0 
     /tmp/ccytbXsb.s:136    .text:00000000000000d4 .L0 
     /tmp/ccytbXsb.s:141    .text:00000000000000e8 .L0 
GAS LISTING /tmp/ccytbXsb.s 			page 10


     /tmp/ccytbXsb.s:146    .text:00000000000000fc .L0 
     /tmp/ccytbXsb.s:147    .text:00000000000000fc .L0 
     /tmp/ccytbXsb.s:153    .text:0000000000000114 .L0 
     /tmp/ccytbXsb.s:159    .text:000000000000012c .L0 
     /tmp/ccytbXsb.s:165    .text:0000000000000144 .L0 
     /tmp/ccytbXsb.s:171    .text:000000000000015c .L0 
     /tmp/ccytbXsb.s:175    .text:000000000000016c .L0 
     /tmp/ccytbXsb.s:179    .text:0000000000000178 .L0 
     /tmp/ccytbXsb.s:183    .text:0000000000000184 .L0 
     /tmp/ccytbXsb.s:187    .text:0000000000000190 .L0 
     /tmp/ccytbXsb.s:191    .text:000000000000019c .L0 
     /tmp/ccytbXsb.s:196    .text:00000000000001a8 .L0 
     /tmp/ccytbXsb.s:197    .text:00000000000001a8 .L0 
     /tmp/ccytbXsb.s:198    .text:00000000000001a8 .L0 
     /tmp/ccytbXsb.s:199    .text:00000000000001ac .L0 
     /tmp/ccytbXsb.s:205    .text:00000000000001ac drop_to_user
     /tmp/ccytbXsb.s:208    .text:00000000000001ac .L0 
     /tmp/ccytbXsb.s:210    .text:00000000000001ac .L0 
     /tmp/ccytbXsb.s:211    .text:00000000000001b0 .L0 
     /tmp/ccytbXsb.s:213    .text:00000000000001b4 .L0 
     /tmp/ccytbXsb.s:215    .text:00000000000001b8 .L0 
          src/main.c:45     .text:00000000000001b8 .L0 
     /tmp/ccytbXsb.s:222    .text:00000000000001bc .L0 
          src/main.c:48     .text:00000000000001bc .L0 
     /tmp/ccytbXsb.s:228    .text:00000000000001c0 .L0 
     /tmp/ccytbXsb.s:230    .text:00000000000001c0 .L0 
     /tmp/ccytbXsb.s:233    .text:00000000000001c4 .L0 
     /tmp/ccytbXsb.s:234    .text:00000000000001c4 .L0 
          src/main.c:51     .text:00000000000001c8 .L0 
          src/main.c:53     .text:00000000000001cc .L0 
     /tmp/ccytbXsb.s:247    .text:00000000000001d0 .L0 
     /tmp/ccytbXsb.s:248    .text:00000000000001d4 .L0 
     /tmp/ccytbXsb.s:249    .text:00000000000001d4 .L0 
     /tmp/ccytbXsb.s:251    .text:00000000000001d8 .L0 
     /tmp/ccytbXsb.s:253    .text:00000000000001dc .L0 
     /tmp/ccytbXsb.s:259    .text:00000000000001dc main
     /tmp/ccytbXsb.s:262    .text:00000000000001dc .L0 
     /tmp/ccytbXsb.s:263    .text:00000000000001dc .L0 
     /tmp/ccytbXsb.s:264    .text:00000000000001e0 .L0 
     /tmp/ccytbXsb.s:267    .text:00000000000001e8 .L0 
     /tmp/ccytbXsb.s:268    .text:00000000000001e8 .L0 
     /tmp/ccytbXsb.s:270    .text:00000000000001ec .L0 
     /tmp/ccytbXsb.s:272    .text:00000000000001ec .L0 
     /tmp/ccytbXsb.s:275    .text:00000000000001f4 .L0 
     /tmp/ccytbXsb.s:282    .text:0000000000000200 .L0 
     /tmp/ccytbXsb.s:289    .text:0000000000000208 .L0 
     /tmp/ccytbXsb.s:293    .text:0000000000000218 .L0 
     /tmp/ccytbXsb.s:294    .text:0000000000000218 .L0 
     /tmp/ccytbXsb.s:296    .text:0000000000000220 .L0 
     /tmp/ccytbXsb.s:298    .text:0000000000000224 .L0 
     /tmp/ccytbXsb.s:299    .text:0000000000000224 .L0 
     /tmp/ccytbXsb.s:301    .text:0000000000000228 .L0 
     /tmp/ccytbXsb.s:303    .text:000000000000022c .L0 
     /tmp/ccytbXsb.s:321    .text:000000000000022c .L0 
                     .debug_frame:0000000000000000 .L0 
     /tmp/ccytbXsb.s:66     .text:0000000000000058 .L0 
     /tmp/ccytbXsb.s:79     .text:0000000000000074 .L0 
GAS LISTING /tmp/ccytbXsb.s 			page 11


     /tmp/ccytbXsb.s:97     .text:0000000000000098 .L0 
     /tmp/ccytbXsb.s:137    .text:00000000000000d8 .L0 
     /tmp/ccytbXsb.s:142    .text:00000000000000ec .L0 
     /tmp/ccytbXsb.s:148    .text:0000000000000100 .L0 
     /tmp/ccytbXsb.s:154    .text:0000000000000118 .L0 
     /tmp/ccytbXsb.s:160    .text:0000000000000130 .L0 
     /tmp/ccytbXsb.s:165    .text:0000000000000144 .L0 
     /tmp/ccytbXsb.s:171    .text:000000000000015c .L0 
     /tmp/ccytbXsb.s:275    .text:00000000000001f4 .L0 
     /tmp/ccytbXsb.s:289    .text:0000000000000208 .L0 
     /tmp/ccytbXsb.s:73     .text:000000000000006c .L2
     /tmp/ccytbXsb.s:40     .text:0000000000000024 .L4
     /tmp/ccytbXsb.s:93     .text:0000000000000098 .L7
     /tmp/ccytbXsb.s:48     .text:0000000000000030 .L3
     /tmp/ccytbXsb.s:194    .text:00000000000001a8 .L9
     /tmp/ccytbXsb.s:885    .debug_abbrev:0000000000000000 .Ldebug_abbrev0
     /tmp/ccytbXsb.s:1399   .debug_str:000000000000013b .LASF35
     /tmp/ccytbXsb.s:1417   .debug_str:000000000000023e .LASF36
     /tmp/ccytbXsb.s:1377   .debug_str:00000000000000ae .LASF37
     /tmp/ccytbXsb.s:5      .text:0000000000000000 .Ltext0
     /tmp/ccytbXsb.s:317    .text:000000000000022c .Letext0
     /tmp/ccytbXsb.s:1347   .debug_line:0000000000000000 .Ldebug_line0
     /tmp/ccytbXsb.s:1401   .debug_str:00000000000001d9 .LASF0
     /tmp/ccytbXsb.s:1383   .debug_str:00000000000000e8 .LASF1
     /tmp/ccytbXsb.s:1369   .debug_str:000000000000008a .LASF2
     /tmp/ccytbXsb.s:1359   .debug_str:0000000000000039 .LASF4
     /tmp/ccytbXsb.s:1381   .debug_str:00000000000000d6 .LASF3
     /tmp/ccytbXsb.s:1351   .debug_str:0000000000000013 .LASF5
     /tmp/ccytbXsb.s:1349   .debug_str:0000000000000000 .LASF6
     /tmp/ccytbXsb.s:1365   .debug_str:0000000000000068 .LASF7
     /tmp/ccytbXsb.s:1407   .debug_str:00000000000001f2 .LASF8
     /tmp/ccytbXsb.s:1357   .debug_str:000000000000002b .LASF9
     /tmp/ccytbXsb.s:1425   .debug_str:000000000000026b .LASF10
     /tmp/ccytbXsb.s:1367   .debug_str:000000000000007b .LASF11
     /tmp/ccytbXsb.s:1423   .debug_str:000000000000025b .LASF12
     /tmp/ccytbXsb.s:1413   .debug_str:0000000000000221 .LASF13
     /tmp/ccytbXsb.s:1387   .debug_str:0000000000000109 .LASF14
     /tmp/ccytbXsb.s:1361   .debug_str:0000000000000040 .LASF15
     /tmp/ccytbXsb.s:1409   .debug_str:0000000000000202 .LASF16
     /tmp/ccytbXsb.s:1411   .debug_str:0000000000000218 .LASF17
     /tmp/ccytbXsb.s:1353   .debug_str:000000000000001a .LASF18
     /tmp/ccytbXsb.s:1371   .debug_str:0000000000000098 .LASF19
     /tmp/ccytbXsb.s:1391   .debug_str:0000000000000120 .LASF20
     /tmp/ccytbXsb.s:1393   .debug_str:0000000000000125 .LASF21
     /tmp/ccytbXsb.s:260    .text:00000000000001dc .LFB3
     /tmp/ccytbXsb.s:304    .text:000000000000022c .LFE3
     /tmp/ccytbXsb.s:273    .text:00000000000001f4 .LVL28
     /tmp/ccytbXsb.s:291    .text:0000000000000218 .LVL29
     /tmp/ccytbXsb.s:1415   .debug_str:0000000000000231 .LASF22
     /tmp/ccytbXsb.s:206    .text:00000000000001ac .LFB2
     /tmp/ccytbXsb.s:254    .text:00000000000001dc .LFE2
     /tmp/ccytbXsb.s:1395   .debug_str:000000000000012a .LASF23
     /tmp/ccytbXsb.s:1397   .debug_str:0000000000000132 .LASF38
     /tmp/ccytbXsb.s:122    .text:00000000000000c0 .LFB1
     /tmp/ccytbXsb.s:200    .text:00000000000001ac .LFE1
     /tmp/ccytbXsb.s:139    .text:00000000000000e8 .LVL12
     /tmp/ccytbXsb.s:144    .text:00000000000000fc .LVL13
GAS LISTING /tmp/ccytbXsb.s 			page 12


     /tmp/ccytbXsb.s:151    .text:0000000000000114 .LVL14
     /tmp/ccytbXsb.s:157    .text:000000000000012c .LVL15
     /tmp/ccytbXsb.s:163    .text:0000000000000144 .LVL16
     /tmp/ccytbXsb.s:169    .text:000000000000015c .LVL17
     /tmp/ccytbXsb.s:173    .text:000000000000016c .LVL18
     /tmp/ccytbXsb.s:177    .text:0000000000000178 .LVL19
     /tmp/ccytbXsb.s:181    .text:0000000000000184 .LVL20
     /tmp/ccytbXsb.s:185    .text:0000000000000190 .LVL21
     /tmp/ccytbXsb.s:189    .text:000000000000019c .LVL22
     /tmp/ccytbXsb.s:193    .text:00000000000001a8 .LVL23
     /tmp/ccytbXsb.s:1373   .debug_str:000000000000009e .LASF24
     /tmp/ccytbXsb.s:11     .text:0000000000000000 .LFB0
     /tmp/ccytbXsb.s:116    .text:00000000000000c0 .LFE0
     /tmp/ccytbXsb.s:1286   .debug_loc:0000000000000000 .LLST0
     /tmp/ccytbXsb.s:1300   .debug_loc:0000000000000039 .LLST1
     /tmp/ccytbXsb.s:33     .text:000000000000001c .LBB2
     /tmp/ccytbXsb.s:95     .text:0000000000000098 .LBE2
     /tmp/ccytbXsb.s:1314   .debug_loc:0000000000000072 .LLST2
     /tmp/ccytbXsb.s:1339   .debug_ranges:0000000000000000 .Ldebug_ranges0
     /tmp/ccytbXsb.s:60     .text:000000000000004c .LVL3
     /tmp/ccytbXsb.s:64     .text:0000000000000058 .LVL4
     /tmp/ccytbXsb.s:68     .text:0000000000000068 .LVL5
     /tmp/ccytbXsb.s:81     .text:0000000000000084 .LVL7
     /tmp/ccytbXsb.s:85     .text:0000000000000090 .LVL8
     /tmp/ccytbXsb.s:99     .text:00000000000000a8 .LVL9
     /tmp/ccytbXsb.s:1403   .debug_str:00000000000001e6 .LASF25
     /tmp/ccytbXsb.s:1421   .debug_str:0000000000000252 .LASF26
     /tmp/ccytbXsb.s:1363   .debug_str:0000000000000056 .LASF27
     /tmp/ccytbXsb.s:1419   .debug_str:0000000000000249 .LASF28
     /tmp/ccytbXsb.s:1385   .debug_str:00000000000000fb .LASF29
     /tmp/ccytbXsb.s:1355   .debug_str:0000000000000020 .LASF30
     /tmp/ccytbXsb.s:1379   .debug_str:00000000000000cc .LASF31
     /tmp/ccytbXsb.s:1405   .debug_str:00000000000001eb .LASF32
     /tmp/ccytbXsb.s:1389   .debug_str:0000000000000115 .LASF33
     /tmp/ccytbXsb.s:1375   .debug_str:00000000000000a5 .LASF34
     /tmp/ccytbXsb.s:15     .text:0000000000000000 .LVL0
     /tmp/ccytbXsb.s:39     .text:0000000000000024 .LVL2
     /tmp/ccytbXsb.s:31     .text:000000000000001c .LVL1
     /tmp/ccytbXsb.s:111    .text:00000000000000b8 .LVL11
     /tmp/ccytbXsb.s:108    .text:00000000000000b4 .LVL10
     /tmp/ccytbXsb.s:322    .debug_info:0000000000000000 .Ldebug_info0
     /tmp/ccytbXsb.s:41     .text:0000000000000024 .LBB3
     /tmp/ccytbXsb.s:56     .text:0000000000000040 .LBE3
     /tmp/ccytbXsb.s:87     .text:0000000000000090 .LBB4
     /tmp/ccytbXsb.s:94     .text:0000000000000098 .LBE4

UNDEFINED SYMBOLS
__putc
sem_signal
sem_wait
sem_open
thread_create
sem_wait_n
sem_close
start_main_thread
interupt
