GAS LISTING /tmp/ccMd98al.s 			page 1


   1              		.file	"main.c"
   2              		.option nopic
   3              		.option norelax
   4              		.text
   5              	.Ltext0:
   6              		.cfi_sections	.debug_frame
   7              		.align	2
   8              		.globl	my_thread_body
  10              	my_thread_body:
  11              	.LFB0:
  12              		.file 1 "src/main.c"
   1:src/main.c    **** //
   2:src/main.c    **** // Created by os on 5/6/26.
   3:src/main.c    **** //
   4:src/main.c    **** #include "APIC.h"
   5:src/main.c    **** #include "../lib/console.h"
   6:src/main.c    **** void my_thread_body(void) {
  13              		.loc 1 6 27
  14              		.cfi_startproc
  15 0000 130101FF 		addi	sp,sp,-16
  16              		.cfi_def_cfa_offset 16
  17 0004 23341100 		sd	ra,8(sp)
  18 0008 23308100 		sd	s0,0(sp)
  19              		.cfi_offset 1, -8
  20              		.cfi_offset 8, -16
  21 000c 13040101 		addi	s0,sp,16
  22              		.cfi_def_cfa 8, 0
   7:src/main.c    ****     __putc('{');
  23              		.loc 1 7 5
  24 0010 1305B007 		li	a0,123
  25 0014 97000000 		call	__putc
  25      E7800000 
  26              	.LVL0:
   8:src/main.c    **** }
  27              		.loc 1 8 1 is_stmt 0
  28 001c 83308100 		ld	ra,8(sp)
  29              		.cfi_restore 1
  30 0020 03340100 		ld	s0,0(sp)
  31              		.cfi_restore 8
  32              		.cfi_def_cfa 2, 16
  33 0024 13010101 		addi	sp,sp,16
  34              		.cfi_def_cfa_offset 0
  35 0028 67800000 		jr	ra
  36              		.cfi_endproc
  37              	.LFE0:
  39              		.align	2
  40              		.globl	my_thread_body2
  42              	my_thread_body2:
  43              	.LFB1:
   9:src/main.c    **** void my_thread_body2(void) {
  44              		.loc 1 9 28 is_stmt 1
  45              		.cfi_startproc
  46 002c 130101FF 		addi	sp,sp,-16
  47              		.cfi_def_cfa_offset 16
  48 0030 23341100 		sd	ra,8(sp)
  49 0034 23308100 		sd	s0,0(sp)
  50              		.cfi_offset 1, -8
GAS LISTING /tmp/ccMd98al.s 			page 2


  51              		.cfi_offset 8, -16
  52 0038 13040101 		addi	s0,sp,16
  53              		.cfi_def_cfa 8, 0
  10:src/main.c    ****     __putc('}');
  54              		.loc 1 10 5
  55 003c 1305D007 		li	a0,125
  56 0040 97000000 		call	__putc
  56      E7800000 
  57              	.LVL1:
  11:src/main.c    **** }
  58              		.loc 1 11 1 is_stmt 0
  59 0048 83308100 		ld	ra,8(sp)
  60              		.cfi_restore 1
  61 004c 03340100 		ld	s0,0(sp)
  62              		.cfi_restore 8
  63              		.cfi_def_cfa 2, 16
  64 0050 13010101 		addi	sp,sp,16
  65              		.cfi_def_cfa_offset 0
  66 0054 67800000 		jr	ra
  67              		.cfi_endproc
  68              	.LFE1:
  70              		.align	2
  71              		.globl	mainU
  73              	mainU:
  74              	.LFB2:
  12:src/main.c    **** 
  13:src/main.c    **** void mainU(){
  75              		.loc 1 13 13 is_stmt 1
  76              		.cfi_startproc
  77 0058 130101FF 		addi	sp,sp,-16
  78              		.cfi_def_cfa_offset 16
  79 005c 23341100 		sd	ra,8(sp)
  80 0060 23308100 		sd	s0,0(sp)
  81              		.cfi_offset 1, -8
  82              		.cfi_offset 8, -16
  83 0064 13040101 		addi	s0,sp,16
  84              		.cfi_def_cfa 8, 0
  14:src/main.c    ****     // char* a1 = mem_alloc(sizeof(char) * 20);
  15:src/main.c    ****     // *a1 = 'a';
  16:src/main.c    ****     // *(a1+sizeof(char)) ='b';
  17:src/main.c    ****     // __putc(*a1);
  18:src/main.c    ****     // __putc(*(a1+1));
  19:src/main.c    ****     // *(a1+11) = 'h';
  20:src/main.c    ****     // char* a2 = mem_alloc(sizeof(char) * 10);
  21:src/main.c    ****     // *a2 = 'c';
  22:src/main.c    ****     // *(a2+sizeof(char)) ='d';
  23:src/main.c    ****     // mem_free(a1);
  24:src/main.c    ****     // char* a3 = mem_alloc(sizeof(char) * 10);
  25:src/main.c    ****     // *(a3+sizeof(char)) ='f';
  26:src/main.c    ****     // __putc(*a3);
  27:src/main.c    ****     // __putc(*(a3+1));
  28:src/main.c    ****     // __putc(*a1);
  29:src/main.c    ****     // __putc(*(a1+1));
  30:src/main.c    ****     thread_t t = thread_create(my_thread_body);
  85              		.loc 1 30 5
  86              		.loc 1 30 18 is_stmt 0
  87 0068 17050000 		lla	a0,my_thread_body
GAS LISTING /tmp/ccMd98al.s 			page 3


  87      13050500 
  88 0070 97000000 		call	thread_create
  88      E7800000 
  89              	.LVL2:
  31:src/main.c    ****     thread_start(t);
  90              		.loc 1 31 5 is_stmt 1
  91 0078 97000000 		call	thread_start
  91      E7800000 
  92              	.LVL3:
  32:src/main.c    ****     thread_t t2 = thread_create(my_thread_body2);
  93              		.loc 1 32 5
  94              		.loc 1 32 19 is_stmt 0
  95 0080 17050000 		lla	a0,my_thread_body2
  95      13050500 
  96 0088 97000000 		call	thread_create
  96      E7800000 
  97              	.LVL4:
  33:src/main.c    ****     thread_start(t2);
  98              		.loc 1 33 5 is_stmt 1
  99 0090 97000000 		call	thread_start
  99      E7800000 
 100              	.LVL5:
  34:src/main.c    **** }
 101              		.loc 1 34 1 is_stmt 0
 102 0098 83308100 		ld	ra,8(sp)
 103              		.cfi_restore 1
 104 009c 03340100 		ld	s0,0(sp)
 105              		.cfi_restore 8
 106              		.cfi_def_cfa 2, 16
 107 00a0 13010101 		addi	sp,sp,16
 108              		.cfi_def_cfa_offset 0
 109 00a4 67800000 		jr	ra
 110              		.cfi_endproc
 111              	.LFE2:
 113              		.align	2
 114              		.globl	drop_to_user
 116              	drop_to_user:
 117              	.LFB3:
  35:src/main.c    **** 
  36:src/main.c    **** 
  37:src/main.c    **** 
  38:src/main.c    **** 
  39:src/main.c    **** void drop_to_user(void (*fn)()) {
 118              		.loc 1 39 33 is_stmt 1
 119              		.cfi_startproc
 120              	.LVL6:
 121 00a8 130101FF 		addi	sp,sp,-16
 122              		.cfi_def_cfa_offset 16
 123 00ac 23348100 		sd	s0,8(sp)
 124              		.cfi_offset 8, -8
 125 00b0 13040101 		addi	s0,sp,16
 126              		.cfi_def_cfa 8, 0
  40:src/main.c    ****     __asm__ volatile ("csrw sepc, %0" :: "r"(fn));
 127              		.loc 1 40 5
 128              	#APP
 129              	# 40 "src/main.c" 1
  41              	
GAS LISTING /tmp/ccMd98al.s 			page 4


  42:src/main.c    ****     uint64 sstatus;
 130              		csrw sepc, a0
 131              	# 0 "" 2
 132              		.loc 1 42 5
  43:src/main.c    ****     __asm__ volatile ("csrr %0, sstatus" : "=r"(sstatus));
 133              		.loc 1 43 5
 134              	# 43 "src/main.c" 1
  44              	    sstatus &= ~(1UL << 8);
 135              		csrr a5, sstatus
 136              	# 0 "" 2
 137              	.LVL7:
 138              		.loc 1 44 5
 139              		.loc 1 44 13 is_stmt 0
 140              	#NO_APP
 141 00bc 93F7F7EF 		andi	a5,a5,-257
 142              	.LVL8:
  45:src/main.c    ****     sstatus |=  (1UL << 5);
 143              		.loc 1 45 5 is_stmt 1
 144              		.loc 1 45 13 is_stmt 0
 145 00c0 93E70702 		ori	a5,a5,32
 146              	.LVL9:
  46:src/main.c    ****     __asm__ volatile ("csrw sstatus, %0" :: "r"(sstatus));
 147              		.loc 1 46 5 is_stmt 1
 148              	#APP
 149              	# 46 "src/main.c" 1
  47              	
  48:src/main.c    ****     __asm__ volatile ("sret");
 150              		csrw sstatus, a5
 151              	# 0 "" 2
 152              		.loc 1 48 5
 153              	# 48 "src/main.c" 1
  49              	}
 154              		sret
 155              	# 0 "" 2
 156              		.loc 1 49 1 is_stmt 0
 157              	#NO_APP
 158 00cc 03348100 		ld	s0,8(sp)
 159              		.cfi_restore 8
 160              		.cfi_def_cfa 2, 16
 161 00d0 13010101 		addi	sp,sp,16
 162              		.cfi_def_cfa_offset 0
 163 00d4 67800000 		jr	ra
 164              		.cfi_endproc
 165              	.LFE3:
 167              		.align	2
 168              		.globl	main
 170              	main:
 171              	.LFB4:
  50:src/main.c    **** void interupt();
  51:src/main.c    **** int main() {
 172              		.loc 1 51 12 is_stmt 1
 173              		.cfi_startproc
 174 00d8 130101FF 		addi	sp,sp,-16
 175              		.cfi_def_cfa_offset 16
 176 00dc 23341100 		sd	ra,8(sp)
 177 00e0 23308100 		sd	s0,0(sp)
 178              		.cfi_offset 1, -8
GAS LISTING /tmp/ccMd98al.s 			page 5


 179              		.cfi_offset 8, -16
 180 00e4 13040101 		addi	s0,sp,16
 181              		.cfi_def_cfa 8, 0
  52:src/main.c    ****     start_main_thread();
 182              		.loc 1 52 5
 183 00e8 97000000 		call	start_main_thread
 183      E7800000 
 184              	.LVL10:
  53:src/main.c    ****     __asm__ volatile("csrw sie, zero");
 185              		.loc 1 53 5
 186              	#APP
 187              	# 53 "src/main.c" 1
  54              	    __asm__ volatile("csrw stvec, %[v]" :: [v]"r"(&interupt));
 188              		csrw sie, zero
 189              	# 0 "" 2
 190              		.loc 1 54 5
 191              	#NO_APP
 192 00f4 97070000 		lla	a5,interupt
 192      93870700 
 193              	#APP
 194              	# 54 "src/main.c" 1
  55              	    drop_to_user(mainU);
 195              		csrw stvec, a5
 196              	# 0 "" 2
 197              		.loc 1 55 5
 198              	#NO_APP
 199 0100 17050000 		lla	a0,mainU
 199      13050500 
 200 0108 97000000 		call	drop_to_user
 200      E7800000 
 201              	.LVL11:
  56:src/main.c    ****     return 0;
 202              		.loc 1 56 5
  57:src/main.c    **** }
 203              		.loc 1 57 1 is_stmt 0
 204 0110 13050000 		li	a0,0
 205 0114 83308100 		ld	ra,8(sp)
 206              		.cfi_restore 1
 207 0118 03340100 		ld	s0,0(sp)
 208              		.cfi_restore 8
 209              		.cfi_def_cfa 2, 16
 210 011c 13010101 		addi	sp,sp,16
 211              		.cfi_def_cfa_offset 0
 212 0120 67800000 		jr	ra
 213              		.cfi_endproc
 214              	.LFE4:
 216              	.Letext0:
 217              		.file 2 "src/../lib/hw.h"
 218              		.file 3 "src/APIC.h"
 219              		.file 4 "src/../lib/console.h"
GAS LISTING /tmp/ccMd98al.s 			page 6

