GAS LISTING /tmp/cc4P17Q2.s 			page 1


   1              		.file	"main.c"
   2              		.option nopic
   3              		.option norelax
   4              		.text
   5              	.Ltext0:
   6              		.cfi_sections	.debug_frame
   7              		.align	2
   8              		.globl	drop_to_user
  10              	drop_to_user:
  11              	.LFB0:
  12              		.file 1 "src/main.c"
   1:src/main.c    **** //
   2:src/main.c    **** // Created by os on 5/6/26.
   3:src/main.c    **** //
   4:src/main.c    **** #include "APIC.h"
   5:src/main.c    **** #include "../lib/console.h"
   6:src/main.c    **** 
   7:src/main.c    **** void userMain();
   8:src/main.c    **** 
   9:src/main.c    **** void drop_to_user(void (*fn)()) {
  13              		.loc 1 9 33
  14              		.cfi_startproc
  15              	.LVL0:
  16 0000 130101FF 		addi	sp,sp,-16
  17              		.cfi_def_cfa_offset 16
  18 0004 23348100 		sd	s0,8(sp)
  19              		.cfi_offset 8, -8
  20 0008 13040101 		addi	s0,sp,16
  21              		.cfi_def_cfa 8, 0
  10:src/main.c    ****     __asm__ volatile ("csrw sepc, %0" :: "r"(fn));
  22              		.loc 1 10 5
  23              	#APP
  24              	# 10 "src/main.c" 1
  11              	
  12:src/main.c    ****     uint64 sstatus;
  25              		csrw sepc, a0
  26              	# 0 "" 2
  27              		.loc 1 12 5
  13:src/main.c    ****     __asm__ volatile ("csrr %0, sstatus" : "=r"(sstatus));
  28              		.loc 1 13 5
  29              	# 13 "src/main.c" 1
  14              	    sstatus &= ~(1UL << 8);
  30              		csrr a5, sstatus
  31              	# 0 "" 2
  32              	.LVL1:
  33              		.loc 1 14 5
  34              		.loc 1 14 13 is_stmt 0
  35              	#NO_APP
  36 0014 93F7F7EF 		andi	a5,a5,-257
  37              	.LVL2:
  15:src/main.c    ****     sstatus |=  (1UL << 5);
  38              		.loc 1 15 5 is_stmt 1
  39              		.loc 1 15 13 is_stmt 0
  40 0018 93E70702 		ori	a5,a5,32
  41              	.LVL3:
  16:src/main.c    ****     __asm__ volatile ("csrw sstatus, %0" :: "r"(sstatus));
  42              		.loc 1 16 5 is_stmt 1
GAS LISTING /tmp/cc4P17Q2.s 			page 2


  43              	#APP
  44              	# 16 "src/main.c" 1
  17              	
  18:src/main.c    ****     __asm__ volatile ("sret");
  45              		csrw sstatus, a5
  46              	# 0 "" 2
  47              		.loc 1 18 5
  48              	# 18 "src/main.c" 1
  19              	}
  49              		sret
  50              	# 0 "" 2
  51              		.loc 1 19 1 is_stmt 0
  52              	#NO_APP
  53 0024 03348100 		ld	s0,8(sp)
  54              		.cfi_restore 8
  55              		.cfi_def_cfa 2, 16
  56 0028 13010101 		addi	sp,sp,16
  57              		.cfi_def_cfa_offset 0
  58 002c 67800000 		jr	ra
  59              		.cfi_endproc
  60              	.LFE0:
  62              		.align	2
  63              		.globl	main
  65              	main:
  66              	.LFB1:
  20:src/main.c    **** 
  21:src/main.c    **** void interupt();
  22:src/main.c    **** int main() {
  67              		.loc 1 22 12 is_stmt 1
  68              		.cfi_startproc
  69 0030 130101FF 		addi	sp,sp,-16
  70              		.cfi_def_cfa_offset 16
  71 0034 23341100 		sd	ra,8(sp)
  72 0038 23308100 		sd	s0,0(sp)
  73              		.cfi_offset 1, -8
  74              		.cfi_offset 8, -16
  75 003c 13040101 		addi	s0,sp,16
  76              		.cfi_def_cfa 8, 0
  23:src/main.c    ****     start_main_thread();
  77              		.loc 1 23 5
  78 0040 97000000 		call	start_main_thread
  78      E7800000 
  79              	.LVL4:
  24:src/main.c    ****     __asm__ volatile("csrw stvec, %[v]" :: [v]"r"(&interupt));
  80              		.loc 1 24 5
  81 0048 97070000 		lla	a5,interupt
  81      93870700 
  82              	#APP
  83              	# 24 "src/main.c" 1
  25              	    __asm__ volatile("csrw sie, %0" :: "r"((uint64)(0x2 | 0x200)));
  84              		csrw stvec, a5
  85              	# 0 "" 2
  86              		.loc 1 25 5
  87              	#NO_APP
  88 0054 93072020 		li	a5,514
  89              	#APP
  90              	# 25 "src/main.c" 1
GAS LISTING /tmp/cc4P17Q2.s 			page 3


  26              	    drop_to_user(userMain);
  91              		csrw sie, a5
  92              	# 0 "" 2
  93              		.loc 1 26 5
  94              	#NO_APP
  95 005c 17050000 		lla	a0,userMain
  95      13050500 
  96 0064 97000000 		call	drop_to_user
  96      E7800000 
  97              	.LVL5:
  27:src/main.c    ****     return 0;
  98              		.loc 1 27 5
  28:src/main.c    **** }...
  99              		.loc 1 28 1 is_stmt 0
 100 006c 13050000 		li	a0,0
 101 0070 83308100 		ld	ra,8(sp)
 102              		.cfi_restore 1
 103 0074 03340100 		ld	s0,0(sp)
 104              		.cfi_restore 8
 105              		.cfi_def_cfa 2, 16
 106 0078 13010101 		addi	sp,sp,16
 107              		.cfi_def_cfa_offset 0
 108 007c 67800000 		jr	ra
 109              		.cfi_endproc
 110              	.LFE1:
 112              	.Letext0:
 113              		.file 2 "src/../lib/hw.h"
 114              		.file 3 "src/syscall_c.hpp"
GAS LISTING /tmp/cc4P17Q2.s 			page 4


DEFINED SYMBOLS
                            *ABS*:0000000000000000 main.c
     /tmp/cc4P17Q2.s:10     .text:0000000000000000 drop_to_user
     /tmp/cc4P17Q2.s:14     .text:0000000000000000 .L0 
     /tmp/cc4P17Q2.s:16     .text:0000000000000000 .L0 
     /tmp/cc4P17Q2.s:17     .text:0000000000000004 .L0 
     /tmp/cc4P17Q2.s:19     .text:0000000000000008 .L0 
     /tmp/cc4P17Q2.s:21     .text:000000000000000c .L0 
          src/main.c:10     .text:000000000000000c .L0 
     /tmp/cc4P17Q2.s:28     .text:0000000000000010 .L0 
          src/main.c:13     .text:0000000000000010 .L0 
     /tmp/cc4P17Q2.s:34     .text:0000000000000014 .L0 
     /tmp/cc4P17Q2.s:36     .text:0000000000000014 .L0 
     /tmp/cc4P17Q2.s:39     .text:0000000000000018 .L0 
     /tmp/cc4P17Q2.s:40     .text:0000000000000018 .L0 
          src/main.c:16     .text:000000000000001c .L0 
          src/main.c:18     .text:0000000000000020 .L0 
     /tmp/cc4P17Q2.s:53     .text:0000000000000024 .L0 
     /tmp/cc4P17Q2.s:54     .text:0000000000000028 .L0 
     /tmp/cc4P17Q2.s:55     .text:0000000000000028 .L0 
     /tmp/cc4P17Q2.s:57     .text:000000000000002c .L0 
     /tmp/cc4P17Q2.s:59     .text:0000000000000030 .L0 
     /tmp/cc4P17Q2.s:65     .text:0000000000000030 main
     /tmp/cc4P17Q2.s:68     .text:0000000000000030 .L0 
     /tmp/cc4P17Q2.s:69     .text:0000000000000030 .L0 
     /tmp/cc4P17Q2.s:70     .text:0000000000000034 .L0 
     /tmp/cc4P17Q2.s:73     .text:000000000000003c .L0 
     /tmp/cc4P17Q2.s:74     .text:000000000000003c .L0 
     /tmp/cc4P17Q2.s:76     .text:0000000000000040 .L0 
     /tmp/cc4P17Q2.s:78     .text:0000000000000040 .L0 
     /tmp/cc4P17Q2.s:81     .text:0000000000000048 .L0 
     /tmp/cc4P17Q2.s:88     .text:0000000000000054 .L0 
     /tmp/cc4P17Q2.s:95     .text:000000000000005c .L0 
     /tmp/cc4P17Q2.s:99     .text:000000000000006c .L0 
     /tmp/cc4P17Q2.s:100    .text:000000000000006c .L0 
     /tmp/cc4P17Q2.s:102    .text:0000000000000074 .L0 
     /tmp/cc4P17Q2.s:104    .text:0000000000000078 .L0 
     /tmp/cc4P17Q2.s:105    .text:0000000000000078 .L0 
     /tmp/cc4P17Q2.s:107    .text:000000000000007c .L0 
     /tmp/cc4P17Q2.s:109    .text:0000000000000080 .L0 
     /tmp/cc4P17Q2.s:115    .text:0000000000000080 .L0 
                     .debug_frame:0000000000000000 .L0 
     /tmp/cc4P17Q2.s:81     .text:0000000000000048 .L0 
     /tmp/cc4P17Q2.s:95     .text:000000000000005c .L0 
     /tmp/cc4P17Q2.s:301    .debug_abbrev:0000000000000000 .Ldebug_abbrev0
     /tmp/cc4P17Q2.s:620    .debug_str:0000000000000150 .LASF20
     /tmp/cc4P17Q2.s:588    .debug_str:0000000000000053 .LASF21
     /tmp/cc4P17Q2.s:594    .debug_str:0000000000000078 .LASF22
     /tmp/cc4P17Q2.s:5      .text:0000000000000000 .Ltext0
     /tmp/cc4P17Q2.s:112    .text:0000000000000080 .Letext0
     /tmp/cc4P17Q2.s:574    .debug_line:0000000000000000 .Ldebug_line0
     /tmp/cc4P17Q2.s:576    .debug_str:0000000000000000 .LASF0
     /tmp/cc4P17Q2.s:610    .debug_str:00000000000000fc .LASF1
     /tmp/cc4P17Q2.s:598    .debug_str:00000000000000a2 .LASF2
     /tmp/cc4P17Q2.s:592    .debug_str:0000000000000071 .LASF4
     /tmp/cc4P17Q2.s:586    .debug_str:0000000000000041 .LASF3
     /tmp/cc4P17Q2.s:582    .debug_str:000000000000002a .LASF5
GAS LISTING /tmp/cc4P17Q2.s 			page 5


     /tmp/cc4P17Q2.s:590    .debug_str:000000000000005e .LASF6
     /tmp/cc4P17Q2.s:608    .debug_str:00000000000000e9 .LASF7
     /tmp/cc4P17Q2.s:618    .debug_str:0000000000000140 .LASF8
     /tmp/cc4P17Q2.s:578    .debug_str:000000000000000d .LASF9
     /tmp/cc4P17Q2.s:580    .debug_str:000000000000001b .LASF10
     /tmp/cc4P17Q2.s:614    .debug_str:000000000000011f .LASF11
     /tmp/cc4P17Q2.s:584    .debug_str:0000000000000031 .LASF12
     /tmp/cc4P17Q2.s:612    .debug_str:000000000000010f .LASF13
     /tmp/cc4P17Q2.s:596    .debug_str:0000000000000096 .LASF14
     /tmp/cc4P17Q2.s:604    .debug_str:00000000000000cb .LASF15
     /tmp/cc4P17Q2.s:602    .debug_str:00000000000000b5 .LASF16
     /tmp/cc4P17Q2.s:600    .debug_str:00000000000000b0 .LASF17
     /tmp/cc4P17Q2.s:66     .text:0000000000000030 .LFB1
     /tmp/cc4P17Q2.s:110    .text:0000000000000080 .LFE1
     /tmp/cc4P17Q2.s:79     .text:0000000000000048 .LVL4
     /tmp/cc4P17Q2.s:97     .text:000000000000006c .LVL5
     /tmp/cc4P17Q2.s:622    .debug_str:00000000000001ee .LASF18
     /tmp/cc4P17Q2.s:11     .text:0000000000000000 .LFB0
     /tmp/cc4P17Q2.s:60     .text:0000000000000030 .LFE0
     /tmp/cc4P17Q2.s:606    .debug_str:00000000000000e1 .LASF19
     /tmp/cc4P17Q2.s:616    .debug_str:000000000000012e .LASF23
     /tmp/cc4P17Q2.s:116    .debug_info:0000000000000000 .Ldebug_info0

UNDEFINED SYMBOLS
start_main_thread
interupt
userMain
