GAS LISTING /tmp/ccnU32C3.s 			page 1


   1              		.file	"main.c"
   2              		.option nopic
   3              		.option norelax
   4              		.text
   5              	.Ltext0:
   6              		.cfi_sections	.debug_frame
   7              		.align	2
   8              		.globl	body
  10              	body:
  11              	.LFB0:
  12              		.file 1 "src/main.c"
   1:src/main.c    **** //
   2:src/main.c    **** // Created by os on 5/6/26.
   3:src/main.c    **** //
   4:src/main.c    **** #include "APIC.h"
   5:src/main.c    **** #include "../lib/console.h"
   6:src/main.c    **** 
   7:src/main.c    **** // prints arg char 5 times, with a busy-wait between each print
   8:src/main.c    **** // busy-wait forces async preemption (no voluntary yield)
   9:src/main.c    **** void body(void* arg) {
  13              		.loc 1 9 22
  14              		.cfi_startproc
  15              	.LVL0:
  16 0000 130101FD 		addi	sp,sp,-48
  17              		.cfi_def_cfa_offset 48
  18 0004 23341102 		sd	ra,40(sp)
  19 0008 23308102 		sd	s0,32(sp)
  20 000c 233C9100 		sd	s1,24(sp)
  21 0010 23382101 		sd	s2,16(sp)
  22              		.cfi_offset 1, -8
  23              		.cfi_offset 8, -16
  24              		.cfi_offset 9, -24
  25              		.cfi_offset 18, -32
  26 0014 13040103 		addi	s0,sp,48
  27              		.cfi_def_cfa 8, 0
  10:src/main.c    ****     char c = (char)(size_t)arg;
  28              		.loc 1 10 5
  29              		.loc 1 10 10 is_stmt 0
  30 0018 1379F50F 		andi	s2,a0,0xff
  31              	.LVL1:
  11:src/main.c    ****     for (int i = 0; i < 50; i++) {
  32              		.loc 1 11 5 is_stmt 1
  33              	.LBB2:
  34              		.loc 1 11 10
  35              		.loc 1 11 14 is_stmt 0
  36 001c 93040000 		li	s1,0
  37              		.loc 1 11 5
  38 0020 6F000003 		j	.L2
  39              	.LVL2:
  40              	.L4:
  41              	.LBB3:
  12:src/main.c    ****         for (volatile long j = 0; j < 5000000L; j++);
  42              		.loc 1 12 53 is_stmt 1 discriminator 3
  43              		.loc 1 12 49 discriminator 3
  44              		.loc 1 12 50 is_stmt 0 discriminator 3
  45 0024 833784FD 		ld	a5,-40(s0)
  46 0028 93871700 		addi	a5,a5,1
GAS LISTING /tmp/ccnU32C3.s 			page 2


  47 002c 233CF4FC 		sd	a5,-40(s0)
  48              	.L3:
  49              		.loc 1 12 35 is_stmt 1 discriminator 1
  50              		.loc 1 12 37 is_stmt 0 discriminator 1
  51 0030 033784FD 		ld	a4,-40(s0)
  52              		.loc 1 12 9 discriminator 1
  53 0034 B7574C00 		li	a5,5001216
  54 0038 9387F7B3 		addi	a5,a5,-1217
  55 003c E3D4E7FE 		ble	a4,a5,.L4
  56              	.LBE3:
  13:src/main.c    ****         __putc(c);
  57              		.loc 1 13 9 is_stmt 1 discriminator 2
  58 0040 13050900 		mv	a0,s2
  59 0044 97000000 		call	__putc
  59      E7800000 
  60              	.LVL3:
  11:src/main.c    ****     for (int i = 0; i < 50; i++) {
  61              		.loc 1 11 29 discriminator 2
  11:src/main.c    ****     for (int i = 0; i < 50; i++) {
  62              		.loc 1 11 30 is_stmt 0 discriminator 2
  63 004c 9B841400 		addiw	s1,s1,1
  64              	.LVL4:
  65              	.L2:
  11:src/main.c    ****     for (int i = 0; i < 50; i++) {
  66              		.loc 1 11 21 is_stmt 1 discriminator 1
  11:src/main.c    ****     for (int i = 0; i < 50; i++) {
  67              		.loc 1 11 5 is_stmt 0 discriminator 1
  68 0050 93071003 		li	a5,49
  69 0054 63C69700 		bgt	s1,a5,.L7
  12:src/main.c    ****         for (volatile long j = 0; j < 5000000L; j++);
  70              		.loc 1 12 9 is_stmt 1
  71              	.LBB4:
  12:src/main.c    ****         for (volatile long j = 0; j < 5000000L; j++);
  72              		.loc 1 12 14
  12:src/main.c    ****         for (volatile long j = 0; j < 5000000L; j++);
  73              		.loc 1 12 28 is_stmt 0
  74 0058 233C04FC 		sd	zero,-40(s0)
  12:src/main.c    ****         for (volatile long j = 0; j < 5000000L; j++);
  75              		.loc 1 12 9
  76 005c 6FF05FFD 		j	.L3
  77              	.L7:
  78              	.LBE4:
  79              	.LBE2:
  14:src/main.c    ****     }
  15:src/main.c    **** }
  80              		.loc 1 15 1
  81 0060 83308102 		ld	ra,40(sp)
  82              		.cfi_restore 1
  83 0064 03340102 		ld	s0,32(sp)
  84              		.cfi_restore 8
  85              		.cfi_def_cfa 2, 48
  86 0068 83348101 		ld	s1,24(sp)
  87              		.cfi_restore 9
  88              	.LVL5:
  89 006c 03390101 		ld	s2,16(sp)
  90              		.cfi_restore 18
  91              	.LVL6:
GAS LISTING /tmp/ccnU32C3.s 			page 3


  92 0070 13010103 		addi	sp,sp,48
  93              		.cfi_def_cfa_offset 0
  94 0074 67800000 		jr	ra
  95              		.cfi_endproc
  96              	.LFE0:
  98              		.align	2
  99              		.globl	userMain
 101              	userMain:
 102              	.LFB1:
  16:src/main.c    **** 
  17:src/main.c    **** void userMain() {
 103              		.loc 1 17 17 is_stmt 1
 104              		.cfi_startproc
 105 0078 130101FD 		addi	sp,sp,-48
 106              		.cfi_def_cfa_offset 48
 107 007c 23341102 		sd	ra,40(sp)
 108 0080 23308102 		sd	s0,32(sp)
 109              		.cfi_offset 1, -8
 110              		.cfi_offset 8, -16
 111 0084 13040103 		addi	s0,sp,48
 112              		.cfi_def_cfa 8, 0
  18:src/main.c    ****     thread_t t1, t2, t3;
 113              		.loc 1 18 5
  19:src/main.c    ****     thread_create(&t1, body, (void*)'A');
 114              		.loc 1 19 5
 115 0088 13061004 		li	a2,65
 116 008c 97050000 		lla	a1,body
 116      93850500 
 117 0094 130584FE 		addi	a0,s0,-24
 118 0098 97000000 		call	thread_create
 118      E7800000 
 119              	.LVL7:
  20:src/main.c    ****     thread_create(&t2, body, (void*)'B');
 120              		.loc 1 20 5
 121 00a0 13062004 		li	a2,66
 122 00a4 97050000 		lla	a1,body
 122      93850500 
 123 00ac 130504FE 		addi	a0,s0,-32
 124 00b0 97000000 		call	thread_create
 124      E7800000 
 125              	.LVL8:
  21:src/main.c    ****     thread_create(&t3, body, (void*)'C');
 126              		.loc 1 21 5
 127 00b8 13063004 		li	a2,67
 128 00bc 97050000 		lla	a1,body
 128      93850500 
 129 00c4 130584FD 		addi	a0,s0,-40
 130 00c8 97000000 		call	thread_create
 130      E7800000 
 131              	.LVL9:
  22:src/main.c    ****     thread_dispatch();
 132              		.loc 1 22 5
 133 00d0 97000000 		call	thread_dispatch
 133      E7800000 
 134              	.LVL10:
  23:src/main.c    ****     __putc('\n');
 135              		.loc 1 23 5
GAS LISTING /tmp/ccnU32C3.s 			page 4


 136 00d8 1305A000 		li	a0,10
 137 00dc 97000000 		call	__putc
 137      E7800000 
 138              	.LVL11:
 139              	.L9:
  24:src/main.c    ****     while (1) {}
 140              		.loc 1 24 5 discriminator 1
 141              		.loc 1 24 16 discriminator 1
 142              		.loc 1 24 11 discriminator 1
 143 00e4 6F000000 		j	.L9
 144              		.cfi_endproc
 145              	.LFE1:
 147              		.align	2
 148              		.globl	drop_to_user
 150              	drop_to_user:
 151              	.LFB2:
  25:src/main.c    **** }
  26:src/main.c    **** 
  27:src/main.c    **** 
  28:src/main.c    **** 
  29:src/main.c    **** 
  30:src/main.c    **** void drop_to_user(void (*fn)()) {
 152              		.loc 1 30 33
 153              		.cfi_startproc
 154              	.LVL12:
 155 00e8 130101FF 		addi	sp,sp,-16
 156              		.cfi_def_cfa_offset 16
 157 00ec 23348100 		sd	s0,8(sp)
 158              		.cfi_offset 8, -8
 159 00f0 13040101 		addi	s0,sp,16
 160              		.cfi_def_cfa 8, 0
  31:src/main.c    ****     __asm__ volatile ("csrw sepc, %0" :: "r"(fn));
 161              		.loc 1 31 5
 162              	#APP
 163              	# 31 "src/main.c" 1
  32              	
  33:src/main.c    ****     uint64 sstatus;
 164              		csrw sepc, a0
 165              	# 0 "" 2
 166              		.loc 1 33 5
  34:src/main.c    ****     __asm__ volatile ("csrr %0, sstatus" : "=r"(sstatus));
 167              		.loc 1 34 5
 168              	# 34 "src/main.c" 1
  35              	    sstatus &= ~(1UL << 8);
 169              		csrr a5, sstatus
 170              	# 0 "" 2
 171              	.LVL13:
 172              		.loc 1 35 5
 173              		.loc 1 35 13 is_stmt 0
 174              	#NO_APP
 175 00fc 93F7F7EF 		andi	a5,a5,-257
 176              	.LVL14:
  36:src/main.c    ****     sstatus |=  (1UL << 5);
 177              		.loc 1 36 5 is_stmt 1
 178              		.loc 1 36 13 is_stmt 0
 179 0100 93E70702 		ori	a5,a5,32
 180              	.LVL15:
GAS LISTING /tmp/ccnU32C3.s 			page 5


  37:src/main.c    ****     __asm__ volatile ("csrw sstatus, %0" :: "r"(sstatus));
 181              		.loc 1 37 5 is_stmt 1
 182              	#APP
 183              	# 37 "src/main.c" 1
  38              	
  39:src/main.c    ****     __asm__ volatile ("sret");
 184              		csrw sstatus, a5
 185              	# 0 "" 2
 186              		.loc 1 39 5
 187              	# 39 "src/main.c" 1
  40              	}
 188              		sret
 189              	# 0 "" 2
 190              		.loc 1 40 1 is_stmt 0
 191              	#NO_APP
 192 010c 03348100 		ld	s0,8(sp)
 193              		.cfi_restore 8
 194              		.cfi_def_cfa 2, 16
 195 0110 13010101 		addi	sp,sp,16
 196              		.cfi_def_cfa_offset 0
 197 0114 67800000 		jr	ra
 198              		.cfi_endproc
 199              	.LFE2:
 201              		.align	2
 202              		.globl	main
 204              	main:
 205              	.LFB3:
  41:src/main.c    **** void interupt();
  42:src/main.c    **** int main() {
 206              		.loc 1 42 12 is_stmt 1
 207              		.cfi_startproc
 208 0118 130101FF 		addi	sp,sp,-16
 209              		.cfi_def_cfa_offset 16
 210 011c 23341100 		sd	ra,8(sp)
 211 0120 23308100 		sd	s0,0(sp)
 212              		.cfi_offset 1, -8
 213              		.cfi_offset 8, -16
 214 0124 13040101 		addi	s0,sp,16
 215              		.cfi_def_cfa 8, 0
  43:src/main.c    ****     start_main_thread();
 216              		.loc 1 43 5
 217 0128 97000000 		call	start_main_thread
 217      E7800000 
 218              	.LVL16:
  44:src/main.c    ****     __asm__ volatile("csrw stvec, %[v]" :: [v]"r"(&interupt));
 219              		.loc 1 44 5
 220 0130 97070000 		lla	a5,interupt
 220      93870700 
 221              	#APP
 222              	# 44 "src/main.c" 1
  45              	    __asm__ volatile("csrw sie, %0"    :: "r"((uint64)0x2));  // enable SSIE (timer)
 223              		csrw stvec, a5
 224              	# 0 "" 2
 225              		.loc 1 45 5
 226              	#NO_APP
 227 013c 93072000 		li	a5,2
 228              	#APP
GAS LISTING /tmp/ccnU32C3.s 			page 6


 229              	# 45 "src/main.c" 1
  46              	    drop_to_user(userMain);
 230              		csrw sie, a5
 231              	# 0 "" 2
 232              		.loc 1 46 5
 233              	#NO_APP
 234 0144 17050000 		lla	a0,userMain
 234      13050500 
 235 014c 97000000 		call	drop_to_user
 235      E7800000 
 236              	.LVL17:
  47:src/main.c    ****     return 0;
 237              		.loc 1 47 5
  48:src/main.c    **** }...
 238              		.loc 1 48 1 is_stmt 0
 239 0154 13050000 		li	a0,0
 240 0158 83308100 		ld	ra,8(sp)
 241              		.cfi_restore 1
 242 015c 03340100 		ld	s0,0(sp)
 243              		.cfi_restore 8
 244              		.cfi_def_cfa 2, 16
 245 0160 13010101 		addi	sp,sp,16
 246              		.cfi_def_cfa_offset 0
 247 0164 67800000 		jr	ra
 248              		.cfi_endproc
 249              	.LFE3:
 251              	.Letext0:
 252              		.file 2 "src/../lib/hw.h"
 253              		.file 3 "src/APIC.h"
 254              		.file 4 "src/../lib/console.h"
GAS LISTING /tmp/ccnU32C3.s 			page 7


DEFINED SYMBOLS
                            *ABS*:0000000000000000 main.c
     /tmp/ccnU32C3.s:10     .text:0000000000000000 body
     /tmp/ccnU32C3.s:14     .text:0000000000000000 .L0 
     /tmp/ccnU32C3.s:16     .text:0000000000000000 .L0 
     /tmp/ccnU32C3.s:17     .text:0000000000000004 .L0 
     /tmp/ccnU32C3.s:22     .text:0000000000000014 .L0 
     /tmp/ccnU32C3.s:23     .text:0000000000000014 .L0 
     /tmp/ccnU32C3.s:24     .text:0000000000000014 .L0 
     /tmp/ccnU32C3.s:25     .text:0000000000000014 .L0 
     /tmp/ccnU32C3.s:27     .text:0000000000000018 .L0 
     /tmp/ccnU32C3.s:29     .text:0000000000000018 .L0 
     /tmp/ccnU32C3.s:30     .text:0000000000000018 .L0 
     /tmp/ccnU32C3.s:34     .text:000000000000001c .L0 
     /tmp/ccnU32C3.s:35     .text:000000000000001c .L0 
     /tmp/ccnU32C3.s:36     .text:000000000000001c .L0 
     /tmp/ccnU32C3.s:38     .text:0000000000000020 .L0 
     /tmp/ccnU32C3.s:43     .text:0000000000000024 .L0 
     /tmp/ccnU32C3.s:44     .text:0000000000000024 .L0 
     /tmp/ccnU32C3.s:45     .text:0000000000000024 .L0 
     /tmp/ccnU32C3.s:50     .text:0000000000000030 .L0 
     /tmp/ccnU32C3.s:51     .text:0000000000000030 .L0 
     /tmp/ccnU32C3.s:53     .text:0000000000000034 .L0 
     /tmp/ccnU32C3.s:58     .text:0000000000000040 .L0 
     /tmp/ccnU32C3.s:62     .text:000000000000004c .L0 
     /tmp/ccnU32C3.s:63     .text:000000000000004c .L0 
     /tmp/ccnU32C3.s:67     .text:0000000000000050 .L0 
     /tmp/ccnU32C3.s:68     .text:0000000000000050 .L0 
     /tmp/ccnU32C3.s:72     .text:0000000000000058 .L0 
     /tmp/ccnU32C3.s:73     .text:0000000000000058 .L0 
     /tmp/ccnU32C3.s:74     .text:0000000000000058 .L0 
     /tmp/ccnU32C3.s:76     .text:000000000000005c .L0 
     /tmp/ccnU32C3.s:81     .text:0000000000000060 .L0 
     /tmp/ccnU32C3.s:82     .text:0000000000000064 .L0 
     /tmp/ccnU32C3.s:84     .text:0000000000000068 .L0 
     /tmp/ccnU32C3.s:85     .text:0000000000000068 .L0 
     /tmp/ccnU32C3.s:87     .text:000000000000006c .L0 
     /tmp/ccnU32C3.s:90     .text:0000000000000070 .L0 
     /tmp/ccnU32C3.s:93     .text:0000000000000074 .L0 
     /tmp/ccnU32C3.s:95     .text:0000000000000078 .L0 
     /tmp/ccnU32C3.s:101    .text:0000000000000078 userMain
     /tmp/ccnU32C3.s:104    .text:0000000000000078 .L0 
     /tmp/ccnU32C3.s:105    .text:0000000000000078 .L0 
     /tmp/ccnU32C3.s:106    .text:000000000000007c .L0 
     /tmp/ccnU32C3.s:109    .text:0000000000000084 .L0 
     /tmp/ccnU32C3.s:110    .text:0000000000000084 .L0 
     /tmp/ccnU32C3.s:112    .text:0000000000000088 .L0 
     /tmp/ccnU32C3.s:114    .text:0000000000000088 .L0 
     /tmp/ccnU32C3.s:115    .text:0000000000000088 .L0 
     /tmp/ccnU32C3.s:121    .text:00000000000000a0 .L0 
     /tmp/ccnU32C3.s:127    .text:00000000000000b8 .L0 
     /tmp/ccnU32C3.s:133    .text:00000000000000d0 .L0 
     /tmp/ccnU32C3.s:136    .text:00000000000000d8 .L0 
     /tmp/ccnU32C3.s:141    .text:00000000000000e4 .L0 
     /tmp/ccnU32C3.s:142    .text:00000000000000e4 .L0 
     /tmp/ccnU32C3.s:143    .text:00000000000000e4 .L0 
     /tmp/ccnU32C3.s:144    .text:00000000000000e8 .L0 
GAS LISTING /tmp/ccnU32C3.s 			page 8


     /tmp/ccnU32C3.s:150    .text:00000000000000e8 drop_to_user
     /tmp/ccnU32C3.s:153    .text:00000000000000e8 .L0 
     /tmp/ccnU32C3.s:155    .text:00000000000000e8 .L0 
     /tmp/ccnU32C3.s:156    .text:00000000000000ec .L0 
     /tmp/ccnU32C3.s:158    .text:00000000000000f0 .L0 
     /tmp/ccnU32C3.s:160    .text:00000000000000f4 .L0 
          src/main.c:31     .text:00000000000000f4 .L0 
     /tmp/ccnU32C3.s:167    .text:00000000000000f8 .L0 
          src/main.c:34     .text:00000000000000f8 .L0 
     /tmp/ccnU32C3.s:173    .text:00000000000000fc .L0 
     /tmp/ccnU32C3.s:175    .text:00000000000000fc .L0 
     /tmp/ccnU32C3.s:178    .text:0000000000000100 .L0 
     /tmp/ccnU32C3.s:179    .text:0000000000000100 .L0 
          src/main.c:37     .text:0000000000000104 .L0 
          src/main.c:39     .text:0000000000000108 .L0 
     /tmp/ccnU32C3.s:192    .text:000000000000010c .L0 
     /tmp/ccnU32C3.s:193    .text:0000000000000110 .L0 
     /tmp/ccnU32C3.s:194    .text:0000000000000110 .L0 
     /tmp/ccnU32C3.s:196    .text:0000000000000114 .L0 
     /tmp/ccnU32C3.s:198    .text:0000000000000118 .L0 
     /tmp/ccnU32C3.s:204    .text:0000000000000118 main
     /tmp/ccnU32C3.s:207    .text:0000000000000118 .L0 
     /tmp/ccnU32C3.s:208    .text:0000000000000118 .L0 
     /tmp/ccnU32C3.s:209    .text:000000000000011c .L0 
     /tmp/ccnU32C3.s:212    .text:0000000000000124 .L0 
     /tmp/ccnU32C3.s:213    .text:0000000000000124 .L0 
     /tmp/ccnU32C3.s:215    .text:0000000000000128 .L0 
     /tmp/ccnU32C3.s:217    .text:0000000000000128 .L0 
     /tmp/ccnU32C3.s:220    .text:0000000000000130 .L0 
     /tmp/ccnU32C3.s:227    .text:000000000000013c .L0 
     /tmp/ccnU32C3.s:234    .text:0000000000000144 .L0 
     /tmp/ccnU32C3.s:238    .text:0000000000000154 .L0 
     /tmp/ccnU32C3.s:239    .text:0000000000000154 .L0 
     /tmp/ccnU32C3.s:241    .text:000000000000015c .L0 
     /tmp/ccnU32C3.s:243    .text:0000000000000160 .L0 
     /tmp/ccnU32C3.s:244    .text:0000000000000160 .L0 
     /tmp/ccnU32C3.s:246    .text:0000000000000164 .L0 
     /tmp/ccnU32C3.s:248    .text:0000000000000168 .L0 
     /tmp/ccnU32C3.s:255    .text:0000000000000168 .L0 
                     .debug_frame:0000000000000000 .L0 
     /tmp/ccnU32C3.s:116    .text:000000000000008c .L0 
     /tmp/ccnU32C3.s:122    .text:00000000000000a4 .L0 
     /tmp/ccnU32C3.s:128    .text:00000000000000bc .L0 
     /tmp/ccnU32C3.s:220    .text:0000000000000130 .L0 
     /tmp/ccnU32C3.s:234    .text:0000000000000144 .L0 
     /tmp/ccnU32C3.s:65     .text:0000000000000050 .L2
     /tmp/ccnU32C3.s:40     .text:0000000000000024 .L4
     /tmp/ccnU32C3.s:77     .text:0000000000000060 .L7
     /tmp/ccnU32C3.s:48     .text:0000000000000030 .L3
     /tmp/ccnU32C3.s:139    .text:00000000000000e4 .L9
     /tmp/ccnU32C3.s:662    .debug_abbrev:0000000000000000 .Ldebug_abbrev0
     /tmp/ccnU32C3.s:1182   .debug_str:000000000000018a .LASF28
     /tmp/ccnU32C3.s:1140   .debug_str:000000000000006a .LASF29
     /tmp/ccnU32C3.s:1146   .debug_str:000000000000008f .LASF30
     /tmp/ccnU32C3.s:5      .text:0000000000000000 .Ltext0
     /tmp/ccnU32C3.s:251    .text:0000000000000168 .Letext0
     /tmp/ccnU32C3.s:1122   .debug_line:0000000000000000 .Ldebug_line0
GAS LISTING /tmp/ccnU32C3.s 			page 9


     /tmp/ccnU32C3.s:1126   .debug_str:0000000000000005 .LASF0
     /tmp/ccnU32C3.s:1170   .debug_str:000000000000013a .LASF1
     /tmp/ccnU32C3.s:1152   .debug_str:00000000000000c2 .LASF2
     /tmp/ccnU32C3.s:1144   .debug_str:0000000000000088 .LASF4
     /tmp/ccnU32C3.s:1138   .debug_str:0000000000000058 .LASF3
     /tmp/ccnU32C3.s:1132   .debug_str:000000000000002f .LASF5
     /tmp/ccnU32C3.s:1142   .debug_str:0000000000000075 .LASF6
     /tmp/ccnU32C3.s:1168   .debug_str:0000000000000127 .LASF7
     /tmp/ccnU32C3.s:1178   .debug_str:0000000000000175 .LASF8
     /tmp/ccnU32C3.s:1128   .debug_str:0000000000000012 .LASF9
     /tmp/ccnU32C3.s:1130   .debug_str:0000000000000020 .LASF10
     /tmp/ccnU32C3.s:1174   .debug_str:000000000000015d .LASF11
     /tmp/ccnU32C3.s:1134   .debug_str:0000000000000036 .LASF12
     /tmp/ccnU32C3.s:1172   .debug_str:000000000000014d .LASF13
     /tmp/ccnU32C3.s:1150   .debug_str:00000000000000b6 .LASF14
     /tmp/ccnU32C3.s:1164   .debug_str:0000000000000109 .LASF15
     /tmp/ccnU32C3.s:1160   .debug_str:00000000000000ea .LASF16
     /tmp/ccnU32C3.s:1148   .debug_str:00000000000000ad .LASF17
     /tmp/ccnU32C3.s:1156   .debug_str:00000000000000de .LASF18
     /tmp/ccnU32C3.s:205    .text:0000000000000118 .LFB3
     /tmp/ccnU32C3.s:249    .text:0000000000000168 .LFE3
     /tmp/ccnU32C3.s:218    .text:0000000000000130 .LVL16
     /tmp/ccnU32C3.s:236    .text:0000000000000154 .LVL17
     /tmp/ccnU32C3.s:1186   .debug_str:0000000000000238 .LASF19
     /tmp/ccnU32C3.s:151    .text:00000000000000e8 .LFB2
     /tmp/ccnU32C3.s:199    .text:0000000000000118 .LFE2
     /tmp/ccnU32C3.s:1166   .debug_str:000000000000011f .LASF20
     /tmp/ccnU32C3.s:1162   .debug_str:0000000000000100 .LASF31
     /tmp/ccnU32C3.s:102    .text:0000000000000078 .LFB1
     /tmp/ccnU32C3.s:145    .text:00000000000000e8 .LFE1
     /tmp/ccnU32C3.s:119    .text:00000000000000a0 .LVL7
     /tmp/ccnU32C3.s:125    .text:00000000000000b8 .LVL8
     /tmp/ccnU32C3.s:131    .text:00000000000000d0 .LVL9
     /tmp/ccnU32C3.s:134    .text:00000000000000d8 .LVL10
     /tmp/ccnU32C3.s:138    .text:00000000000000e4 .LVL11
     /tmp/ccnU32C3.s:1124   .debug_str:0000000000000000 .LASF21
     /tmp/ccnU32C3.s:11     .text:0000000000000000 .LFB0
     /tmp/ccnU32C3.s:96     .text:0000000000000078 .LFE0
     /tmp/ccnU32C3.s:1061   .debug_loc:0000000000000000 .LLST0
     /tmp/ccnU32C3.s:1075   .debug_loc:0000000000000039 .LLST1
     /tmp/ccnU32C3.s:33     .text:000000000000001c .LBB2
     /tmp/ccnU32C3.s:79     .text:0000000000000060 .LBE2
     /tmp/ccnU32C3.s:1089   .debug_loc:0000000000000072 .LLST2
     /tmp/ccnU32C3.s:1114   .debug_ranges:0000000000000000 .Ldebug_ranges0
     /tmp/ccnU32C3.s:60     .text:000000000000004c .LVL3
     /tmp/ccnU32C3.s:1180   .debug_str:0000000000000185 .LASF22
     /tmp/ccnU32C3.s:1176   .debug_str:000000000000016c .LASF23
     /tmp/ccnU32C3.s:1136   .debug_str:0000000000000046 .LASF24
     /tmp/ccnU32C3.s:1154   .debug_str:00000000000000d0 .LASF25
     /tmp/ccnU32C3.s:1184   .debug_str:0000000000000228 .LASF26
     /tmp/ccnU32C3.s:1158   .debug_str:00000000000000e3 .LASF27
     /tmp/ccnU32C3.s:15     .text:0000000000000000 .LVL0
     /tmp/ccnU32C3.s:39     .text:0000000000000024 .LVL2
     /tmp/ccnU32C3.s:31     .text:000000000000001c .LVL1
     /tmp/ccnU32C3.s:91     .text:0000000000000070 .LVL6
     /tmp/ccnU32C3.s:88     .text:000000000000006c .LVL5
     /tmp/ccnU32C3.s:256    .debug_info:0000000000000000 .Ldebug_info0
GAS LISTING /tmp/ccnU32C3.s 			page 10


     /tmp/ccnU32C3.s:41     .text:0000000000000024 .LBB3
     /tmp/ccnU32C3.s:56     .text:0000000000000040 .LBE3
     /tmp/ccnU32C3.s:71     .text:0000000000000058 .LBB4
     /tmp/ccnU32C3.s:78     .text:0000000000000060 .LBE4

UNDEFINED SYMBOLS
__putc
thread_create
thread_dispatch
start_main_thread
interupt
