GAS LISTING /tmp/cc5FLBzq.s 			page 1


   1              		.file	"mainB.cpp"
   2              		.option pic
   3              		.option norelax
   4              		.text
   5              	.Ltext0:
   6              		.align	2
   7              		.globl	_Z5mainAv
   9              	_Z5mainAv:
  10              	.LFB0:
  11              		.file 1 "src/mainB.cpp"
   1:src/mainB.cpp **** #include "../lib/console.h"
   2:src/mainB.cpp **** #include "MemoryAllocator.hpp"
   3:src/mainB.cpp **** void mainA(){
  12              		.loc 1 3 13
  13              		.cfi_startproc
  14 0000 130101FD 		addi	sp,sp,-48
  15              		.cfi_def_cfa_offset 48
  16 0004 23341102 		sd	ra,40(sp)
  17 0008 23308102 		sd	s0,32(sp)
  18 000c 233C9100 		sd	s1,24(sp)
  19 0010 23382101 		sd	s2,16(sp)
  20              		.cfi_offset 1, -8
  21              		.cfi_offset 8, -16
  22              		.cfi_offset 9, -24
  23              		.cfi_offset 18, -32
  24 0014 13040103 		addi	s0,sp,48
  25              		.cfi_def_cfa 8, 0
   4:src/mainB.cpp ****     MemoryAllocator memAlloc = MemoryAllocator::GetInstance();
  26              		.loc 1 4 5
  27              		.loc 1 4 61 is_stmt 0
  28 0018 97000000 		call	_ZN15MemoryAllocator11GetInstanceEv@plt
  28      E7800000 
  29              	.LVL0:
  30 0020 83370500 		ld	a5,0(a0)
  31 0024 233CF4FC 		sd	a5,-40(s0)
   5:src/mainB.cpp **** 
   6:src/mainB.cpp ****     char* a1 = (char*)memAlloc.AllocateFragment(sizeof(char)*20);
  32              		.loc 1 6 5 is_stmt 1
  33              		.loc 1 6 48 is_stmt 0
  34 0028 93054001 		li	a1,20
  35 002c 130984FD 		addi	s2,s0,-40
  36 0030 13050900 		mv	a0,s2
  37 0034 97000000 		call	_ZN15MemoryAllocator16AllocateFragmentEm@plt
  37      E7800000 
  38              	.LVL1:
  39 003c 93040500 		mv	s1,a0
  40              	.LVL2:
   7:src/mainB.cpp ****     *a1 = 'a';
  41              		.loc 1 7 5 is_stmt 1
  42              		.loc 1 7 9 is_stmt 0
  43 0040 93071006 		li	a5,97
  44 0044 2300F500 		sb	a5,0(a0)
   8:src/mainB.cpp ****     *(a1+sizeof(char)) ='b';
  45              		.loc 1 8 5 is_stmt 1
  46              		.loc 1 8 24 is_stmt 0
  47 0048 93072006 		li	a5,98
  48 004c A300F500 		sb	a5,1(a0)
GAS LISTING /tmp/cc5FLBzq.s 			page 2


   9:src/mainB.cpp ****     __putc(*a1);
  49              		.loc 1 9 5 is_stmt 1
  50              		.loc 1 9 11 is_stmt 0
  51 0050 13051006 		li	a0,97
  52 0054 97000000 		call	__putc@plt
  52      E7800000 
  53              	.LVL3:
  10:src/mainB.cpp ****     __putc(*(a1+1));
  54              		.loc 1 10 5 is_stmt 1
  55              		.loc 1 10 11 is_stmt 0
  56 005c 03C51400 		lbu	a0,1(s1)
  57 0060 97000000 		call	__putc@plt
  57      E7800000 
  58              	.LVL4:
  11:src/mainB.cpp ****     *(a1+11) = 'h';
  59              		.loc 1 11 5 is_stmt 1
  60              		.loc 1 11 14 is_stmt 0
  61 0068 93078006 		li	a5,104
  62 006c A385F400 		sb	a5,11(s1)
  12:src/mainB.cpp ****     char* a2 = (char*)memAlloc.AllocateFragment(sizeof(char)*10);
  63              		.loc 1 12 5 is_stmt 1
  64              		.loc 1 12 48 is_stmt 0
  65 0070 9305A000 		li	a1,10
  66 0074 13050900 		mv	a0,s2
  67 0078 97000000 		call	_ZN15MemoryAllocator16AllocateFragmentEm@plt
  67      E7800000 
  68              	.LVL5:
  13:src/mainB.cpp ****     *a2 = 'c';
  69              		.loc 1 13 5 is_stmt 1
  70              		.loc 1 13 9 is_stmt 0
  71 0080 93073006 		li	a5,99
  72 0084 2300F500 		sb	a5,0(a0)
  14:src/mainB.cpp ****     *(a2+sizeof(char)) ='d';
  73              		.loc 1 14 5 is_stmt 1
  74              		.loc 1 14 24 is_stmt 0
  75 0088 93074006 		li	a5,100
  76 008c A300F500 		sb	a5,1(a0)
  15:src/mainB.cpp ****     memAlloc.FreeFragment(a1);
  77              		.loc 1 15 5 is_stmt 1
  78              		.loc 1 15 26 is_stmt 0
  79 0090 93850400 		mv	a1,s1
  80 0094 13050900 		mv	a0,s2
  81              	.LVL6:
  82 0098 97000000 		call	_ZN15MemoryAllocator12FreeFragmentEPv@plt
  82      E7800000 
  83              	.LVL7:
  16:src/mainB.cpp ****     char* a3 = (char*)memAlloc.AllocateFragment(sizeof(char)*10);
  84              		.loc 1 16 5 is_stmt 1
  85              		.loc 1 16 48 is_stmt 0
  86 00a0 9305A000 		li	a1,10
  87 00a4 13050900 		mv	a0,s2
  88 00a8 97000000 		call	_ZN15MemoryAllocator16AllocateFragmentEm@plt
  88      E7800000 
  89              	.LVL8:
  90 00b0 13090500 		mv	s2,a0
  91              	.LVL9:
  17:src/mainB.cpp ****     *a3 = 'e';
GAS LISTING /tmp/cc5FLBzq.s 			page 3


  92              		.loc 1 17 5 is_stmt 1
  93              		.loc 1 17 9 is_stmt 0
  94 00b4 93075006 		li	a5,101
  95 00b8 2300F500 		sb	a5,0(a0)
  18:src/mainB.cpp ****     *(a3+sizeof(char)) ='f';
  96              		.loc 1 18 5 is_stmt 1
  97              		.loc 1 18 24 is_stmt 0
  98 00bc 93076006 		li	a5,102
  99 00c0 A300F500 		sb	a5,1(a0)
  19:src/mainB.cpp ****     __putc(*a3);
 100              		.loc 1 19 5 is_stmt 1
 101              		.loc 1 19 11 is_stmt 0
 102 00c4 13055006 		li	a0,101
 103              	.LVL10:
 104 00c8 97000000 		call	__putc@plt
 104      E7800000 
 105              	.LVL11:
  20:src/mainB.cpp ****     __putc(*(a3+11));
 106              		.loc 1 20 5 is_stmt 1
 107              		.loc 1 20 11 is_stmt 0
 108 00d0 0345B900 		lbu	a0,11(s2)
 109 00d4 97000000 		call	__putc@plt
 109      E7800000 
 110              	.LVL12:
  21:src/mainB.cpp ****     __putc(*a1);
 111              		.loc 1 21 5 is_stmt 1
 112              		.loc 1 21 11 is_stmt 0
 113 00dc 03C50400 		lbu	a0,0(s1)
 114 00e0 97000000 		call	__putc@plt
 114      E7800000 
 115              	.LVL13:
  22:src/mainB.cpp ****     __putc(*(a1+1));
 116              		.loc 1 22 5 is_stmt 1
 117              		.loc 1 22 11 is_stmt 0
 118 00e8 03C51400 		lbu	a0,1(s1)
 119 00ec 97000000 		call	__putc@plt
 119      E7800000 
 120              	.LVL14:
  23:src/mainB.cpp **** 
  24:src/mainB.cpp **** 
  25:src/mainB.cpp **** }...
 121              		.loc 1 25 1
 122 00f4 83308102 		ld	ra,40(sp)
 123              		.cfi_restore 1
 124 00f8 03340102 		ld	s0,32(sp)
 125              		.cfi_restore 8
 126              		.cfi_def_cfa 2, 48
 127 00fc 83348101 		ld	s1,24(sp)
 128              		.cfi_restore 9
 129              	.LVL15:
 130 0100 03390101 		ld	s2,16(sp)
 131              		.cfi_restore 18
 132              	.LVL16:
 133 0104 13010103 		addi	sp,sp,48
 134              		.cfi_def_cfa_offset 0
 135 0108 67800000 		jr	ra
 136              		.cfi_endproc
GAS LISTING /tmp/cc5FLBzq.s 			page 4


 137              	.LFE0:
 139              	.Letext0:
 140              		.file 2 "src/../lib/hw.h"
 141              		.file 3 "src/MemoryAllocator.hpp"
 142              		.file 4 "src/../lib/console.h"
GAS LISTING /tmp/cc5FLBzq.s 			page 5


DEFINED SYMBOLS
                            *ABS*:0000000000000000 mainB.cpp
     /tmp/cc5FLBzq.s:9      .text:0000000000000000 _Z5mainAv
     /tmp/cc5FLBzq.s:13     .text:0000000000000000 .L0 
     /tmp/cc5FLBzq.s:14     .text:0000000000000000 .L0 
     /tmp/cc5FLBzq.s:15     .text:0000000000000004 .L0 
     /tmp/cc5FLBzq.s:20     .text:0000000000000014 .L0 
     /tmp/cc5FLBzq.s:21     .text:0000000000000014 .L0 
     /tmp/cc5FLBzq.s:22     .text:0000000000000014 .L0 
     /tmp/cc5FLBzq.s:23     .text:0000000000000014 .L0 
     /tmp/cc5FLBzq.s:25     .text:0000000000000018 .L0 
     /tmp/cc5FLBzq.s:27     .text:0000000000000018 .L0 
     /tmp/cc5FLBzq.s:28     .text:0000000000000018 .L0 
     /tmp/cc5FLBzq.s:33     .text:0000000000000028 .L0 
     /tmp/cc5FLBzq.s:34     .text:0000000000000028 .L0 
     /tmp/cc5FLBzq.s:42     .text:0000000000000040 .L0 
     /tmp/cc5FLBzq.s:43     .text:0000000000000040 .L0 
     /tmp/cc5FLBzq.s:46     .text:0000000000000048 .L0 
     /tmp/cc5FLBzq.s:47     .text:0000000000000048 .L0 
     /tmp/cc5FLBzq.s:50     .text:0000000000000050 .L0 
     /tmp/cc5FLBzq.s:51     .text:0000000000000050 .L0 
     /tmp/cc5FLBzq.s:55     .text:000000000000005c .L0 
     /tmp/cc5FLBzq.s:56     .text:000000000000005c .L0 
     /tmp/cc5FLBzq.s:60     .text:0000000000000068 .L0 
     /tmp/cc5FLBzq.s:61     .text:0000000000000068 .L0 
     /tmp/cc5FLBzq.s:64     .text:0000000000000070 .L0 
     /tmp/cc5FLBzq.s:65     .text:0000000000000070 .L0 
     /tmp/cc5FLBzq.s:70     .text:0000000000000080 .L0 
     /tmp/cc5FLBzq.s:71     .text:0000000000000080 .L0 
     /tmp/cc5FLBzq.s:74     .text:0000000000000088 .L0 
     /tmp/cc5FLBzq.s:75     .text:0000000000000088 .L0 
     /tmp/cc5FLBzq.s:78     .text:0000000000000090 .L0 
     /tmp/cc5FLBzq.s:79     .text:0000000000000090 .L0 
     /tmp/cc5FLBzq.s:85     .text:00000000000000a0 .L0 
     /tmp/cc5FLBzq.s:86     .text:00000000000000a0 .L0 
     /tmp/cc5FLBzq.s:93     .text:00000000000000b4 .L0 
     /tmp/cc5FLBzq.s:94     .text:00000000000000b4 .L0 
     /tmp/cc5FLBzq.s:97     .text:00000000000000bc .L0 
     /tmp/cc5FLBzq.s:98     .text:00000000000000bc .L0 
     /tmp/cc5FLBzq.s:101    .text:00000000000000c4 .L0 
     /tmp/cc5FLBzq.s:102    .text:00000000000000c4 .L0 
     /tmp/cc5FLBzq.s:107    .text:00000000000000d0 .L0 
     /tmp/cc5FLBzq.s:108    .text:00000000000000d0 .L0 
     /tmp/cc5FLBzq.s:112    .text:00000000000000dc .L0 
     /tmp/cc5FLBzq.s:113    .text:00000000000000dc .L0 
     /tmp/cc5FLBzq.s:117    .text:00000000000000e8 .L0 
     /tmp/cc5FLBzq.s:118    .text:00000000000000e8 .L0 
     /tmp/cc5FLBzq.s:122    .text:00000000000000f4 .L0 
     /tmp/cc5FLBzq.s:123    .text:00000000000000f8 .L0 
     /tmp/cc5FLBzq.s:125    .text:00000000000000fc .L0 
     /tmp/cc5FLBzq.s:126    .text:00000000000000fc .L0 
     /tmp/cc5FLBzq.s:128    .text:0000000000000100 .L0 
     /tmp/cc5FLBzq.s:131    .text:0000000000000104 .L0 
     /tmp/cc5FLBzq.s:134    .text:0000000000000108 .L0 
     /tmp/cc5FLBzq.s:136    .text:000000000000010c .L0 
     /tmp/cc5FLBzq.s:143    .text:000000000000010c .L0 
     /tmp/cc5FLBzq.s:563    .debug_abbrev:0000000000000000 .Ldebug_abbrev0
GAS LISTING /tmp/cc5FLBzq.s 			page 6


     /tmp/cc5FLBzq.s:1038   .debug_str:0000000000000102 .LASF35
     /tmp/cc5FLBzq.s:1010   .debug_str:000000000000002a .LASF36
     /tmp/cc5FLBzq.s:1028   .debug_str:00000000000000a9 .LASF37
     /tmp/cc5FLBzq.s:5      .text:0000000000000000 .Ltext0
     /tmp/cc5FLBzq.s:139    .text:000000000000010c .Letext0
     /tmp/cc5FLBzq.s:1002   .debug_line:0000000000000000 .Ldebug_line0
     /tmp/cc5FLBzq.s:1048   .debug_str:00000000000001f6 .LASF0
     /tmp/cc5FLBzq.s:1032   .debug_str:00000000000000d9 .LASF1
     /tmp/cc5FLBzq.s:1026   .debug_str:000000000000009b .LASF2
     /tmp/cc5FLBzq.s:1068   .debug_str:000000000000028f .LASF3
     /tmp/cc5FLBzq.s:1014   .debug_str:0000000000000046 .LASF4
     /tmp/cc5FLBzq.s:1030   .debug_str:00000000000000c7 .LASF5
     /tmp/cc5FLBzq.s:1008   .debug_str:0000000000000023 .LASF6
     /tmp/cc5FLBzq.s:1004   .debug_str:0000000000000000 .LASF7
     /tmp/cc5FLBzq.s:1022   .debug_str:0000000000000079 .LASF8
     /tmp/cc5FLBzq.s:1056   .debug_str:0000000000000220 .LASF9
     /tmp/cc5FLBzq.s:1012   .debug_str:0000000000000038 .LASF10
     /tmp/cc5FLBzq.s:1086   .debug_str:0000000000000316 .LASF11
     /tmp/cc5FLBzq.s:1024   .debug_str:000000000000008c .LASF12
     /tmp/cc5FLBzq.s:1074   .debug_str:00000000000002c2 .LASF13
     /tmp/cc5FLBzq.s:1060   .debug_str:0000000000000246 .LASF14
     /tmp/cc5FLBzq.s:1034   .debug_str:00000000000000ec .LASF15
     /tmp/cc5FLBzq.s:1018   .debug_str:000000000000005a .LASF16
     /tmp/cc5FLBzq.s:1058   .debug_str:0000000000000230 .LASF17
     /tmp/cc5FLBzq.s:1020   .debug_str:0000000000000070 .LASF22
     /tmp/cc5FLBzq.s:1078   .debug_str:00000000000002fb .LASF18
     /tmp/cc5FLBzq.s:1082   .debug_str:0000000000000305 .LASF19
     /tmp/cc5FLBzq.s:1062   .debug_str:0000000000000256 .LASF20
     /tmp/cc5FLBzq.s:1080   .debug_str:0000000000000300 .LASF21
     /tmp/cc5FLBzq.s:1006   .debug_str:0000000000000013 .LASF23
     /tmp/cc5FLBzq.s:1042   .debug_str:00000000000001df .LASF38
     /tmp/cc5FLBzq.s:1070   .debug_str:0000000000000295 .LASF39
     /tmp/cc5FLBzq.s:1052   .debug_str:0000000000000208 .LASF24
     /tmp/cc5FLBzq.s:1076   .debug_str:00000000000002d2 .LASF26
     /tmp/cc5FLBzq.s:1016   .debug_str:000000000000004d .LASF25
     /tmp/cc5FLBzq.s:1064   .debug_str:000000000000025b .LASF27
     /tmp/cc5FLBzq.s:1044   .debug_str:00000000000001eb .LASF28
     /tmp/cc5FLBzq.s:1040   .debug_str:00000000000001c6 .LASF40
     /tmp/cc5FLBzq.s:1066   .debug_str:0000000000000281 .LASF29
     /tmp/cc5FLBzq.s:1084   .debug_str:000000000000030a .LASF30
     /tmp/cc5FLBzq.s:1046   .debug_str:00000000000001f0 .LASF31
     /tmp/cc5FLBzq.s:1036   .debug_str:00000000000000f8 .LASF32
     /tmp/cc5FLBzq.s:10     .text:0000000000000000 .LFB0
     /tmp/cc5FLBzq.s:137    .text:000000000000010c .LFE0
     /tmp/cc5FLBzq.s:1072   .debug_str:00000000000002b9 .LASF33
     /tmp/cc5FLBzq.s:964    .debug_loc:0000000000000000 .LLST0
     /tmp/cc5FLBzq.s:971    .debug_loc:0000000000000023 .LLST1
     /tmp/cc5FLBzq.s:978    .debug_loc:0000000000000046 .LLST2
     /tmp/cc5FLBzq.s:29     .text:0000000000000020 .LVL0
     /tmp/cc5FLBzq.s:38     .text:000000000000003c .LVL1
     /tmp/cc5FLBzq.s:53     .text:000000000000005c .LVL3
     /tmp/cc5FLBzq.s:58     .text:0000000000000068 .LVL4
     /tmp/cc5FLBzq.s:68     .text:0000000000000080 .LVL5
     /tmp/cc5FLBzq.s:83     .text:00000000000000a0 .LVL7
     /tmp/cc5FLBzq.s:89     .text:00000000000000b0 .LVL8
     /tmp/cc5FLBzq.s:105    .text:00000000000000d0 .LVL11
     /tmp/cc5FLBzq.s:110    .text:00000000000000dc .LVL12
GAS LISTING /tmp/cc5FLBzq.s 			page 7


     /tmp/cc5FLBzq.s:115    .text:00000000000000e8 .LVL13
     /tmp/cc5FLBzq.s:120    .text:00000000000000f4 .LVL14
     /tmp/cc5FLBzq.s:1050   .debug_str:0000000000000203 .LASF34
     /tmp/cc5FLBzq.s:1054   .debug_str:0000000000000219 .LASF41
     /tmp/cc5FLBzq.s:40     .text:0000000000000040 .LVL2
     /tmp/cc5FLBzq.s:129    .text:0000000000000100 .LVL15
     /tmp/cc5FLBzq.s:81     .text:0000000000000098 .LVL6
     /tmp/cc5FLBzq.s:91     .text:00000000000000b4 .LVL9
     /tmp/cc5FLBzq.s:103    .text:00000000000000c8 .LVL10
     /tmp/cc5FLBzq.s:132    .text:0000000000000104 .LVL16
     /tmp/cc5FLBzq.s:144    .debug_info:0000000000000000 .Ldebug_info0

UNDEFINED SYMBOLS
_ZN15MemoryAllocator11GetInstanceEv
_ZN15MemoryAllocator16AllocateFragmentEm
__putc
_ZN15MemoryAllocator12FreeFragmentEPv
