GAS LISTING /tmp/ccDa3UcM.s 			page 1


   1              		.file	"main.c"
   2              		.option nopic
   3              		.option norelax
   4              		.text
   5              	.Ltext0:
   6              		.cfi_sections	.debug_frame
   7              		.align	2
   8              		.globl	my_thread_body
  10              	my_thread_body:
  11              	.LFB0:
  12              		.file 1 "src/main.c"
   1:src/main.c    **** //
   2:src/main.c    **** // Created by os on 5/6/26.
   3:src/main.c    **** //
   4:src/main.c    **** #include "APIC.h"
   5:src/main.c    **** #include "../lib/console.h"
   6:src/main.c    **** void my_thread_body(void) {
  13              		.loc 1 6 27
  14              		.cfi_startproc
  15 0000 130101FF 		addi	sp,sp,-16
  16              		.cfi_def_cfa_offset 16
  17 0004 23341100 		sd	ra,8(sp)
  18 0008 23308100 		sd	s0,0(sp)
  19              		.cfi_offset 1, -8
  20              		.cfi_offset 8, -16
  21 000c 13040101 		addi	s0,sp,16
  22              		.cfi_def_cfa 8, 0
   7:src/main.c    ****     __putc('{');
  23              		.loc 1 7 5
  24 0010 1305B007 		li	a0,123
  25 0014 97000000 		call	__putc
  25      E7800000 
  26              	.LVL0:
   8:src/main.c    **** }
  27              		.loc 1 8 1 is_stmt 0
  28 001c 83308100 		ld	ra,8(sp)
  29              		.cfi_restore 1
  30 0020 03340100 		ld	s0,0(sp)
  31              		.cfi_restore 8
  32              		.cfi_def_cfa 2, 16
  33 0024 13010101 		addi	sp,sp,16
  34              		.cfi_def_cfa_offset 0
  35 0028 67800000 		jr	ra
  36              		.cfi_endproc
  37              	.LFE0:
  39              		.align	2
  40              		.globl	my_thread_body2
  42              	my_thread_body2:
  43              	.LFB1:
   9:src/main.c    **** void my_thread_body2(void) {
  44              		.loc 1 9 28 is_stmt 1
  45              		.cfi_startproc
  46 002c 130101FF 		addi	sp,sp,-16
  47              		.cfi_def_cfa_offset 16
  48 0030 23341100 		sd	ra,8(sp)
  49 0034 23308100 		sd	s0,0(sp)
  50              		.cfi_offset 1, -8
GAS LISTING /tmp/ccDa3UcM.s 			page 2


  51              		.cfi_offset 8, -16
  52 0038 13040101 		addi	s0,sp,16
  53              		.cfi_def_cfa 8, 0
  10:src/main.c    ****     __putc('}');
  54              		.loc 1 10 5
  55 003c 1305D007 		li	a0,125
  56 0040 97000000 		call	__putc
  56      E7800000 
  57              	.LVL1:
  11:src/main.c    **** }
  58              		.loc 1 11 1 is_stmt 0
  59 0048 83308100 		ld	ra,8(sp)
  60              		.cfi_restore 1
  61 004c 03340100 		ld	s0,0(sp)
  62              		.cfi_restore 8
  63              		.cfi_def_cfa 2, 16
  64 0050 13010101 		addi	sp,sp,16
  65              		.cfi_def_cfa_offset 0
  66 0054 67800000 		jr	ra
  67              		.cfi_endproc
  68              	.LFE1:
  70              		.align	2
  71              		.globl	my_thread_body3
  73              	my_thread_body3:
  74              	.LFB2:
  12:src/main.c    **** void my_thread_body3(void) {
  75              		.loc 1 12 28 is_stmt 1
  76              		.cfi_startproc
  77 0058 130101FF 		addi	sp,sp,-16
  78              		.cfi_def_cfa_offset 16
  79 005c 23341100 		sd	ra,8(sp)
  80 0060 23308100 		sd	s0,0(sp)
  81              		.cfi_offset 1, -8
  82              		.cfi_offset 8, -16
  83 0064 13040101 		addi	s0,sp,16
  84              		.cfi_def_cfa 8, 0
  13:src/main.c    ****     __putc('3');
  85              		.loc 1 13 5
  86 0068 13053003 		li	a0,51
  87 006c 97000000 		call	__putc
  87      E7800000 
  88              	.LVL2:
  14:src/main.c    **** }
  89              		.loc 1 14 1 is_stmt 0
  90 0074 83308100 		ld	ra,8(sp)
  91              		.cfi_restore 1
  92 0078 03340100 		ld	s0,0(sp)
  93              		.cfi_restore 8
  94              		.cfi_def_cfa 2, 16
  95 007c 13010101 		addi	sp,sp,16
  96              		.cfi_def_cfa_offset 0
  97 0080 67800000 		jr	ra
  98              		.cfi_endproc
  99              	.LFE2:
 101              		.align	2
 102              		.globl	mainU
 104              	mainU:
GAS LISTING /tmp/ccDa3UcM.s 			page 3


 105              	.LFB3:
  15:src/main.c    **** 
  16:src/main.c    **** void mainU(){
 106              		.loc 1 16 13 is_stmt 1
 107              		.cfi_startproc
 108 0084 130101FE 		addi	sp,sp,-32
 109              		.cfi_def_cfa_offset 32
 110 0088 233C1100 		sd	ra,24(sp)
 111 008c 23388100 		sd	s0,16(sp)
 112 0090 23349100 		sd	s1,8(sp)
 113              		.cfi_offset 1, -8
 114              		.cfi_offset 8, -16
 115              		.cfi_offset 9, -24
 116 0094 13040102 		addi	s0,sp,32
 117              		.cfi_def_cfa 8, 0
  17:src/main.c    ****     // char* a1 = mem_alloc(sizeof(char) * 20);
  18:src/main.c    ****     // *a1 = 'a';
  19:src/main.c    ****     // *(a1+sizeof(char)) ='b';
  20:src/main.c    ****     // __putc(*a1);
  21:src/main.c    ****     // __putc(*(a1+1));
  22:src/main.c    ****     // *(a1+11) = 'h';
  23:src/main.c    ****     // char* a2 = mem_alloc(sizeof(char) * 10);
  24:src/main.c    ****     // *a2 = 'c';
  25:src/main.c    ****     // *(a2+sizeof(char)) ='d';
  26:src/main.c    ****     // mem_free(a1);
  27:src/main.c    ****     // char* a3 = mem_alloc(sizeof(char) * 10);
  28:src/main.c    ****     // *(a3+sizeof(char)) ='f';
  29:src/main.c    ****     // __putc(*a3);
  30:src/main.c    ****     // __putc(*(a3+1));
  31:src/main.c    ****     // __putc(*a1);
  32:src/main.c    ****     // __putc(*(a1+1));
  33:src/main.c    ****     thread_t t = thread_create(my_thread_body);
 118              		.loc 1 33 5
 119              		.loc 1 33 18 is_stmt 0
 120 0098 17050000 		lla	a0,my_thread_body
 120      13050500 
 121 00a0 97000000 		call	thread_create
 121      E7800000 
 122              	.LVL3:
  34:src/main.c    ****     thread_start(t);
 123              		.loc 1 34 5 is_stmt 1
 124 00a8 97000000 		call	thread_start
 124      E7800000 
 125              	.LVL4:
  35:src/main.c    ****     thread_t t2 = thread_create(my_thread_body2);
 126              		.loc 1 35 5
 127              		.loc 1 35 19 is_stmt 0
 128 00b0 17050000 		lla	a0,my_thread_body2
 128      13050500 
 129 00b8 97000000 		call	thread_create
 129      E7800000 
 130              	.LVL5:
 131 00c0 93040500 		mv	s1,a0
 132              	.LVL6:
  36:src/main.c    ****     thread_start(t2);
 133              		.loc 1 36 5 is_stmt 1
 134 00c4 97000000 		call	thread_start
GAS LISTING /tmp/ccDa3UcM.s 			page 4


 134      E7800000 
 135              	.LVL7:
  37:src/main.c    ****     thread_t t3 = thread_create(my_thread_body3);
 136              		.loc 1 37 5
 137              		.loc 1 37 19 is_stmt 0
 138 00cc 17050000 		lla	a0,my_thread_body3
 138      13050500 
 139 00d4 97000000 		call	thread_create
 139      E7800000 
 140              	.LVL8:
  38:src/main.c    ****     thread_start(t3);
 141              		.loc 1 38 5 is_stmt 1
 142 00dc 97000000 		call	thread_start
 142      E7800000 
 143              	.LVL9:
  39:src/main.c    ****     thread_start(t2);
 144              		.loc 1 39 5
 145 00e4 13850400 		mv	a0,s1
 146 00e8 97000000 		call	thread_start
 146      E7800000 
 147              	.LVL10:
  40:src/main.c    **** }
 148              		.loc 1 40 1 is_stmt 0
 149 00f0 83308101 		ld	ra,24(sp)
 150              		.cfi_restore 1
 151 00f4 03340101 		ld	s0,16(sp)
 152              		.cfi_restore 8
 153              		.cfi_def_cfa 2, 32
 154 00f8 83348100 		ld	s1,8(sp)
 155              		.cfi_restore 9
 156              	.LVL11:
 157 00fc 13010102 		addi	sp,sp,32
 158              		.cfi_def_cfa_offset 0
 159 0100 67800000 		jr	ra
 160              		.cfi_endproc
 161              	.LFE3:
 163              		.align	2
 164              		.globl	drop_to_user
 166              	drop_to_user:
 167              	.LFB4:
  41:src/main.c    **** 
  42:src/main.c    **** 
  43:src/main.c    **** 
  44:src/main.c    **** 
  45:src/main.c    **** void drop_to_user(void (*fn)()) {
 168              		.loc 1 45 33 is_stmt 1
 169              		.cfi_startproc
 170              	.LVL12:
 171 0104 130101FF 		addi	sp,sp,-16
 172              		.cfi_def_cfa_offset 16
 173 0108 23348100 		sd	s0,8(sp)
 174              		.cfi_offset 8, -8
 175 010c 13040101 		addi	s0,sp,16
 176              		.cfi_def_cfa 8, 0
  46:src/main.c    ****     __asm__ volatile ("csrw sepc, %0" :: "r"(fn));
 177              		.loc 1 46 5
 178              	#APP
GAS LISTING /tmp/ccDa3UcM.s 			page 5


 179              	# 46 "src/main.c" 1
  47              	
  48:src/main.c    ****     uint64 sstatus;
 180              		csrw sepc, a0
 181              	# 0 "" 2
 182              		.loc 1 48 5
  49:src/main.c    ****     __asm__ volatile ("csrr %0, sstatus" : "=r"(sstatus));
 183              		.loc 1 49 5
 184              	# 49 "src/main.c" 1
  50              	    sstatus &= ~(1UL << 8);
 185              		csrr a5, sstatus
 186              	# 0 "" 2
 187              	.LVL13:
 188              		.loc 1 50 5
 189              		.loc 1 50 13 is_stmt 0
 190              	#NO_APP
 191 0118 93F7F7EF 		andi	a5,a5,-257
 192              	.LVL14:
  51:src/main.c    ****     sstatus |=  (1UL << 5);
 193              		.loc 1 51 5 is_stmt 1
 194              		.loc 1 51 13 is_stmt 0
 195 011c 93E70702 		ori	a5,a5,32
 196              	.LVL15:
  52:src/main.c    ****     __asm__ volatile ("csrw sstatus, %0" :: "r"(sstatus));
 197              		.loc 1 52 5 is_stmt 1
 198              	#APP
 199              	# 52 "src/main.c" 1
  53              	
  54:src/main.c    ****     __asm__ volatile ("sret");
 200              		csrw sstatus, a5
 201              	# 0 "" 2
 202              		.loc 1 54 5
 203              	# 54 "src/main.c" 1
  55              	}
 204              		sret
 205              	# 0 "" 2
 206              		.loc 1 55 1 is_stmt 0
 207              	#NO_APP
 208 0128 03348100 		ld	s0,8(sp)
 209              		.cfi_restore 8
 210              		.cfi_def_cfa 2, 16
 211 012c 13010101 		addi	sp,sp,16
 212              		.cfi_def_cfa_offset 0
 213 0130 67800000 		jr	ra
 214              		.cfi_endproc
 215              	.LFE4:
 217              		.align	2
 218              		.globl	main
 220              	main:
 221              	.LFB5:
  56:src/main.c    **** void interupt();
  57:src/main.c    **** int main() {
 222              		.loc 1 57 12 is_stmt 1
 223              		.cfi_startproc
 224 0134 130101FF 		addi	sp,sp,-16
 225              		.cfi_def_cfa_offset 16
 226 0138 23341100 		sd	ra,8(sp)
GAS LISTING /tmp/ccDa3UcM.s 			page 6


 227 013c 23308100 		sd	s0,0(sp)
 228              		.cfi_offset 1, -8
 229              		.cfi_offset 8, -16
 230 0140 13040101 		addi	s0,sp,16
 231              		.cfi_def_cfa 8, 0
  58:src/main.c    ****     start_main_thread();
 232              		.loc 1 58 5
 233 0144 97000000 		call	start_main_thread
 233      E7800000 
 234              	.LVL16:
  59:src/main.c    ****     __asm__ volatile("csrw sie, zero");
 235              		.loc 1 59 5
 236              	#APP
 237              	# 59 "src/main.c" 1
  60              	    __asm__ volatile("csrw stvec, %[v]" :: [v]"r"(&interupt));
 238              		csrw sie, zero
 239              	# 0 "" 2
 240              		.loc 1 60 5
 241              	#NO_APP
 242 0150 97070000 		lla	a5,interupt
 242      93870700 
 243              	#APP
 244              	# 60 "src/main.c" 1
  61              	    drop_to_user(mainU);
 245              		csrw stvec, a5
 246              	# 0 "" 2
 247              		.loc 1 61 5
 248              	#NO_APP
 249 015c 17050000 		lla	a0,mainU
 249      13050500 
 250 0164 97000000 		call	drop_to_user
 250      E7800000 
 251              	.LVL17:
  62:src/main.c    ****     return 0;
 252              		.loc 1 62 5
  63:src/main.c    **** }
 253              		.loc 1 63 1 is_stmt 0
 254 016c 13050000 		li	a0,0
 255 0170 83308100 		ld	ra,8(sp)
 256              		.cfi_restore 1
 257 0174 03340100 		ld	s0,0(sp)
 258              		.cfi_restore 8
 259              		.cfi_def_cfa 2, 16
 260 0178 13010101 		addi	sp,sp,16
 261              		.cfi_def_cfa_offset 0
 262 017c 67800000 		jr	ra
 263              		.cfi_endproc
 264              	.LFE5:
 266              	.Letext0:
 267              		.file 2 "src/../lib/hw.h"
 268              		.file 3 "src/APIC.h"
 269              		.file 4 "src/../lib/console.h"
GAS LISTING /tmp/ccDa3UcM.s 			page 7


DEFINED SYMBOLS
                            *ABS*:0000000000000000 main.c
     /tmp/ccDa3UcM.s:10     .text:0000000000000000 my_thread_body
     /tmp/ccDa3UcM.s:14     .text:0000000000000000 .L0 
     /tmp/ccDa3UcM.s:15     .text:0000000000000000 .L0 
     /tmp/ccDa3UcM.s:16     .text:0000000000000004 .L0 
     /tmp/ccDa3UcM.s:19     .text:000000000000000c .L0 
     /tmp/ccDa3UcM.s:20     .text:000000000000000c .L0 
     /tmp/ccDa3UcM.s:22     .text:0000000000000010 .L0 
     /tmp/ccDa3UcM.s:24     .text:0000000000000010 .L0 
     /tmp/ccDa3UcM.s:28     .text:000000000000001c .L0 
     /tmp/ccDa3UcM.s:29     .text:0000000000000020 .L0 
     /tmp/ccDa3UcM.s:31     .text:0000000000000024 .L0 
     /tmp/ccDa3UcM.s:32     .text:0000000000000024 .L0 
     /tmp/ccDa3UcM.s:34     .text:0000000000000028 .L0 
     /tmp/ccDa3UcM.s:36     .text:000000000000002c .L0 
     /tmp/ccDa3UcM.s:42     .text:000000000000002c my_thread_body2
     /tmp/ccDa3UcM.s:45     .text:000000000000002c .L0 
     /tmp/ccDa3UcM.s:46     .text:000000000000002c .L0 
     /tmp/ccDa3UcM.s:47     .text:0000000000000030 .L0 
     /tmp/ccDa3UcM.s:50     .text:0000000000000038 .L0 
     /tmp/ccDa3UcM.s:51     .text:0000000000000038 .L0 
     /tmp/ccDa3UcM.s:53     .text:000000000000003c .L0 
     /tmp/ccDa3UcM.s:55     .text:000000000000003c .L0 
     /tmp/ccDa3UcM.s:59     .text:0000000000000048 .L0 
     /tmp/ccDa3UcM.s:60     .text:000000000000004c .L0 
     /tmp/ccDa3UcM.s:62     .text:0000000000000050 .L0 
     /tmp/ccDa3UcM.s:63     .text:0000000000000050 .L0 
     /tmp/ccDa3UcM.s:65     .text:0000000000000054 .L0 
     /tmp/ccDa3UcM.s:67     .text:0000000000000058 .L0 
     /tmp/ccDa3UcM.s:73     .text:0000000000000058 my_thread_body3
     /tmp/ccDa3UcM.s:76     .text:0000000000000058 .L0 
     /tmp/ccDa3UcM.s:77     .text:0000000000000058 .L0 
     /tmp/ccDa3UcM.s:78     .text:000000000000005c .L0 
     /tmp/ccDa3UcM.s:81     .text:0000000000000064 .L0 
     /tmp/ccDa3UcM.s:82     .text:0000000000000064 .L0 
     /tmp/ccDa3UcM.s:84     .text:0000000000000068 .L0 
     /tmp/ccDa3UcM.s:86     .text:0000000000000068 .L0 
     /tmp/ccDa3UcM.s:90     .text:0000000000000074 .L0 
     /tmp/ccDa3UcM.s:91     .text:0000000000000078 .L0 
     /tmp/ccDa3UcM.s:93     .text:000000000000007c .L0 
     /tmp/ccDa3UcM.s:94     .text:000000000000007c .L0 
     /tmp/ccDa3UcM.s:96     .text:0000000000000080 .L0 
     /tmp/ccDa3UcM.s:98     .text:0000000000000084 .L0 
     /tmp/ccDa3UcM.s:104    .text:0000000000000084 mainU
     /tmp/ccDa3UcM.s:107    .text:0000000000000084 .L0 
     /tmp/ccDa3UcM.s:108    .text:0000000000000084 .L0 
     /tmp/ccDa3UcM.s:109    .text:0000000000000088 .L0 
     /tmp/ccDa3UcM.s:113    .text:0000000000000094 .L0 
     /tmp/ccDa3UcM.s:114    .text:0000000000000094 .L0 
     /tmp/ccDa3UcM.s:115    .text:0000000000000094 .L0 
     /tmp/ccDa3UcM.s:117    .text:0000000000000098 .L0 
     /tmp/ccDa3UcM.s:119    .text:0000000000000098 .L0 
     /tmp/ccDa3UcM.s:120    .text:0000000000000098 .L0 
     /tmp/ccDa3UcM.s:124    .text:00000000000000a8 .L0 
     /tmp/ccDa3UcM.s:127    .text:00000000000000b0 .L0 
     /tmp/ccDa3UcM.s:128    .text:00000000000000b0 .L0 
GAS LISTING /tmp/ccDa3UcM.s 			page 8


     /tmp/ccDa3UcM.s:134    .text:00000000000000c4 .L0 
     /tmp/ccDa3UcM.s:137    .text:00000000000000cc .L0 
     /tmp/ccDa3UcM.s:138    .text:00000000000000cc .L0 
     /tmp/ccDa3UcM.s:142    .text:00000000000000dc .L0 
     /tmp/ccDa3UcM.s:145    .text:00000000000000e4 .L0 
     /tmp/ccDa3UcM.s:149    .text:00000000000000f0 .L0 
     /tmp/ccDa3UcM.s:150    .text:00000000000000f4 .L0 
     /tmp/ccDa3UcM.s:152    .text:00000000000000f8 .L0 
     /tmp/ccDa3UcM.s:153    .text:00000000000000f8 .L0 
     /tmp/ccDa3UcM.s:155    .text:00000000000000fc .L0 
     /tmp/ccDa3UcM.s:158    .text:0000000000000100 .L0 
     /tmp/ccDa3UcM.s:160    .text:0000000000000104 .L0 
     /tmp/ccDa3UcM.s:166    .text:0000000000000104 drop_to_user
     /tmp/ccDa3UcM.s:169    .text:0000000000000104 .L0 
     /tmp/ccDa3UcM.s:171    .text:0000000000000104 .L0 
     /tmp/ccDa3UcM.s:172    .text:0000000000000108 .L0 
     /tmp/ccDa3UcM.s:174    .text:000000000000010c .L0 
     /tmp/ccDa3UcM.s:176    .text:0000000000000110 .L0 
          src/main.c:46     .text:0000000000000110 .L0 
     /tmp/ccDa3UcM.s:183    .text:0000000000000114 .L0 
          src/main.c:49     .text:0000000000000114 .L0 
     /tmp/ccDa3UcM.s:189    .text:0000000000000118 .L0 
     /tmp/ccDa3UcM.s:191    .text:0000000000000118 .L0 
     /tmp/ccDa3UcM.s:194    .text:000000000000011c .L0 
     /tmp/ccDa3UcM.s:195    .text:000000000000011c .L0 
          src/main.c:52     .text:0000000000000120 .L0 
          src/main.c:54     .text:0000000000000124 .L0 
     /tmp/ccDa3UcM.s:208    .text:0000000000000128 .L0 
     /tmp/ccDa3UcM.s:209    .text:000000000000012c .L0 
     /tmp/ccDa3UcM.s:210    .text:000000000000012c .L0 
     /tmp/ccDa3UcM.s:212    .text:0000000000000130 .L0 
     /tmp/ccDa3UcM.s:214    .text:0000000000000134 .L0 
     /tmp/ccDa3UcM.s:220    .text:0000000000000134 main
     /tmp/ccDa3UcM.s:223    .text:0000000000000134 .L0 
     /tmp/ccDa3UcM.s:224    .text:0000000000000134 .L0 
     /tmp/ccDa3UcM.s:225    .text:0000000000000138 .L0 
     /tmp/ccDa3UcM.s:228    .text:0000000000000140 .L0 
     /tmp/ccDa3UcM.s:229    .text:0000000000000140 .L0 
     /tmp/ccDa3UcM.s:231    .text:0000000000000144 .L0 
     /tmp/ccDa3UcM.s:233    .text:0000000000000144 .L0 
          src/main.c:59     .text:000000000000014c .L0 
     /tmp/ccDa3UcM.s:242    .text:0000000000000150 .L0 
     /tmp/ccDa3UcM.s:249    .text:000000000000015c .L0 
     /tmp/ccDa3UcM.s:253    .text:000000000000016c .L0 
     /tmp/ccDa3UcM.s:254    .text:000000000000016c .L0 
     /tmp/ccDa3UcM.s:256    .text:0000000000000174 .L0 
     /tmp/ccDa3UcM.s:258    .text:0000000000000178 .L0 
     /tmp/ccDa3UcM.s:259    .text:0000000000000178 .L0 
     /tmp/ccDa3UcM.s:261    .text:000000000000017c .L0 
     /tmp/ccDa3UcM.s:263    .text:0000000000000180 .L0 
     /tmp/ccDa3UcM.s:270    .text:0000000000000180 .L0 
                     .debug_frame:0000000000000000 .L0 
     /tmp/ccDa3UcM.s:120    .text:0000000000000098 .L0 
     /tmp/ccDa3UcM.s:128    .text:00000000000000b0 .L0 
     /tmp/ccDa3UcM.s:138    .text:00000000000000cc .L0 
     /tmp/ccDa3UcM.s:242    .text:0000000000000150 .L0 
     /tmp/ccDa3UcM.s:249    .text:000000000000015c .L0 
GAS LISTING /tmp/ccDa3UcM.s 			page 9


     /tmp/ccDa3UcM.s:644    .debug_abbrev:0000000000000000 .Ldebug_abbrev0
     /tmp/ccDa3UcM.s:1080   .debug_str:00000000000001b0 .LASF28
     /tmp/ccDa3UcM.s:1036   .debug_str:0000000000000072 .LASF29
     /tmp/ccDa3UcM.s:1042   .debug_str:0000000000000097 .LASF30
     /tmp/ccDa3UcM.s:5      .text:0000000000000000 .Ltext0
     /tmp/ccDa3UcM.s:266    .text:0000000000000180 .Letext0
     /tmp/ccDa3UcM.s:1018   .debug_line:0000000000000000 .Ldebug_line0
     /tmp/ccDa3UcM.s:1020   .debug_str:0000000000000000 .LASF0
     /tmp/ccDa3UcM.s:1068   .debug_str:0000000000000156 .LASF1
     /tmp/ccDa3UcM.s:1048   .debug_str:00000000000000ca .LASF2
     /tmp/ccDa3UcM.s:1040   .debug_str:0000000000000090 .LASF4
     /tmp/ccDa3UcM.s:1034   .debug_str:0000000000000060 .LASF3
     /tmp/ccDa3UcM.s:1028   .debug_str:0000000000000039 .LASF5
     /tmp/ccDa3UcM.s:1038   .debug_str:000000000000007d .LASF6
     /tmp/ccDa3UcM.s:1066   .debug_str:0000000000000143 .LASF7
     /tmp/ccDa3UcM.s:1078   .debug_str:00000000000001a0 .LASF8
     /tmp/ccDa3UcM.s:1024   .debug_str:000000000000001c .LASF9
     /tmp/ccDa3UcM.s:1026   .debug_str:000000000000002a .LASF10
     /tmp/ccDa3UcM.s:1072   .debug_str:0000000000000179 .LASF11
     /tmp/ccDa3UcM.s:1030   .debug_str:0000000000000040 .LASF12
     /tmp/ccDa3UcM.s:1070   .debug_str:0000000000000169 .LASF13
     /tmp/ccDa3UcM.s:1046   .debug_str:00000000000000be .LASF14
     /tmp/ccDa3UcM.s:1062   .debug_str:0000000000000125 .LASF15
     /tmp/ccDa3UcM.s:1056   .debug_str:00000000000000f2 .LASF16
     /tmp/ccDa3UcM.s:1044   .debug_str:00000000000000b5 .LASF17
     /tmp/ccDa3UcM.s:1052   .debug_str:00000000000000e6 .LASF18
     /tmp/ccDa3UcM.s:221    .text:0000000000000134 .LFB5
     /tmp/ccDa3UcM.s:264    .text:0000000000000180 .LFE5
     /tmp/ccDa3UcM.s:234    .text:000000000000014c .LVL16
     /tmp/ccDa3UcM.s:251    .text:000000000000016c .LVL17
     /tmp/ccDa3UcM.s:1082   .debug_str:000000000000024e .LASF19
     /tmp/ccDa3UcM.s:167    .text:0000000000000104 .LFB4
     /tmp/ccDa3UcM.s:215    .text:0000000000000134 .LFE4
     /tmp/ccDa3UcM.s:1064   .debug_str:000000000000013b .LASF20
     /tmp/ccDa3UcM.s:1074   .debug_str:0000000000000188 .LASF31
     /tmp/ccDa3UcM.s:105    .text:0000000000000084 .LFB3
     /tmp/ccDa3UcM.s:161    .text:0000000000000104 .LFE3
     /tmp/ccDa3UcM.s:984    .debug_loc:0000000000000000 .LLST0
     /tmp/ccDa3UcM.s:991    .debug_loc:0000000000000023 .LLST1
     /tmp/ccDa3UcM.s:998    .debug_loc:0000000000000046 .LLST2
     /tmp/ccDa3UcM.s:122    .text:00000000000000a8 .LVL3
     /tmp/ccDa3UcM.s:125    .text:00000000000000b0 .LVL4
     /tmp/ccDa3UcM.s:130    .text:00000000000000c0 .LVL5
     /tmp/ccDa3UcM.s:135    .text:00000000000000cc .LVL7
     /tmp/ccDa3UcM.s:140    .text:00000000000000dc .LVL8
     /tmp/ccDa3UcM.s:143    .text:00000000000000e4 .LVL9
     /tmp/ccDa3UcM.s:147    .text:00000000000000f0 .LVL10
     /tmp/ccDa3UcM.s:1032   .debug_str:0000000000000050 .LASF21
     /tmp/ccDa3UcM.s:74     .text:0000000000000058 .LFB2
     /tmp/ccDa3UcM.s:99     .text:0000000000000084 .LFE2
     /tmp/ccDa3UcM.s:88     .text:0000000000000074 .LVL2
     /tmp/ccDa3UcM.s:1060   .debug_str:0000000000000115 .LASF22
     /tmp/ccDa3UcM.s:43     .text:000000000000002c .LFB1
     /tmp/ccDa3UcM.s:68     .text:0000000000000058 .LFE1
     /tmp/ccDa3UcM.s:57     .text:0000000000000048 .LVL1
     /tmp/ccDa3UcM.s:1022   .debug_str:000000000000000d .LASF23
     /tmp/ccDa3UcM.s:11     .text:0000000000000000 .LFB0
GAS LISTING /tmp/ccDa3UcM.s 			page 10


     /tmp/ccDa3UcM.s:37     .text:000000000000002c .LFE0
     /tmp/ccDa3UcM.s:26     .text:000000000000001c .LVL0
     /tmp/ccDa3UcM.s:1076   .debug_str:000000000000018e .LASF24
     /tmp/ccDa3UcM.s:1050   .debug_str:00000000000000d8 .LASF25
     /tmp/ccDa3UcM.s:1058   .debug_str:0000000000000108 .LASF26
     /tmp/ccDa3UcM.s:1054   .debug_str:00000000000000eb .LASF27
     /tmp/ccDa3UcM.s:132    .text:00000000000000c4 .LVL6
     /tmp/ccDa3UcM.s:156    .text:00000000000000fc .LVL11
     /tmp/ccDa3UcM.s:271    .debug_info:0000000000000000 .Ldebug_info0

UNDEFINED SYMBOLS
__putc
thread_create
thread_start
start_main_thread
interupt
