GAS LISTING /tmp/cczOtxjr.s 			page 1


   1              		.file	"MemoryAllocator.cpp"
   2              		.option pic
   3              		.option norelax
   4              		.text
   5              	.Ltext0:
   6              		.align	2
   7              		.globl	_ZN15MemoryAllocatorC2Ev
   9              	_ZN15MemoryAllocatorC2Ev:
  10              	.LFB1:
  11              		.file 1 "src/MemoryAllocator.cpp"
   1:src/MemoryAllocator.cpp **** //
   2:src/MemoryAllocator.cpp **** // Created by os on 5/6/26.
   3:src/MemoryAllocator.cpp **** //
   4:src/MemoryAllocator.cpp **** 
   5:src/MemoryAllocator.cpp **** #include "MemoryAllocator.hpp"
   6:src/MemoryAllocator.cpp **** #include "../lib/console.h"
   7:src/MemoryAllocator.cpp **** 
   8:src/MemoryAllocator.cpp **** MemoryAllocator::MemoryAllocator() {
  12              		.loc 1 8 1
  13              		.cfi_startproc
  14              	.LVL0:
  15 0000 130101FF 		addi	sp,sp,-16
  16              		.cfi_def_cfa_offset 16
  17 0004 23348100 		sd	s0,8(sp)
  18              		.cfi_offset 8, -8
  19 0008 13040101 		addi	s0,sp,16
  20              		.cfi_def_cfa 8, 0
  21              	.LBB2:
   9:src/MemoryAllocator.cpp ****     size_t HEAP_SIZE = (uint*)HEAP_END_ADDR-(uint*)HEAP_START_ADDR;
  22              		.loc 1 9 5
  23              		.loc 1 9 24 is_stmt 0
  24 000c 97070000 		la	a5,HEAP_END_ADDR
  24      83B70700 
  25 0014 83B70700 		ld	a5,0(a5)
  26              		.loc 1 9 45
  27 0018 17070000 		la	a4,HEAP_START_ADDR
  27      03370700 
  28 0020 03370700 		ld	a4,0(a4)
  29              		.loc 1 9 44
  30 0024 B387E740 		sub	a5,a5,a4
  31 0028 93D72740 		srai	a5,a5,2
  32              	.LVL1:
  10:src/MemoryAllocator.cpp ****     size_t HEAP_SIZE_BLCK = HEAP_SIZE/64;
  33              		.loc 1 10 5 is_stmt 1
  34              		.loc 1 10 12 is_stmt 0
  35 002c 93D76700 		srli	a5,a5,6
  36              	.LVL2:
  11:src/MemoryAllocator.cpp ****     head = (Fragment*)HEAP_START_ADDR;
  37              		.loc 1 11 5 is_stmt 1
  38              		.loc 1 11 10 is_stmt 0
  39 0030 2330E500 		sd	a4,0(a0)
  40              	.LVL3:
  12:src/MemoryAllocator.cpp ****     Fragment* startFrag = (Fragment*)head;
  41              		.loc 1 12 5 is_stmt 1
  13:src/MemoryAllocator.cpp ****     startFrag->free=1;
  42              		.loc 1 13 5
  43              		.loc 1 13 20 is_stmt 0
GAS LISTING /tmp/cczOtxjr.s 			page 2


  44 0034 93061000 		li	a3,1
  45 0038 2308D700 		sb	a3,16(a4)
  14:src/MemoryAllocator.cpp ****     startFrag->next=nullptr;
  46              		.loc 1 14 5 is_stmt 1
  47              		.loc 1 14 20 is_stmt 0
  48 003c 23300700 		sd	zero,0(a4)
  15:src/MemoryAllocator.cpp ****     startFrag->size = HEAP_SIZE_BLCK;
  49              		.loc 1 15 5 is_stmt 1
  50              		.loc 1 15 21 is_stmt 0
  51 0040 233CF700 		sd	a5,24(a4)
  16:src/MemoryAllocator.cpp ****     startFrag->prev=nullptr;
  52              		.loc 1 16 5 is_stmt 1
  53              		.loc 1 16 20 is_stmt 0
  54 0044 23340700 		sd	zero,8(a4)
  55              	.LBE2:
  17:src/MemoryAllocator.cpp **** }
  56              		.loc 1 17 1
  57 0048 03348100 		ld	s0,8(sp)
  58              		.cfi_restore 8
  59              		.cfi_def_cfa 2, 16
  60 004c 13010101 		addi	sp,sp,16
  61              		.cfi_def_cfa_offset 0
  62 0050 67800000 		jr	ra
  63              		.cfi_endproc
  64              	.LFE1:
  66              		.globl	_ZN15MemoryAllocatorC1Ev
  67              		.set	_ZN15MemoryAllocatorC1Ev,_ZN15MemoryAllocatorC2Ev
  68              		.align	2
  69              		.globl	_ZN15MemoryAllocator11GetInstanceEv
  71              	_ZN15MemoryAllocator11GetInstanceEv:
  72              	.LFB3:
  18:src/MemoryAllocator.cpp **** 
  19:src/MemoryAllocator.cpp **** MemoryAllocator& MemoryAllocator::GetInstance() {
  73              		.loc 1 19 49 is_stmt 1
  74              		.cfi_startproc
  20:src/MemoryAllocator.cpp ****     static MemoryAllocator inst;
  75              		.loc 1 20 5
  76              		.loc 1 20 28 is_stmt 0
  77 0054 97070000 		lbu	a5,.LANCHOR0
  77      83C70700 
  78 005c 63880700 		beqz	a5,.L9
  21:src/MemoryAllocator.cpp ****     return inst;
  79              		.loc 1 21 5 is_stmt 1
  22:src/MemoryAllocator.cpp **** }
  80              		.loc 1 22 1 is_stmt 0
  81 0060 17050000 		lla	a0,.LANCHOR0+8
  81      13050500 
  82 0068 67800000 		ret
  83              	.L9:
  19:src/MemoryAllocator.cpp ****     static MemoryAllocator inst;
  84              		.loc 1 19 49 discriminator 1
  85 006c 130101FF 		addi	sp,sp,-16
  86              		.cfi_def_cfa_offset 16
  87 0070 23341100 		sd	ra,8(sp)
  88 0074 23308100 		sd	s0,0(sp)
  89              		.cfi_offset 1, -8
  90              		.cfi_offset 8, -16
GAS LISTING /tmp/cczOtxjr.s 			page 3


  91 0078 13040101 		addi	s0,sp,16
  92              		.cfi_def_cfa 8, 0
  20:src/MemoryAllocator.cpp ****     return inst;
  93              		.loc 1 20 28 discriminator 1
  94 007c 17050000 		lla	a0,.LANCHOR0+8
  94      13050500 
  95 0084 97000000 		call	_ZN15MemoryAllocatorC1Ev
  95      E7800000 
  96              	.LVL4:
  97 008c 93071000 		li	a5,1
  98 0090 17070000 		sb	a5,.LANCHOR0,a4
  98      2300F700 
  21:src/MemoryAllocator.cpp **** }
  99              		.loc 1 21 5 is_stmt 1 discriminator 1
 100              		.loc 1 22 1 is_stmt 0 discriminator 1
 101 0098 17050000 		lla	a0,.LANCHOR0+8
 101      13050500 
 102 00a0 83308100 		ld	ra,8(sp)
 103              		.cfi_restore 1
 104 00a4 03340100 		ld	s0,0(sp)
 105              		.cfi_restore 8
 106              		.cfi_def_cfa 2, 16
 107 00a8 13010101 		addi	sp,sp,16
 108              		.cfi_def_cfa_offset 0
 109 00ac 67800000 		jr	ra
 110              		.cfi_endproc
 111              	.LFE3:
 113              		.align	2
 114              		.globl	_ZN15MemoryAllocator16AllocateFragmentEm
 116              	_ZN15MemoryAllocator16AllocateFragmentEm:
 117              	.LFB4:
  23:src/MemoryAllocator.cpp **** 
  24:src/MemoryAllocator.cpp **** void *MemoryAllocator::AllocateFragment(size_t size) {
 118              		.loc 1 24 54 is_stmt 1
 119              		.cfi_startproc
 120              	.LVL5:
 121 00b0 130101FF 		addi	sp,sp,-16
 122              		.cfi_def_cfa_offset 16
 123 00b4 23348100 		sd	s0,8(sp)
 124              		.cfi_offset 8, -8
 125 00b8 13040101 		addi	s0,sp,16
 126              		.cfi_def_cfa 8, 0
  25:src/MemoryAllocator.cpp ****     Fragment* curr = head;
 127              		.loc 1 25 5
 128              		.loc 1 25 15 is_stmt 0
 129 00bc 03350500 		ld	a0,0(a0)
 130              	.LVL6:
  26:src/MemoryAllocator.cpp **** 
  27:src/MemoryAllocator.cpp **** 
  28:src/MemoryAllocator.cpp ****     size_t sizeInBlocks = (size+MEM_BLOCK_SIZE-1)/MEM_BLOCK_SIZE;
 131              		.loc 1 28 5 is_stmt 1
 132              		.loc 1 28 47 is_stmt 0
 133 00c0 9385F503 		addi	a1,a1,63
 134              	.LVL7:
 135              		.loc 1 28 12
 136 00c4 93D56500 		srli	a1,a1,6
 137              	.LVL8:
GAS LISTING /tmp/cczOtxjr.s 			page 4


 138 00c8 6F008000 		j	.L15
 139              	.L12:
 140              	.LBB3:
  29:src/MemoryAllocator.cpp **** 
  30:src/MemoryAllocator.cpp ****     while(curr){
  31:src/MemoryAllocator.cpp ****         if(curr->free==1&&curr->size>=sizeInBlocks+HEADER_BLOCKS){
  32:src/MemoryAllocator.cpp ****             curr->free=0;
  33:src/MemoryAllocator.cpp ****             if(curr->size>sizeInBlocks+HEADER_BLOCKS){
  34:src/MemoryAllocator.cpp ****                 Fragment* old = curr->next;
  35:src/MemoryAllocator.cpp ****                 curr->next = (Fragment*)((uint8*)curr+(sizeInBlocks+HEADER_BLOCKS)*MEM_BLOCK_SIZE);
  36:src/MemoryAllocator.cpp ****                 Fragment* newFrag = curr->next;
  37:src/MemoryAllocator.cpp ****                 newFrag->free=1;
  38:src/MemoryAllocator.cpp ****                 newFrag->size = curr->size-sizeInBlocks-HEADER_BLOCKS;
  39:src/MemoryAllocator.cpp ****                 newFrag->next = old;
  40:src/MemoryAllocator.cpp ****                 if(old)
  41:src/MemoryAllocator.cpp ****                     old->prev = newFrag;
  42:src/MemoryAllocator.cpp ****                 newFrag->prev = curr;
  43:src/MemoryAllocator.cpp ****                 curr->size = curr->size-newFrag->size;
  44:src/MemoryAllocator.cpp ****             }
  45:src/MemoryAllocator.cpp **** 
  46:src/MemoryAllocator.cpp ****             return (uint8*)curr+HEADER_BLOCKS*MEM_BLOCK_SIZE;
  47:src/MemoryAllocator.cpp ****         }
  48:src/MemoryAllocator.cpp ****         curr = curr->next;
 141              		.loc 1 48 9 is_stmt 1
 142              		.loc 1 48 14 is_stmt 0
 143 00cc 03350500 		ld	a0,0(a0)
 144              	.LVL9:
 145              	.L15:
 146              	.LBE3:
  30:src/MemoryAllocator.cpp ****         if(curr->free==1&&curr->size>=sizeInBlocks+HEADER_BLOCKS){
 147              		.loc 1 30 5 is_stmt 1
  30:src/MemoryAllocator.cpp ****         if(curr->free==1&&curr->size>=sizeInBlocks+HEADER_BLOCKS){
 148              		.loc 1 30 11
 149 00d0 63080506 		beqz	a0,.L10
 150              	.LBB8:
  31:src/MemoryAllocator.cpp ****             curr->free=0;
 151              		.loc 1 31 9
 152              	.LBB4:
  31:src/MemoryAllocator.cpp ****             curr->free=0;
 153              		.loc 1 31 18 is_stmt 0
 154 00d4 03470501 		lbu	a4,16(a0)
  31:src/MemoryAllocator.cpp ****             curr->free=0;
 155              		.loc 1 31 9
 156 00d8 93071000 		li	a5,1
 157 00dc E318F7FE 		bne	a4,a5,.L12
  31:src/MemoryAllocator.cpp ****             curr->free=0;
 158              		.loc 1 31 33 discriminator 1
 159 00e0 03378501 		ld	a4,24(a0)
  31:src/MemoryAllocator.cpp ****             curr->free=0;
 160              		.loc 1 31 51 discriminator 1
 161 00e4 93871500 		addi	a5,a1,1
  31:src/MemoryAllocator.cpp ****             curr->free=0;
 162              		.loc 1 31 25 discriminator 1
 163 00e8 E362F7FE 		bltu	a4,a5,.L12
 164              	.LBB5:
  32:src/MemoryAllocator.cpp ****             if(curr->size>sizeInBlocks+HEADER_BLOCKS){
 165              		.loc 1 32 13 is_stmt 1
GAS LISTING /tmp/cczOtxjr.s 			page 5


  32:src/MemoryAllocator.cpp ****             if(curr->size>sizeInBlocks+HEADER_BLOCKS){
 166              		.loc 1 32 23 is_stmt 0
 167 00ec 23080500 		sb	zero,16(a0)
  33:src/MemoryAllocator.cpp ****                 Fragment* old = curr->next;
 168              		.loc 1 33 13 is_stmt 1
 169              	.LBB6:
 170 00f0 63F6E704 		bleu	a4,a5,.L13
 171              	.LBB7:
  34:src/MemoryAllocator.cpp ****                 curr->next = (Fragment*)((uint8*)curr+(sizeInBlocks+HEADER_BLOCKS)*MEM_BLOCK_SIZE);
 172              		.loc 1 34 17
  34:src/MemoryAllocator.cpp ****                 curr->next = (Fragment*)((uint8*)curr+(sizeInBlocks+HEADER_BLOCKS)*MEM_BLOCK_SIZE);
 173              		.loc 1 34 27 is_stmt 0
 174 00f4 83360500 		ld	a3,0(a0)
 175              	.LVL10:
  35:src/MemoryAllocator.cpp ****                 Fragment* newFrag = curr->next;
 176              		.loc 1 35 17 is_stmt 1
  35:src/MemoryAllocator.cpp ****                 Fragment* newFrag = curr->next;
 177              		.loc 1 35 83 is_stmt 0
 178 00f8 93976700 		slli	a5,a5,6
  35:src/MemoryAllocator.cpp ****                 Fragment* newFrag = curr->next;
 179              		.loc 1 35 30
 180 00fc B307F500 		add	a5,a0,a5
  35:src/MemoryAllocator.cpp ****                 Fragment* newFrag = curr->next;
 181              		.loc 1 35 28
 182 0100 2330F500 		sd	a5,0(a0)
  36:src/MemoryAllocator.cpp ****                 newFrag->free=1;
 183              		.loc 1 36 17 is_stmt 1
 184              	.LVL11:
  37:src/MemoryAllocator.cpp ****                 newFrag->size = curr->size-sizeInBlocks-HEADER_BLOCKS;
 185              		.loc 1 37 17
  37:src/MemoryAllocator.cpp ****                 newFrag->size = curr->size-sizeInBlocks-HEADER_BLOCKS;
 186              		.loc 1 37 30 is_stmt 0
 187 0104 13071000 		li	a4,1
 188 0108 2388E700 		sb	a4,16(a5)
  38:src/MemoryAllocator.cpp ****                 newFrag->next = old;
 189              		.loc 1 38 17 is_stmt 1
  38:src/MemoryAllocator.cpp ****                 newFrag->next = old;
 190              		.loc 1 38 39 is_stmt 0
 191 010c 03378501 		ld	a4,24(a0)
  38:src/MemoryAllocator.cpp ****                 newFrag->next = old;
 192              		.loc 1 38 43
 193 0110 3307B740 		sub	a4,a4,a1
  38:src/MemoryAllocator.cpp ****                 newFrag->next = old;
 194              		.loc 1 38 56
 195 0114 1307F7FF 		addi	a4,a4,-1
  38:src/MemoryAllocator.cpp ****                 newFrag->next = old;
 196              		.loc 1 38 31
 197 0118 23BCE700 		sd	a4,24(a5)
  39:src/MemoryAllocator.cpp ****                 if(old)
 198              		.loc 1 39 17 is_stmt 1
  39:src/MemoryAllocator.cpp ****                 if(old)
 199              		.loc 1 39 31 is_stmt 0
 200 011c 23B0D700 		sd	a3,0(a5)
  40:src/MemoryAllocator.cpp ****                     old->prev = newFrag;
 201              		.loc 1 40 17 is_stmt 1
 202 0120 63840600 		beqz	a3,.L14
  41:src/MemoryAllocator.cpp ****                 newFrag->prev = curr;
GAS LISTING /tmp/cczOtxjr.s 			page 6


 203              		.loc 1 41 21
  41:src/MemoryAllocator.cpp ****                 newFrag->prev = curr;
 204              		.loc 1 41 31 is_stmt 0
 205 0124 23B4F600 		sd	a5,8(a3)
 206              	.L14:
  42:src/MemoryAllocator.cpp ****                 curr->size = curr->size-newFrag->size;
 207              		.loc 1 42 17 is_stmt 1
  42:src/MemoryAllocator.cpp ****                 curr->size = curr->size-newFrag->size;
 208              		.loc 1 42 31 is_stmt 0
 209 0128 23B4A700 		sd	a0,8(a5)
  43:src/MemoryAllocator.cpp ****             }
 210              		.loc 1 43 17 is_stmt 1
  43:src/MemoryAllocator.cpp ****             }
 211              		.loc 1 43 36 is_stmt 0
 212 012c 03378501 		ld	a4,24(a0)
  43:src/MemoryAllocator.cpp ****             }
 213              		.loc 1 43 50
 214 0130 83B78701 		ld	a5,24(a5)
 215              	.LVL12:
  43:src/MemoryAllocator.cpp ****             }
 216              		.loc 1 43 40
 217 0134 B307F740 		sub	a5,a4,a5
  43:src/MemoryAllocator.cpp ****             }
 218              		.loc 1 43 28
 219 0138 233CF500 		sd	a5,24(a0)
 220              	.LVL13:
 221              	.L13:
 222              	.LBE7:
 223              	.LBE6:
  46:src/MemoryAllocator.cpp ****         }
 224              		.loc 1 46 13 is_stmt 1
  46:src/MemoryAllocator.cpp ****         }
 225              		.loc 1 46 47 is_stmt 0
 226 013c 13050504 		addi	a0,a0,64
 227              	.LVL14:
 228              	.L10:
 229              	.LBE5:
 230              	.LBE4:
 231              	.LBE8:
  49:src/MemoryAllocator.cpp ****     }
  50:src/MemoryAllocator.cpp **** 
  51:src/MemoryAllocator.cpp ****     return nullptr;
  52:src/MemoryAllocator.cpp **** }
 232              		.loc 1 52 1
 233 0140 03348100 		ld	s0,8(sp)
 234              		.cfi_restore 8
 235              		.cfi_def_cfa 2, 16
 236 0144 13010101 		addi	sp,sp,16
 237              		.cfi_def_cfa_offset 0
 238 0148 67800000 		jr	ra
 239              		.cfi_endproc
 240              	.LFE4:
 242              		.align	2
 243              		.globl	_ZN15MemoryAllocator12FreeFragmentEPv
 245              	_ZN15MemoryAllocator12FreeFragmentEPv:
 246              	.LFB5:
  53:src/MemoryAllocator.cpp **** 
GAS LISTING /tmp/cczOtxjr.s 			page 7


  54:src/MemoryAllocator.cpp **** int MemoryAllocator::FreeFragment(void *startLoc) {
 247              		.loc 1 54 51 is_stmt 1
 248              		.cfi_startproc
 249              	.LVL15:
 250 014c 130101FF 		addi	sp,sp,-16
 251              		.cfi_def_cfa_offset 16
 252 0150 23348100 		sd	s0,8(sp)
 253              		.cfi_offset 8, -8
 254 0154 13040101 		addi	s0,sp,16
 255              		.cfi_def_cfa 8, 0
  55:src/MemoryAllocator.cpp ****     Fragment* curr=(Fragment*)((uint8*)startLoc-HEADER_BLOCKS*MEM_BLOCK_SIZE);
 256              		.loc 1 55 5
 257              		.loc 1 55 15 is_stmt 0
 258 0158 138705FC 		addi	a4,a1,-64
 259              	.LVL16:
  56:src/MemoryAllocator.cpp ****     if(!curr)return -1;
 260              		.loc 1 56 5 is_stmt 1
 261 015c 630A0708 		beqz	a4,.L20
  57:src/MemoryAllocator.cpp ****     curr->free=1;
 262              		.loc 1 57 5
 263              		.loc 1 57 15 is_stmt 0
 264 0160 93071000 		li	a5,1
 265 0164 2388F5FC 		sb	a5,-48(a1)
  58:src/MemoryAllocator.cpp ****     if(curr->next&&((Fragment*)curr->next)->free==1)
 266              		.loc 1 58 5 is_stmt 1
 267              	.LBB9:
 268              		.loc 1 58 14 is_stmt 0
 269 0168 83B705FC 		ld	a5,-64(a1)
 270              		.loc 1 58 5
 271 016c 63880700 		beqz	a5,.L19
 272              		.loc 1 58 45 discriminator 1
 273 0170 03C60701 		lbu	a2,16(a5)
 274              		.loc 1 58 18 discriminator 1
 275 0174 93061000 		li	a3,1
 276 0178 6304D602 		beq	a2,a3,.L25
 277              	.L19:
 278              	.LBE9:
  59:src/MemoryAllocator.cpp ****     {
  60:src/MemoryAllocator.cpp ****         Fragment* next = (Fragment*)curr->next;
  61:src/MemoryAllocator.cpp ****         curr->size +=next->size;
  62:src/MemoryAllocator.cpp ****         curr->next = next->next;
  63:src/MemoryAllocator.cpp ****         if(next->next)
  64:src/MemoryAllocator.cpp ****             next->next->prev = curr;
  65:src/MemoryAllocator.cpp ****     }
  66:src/MemoryAllocator.cpp ****     if(curr->prev&&((Fragment*)curr->prev)->free==1)
 279              		.loc 1 66 5 is_stmt 1
 280              	.LBB11:
 281              		.loc 1 66 14 is_stmt 0
 282 017c 83B785FC 		ld	a5,-56(a1)
 283              		.loc 1 66 5
 284 0180 638C0706 		beqz	a5,.L21
 285              		.loc 1 66 45 discriminator 1
 286 0184 83C60701 		lbu	a3,16(a5)
 287              		.loc 1 66 18 discriminator 1
 288 0188 13071000 		li	a4,1
 289              	.LVL17:
 290 018c 638EE602 		beq	a3,a4,.L26
GAS LISTING /tmp/cczOtxjr.s 			page 8


 291              	.LBE11:
  67:src/MemoryAllocator.cpp ****     {
  68:src/MemoryAllocator.cpp ****         Fragment* prev = ((Fragment*)curr->prev);
  69:src/MemoryAllocator.cpp ****         prev->size +=curr->size;
  70:src/MemoryAllocator.cpp ****         prev->next = curr->next;
  71:src/MemoryAllocator.cpp ****         if(curr->next)
  72:src/MemoryAllocator.cpp ****             curr->next->prev = prev;
  73:src/MemoryAllocator.cpp ****     }
  74:src/MemoryAllocator.cpp ****     return 0;
 292              		.loc 1 74 12
 293 0190 13050000 		li	a0,0
 294              	.LVL18:
 295              	.L18:
  75:src/MemoryAllocator.cpp **** }
 296              		.loc 1 75 1
 297 0194 03348100 		ld	s0,8(sp)
 298              		.cfi_remember_state
 299              		.cfi_restore 8
 300              		.cfi_def_cfa 2, 16
 301 0198 13010101 		addi	sp,sp,16
 302              		.cfi_def_cfa_offset 0
 303 019c 67800000 		jr	ra
 304              	.LVL19:
 305              	.L25:
 306              		.cfi_restore_state
 307              	.LBB14:
 308              	.LBB10:
  60:src/MemoryAllocator.cpp ****         curr->size +=next->size;
 309              		.loc 1 60 9 is_stmt 1
  61:src/MemoryAllocator.cpp ****         curr->next = next->next;
 310              		.loc 1 61 9
  61:src/MemoryAllocator.cpp ****         curr->next = next->next;
 311              		.loc 1 61 28 is_stmt 0
 312 01a0 03B68701 		ld	a2,24(a5)
  61:src/MemoryAllocator.cpp ****         curr->next = next->next;
 313              		.loc 1 61 20
 314 01a4 83B685FD 		ld	a3,-40(a1)
 315 01a8 B386C600 		add	a3,a3,a2
 316 01ac 23BCD5FC 		sd	a3,-40(a1)
  62:src/MemoryAllocator.cpp ****         if(next->next)
 317              		.loc 1 62 9 is_stmt 1
  62:src/MemoryAllocator.cpp ****         if(next->next)
 318              		.loc 1 62 28 is_stmt 0
 319 01b0 83B60700 		ld	a3,0(a5)
  62:src/MemoryAllocator.cpp ****         if(next->next)
 320              		.loc 1 62 20
 321 01b4 23B0D5FC 		sd	a3,-64(a1)
  63:src/MemoryAllocator.cpp ****             next->next->prev = curr;
 322              		.loc 1 63 9 is_stmt 1
  63:src/MemoryAllocator.cpp ****             next->next->prev = curr;
 323              		.loc 1 63 18 is_stmt 0
 324 01b8 83B70700 		ld	a5,0(a5)
 325              	.LVL20:
  63:src/MemoryAllocator.cpp ****             next->next->prev = curr;
 326              		.loc 1 63 9
 327 01bc E38007FC 		beqz	a5,.L19
  64:src/MemoryAllocator.cpp ****     }
GAS LISTING /tmp/cczOtxjr.s 			page 9


 328              		.loc 1 64 13 is_stmt 1
  64:src/MemoryAllocator.cpp ****     }
 329              		.loc 1 64 30 is_stmt 0
 330 01c0 23B4E700 		sd	a4,8(a5)
 331 01c4 6FF09FFB 		j	.L19
 332              	.LVL21:
 333              	.L26:
 334              	.LBE10:
 335              	.LBE14:
 336              	.LBB15:
 337              	.LBB12:
  68:src/MemoryAllocator.cpp ****         prev->size +=curr->size;
 338              		.loc 1 68 9 is_stmt 1
  69:src/MemoryAllocator.cpp ****         prev->next = curr->next;
 339              		.loc 1 69 9
  69:src/MemoryAllocator.cpp ****         prev->next = curr->next;
 340              		.loc 1 69 28 is_stmt 0
 341 01c8 83B685FD 		ld	a3,-40(a1)
  69:src/MemoryAllocator.cpp ****         prev->next = curr->next;
 342              		.loc 1 69 20
 343 01cc 03B78701 		ld	a4,24(a5)
 344 01d0 3307D700 		add	a4,a4,a3
 345 01d4 23BCE700 		sd	a4,24(a5)
  70:src/MemoryAllocator.cpp ****         if(curr->next)
 346              		.loc 1 70 9 is_stmt 1
  70:src/MemoryAllocator.cpp ****         if(curr->next)
 347              		.loc 1 70 28 is_stmt 0
 348 01d8 03B705FC 		ld	a4,-64(a1)
  70:src/MemoryAllocator.cpp ****         if(curr->next)
 349              		.loc 1 70 20
 350 01dc 23B0E700 		sd	a4,0(a5)
  71:src/MemoryAllocator.cpp ****             curr->next->prev = prev;
 351              		.loc 1 71 9 is_stmt 1
 352 01e0 63000702 		beqz	a4,.L23
  72:src/MemoryAllocator.cpp ****     }
 353              		.loc 1 72 13
  72:src/MemoryAllocator.cpp ****     }
 354              		.loc 1 72 30 is_stmt 0
 355 01e4 2334F700 		sd	a5,8(a4)
 356              	.LBE12:
 357              	.LBE15:
  74:src/MemoryAllocator.cpp **** }
 358              		.loc 1 74 12
 359 01e8 13050000 		li	a0,0
 360              	.LVL22:
 361              	.LBB16:
 362              	.LBB13:
 363 01ec 6FF09FFA 		j	.L18
 364              	.LVL23:
 365              	.L20:
 366              	.LBE13:
 367              	.LBE16:
  56:src/MemoryAllocator.cpp ****     curr->free=1;
 368              		.loc 1 56 22
 369 01f0 1305F0FF 		li	a0,-1
 370              	.LVL24:
 371 01f4 6FF01FFA 		j	.L18
GAS LISTING /tmp/cczOtxjr.s 			page 10


 372              	.LVL25:
 373              	.L21:
  74:src/MemoryAllocator.cpp **** }
 374              		.loc 1 74 12
 375 01f8 13050000 		li	a0,0
 376              	.LVL26:
 377 01fc 6FF09FF9 		j	.L18
 378              	.LVL27:
 379              	.L23:
 380 0200 13050000 		li	a0,0
 381              	.LVL28:
 382 0204 6FF01FF9 		j	.L18
 383              		.cfi_endproc
 384              	.LFE5:
 386              		.bss
 387              		.align	3
 388              		.set	.LANCHOR0,. + 0
 391              	_ZGVZN15MemoryAllocator11GetInstanceEvE4inst:
 392 0000 00000000 		.zero	8
 392      00000000 
 395              	_ZZN15MemoryAllocator11GetInstanceEvE4inst:
 396 0008 00000000 		.zero	8
 396      00000000 
 397              		.text
 398              	.Letext0:
 399              		.file 2 "src/../lib/hw.h"
 400              		.file 3 "src/MemoryAllocator.hpp"
GAS LISTING /tmp/cczOtxjr.s 			page 11


DEFINED SYMBOLS
                            *ABS*:0000000000000000 MemoryAllocator.cpp
     /tmp/cczOtxjr.s:9      .text:0000000000000000 _ZN15MemoryAllocatorC2Ev
     /tmp/cczOtxjr.s:13     .text:0000000000000000 .L0 
     /tmp/cczOtxjr.s:15     .text:0000000000000000 .L0 
     /tmp/cczOtxjr.s:16     .text:0000000000000004 .L0 
     /tmp/cczOtxjr.s:18     .text:0000000000000008 .L0 
     /tmp/cczOtxjr.s:20     .text:000000000000000c .L0 
     /tmp/cczOtxjr.s:23     .text:000000000000000c .L0 
     /tmp/cczOtxjr.s:24     .text:000000000000000c .L0 
     /tmp/cczOtxjr.s:27     .text:0000000000000018 .L0 
     /tmp/cczOtxjr.s:30     .text:0000000000000024 .L0 
     /tmp/cczOtxjr.s:34     .text:000000000000002c .L0 
     /tmp/cczOtxjr.s:35     .text:000000000000002c .L0 
     /tmp/cczOtxjr.s:38     .text:0000000000000030 .L0 
     /tmp/cczOtxjr.s:39     .text:0000000000000030 .L0 
     /tmp/cczOtxjr.s:42     .text:0000000000000034 .L0 
     /tmp/cczOtxjr.s:43     .text:0000000000000034 .L0 
     /tmp/cczOtxjr.s:44     .text:0000000000000034 .L0 
     /tmp/cczOtxjr.s:47     .text:000000000000003c .L0 
     /tmp/cczOtxjr.s:48     .text:000000000000003c .L0 
     /tmp/cczOtxjr.s:50     .text:0000000000000040 .L0 
     /tmp/cczOtxjr.s:51     .text:0000000000000040 .L0 
     /tmp/cczOtxjr.s:53     .text:0000000000000044 .L0 
     /tmp/cczOtxjr.s:54     .text:0000000000000044 .L0 
     /tmp/cczOtxjr.s:57     .text:0000000000000048 .L0 
     /tmp/cczOtxjr.s:58     .text:000000000000004c .L0 
     /tmp/cczOtxjr.s:59     .text:000000000000004c .L0 
     /tmp/cczOtxjr.s:61     .text:0000000000000050 .L0 
     /tmp/cczOtxjr.s:63     .text:0000000000000054 .L0 
     /tmp/cczOtxjr.s:9      .text:0000000000000000 _ZN15MemoryAllocatorC1Ev
     /tmp/cczOtxjr.s:71     .text:0000000000000054 _ZN15MemoryAllocator11GetInstanceEv
     /tmp/cczOtxjr.s:74     .text:0000000000000054 .L0 
     /tmp/cczOtxjr.s:75     .text:0000000000000054 .L0 
     /tmp/cczOtxjr.s:76     .text:0000000000000054 .L0 
     /tmp/cczOtxjr.s:77     .text:0000000000000054 .L0 
     /tmp/cczOtxjr.s:80     .text:0000000000000060 .L0 
     /tmp/cczOtxjr.s:81     .text:0000000000000060 .L0 
     /tmp/cczOtxjr.s:85     .text:000000000000006c .L0 
     /tmp/cczOtxjr.s:86     .text:0000000000000070 .L0 
     /tmp/cczOtxjr.s:89     .text:0000000000000078 .L0 
     /tmp/cczOtxjr.s:90     .text:0000000000000078 .L0 
     /tmp/cczOtxjr.s:92     .text:000000000000007c .L0 
     /tmp/cczOtxjr.s:94     .text:000000000000007c .L0 
     /tmp/cczOtxjr.s:100    .text:0000000000000098 .L0 
     /tmp/cczOtxjr.s:101    .text:0000000000000098 .L0 
     /tmp/cczOtxjr.s:103    .text:00000000000000a4 .L0 
     /tmp/cczOtxjr.s:105    .text:00000000000000a8 .L0 
     /tmp/cczOtxjr.s:106    .text:00000000000000a8 .L0 
     /tmp/cczOtxjr.s:108    .text:00000000000000ac .L0 
     /tmp/cczOtxjr.s:110    .text:00000000000000b0 .L0 
     /tmp/cczOtxjr.s:116    .text:00000000000000b0 _ZN15MemoryAllocator16AllocateFragmentEm
     /tmp/cczOtxjr.s:119    .text:00000000000000b0 .L0 
     /tmp/cczOtxjr.s:121    .text:00000000000000b0 .L0 
     /tmp/cczOtxjr.s:122    .text:00000000000000b4 .L0 
     /tmp/cczOtxjr.s:124    .text:00000000000000b8 .L0 
     /tmp/cczOtxjr.s:126    .text:00000000000000bc .L0 
GAS LISTING /tmp/cczOtxjr.s 			page 12


     /tmp/cczOtxjr.s:128    .text:00000000000000bc .L0 
     /tmp/cczOtxjr.s:129    .text:00000000000000bc .L0 
     /tmp/cczOtxjr.s:132    .text:00000000000000c0 .L0 
     /tmp/cczOtxjr.s:133    .text:00000000000000c0 .L0 
     /tmp/cczOtxjr.s:136    .text:00000000000000c4 .L0 
     /tmp/cczOtxjr.s:142    .text:00000000000000cc .L0 
     /tmp/cczOtxjr.s:143    .text:00000000000000cc .L0 
     /tmp/cczOtxjr.s:148    .text:00000000000000d0 .L0 
     /tmp/cczOtxjr.s:149    .text:00000000000000d0 .L0 
     /tmp/cczOtxjr.s:153    .text:00000000000000d4 .L0 
     /tmp/cczOtxjr.s:154    .text:00000000000000d4 .L0 
     /tmp/cczOtxjr.s:156    .text:00000000000000d8 .L0 
     /tmp/cczOtxjr.s:159    .text:00000000000000e0 .L0 
     /tmp/cczOtxjr.s:161    .text:00000000000000e4 .L0 
     /tmp/cczOtxjr.s:163    .text:00000000000000e8 .L0 
     /tmp/cczOtxjr.s:166    .text:00000000000000ec .L0 
     /tmp/cczOtxjr.s:167    .text:00000000000000ec .L0 
     /tmp/cczOtxjr.s:170    .text:00000000000000f0 .L0 
     /tmp/cczOtxjr.s:173    .text:00000000000000f4 .L0 
     /tmp/cczOtxjr.s:174    .text:00000000000000f4 .L0 
     /tmp/cczOtxjr.s:177    .text:00000000000000f8 .L0 
     /tmp/cczOtxjr.s:178    .text:00000000000000f8 .L0 
     /tmp/cczOtxjr.s:180    .text:00000000000000fc .L0 
     /tmp/cczOtxjr.s:182    .text:0000000000000100 .L0 
     /tmp/cczOtxjr.s:185    .text:0000000000000104 .L0 
     /tmp/cczOtxjr.s:186    .text:0000000000000104 .L0 
     /tmp/cczOtxjr.s:187    .text:0000000000000104 .L0 
     /tmp/cczOtxjr.s:190    .text:000000000000010c .L0 
     /tmp/cczOtxjr.s:191    .text:000000000000010c .L0 
     /tmp/cczOtxjr.s:193    .text:0000000000000110 .L0 
     /tmp/cczOtxjr.s:195    .text:0000000000000114 .L0 
     /tmp/cczOtxjr.s:197    .text:0000000000000118 .L0 
     /tmp/cczOtxjr.s:199    .text:000000000000011c .L0 
     /tmp/cczOtxjr.s:200    .text:000000000000011c .L0 
     /tmp/cczOtxjr.s:202    .text:0000000000000120 .L0 
     /tmp/cczOtxjr.s:204    .text:0000000000000124 .L0 
     /tmp/cczOtxjr.s:205    .text:0000000000000124 .L0 
     /tmp/cczOtxjr.s:208    .text:0000000000000128 .L0 
     /tmp/cczOtxjr.s:209    .text:0000000000000128 .L0 
     /tmp/cczOtxjr.s:211    .text:000000000000012c .L0 
     /tmp/cczOtxjr.s:212    .text:000000000000012c .L0 
     /tmp/cczOtxjr.s:214    .text:0000000000000130 .L0 
     /tmp/cczOtxjr.s:217    .text:0000000000000134 .L0 
     /tmp/cczOtxjr.s:219    .text:0000000000000138 .L0 
     /tmp/cczOtxjr.s:225    .text:000000000000013c .L0 
     /tmp/cczOtxjr.s:226    .text:000000000000013c .L0 
     /tmp/cczOtxjr.s:233    .text:0000000000000140 .L0 
     /tmp/cczOtxjr.s:234    .text:0000000000000144 .L0 
     /tmp/cczOtxjr.s:235    .text:0000000000000144 .L0 
     /tmp/cczOtxjr.s:237    .text:0000000000000148 .L0 
     /tmp/cczOtxjr.s:239    .text:000000000000014c .L0 
     /tmp/cczOtxjr.s:245    .text:000000000000014c _ZN15MemoryAllocator12FreeFragmentEPv
     /tmp/cczOtxjr.s:248    .text:000000000000014c .L0 
     /tmp/cczOtxjr.s:250    .text:000000000000014c .L0 
     /tmp/cczOtxjr.s:251    .text:0000000000000150 .L0 
     /tmp/cczOtxjr.s:253    .text:0000000000000154 .L0 
     /tmp/cczOtxjr.s:255    .text:0000000000000158 .L0 
GAS LISTING /tmp/cczOtxjr.s 			page 13


     /tmp/cczOtxjr.s:257    .text:0000000000000158 .L0 
     /tmp/cczOtxjr.s:258    .text:0000000000000158 .L0 
     /tmp/cczOtxjr.s:261    .text:000000000000015c .L0 
     /tmp/cczOtxjr.s:263    .text:0000000000000160 .L0 
     /tmp/cczOtxjr.s:264    .text:0000000000000160 .L0 
     /tmp/cczOtxjr.s:268    .text:0000000000000168 .L0 
     /tmp/cczOtxjr.s:269    .text:0000000000000168 .L0 
     /tmp/cczOtxjr.s:271    .text:000000000000016c .L0 
     /tmp/cczOtxjr.s:273    .text:0000000000000170 .L0 
     /tmp/cczOtxjr.s:275    .text:0000000000000174 .L0 
     /tmp/cczOtxjr.s:281    .text:000000000000017c .L0 
     /tmp/cczOtxjr.s:282    .text:000000000000017c .L0 
     /tmp/cczOtxjr.s:284    .text:0000000000000180 .L0 
     /tmp/cczOtxjr.s:286    .text:0000000000000184 .L0 
     /tmp/cczOtxjr.s:288    .text:0000000000000188 .L0 
     /tmp/cczOtxjr.s:293    .text:0000000000000190 .L0 
     /tmp/cczOtxjr.s:297    .text:0000000000000194 .L0 
     /tmp/cczOtxjr.s:298    .text:0000000000000198 .L0 
     /tmp/cczOtxjr.s:299    .text:0000000000000198 .L0 
     /tmp/cczOtxjr.s:300    .text:0000000000000198 .L0 
     /tmp/cczOtxjr.s:302    .text:000000000000019c .L0 
     /tmp/cczOtxjr.s:306    .text:00000000000001a0 .L0 
     /tmp/cczOtxjr.s:310    .text:00000000000001a0 .L0 
     /tmp/cczOtxjr.s:311    .text:00000000000001a0 .L0 
     /tmp/cczOtxjr.s:312    .text:00000000000001a0 .L0 
     /tmp/cczOtxjr.s:314    .text:00000000000001a4 .L0 
     /tmp/cczOtxjr.s:318    .text:00000000000001b0 .L0 
     /tmp/cczOtxjr.s:319    .text:00000000000001b0 .L0 
     /tmp/cczOtxjr.s:321    .text:00000000000001b4 .L0 
     /tmp/cczOtxjr.s:323    .text:00000000000001b8 .L0 
     /tmp/cczOtxjr.s:324    .text:00000000000001b8 .L0 
     /tmp/cczOtxjr.s:327    .text:00000000000001bc .L0 
     /tmp/cczOtxjr.s:329    .text:00000000000001c0 .L0 
     /tmp/cczOtxjr.s:330    .text:00000000000001c0 .L0 
     /tmp/cczOtxjr.s:339    .text:00000000000001c8 .L0 
     /tmp/cczOtxjr.s:340    .text:00000000000001c8 .L0 
     /tmp/cczOtxjr.s:341    .text:00000000000001c8 .L0 
     /tmp/cczOtxjr.s:343    .text:00000000000001cc .L0 
     /tmp/cczOtxjr.s:347    .text:00000000000001d8 .L0 
     /tmp/cczOtxjr.s:348    .text:00000000000001d8 .L0 
     /tmp/cczOtxjr.s:350    .text:00000000000001dc .L0 
     /tmp/cczOtxjr.s:352    .text:00000000000001e0 .L0 
     /tmp/cczOtxjr.s:354    .text:00000000000001e4 .L0 
     /tmp/cczOtxjr.s:355    .text:00000000000001e4 .L0 
     /tmp/cczOtxjr.s:359    .text:00000000000001e8 .L0 
     /tmp/cczOtxjr.s:369    .text:00000000000001f0 .L0 
     /tmp/cczOtxjr.s:375    .text:00000000000001f8 .L0 
     /tmp/cczOtxjr.s:383    .text:0000000000000208 .L0 
     /tmp/cczOtxjr.s:388    .bss:0000000000000000 .LANCHOR0
     /tmp/cczOtxjr.s:391    .bss:0000000000000000 _ZGVZN15MemoryAllocator11GetInstanceEvE4inst
     /tmp/cczOtxjr.s:395    .bss:0000000000000008 _ZZN15MemoryAllocator11GetInstanceEvE4inst
     /tmp/cczOtxjr.s:401    .text:0000000000000208 .L0 
     /tmp/cczOtxjr.s:24     .text:000000000000000c .L0 
     /tmp/cczOtxjr.s:27     .text:0000000000000018 .L0 
     /tmp/cczOtxjr.s:77     .text:0000000000000054 .L0 
     /tmp/cczOtxjr.s:81     .text:0000000000000060 .L0 
     /tmp/cczOtxjr.s:94     .text:000000000000007c .L0 
GAS LISTING /tmp/cczOtxjr.s 			page 14


     /tmp/cczOtxjr.s:98     .text:0000000000000090 .L0 
     /tmp/cczOtxjr.s:101    .text:0000000000000098 .L0 
     /tmp/cczOtxjr.s:83     .text:000000000000006c .L9
     /tmp/cczOtxjr.s:145    .text:00000000000000d0 .L15
     /tmp/cczOtxjr.s:228    .text:0000000000000140 .L10
     /tmp/cczOtxjr.s:139    .text:00000000000000cc .L12
     /tmp/cczOtxjr.s:221    .text:000000000000013c .L13
     /tmp/cczOtxjr.s:206    .text:0000000000000128 .L14
     /tmp/cczOtxjr.s:365    .text:00000000000001f0 .L20
     /tmp/cczOtxjr.s:277    .text:000000000000017c .L19
     /tmp/cczOtxjr.s:305    .text:00000000000001a0 .L25
     /tmp/cczOtxjr.s:373    .text:00000000000001f8 .L21
     /tmp/cczOtxjr.s:333    .text:00000000000001c8 .L26
     /tmp/cczOtxjr.s:379    .text:0000000000000200 .L23
     /tmp/cczOtxjr.s:295    .text:0000000000000194 .L18
     /tmp/cczOtxjr.s:876    .debug_abbrev:0000000000000000 .Ldebug_abbrev0
     /tmp/cczOtxjr.s:1752   .debug_str:000000000000010b .LASF40
     /tmp/cczOtxjr.s:1770   .debug_str:0000000000000247 .LASF41
     /tmp/cczOtxjr.s:1742   .debug_str:00000000000000b7 .LASF42
     /tmp/cczOtxjr.s:5      .text:0000000000000000 .Ltext0
     /tmp/cczOtxjr.s:398    .text:0000000000000208 .Letext0
     /tmp/cczOtxjr.s:1710   .debug_line:0000000000000000 .Ldebug_line0
     /tmp/cczOtxjr.s:1760   .debug_str:00000000000001f9 .LASF0
     /tmp/cczOtxjr.s:1746   .debug_str:00000000000000e7 .LASF1
     /tmp/cczOtxjr.s:1738   .debug_str:00000000000000a4 .LASF2
     /tmp/cczOtxjr.s:1784   .debug_str:00000000000002d0 .LASF3
     /tmp/cczOtxjr.s:1724   .debug_str:0000000000000042 .LASF4
     /tmp/cczOtxjr.s:1744   .debug_str:00000000000000d5 .LASF5
     /tmp/cczOtxjr.s:1716   .debug_str:0000000000000023 .LASF6
     /tmp/cczOtxjr.s:1712   .debug_str:0000000000000000 .LASF7
     /tmp/cczOtxjr.s:1732   .debug_str:0000000000000075 .LASF8
     /tmp/cczOtxjr.s:1766   .debug_str:0000000000000221 .LASF9
     /tmp/cczOtxjr.s:1722   .debug_str:0000000000000034 .LASF10
     /tmp/cczOtxjr.s:1804   .debug_str:0000000000000364 .LASF11
     /tmp/cczOtxjr.s:1734   .debug_str:0000000000000088 .LASF12
     /tmp/cczOtxjr.s:1794   .debug_str:0000000000000315 .LASF13
     /tmp/cczOtxjr.s:1772   .debug_str:000000000000025f .LASF14
     /tmp/cczOtxjr.s:1748   .debug_str:00000000000000fa .LASF15
     /tmp/cczOtxjr.s:1728   .debug_str:0000000000000056 .LASF16
     /tmp/cczOtxjr.s:1768   .debug_str:0000000000000231 .LASF17
     /tmp/cczOtxjr.s:1730   .debug_str:000000000000006c .LASF22
     /tmp/cczOtxjr.s:1718   .debug_str:000000000000002a .LASF18
     /tmp/cczOtxjr.s:1800   .debug_str:0000000000000353 .LASF19
     /tmp/cczOtxjr.s:1774   .debug_str:000000000000026f .LASF20
     /tmp/cczOtxjr.s:1798   .debug_str:000000000000034e .LASF21
     /tmp/cczOtxjr.s:1714   .debug_str:0000000000000013 .LASF23
     /tmp/cczOtxjr.s:1756   .debug_str:00000000000001e8 .LASF43
     /tmp/cczOtxjr.s:1786   .debug_str:00000000000002d6 .LASF44
     /tmp/cczOtxjr.s:1762   .debug_str:0000000000000206 .LASF24
     /tmp/cczOtxjr.s:1796   .debug_str:0000000000000325 .LASF26
     /tmp/cczOtxjr.s:1726   .debug_str:0000000000000049 .LASF25
     /tmp/cczOtxjr.s:1776   .debug_str:0000000000000274 .LASF27
     /tmp/cczOtxjr.s:1758   .debug_str:00000000000001f4 .LASF28
     /tmp/cczOtxjr.s:1754   .debug_str:00000000000001cf .LASF45
     /tmp/cczOtxjr.s:1778   .debug_str:000000000000029a .LASF29
     /tmp/cczOtxjr.s:1802   .debug_str:0000000000000358 .LASF30
     /tmp/cczOtxjr.s:246    .text:000000000000014c .LFB5
GAS LISTING /tmp/cczOtxjr.s 			page 15


     /tmp/cczOtxjr.s:384    .text:0000000000000208 .LFE5
     /tmp/cczOtxjr.s:1740   .debug_str:00000000000000b2 .LASF32
     /tmp/cczOtxjr.s:1507   .debug_loc:0000000000000000 .LLST6
     /tmp/cczOtxjr.s:1788   .debug_str:00000000000002fa .LASF33
     /tmp/cczOtxjr.s:1720   .debug_str:000000000000002f .LASF31
     /tmp/cczOtxjr.s:1565   .debug_loc:00000000000000dd .LLST7
     /tmp/cczOtxjr.s:308    .text:00000000000001a0 .LBB10
     /tmp/cczOtxjr.s:334    .text:00000000000001c8 .LBE10
     /tmp/cczOtxjr.s:1598   .debug_loc:0000000000000165 .LLST8
     /tmp/cczOtxjr.s:1702   .debug_ranges:0000000000000000 .Ldebug_ranges0
     /tmp/cczOtxjr.s:1605   .debug_loc:0000000000000188 .LLST9
     /tmp/cczOtxjr.s:117    .text:00000000000000b0 .LFB4
     /tmp/cczOtxjr.s:240    .text:000000000000014c .LFE4
     /tmp/cczOtxjr.s:1616   .debug_loc:00000000000001be .LLST1
     /tmp/cczOtxjr.s:1630   .debug_loc:00000000000001f7 .LLST2
     /tmp/cczOtxjr.s:1650   .debug_loc:0000000000000245 .LLST3
     /tmp/cczOtxjr.s:1736   .debug_str:0000000000000097 .LASF34
     /tmp/cczOtxjr.s:171    .text:00000000000000f4 .LBB7
     /tmp/cczOtxjr.s:222    .text:000000000000013c .LBE7
     /tmp/cczOtxjr.s:1657   .debug_loc:0000000000000268 .LLST4
     /tmp/cczOtxjr.s:1790   .debug_str:0000000000000303 .LASF35
     /tmp/cczOtxjr.s:1664   .debug_loc:000000000000028b .LLST5
     /tmp/cczOtxjr.s:72     .text:0000000000000054 .LFB3
     /tmp/cczOtxjr.s:111    .text:00000000000000b0 .LFE3
     /tmp/cczOtxjr.s:1750   .debug_str:0000000000000106 .LASF36
     /tmp/cczOtxjr.s:96     .text:000000000000008c .LVL4
     /tmp/cczOtxjr.s:1792   .debug_str:000000000000030b .LASF37
     /tmp/cczOtxjr.s:1780   .debug_str:00000000000002a8 .LASF38
     /tmp/cczOtxjr.s:1764   .debug_str:0000000000000217 .LASF39
     /tmp/cczOtxjr.s:1782   .debug_str:00000000000002b7 .LASF46
     /tmp/cczOtxjr.s:10     .text:0000000000000000 .LFB1
     /tmp/cczOtxjr.s:64     .text:0000000000000054 .LFE1
     /tmp/cczOtxjr.s:21     .text:000000000000000c .LBB2
     /tmp/cczOtxjr.s:55     .text:0000000000000048 .LBE2
     /tmp/cczOtxjr.s:1682   .debug_loc:00000000000002c8 .LLST0
     /tmp/cczOtxjr.s:249    .text:000000000000014c .LVL15
     /tmp/cczOtxjr.s:294    .text:0000000000000194 .LVL18
     /tmp/cczOtxjr.s:304    .text:00000000000001a0 .LVL19
     /tmp/cczOtxjr.s:360    .text:00000000000001ec .LVL22
     /tmp/cczOtxjr.s:364    .text:00000000000001f0 .LVL23
     /tmp/cczOtxjr.s:370    .text:00000000000001f4 .LVL24
     /tmp/cczOtxjr.s:372    .text:00000000000001f8 .LVL25
     /tmp/cczOtxjr.s:376    .text:00000000000001fc .LVL26
     /tmp/cczOtxjr.s:378    .text:0000000000000200 .LVL27
     /tmp/cczOtxjr.s:381    .text:0000000000000204 .LVL28
     /tmp/cczOtxjr.s:259    .text:000000000000015c .LVL16
     /tmp/cczOtxjr.s:289    .text:000000000000018c .LVL17
     /tmp/cczOtxjr.s:332    .text:00000000000001c8 .LVL21
     /tmp/cczOtxjr.s:325    .text:00000000000001bc .LVL20
     /tmp/cczOtxjr.s:120    .text:00000000000000b0 .LVL5
     /tmp/cczOtxjr.s:130    .text:00000000000000c0 .LVL6
     /tmp/cczOtxjr.s:134    .text:00000000000000c4 .LVL7
     /tmp/cczOtxjr.s:137    .text:00000000000000c8 .LVL8
     /tmp/cczOtxjr.s:227    .text:0000000000000140 .LVL14
     /tmp/cczOtxjr.s:175    .text:00000000000000f8 .LVL10
     /tmp/cczOtxjr.s:220    .text:000000000000013c .LVL13
     /tmp/cczOtxjr.s:184    .text:0000000000000104 .LVL11
GAS LISTING /tmp/cczOtxjr.s 			page 16


     /tmp/cczOtxjr.s:215    .text:0000000000000134 .LVL12
     /tmp/cczOtxjr.s:32     .text:000000000000002c .LVL1
     /tmp/cczOtxjr.s:36     .text:0000000000000030 .LVL2
     /tmp/cczOtxjr.s:402    .debug_info:0000000000000000 .Ldebug_info0
     /tmp/cczOtxjr.s:337    .text:00000000000001c8 .LBB12
     /tmp/cczOtxjr.s:356    .text:00000000000001e8 .LBE12
     /tmp/cczOtxjr.s:362    .text:00000000000001ec .LBB13
     /tmp/cczOtxjr.s:366    .text:00000000000001f0 .LBE13

UNDEFINED SYMBOLS
HEAP_END_ADDR
HEAP_START_ADDR
