GAS LISTING /tmp/cck9ALOD.s 			page 1


   1              		.file	"Scheduler.cpp"
   2              		.option pic
   3              		.option norelax
   4              		.text
   5              	.Ltext0:
   6              		.align	2
   7              		.globl	_ZN9Scheduler10GetRunningEv
   9              	_ZN9Scheduler10GetRunningEv:
  10              	.LFB3:
  11              		.file 1 "src/Scheduler.cpp"
   1:src/Scheduler.cpp **** //
   2:src/Scheduler.cpp **** // Created by os on 6/10/26.
   3:src/Scheduler.cpp **** //
   4:src/Scheduler.cpp **** 
   5:src/Scheduler.cpp **** #include "Scheduler.hpp"
   6:src/Scheduler.cpp **** 
   7:src/Scheduler.cpp **** #include "MemoryAllocator.hpp"
   8:src/Scheduler.cpp **** 
   9:src/Scheduler.cpp **** extern "C" void saveContext(size_t* ctx);
  10:src/Scheduler.cpp **** extern "C" void restoreContext(size_t* ctx);
  11:src/Scheduler.cpp **** extern "C" void setupStartContext(size_t* ctx);
  12:src/Scheduler.cpp **** 
  13:src/Scheduler.cpp **** Thread* Scheduler::running = nullptr;
  14:src/Scheduler.cpp **** Thread* Scheduler::readyQueue = nullptr;
  15:src/Scheduler.cpp **** Thread* Scheduler::readyQueueEnd = nullptr;
  16:src/Scheduler.cpp **** size_t* Scheduler::stack_cursor = nullptr;
  17:src/Scheduler.cpp **** 
  18:src/Scheduler.cpp **** 
  19:src/Scheduler.cpp **** Thread* Scheduler::GetRunning(){
  12              		.loc 1 19 32
  13              		.cfi_startproc
  14 0000 130101FF 		addi	sp,sp,-16
  15              		.cfi_def_cfa_offset 16
  16 0004 23348100 		sd	s0,8(sp)
  17              		.cfi_offset 8, -8
  18 0008 13040101 		addi	s0,sp,16
  19              		.cfi_def_cfa 8, 0
  20:src/Scheduler.cpp ****     return running;
  20              		.loc 1 20 5
  21:src/Scheduler.cpp **** }
  21              		.loc 1 21 1 is_stmt 0
  22 000c 17050000 		ld	a0,.LANCHOR0
  22      03350500 
  23 0014 03348100 		ld	s0,8(sp)
  24              		.cfi_restore 8
  25              		.cfi_def_cfa 2, 16
  26 0018 13010101 		addi	sp,sp,16
  27              		.cfi_def_cfa_offset 0
  28 001c 67800000 		jr	ra
  29              		.cfi_endproc
  30              	.LFE3:
  32              		.align	2
  33              		.globl	_ZN9Scheduler5yieldEP6ThreadS1_
  35              	_ZN9Scheduler5yieldEP6ThreadS1_:
  36              	.LFB4:
  22:src/Scheduler.cpp **** void Scheduler::yield(Thread* oldThread, Thread* newThread){
  37              		.loc 1 22 60 is_stmt 1
GAS LISTING /tmp/cck9ALOD.s 			page 2


  38              		.cfi_startproc
  39              	.LVL0:
  40 0020 130101FE 		addi	sp,sp,-32
  41              		.cfi_def_cfa_offset 32
  42 0024 233C1100 		sd	ra,24(sp)
  43 0028 23388100 		sd	s0,16(sp)
  44 002c 23349100 		sd	s1,8(sp)
  45              		.cfi_offset 1, -8
  46              		.cfi_offset 8, -16
  47              		.cfi_offset 9, -24
  48 0030 13040102 		addi	s0,sp,32
  49              		.cfi_def_cfa 8, 0
  50 0034 93840500 		mv	s1,a1
  23:src/Scheduler.cpp ****     if (oldThread != nullptr)//TODO: Add error and remove this temp logic
  51              		.loc 1 23 5
  52 0038 630A0500 		beqz	a0,.L4
  24:src/Scheduler.cpp ****         saveContext(oldThread->getContext());
  53              		.loc 1 24 9
  54              		.loc 1 24 20 is_stmt 0
  55 003c 97000000 		call	_ZN6Thread10getContextEv@plt
  55      E7800000 
  56              	.LVL1:
  57 0044 97000000 		call	saveContext@plt
  57      E7800000 
  58              	.LVL2:
  59              	.L4:
  25:src/Scheduler.cpp ****     restoreContext(newThread->getContext());
  60              		.loc 1 25 5 is_stmt 1
  61              		.loc 1 25 19 is_stmt 0
  62 004c 13850400 		mv	a0,s1
  63 0050 97000000 		call	_ZN6Thread10getContextEv@plt
  63      E7800000 
  64              	.LVL3:
  65 0058 97000000 		call	restoreContext@plt
  65      E7800000 
  66              	.LVL4:
  26:src/Scheduler.cpp **** }
  67              		.loc 1 26 1
  68 0060 83308101 		ld	ra,24(sp)
  69              		.cfi_restore 1
  70 0064 03340101 		ld	s0,16(sp)
  71              		.cfi_restore 8
  72              		.cfi_def_cfa 2, 32
  73 0068 83348100 		ld	s1,8(sp)
  74              		.cfi_restore 9
  75              	.LVL5:
  76 006c 13010102 		addi	sp,sp,32
  77              		.cfi_def_cfa_offset 0
  78 0070 67800000 		jr	ra
  79              		.cfi_endproc
  80              	.LFE4:
  82              		.align	2
  83              		.globl	_ZN9Scheduler7GetNextEv
  85              	_ZN9Scheduler7GetNextEv:
  86              	.LFB5:
  27:src/Scheduler.cpp **** Thread* Scheduler::GetNext(){
  87              		.loc 1 27 29 is_stmt 1
GAS LISTING /tmp/cck9ALOD.s 			page 3


  88              		.cfi_startproc
  89 0074 130101FE 		addi	sp,sp,-32
  90              		.cfi_def_cfa_offset 32
  91 0078 233C1100 		sd	ra,24(sp)
  92 007c 23388100 		sd	s0,16(sp)
  93 0080 23349100 		sd	s1,8(sp)
  94 0084 23302101 		sd	s2,0(sp)
  95              		.cfi_offset 1, -8
  96              		.cfi_offset 8, -16
  97              		.cfi_offset 9, -24
  98              		.cfi_offset 18, -32
  99 0088 13040102 		addi	s0,sp,32
 100              		.cfi_def_cfa 8, 0
  28:src/Scheduler.cpp ****     //TODO: Add checks if empty and stuff
  29:src/Scheduler.cpp ****     Thread* toRet = readyQueue;
 101              		.loc 1 29 5
 102              		.loc 1 29 13 is_stmt 0
 103 008c 17090000 		lla	s2,.LANCHOR0
 103      13090900 
 104 0094 83348900 		ld	s1,8(s2)
 105              	.LVL6:
  30:src/Scheduler.cpp ****     readyQueue = readyQueue->getNextInQueue();
 106              		.loc 1 30 5 is_stmt 1
 107              		.loc 1 30 44 is_stmt 0
 108 0098 13850400 		mv	a0,s1
 109 009c 97000000 		call	_ZN6Thread14getNextInQueueEv@plt
 109      E7800000 
 110              	.LVL7:
 111              		.loc 1 30 16
 112 00a4 2334A900 		sd	a0,8(s2)
  31:src/Scheduler.cpp ****     return toRet;
 113              		.loc 1 31 5 is_stmt 1
  32:src/Scheduler.cpp **** }
 114              		.loc 1 32 1 is_stmt 0
 115 00a8 13850400 		mv	a0,s1
 116 00ac 83308101 		ld	ra,24(sp)
 117              		.cfi_restore 1
 118 00b0 03340101 		ld	s0,16(sp)
 119              		.cfi_restore 8
 120              		.cfi_def_cfa 2, 32
 121 00b4 83348100 		ld	s1,8(sp)
 122              		.cfi_restore 9
 123              	.LVL8:
 124 00b8 03390100 		ld	s2,0(sp)
 125              		.cfi_restore 18
 126 00bc 13010102 		addi	sp,sp,32
 127              		.cfi_def_cfa_offset 0
 128 00c0 67800000 		jr	ra
 129              		.cfi_endproc
 130              	.LFE5:
 132              		.align	2
 133              		.globl	_ZN9Scheduler3PutEP6Thread
 135              	_ZN9Scheduler3PutEP6Thread:
 136              	.LFB6:
  33:src/Scheduler.cpp **** void Scheduler::Put(Thread* thread){
 137              		.loc 1 33 36 is_stmt 1
 138              		.cfi_startproc
GAS LISTING /tmp/cck9ALOD.s 			page 4


 139              	.LVL9:
 140 00c4 130101FE 		addi	sp,sp,-32
 141              		.cfi_def_cfa_offset 32
 142 00c8 233C1100 		sd	ra,24(sp)
 143 00cc 23388100 		sd	s0,16(sp)
 144 00d0 23349100 		sd	s1,8(sp)
 145 00d4 23302101 		sd	s2,0(sp)
 146              		.cfi_offset 1, -8
 147              		.cfi_offset 8, -16
 148              		.cfi_offset 9, -24
 149              		.cfi_offset 18, -32
 150 00d8 13040102 		addi	s0,sp,32
 151              		.cfi_def_cfa 8, 0
 152 00dc 93040500 		mv	s1,a0
  34:src/Scheduler.cpp ****     //TODO: Add checks if it already exists
  35:src/Scheduler.cpp ****     thread->setNextAndPrevInQueue(nullptr, readyQueueEnd);
 153              		.loc 1 35 5
 154              		.loc 1 35 34 is_stmt 0
 155 00e0 17090000 		lla	s2,.LANCHOR0
 155      13090900 
 156 00e8 03360901 		ld	a2,16(s2)
 157 00ec 93050000 		li	a1,0
 158 00f0 97000000 		call	_ZN6Thread21setNextAndPrevInQueueEPS_S0_@plt
 158      E7800000 
 159              	.LVL10:
  36:src/Scheduler.cpp ****     readyQueueEnd->setNextInQueue(thread);
 160              		.loc 1 36 5 is_stmt 1
 161              		.loc 1 36 34 is_stmt 0
 162 00f8 93850400 		mv	a1,s1
 163 00fc 03350901 		ld	a0,16(s2)
 164 0100 97000000 		call	_ZN6Thread14setNextInQueueEPS_@plt
 164      E7800000 
 165              	.LVL11:
  37:src/Scheduler.cpp ****     readyQueueEnd = thread;
 166              		.loc 1 37 5 is_stmt 1
 167              		.loc 1 37 19 is_stmt 0
 168 0108 23389900 		sd	s1,16(s2)
  38:src/Scheduler.cpp **** }
 169              		.loc 1 38 1
 170 010c 83308101 		ld	ra,24(sp)
 171              		.cfi_restore 1
 172 0110 03340101 		ld	s0,16(sp)
 173              		.cfi_restore 8
 174              		.cfi_def_cfa 2, 32
 175 0114 83348100 		ld	s1,8(sp)
 176              		.cfi_restore 9
 177              	.LVL12:
 178 0118 03390100 		ld	s2,0(sp)
 179              		.cfi_restore 18
 180 011c 13010102 		addi	sp,sp,32
 181              		.cfi_def_cfa_offset 0
 182 0120 67800000 		jr	ra
 183              		.cfi_endproc
 184              	.LFE6:
 186              		.align	2
 187              		.globl	_ZN9Scheduler15SetupStartStackEv
 189              	_ZN9Scheduler15SetupStartStackEv:
GAS LISTING /tmp/cck9ALOD.s 			page 5


 190              	.LFB7:
  39:src/Scheduler.cpp **** 
  40:src/Scheduler.cpp **** extern "C" char end[];
  41:src/Scheduler.cpp **** 
  42:src/Scheduler.cpp **** void Scheduler::SetupStartStack() {
 191              		.loc 1 42 35 is_stmt 1
 192              		.cfi_startproc
 193 0124 130101FF 		addi	sp,sp,-16
 194              		.cfi_def_cfa_offset 16
 195 0128 23348100 		sd	s0,8(sp)
 196              		.cfi_offset 8, -8
 197 012c 13040101 		addi	s0,sp,16
 198              		.cfi_def_cfa 8, 0
  43:src/Scheduler.cpp **** 
  44:src/Scheduler.cpp ****     Scheduler::stack_cursor = reinterpret_cast<size_t*>(
 199              		.loc 1 44 5
  45:src/Scheduler.cpp ****         ((reinterpret_cast<size_t>(end) + 7) & ~7)
 200              		.loc 1 45 41 is_stmt 0
 201 0130 97070000 		la	a5,end
 201      83B70700 
 202 0138 93877700 		addi	a5,a5,7
 203              		.loc 1 45 46
 204 013c 93F787FF 		andi	a5,a5,-8
  44:src/Scheduler.cpp ****         ((reinterpret_cast<size_t>(end) + 7) & ~7)
 205              		.loc 1 44 29
 206 0140 17070000 		sd	a5,.LANCHOR0+24,a4
 206      2330F700 
  46:src/Scheduler.cpp ****     );
  47:src/Scheduler.cpp **** }
 207              		.loc 1 47 1
 208 0148 03348100 		ld	s0,8(sp)
 209              		.cfi_restore 8
 210              		.cfi_def_cfa 2, 16
 211 014c 13010101 		addi	sp,sp,16
 212              		.cfi_def_cfa_offset 0
 213 0150 67800000 		jr	ra
 214              		.cfi_endproc
 215              	.LFE7:
 217              		.align	2
 218              		.globl	_ZN9Scheduler16SetupStartThreadEv
 220              	_ZN9Scheduler16SetupStartThreadEv:
 221              	.LFB8:
  48:src/Scheduler.cpp **** 
  49:src/Scheduler.cpp **** void Scheduler::SetupStartThread() {
 222              		.loc 1 49 36 is_stmt 1
 223              		.cfi_startproc
 224 0154 130101FF 		addi	sp,sp,-16
 225              		.cfi_def_cfa_offset 16
 226 0158 23341100 		sd	ra,8(sp)
 227 015c 23308100 		sd	s0,0(sp)
 228              		.cfi_offset 1, -8
 229              		.cfi_offset 8, -16
 230 0160 13040101 		addi	s0,sp,16
 231              		.cfi_def_cfa 8, 0
  50:src/Scheduler.cpp ****     SetupStartStack();
 232              		.loc 1 50 5
 233              		.loc 1 50 20 is_stmt 0
GAS LISTING /tmp/cck9ALOD.s 			page 6


 234 0164 97000000 		call	_ZN9Scheduler15SetupStartStackEv
 234      E7800000 
 235              	.LVL13:
  51:src/Scheduler.cpp ****     running = static_cast<Thread*>(MemoryAllocator::GetInstance().AllocateFragment(sizeof(Thread)))
 236              		.loc 1 51 5 is_stmt 1
 237              		.loc 1 51 65 is_stmt 0
 238 016c 97000000 		call	_ZN15MemoryAllocator11GetInstanceEv@plt
 238      E7800000 
 239              	.LVL14:
 240              		.loc 1 51 83
 241 0174 B7850000 		li	a1,32768
 242 0178 93858513 		addi	a1,a1,312
 243 017c 97000000 		call	_ZN15MemoryAllocator16AllocateFragmentEm@plt
 243      E7800000 
 244              	.LVL15:
 245              		.loc 1 51 13
 246 0184 97070000 		sd	a0,.LANCHOR0,a5
 246      23B0A700 
  52:src/Scheduler.cpp ****     setupStartContext(running->getContext());
 247              		.loc 1 52 5 is_stmt 1
 248              		.loc 1 52 22 is_stmt 0
 249 018c 97000000 		call	_ZN6Thread10getContextEv@plt
 249      E7800000 
 250              	.LVL16:
 251 0194 97000000 		call	setupStartContext@plt
 251      E7800000 
 252              	.LVL17:
  53:src/Scheduler.cpp **** }
 253              		.loc 1 53 1
 254 019c 83308100 		ld	ra,8(sp)
 255              		.cfi_restore 1
 256 01a0 03340100 		ld	s0,0(sp)
 257              		.cfi_restore 8
 258              		.cfi_def_cfa 2, 16
 259 01a4 13010101 		addi	sp,sp,16
 260              		.cfi_def_cfa_offset 0
 261 01a8 67800000 		jr	ra
 262              		.cfi_endproc
 263              	.LFE8:
 265              		.align	2
 266              		.globl	_ZN9Scheduler12AddNewThreadEP6Thread
 268              	_ZN9Scheduler12AddNewThreadEP6Thread:
 269              	.LFB9:
  54:src/Scheduler.cpp **** 
  55:src/Scheduler.cpp **** void Scheduler::AddNewThread(Thread* thread) {
 270              		.loc 1 55 46 is_stmt 1
 271              		.cfi_startproc
 272              	.LVL18:
 273 01ac 130101FF 		addi	sp,sp,-16
 274              		.cfi_def_cfa_offset 16
 275 01b0 23348100 		sd	s0,8(sp)
 276              		.cfi_offset 8, -8
 277 01b4 13040101 		addi	s0,sp,16
 278              		.cfi_def_cfa 8, 0
  56:src/Scheduler.cpp ****     thread->threadContext.x[2] = reinterpret_cast<size_t>(thread->getStackTop());
 279              		.loc 1 56 5
 280              	.LVL19:
GAS LISTING /tmp/cck9ALOD.s 			page 7


 281              	.LBB4:
 282              	.LBB5:
 283              		.file 2 "src/Thread.hpp"
   1:src/Thread.hpp **** //
   2:src/Thread.hpp **** // Created by os on 6/10/26.
   3:src/Thread.hpp **** //
   4:src/Thread.hpp **** 
   5:src/Thread.hpp **** #ifndef OSPROJEKAT_THREAD_H
   6:src/Thread.hpp **** #define OSPROJEKAT_THREAD_H
   7:src/Thread.hpp **** 
   8:src/Thread.hpp **** #include "../lib/hw.h"
   9:src/Thread.hpp **** struct Context {
  10:src/Thread.hpp ****     size_t x[32];    // x0-x31, offsets 0x00-0xF
  11:src/Thread.hpp ****     size_t sepc;     // offset 0x100
  12:src/Thread.hpp ****     size_t sstatus;  // offset 0x108
  13:src/Thread.hpp **** };
  14:src/Thread.hpp **** 
  15:src/Thread.hpp **** class Thread{
  16:src/Thread.hpp **** protected:
  17:src/Thread.hpp ****     static void threadTrampoline(Thread* t) {
  18:src/Thread.hpp ****         if (t->body)t->body();
  19:src/Thread.hpp ****     }
  20:src/Thread.hpp ****     void (*body)(void);
  21:src/Thread.hpp **** 
  22:src/Thread.hpp ****     Thread* prev;
  23:src/Thread.hpp ****     Thread* next;
  24:src/Thread.hpp ****     size_t* stackPtr;
  25:src/Thread.hpp ****     size_t stack[DEFAULT_STACK_SIZE];
  26:src/Thread.hpp ****     size_t* supervisorSp;
  27:src/Thread.hpp **** public:
  28:src/Thread.hpp ****     Context threadContext;
  29:src/Thread.hpp ****     Thread();
  30:src/Thread.hpp ****     void copyContext(size_t* ctx);
  31:src/Thread.hpp ****     void init();
  32:src/Thread.hpp ****     void setStackPtr(size_t* stackPtr);
  33:src/Thread.hpp ****     size_t* getStackTop() { return stack + DEFAULT_STACK_SIZE; }
 284              		.loc 2 33 29
 285              		.loc 2 33 44 is_stmt 0
 286 01b8 37870000 		li	a4,32768
 287 01bc 93070702 		addi	a5,a4,32
 288 01c0 B307F500 		add	a5,a0,a5
 289              	.LVL20:
 290              	.LBE5:
 291              	.LBE4:
 292              		.loc 1 56 32
 293 01c4 3305E500 		add	a0,a0,a4
 294              	.LVL21:
 295 01c8 233CF502 		sd	a5,56(a0)
  57:src/Scheduler.cpp **** }
 296              		.loc 1 57 1
 297 01cc 03348100 		ld	s0,8(sp)
 298              		.cfi_restore 8
 299              		.cfi_def_cfa 2, 16
 300 01d0 13010101 		addi	sp,sp,16
 301              		.cfi_def_cfa_offset 0
 302 01d4 67800000 		jr	ra
 303              		.cfi_endproc
GAS LISTING /tmp/cck9ALOD.s 			page 8


 304              	.LFE9:
 306              		.globl	_ZN9Scheduler12stack_cursorE
 307              		.globl	_ZN9Scheduler13readyQueueEndE
 308              		.globl	_ZN9Scheduler10readyQueueE
 309              		.globl	_ZN9Scheduler7runningE
 310              		.bss
 311              		.align	3
 312              		.set	.LANCHOR0,. + 0
 315              	_ZN9Scheduler7runningE:
 316 0000 00000000 		.zero	8
 316      00000000 
 319              	_ZN9Scheduler10readyQueueE:
 320 0008 00000000 		.zero	8
 320      00000000 
 323              	_ZN9Scheduler13readyQueueEndE:
 324 0010 00000000 		.zero	8
 324      00000000 
 327              	_ZN9Scheduler12stack_cursorE:
 328 0018 00000000 		.zero	8
 328      00000000 
 329              		.text
 330              	.Letext0:
 331              		.file 3 "src/../lib/hw.h"
 332              		.file 4 "src/Scheduler.hpp"
 333              		.file 5 "src/MemoryAllocator.hpp"
GAS LISTING /tmp/cck9ALOD.s 			page 9


DEFINED SYMBOLS
                            *ABS*:0000000000000000 Scheduler.cpp
     /tmp/cck9ALOD.s:9      .text:0000000000000000 _ZN9Scheduler10GetRunningEv
     /tmp/cck9ALOD.s:13     .text:0000000000000000 .L0 
     /tmp/cck9ALOD.s:14     .text:0000000000000000 .L0 
     /tmp/cck9ALOD.s:15     .text:0000000000000004 .L0 
     /tmp/cck9ALOD.s:17     .text:0000000000000008 .L0 
     /tmp/cck9ALOD.s:19     .text:000000000000000c .L0 
     /tmp/cck9ALOD.s:21     .text:000000000000000c .L0 
     /tmp/cck9ALOD.s:22     .text:000000000000000c .L0 
     /tmp/cck9ALOD.s:24     .text:0000000000000018 .L0 
     /tmp/cck9ALOD.s:25     .text:0000000000000018 .L0 
     /tmp/cck9ALOD.s:27     .text:000000000000001c .L0 
     /tmp/cck9ALOD.s:29     .text:0000000000000020 .L0 
     /tmp/cck9ALOD.s:35     .text:0000000000000020 _ZN9Scheduler5yieldEP6ThreadS1_
     /tmp/cck9ALOD.s:38     .text:0000000000000020 .L0 
     /tmp/cck9ALOD.s:40     .text:0000000000000020 .L0 
     /tmp/cck9ALOD.s:41     .text:0000000000000024 .L0 
     /tmp/cck9ALOD.s:45     .text:0000000000000030 .L0 
     /tmp/cck9ALOD.s:46     .text:0000000000000030 .L0 
     /tmp/cck9ALOD.s:47     .text:0000000000000030 .L0 
     /tmp/cck9ALOD.s:49     .text:0000000000000034 .L0 
     /tmp/cck9ALOD.s:52     .text:0000000000000038 .L0 
     /tmp/cck9ALOD.s:54     .text:000000000000003c .L0 
     /tmp/cck9ALOD.s:55     .text:000000000000003c .L0 
     /tmp/cck9ALOD.s:61     .text:000000000000004c .L0 
     /tmp/cck9ALOD.s:62     .text:000000000000004c .L0 
     /tmp/cck9ALOD.s:68     .text:0000000000000060 .L0 
     /tmp/cck9ALOD.s:69     .text:0000000000000064 .L0 
     /tmp/cck9ALOD.s:71     .text:0000000000000068 .L0 
     /tmp/cck9ALOD.s:72     .text:0000000000000068 .L0 
     /tmp/cck9ALOD.s:74     .text:000000000000006c .L0 
     /tmp/cck9ALOD.s:77     .text:0000000000000070 .L0 
     /tmp/cck9ALOD.s:79     .text:0000000000000074 .L0 
     /tmp/cck9ALOD.s:85     .text:0000000000000074 _ZN9Scheduler7GetNextEv
     /tmp/cck9ALOD.s:88     .text:0000000000000074 .L0 
     /tmp/cck9ALOD.s:89     .text:0000000000000074 .L0 
     /tmp/cck9ALOD.s:90     .text:0000000000000078 .L0 
     /tmp/cck9ALOD.s:95     .text:0000000000000088 .L0 
     /tmp/cck9ALOD.s:96     .text:0000000000000088 .L0 
     /tmp/cck9ALOD.s:97     .text:0000000000000088 .L0 
     /tmp/cck9ALOD.s:98     .text:0000000000000088 .L0 
     /tmp/cck9ALOD.s:100    .text:000000000000008c .L0 
     /tmp/cck9ALOD.s:102    .text:000000000000008c .L0 
     /tmp/cck9ALOD.s:103    .text:000000000000008c .L0 
     /tmp/cck9ALOD.s:107    .text:0000000000000098 .L0 
     /tmp/cck9ALOD.s:108    .text:0000000000000098 .L0 
     /tmp/cck9ALOD.s:112    .text:00000000000000a4 .L0 
     /tmp/cck9ALOD.s:114    .text:00000000000000a8 .L0 
     /tmp/cck9ALOD.s:115    .text:00000000000000a8 .L0 
     /tmp/cck9ALOD.s:117    .text:00000000000000b0 .L0 
     /tmp/cck9ALOD.s:119    .text:00000000000000b4 .L0 
     /tmp/cck9ALOD.s:120    .text:00000000000000b4 .L0 
     /tmp/cck9ALOD.s:122    .text:00000000000000b8 .L0 
     /tmp/cck9ALOD.s:125    .text:00000000000000bc .L0 
     /tmp/cck9ALOD.s:127    .text:00000000000000c0 .L0 
     /tmp/cck9ALOD.s:129    .text:00000000000000c4 .L0 
GAS LISTING /tmp/cck9ALOD.s 			page 10


     /tmp/cck9ALOD.s:135    .text:00000000000000c4 _ZN9Scheduler3PutEP6Thread
     /tmp/cck9ALOD.s:138    .text:00000000000000c4 .L0 
     /tmp/cck9ALOD.s:140    .text:00000000000000c4 .L0 
     /tmp/cck9ALOD.s:141    .text:00000000000000c8 .L0 
     /tmp/cck9ALOD.s:146    .text:00000000000000d8 .L0 
     /tmp/cck9ALOD.s:147    .text:00000000000000d8 .L0 
     /tmp/cck9ALOD.s:148    .text:00000000000000d8 .L0 
     /tmp/cck9ALOD.s:149    .text:00000000000000d8 .L0 
     /tmp/cck9ALOD.s:151    .text:00000000000000dc .L0 
     /tmp/cck9ALOD.s:154    .text:00000000000000e0 .L0 
     /tmp/cck9ALOD.s:155    .text:00000000000000e0 .L0 
     /tmp/cck9ALOD.s:161    .text:00000000000000f8 .L0 
     /tmp/cck9ALOD.s:162    .text:00000000000000f8 .L0 
     /tmp/cck9ALOD.s:167    .text:0000000000000108 .L0 
     /tmp/cck9ALOD.s:168    .text:0000000000000108 .L0 
     /tmp/cck9ALOD.s:170    .text:000000000000010c .L0 
     /tmp/cck9ALOD.s:171    .text:0000000000000110 .L0 
     /tmp/cck9ALOD.s:173    .text:0000000000000114 .L0 
     /tmp/cck9ALOD.s:174    .text:0000000000000114 .L0 
     /tmp/cck9ALOD.s:176    .text:0000000000000118 .L0 
     /tmp/cck9ALOD.s:179    .text:000000000000011c .L0 
     /tmp/cck9ALOD.s:181    .text:0000000000000120 .L0 
     /tmp/cck9ALOD.s:183    .text:0000000000000124 .L0 
     /tmp/cck9ALOD.s:189    .text:0000000000000124 _ZN9Scheduler15SetupStartStackEv
     /tmp/cck9ALOD.s:192    .text:0000000000000124 .L0 
     /tmp/cck9ALOD.s:193    .text:0000000000000124 .L0 
     /tmp/cck9ALOD.s:194    .text:0000000000000128 .L0 
     /tmp/cck9ALOD.s:196    .text:000000000000012c .L0 
     /tmp/cck9ALOD.s:198    .text:0000000000000130 .L0 
     /tmp/cck9ALOD.s:200    .text:0000000000000130 .L0 
     /tmp/cck9ALOD.s:201    .text:0000000000000130 .L0 
     /tmp/cck9ALOD.s:204    .text:000000000000013c .L0 
     /tmp/cck9ALOD.s:206    .text:0000000000000140 .L0 
     /tmp/cck9ALOD.s:208    .text:0000000000000148 .L0 
     /tmp/cck9ALOD.s:209    .text:000000000000014c .L0 
     /tmp/cck9ALOD.s:210    .text:000000000000014c .L0 
     /tmp/cck9ALOD.s:212    .text:0000000000000150 .L0 
     /tmp/cck9ALOD.s:214    .text:0000000000000154 .L0 
     /tmp/cck9ALOD.s:220    .text:0000000000000154 _ZN9Scheduler16SetupStartThreadEv
     /tmp/cck9ALOD.s:223    .text:0000000000000154 .L0 
     /tmp/cck9ALOD.s:224    .text:0000000000000154 .L0 
     /tmp/cck9ALOD.s:225    .text:0000000000000158 .L0 
     /tmp/cck9ALOD.s:228    .text:0000000000000160 .L0 
     /tmp/cck9ALOD.s:229    .text:0000000000000160 .L0 
     /tmp/cck9ALOD.s:231    .text:0000000000000164 .L0 
     /tmp/cck9ALOD.s:233    .text:0000000000000164 .L0 
     /tmp/cck9ALOD.s:234    .text:0000000000000164 .L0 
     /tmp/cck9ALOD.s:237    .text:000000000000016c .L0 
     /tmp/cck9ALOD.s:238    .text:000000000000016c .L0 
     /tmp/cck9ALOD.s:241    .text:0000000000000174 .L0 
     /tmp/cck9ALOD.s:246    .text:0000000000000184 .L0 
     /tmp/cck9ALOD.s:248    .text:000000000000018c .L0 
     /tmp/cck9ALOD.s:249    .text:000000000000018c .L0 
     /tmp/cck9ALOD.s:254    .text:000000000000019c .L0 
     /tmp/cck9ALOD.s:255    .text:00000000000001a0 .L0 
     /tmp/cck9ALOD.s:257    .text:00000000000001a4 .L0 
     /tmp/cck9ALOD.s:258    .text:00000000000001a4 .L0 
GAS LISTING /tmp/cck9ALOD.s 			page 11


     /tmp/cck9ALOD.s:260    .text:00000000000001a8 .L0 
     /tmp/cck9ALOD.s:262    .text:00000000000001ac .L0 
     /tmp/cck9ALOD.s:268    .text:00000000000001ac _ZN9Scheduler12AddNewThreadEP6Thread
     /tmp/cck9ALOD.s:271    .text:00000000000001ac .L0 
     /tmp/cck9ALOD.s:273    .text:00000000000001ac .L0 
     /tmp/cck9ALOD.s:274    .text:00000000000001b0 .L0 
     /tmp/cck9ALOD.s:276    .text:00000000000001b4 .L0 
     /tmp/cck9ALOD.s:278    .text:00000000000001b8 .L0 
     /tmp/cck9ALOD.s:284    .text:00000000000001b8 .L0 
     /tmp/cck9ALOD.s:285    .text:00000000000001b8 .L0 
     /tmp/cck9ALOD.s:286    .text:00000000000001b8 .L0 
     /tmp/cck9ALOD.s:293    .text:00000000000001c4 .L0 
     /tmp/cck9ALOD.s:297    .text:00000000000001cc .L0 
     /tmp/cck9ALOD.s:298    .text:00000000000001d0 .L0 
     /tmp/cck9ALOD.s:299    .text:00000000000001d0 .L0 
     /tmp/cck9ALOD.s:301    .text:00000000000001d4 .L0 
     /tmp/cck9ALOD.s:303    .text:00000000000001d8 .L0 
     /tmp/cck9ALOD.s:327    .bss:0000000000000018 _ZN9Scheduler12stack_cursorE
     /tmp/cck9ALOD.s:323    .bss:0000000000000010 _ZN9Scheduler13readyQueueEndE
     /tmp/cck9ALOD.s:319    .bss:0000000000000008 _ZN9Scheduler10readyQueueE
     /tmp/cck9ALOD.s:315    .bss:0000000000000000 _ZN9Scheduler7runningE
     /tmp/cck9ALOD.s:312    .bss:0000000000000000 .LANCHOR0
     /tmp/cck9ALOD.s:334    .text:00000000000001d8 .L0 
     /tmp/cck9ALOD.s:22     .text:000000000000000c .L0 
     /tmp/cck9ALOD.s:103    .text:000000000000008c .L0 
     /tmp/cck9ALOD.s:155    .text:00000000000000e0 .L0 
     /tmp/cck9ALOD.s:201    .text:0000000000000130 .L0 
     /tmp/cck9ALOD.s:206    .text:0000000000000140 .L0 
     /tmp/cck9ALOD.s:246    .text:0000000000000184 .L0 
     /tmp/cck9ALOD.s:59     .text:000000000000004c .L4
     /tmp/cck9ALOD.s:1340   .debug_abbrev:0000000000000000 .Ldebug_abbrev0
     /tmp/cck9ALOD.s:2481   .debug_str:000000000000066c .LASF107
     /tmp/cck9ALOD.s:2499   .debug_str:00000000000007cb .LASF108
     /tmp/cck9ALOD.s:2469   .debug_str:0000000000000610 .LASF109
     /tmp/cck9ALOD.s:5      .text:0000000000000000 .Ltext0
     /tmp/cck9ALOD.s:330    .text:00000000000001d8 .Letext0
     /tmp/cck9ALOD.s:2285   .debug_line:0000000000000000 .Ldebug_line0
     /tmp/cck9ALOD.s:2415   .debug_str:000000000000047e .LASF0
     /tmp/cck9ALOD.s:2431   .debug_str:00000000000004d6 .LASF1
     /tmp/cck9ALOD.s:2399   .debug_str:00000000000003eb .LASF2
     /tmp/cck9ALOD.s:2347   .debug_str:000000000000020f .LASF3
     /tmp/cck9ALOD.s:2375   .debug_str:000000000000031e .LASF4
     /tmp/cck9ALOD.s:2421   .debug_str:00000000000004a0 .LASF5
     /tmp/cck9ALOD.s:2309   .debug_str:00000000000000c7 .LASF6
     /tmp/cck9ALOD.s:2343   .debug_str:00000000000001f9 .LASF7
     /tmp/cck9ALOD.s:2437   .debug_str:0000000000000512 .LASF8
     /tmp/cck9ALOD.s:2413   .debug_str:000000000000046b .LASF9
     /tmp/cck9ALOD.s:2495   .debug_str:0000000000000795 .LASF10
     /tmp/cck9ALOD.s:2367   .debug_str:00000000000002d7 .LASF11
     /tmp/cck9ALOD.s:2449   .debug_str:0000000000000550 .LASF12
     /tmp/cck9ALOD.s:2483   .debug_str:0000000000000730 .LASF13
     /tmp/cck9ALOD.s:2315   .debug_str:0000000000000101 .LASF14
     /tmp/cck9ALOD.s:2291   .debug_str:0000000000000025 .LASF15
     /tmp/cck9ALOD.s:2331   .debug_str:000000000000019d .LASF16
     /tmp/cck9ALOD.s:2461   .debug_str:00000000000005d8 .LASF17
     /tmp/cck9ALOD.s:2337   .debug_str:00000000000001ce .LASF18
     /tmp/cck9ALOD.s:2293   .debug_str:0000000000000035 .LASF110
GAS LISTING /tmp/cck9ALOD.s 			page 12


     /tmp/cck9ALOD.s:2425   .debug_str:00000000000004b9 .LASF19
     /tmp/cck9ALOD.s:2457   .debug_str:00000000000005b9 .LASF20
     /tmp/cck9ALOD.s:2491   .debug_str:0000000000000775 .LASF28
     /tmp/cck9ALOD.s:2329   .debug_str:000000000000018c .LASF56
     /tmp/cck9ALOD.s:2411   .debug_str:000000000000044a .LASF58
     /tmp/cck9ALOD.s:2377   .debug_str:0000000000000325 .LASF21
     /tmp/cck9ALOD.s:2503   .debug_str:00000000000007e3 .LASF22
     /tmp/cck9ALOD.s:2511   .debug_str:000000000000082f .LASF23
     /tmp/cck9ALOD.s:2301   .debug_str:000000000000007c .LASF24
     /tmp/cck9ALOD.s:2419   .debug_str:000000000000049a .LASF25
     /tmp/cck9ALOD.s:2289   .debug_str:0000000000000018 .LASF26
     /tmp/cck9ALOD.s:2305   .debug_str:0000000000000090 .LASF27
     /tmp/cck9ALOD.s:2365   .debug_str:00000000000002c8 .LASF30
     /tmp/cck9ALOD.s:2477   .debug_str:0000000000000647 .LASF29
     /tmp/cck9ALOD.s:2383   .debug_str:000000000000033f .LASF31
     /tmp/cck9ALOD.s:2441   .debug_str:000000000000052a .LASF32
     /tmp/cck9ALOD.s:2427   .debug_str:00000000000004be .LASF33
     /tmp/cck9ALOD.s:2333   .debug_str:00000000000001a9 .LASF34
     /tmp/cck9ALOD.s:2395   .debug_str:00000000000003c0 .LASF35
     /tmp/cck9ALOD.s:2409   .debug_str:000000000000043e .LASF38
     /tmp/cck9ALOD.s:2451   .debug_str:000000000000055f .LASF40
     /tmp/cck9ALOD.s:2397   .debug_str:00000000000003db .LASF36
     /tmp/cck9ALOD.s:2317   .debug_str:0000000000000111 .LASF37
     /tmp/cck9ALOD.s:2323   .debug_str:0000000000000159 .LASF39
     /tmp/cck9ALOD.s:2493   .debug_str:000000000000077c .LASF41
     /tmp/cck9ALOD.s:2345   .debug_str:0000000000000200 .LASF42
     /tmp/cck9ALOD.s:2371   .debug_str:00000000000002f7 .LASF43
     /tmp/cck9ALOD.s:2473   .debug_str:0000000000000633 .LASF44
     /tmp/cck9ALOD.s:2489   .debug_str:0000000000000758 .LASF45
     /tmp/cck9ALOD.s:2515   .debug_str:0000000000000846 .LASF46
     /tmp/cck9ALOD.s:2401   .debug_str:00000000000003f9 .LASF47
     /tmp/cck9ALOD.s:2297   .debug_str:0000000000000049 .LASF48
     /tmp/cck9ALOD.s:2455   .debug_str:000000000000059a .LASF49
     /tmp/cck9ALOD.s:2385   .debug_str:000000000000035a .LASF50
     /tmp/cck9ALOD.s:2357   .debug_str:0000000000000251 .LASF51
     /tmp/cck9ALOD.s:2429   .debug_str:00000000000004d0 .LASF52
     /tmp/cck9ALOD.s:2363   .debug_str:00000000000002b5 .LASF53
     /tmp/cck9ALOD.s:2485   .debug_str:000000000000073f .LASF54
     /tmp/cck9ALOD.s:2335   .debug_str:00000000000001b5 .LASF55
     /tmp/cck9ALOD.s:2471   .debug_str:000000000000062e .LASF57
     /tmp/cck9ALOD.s:2369   .debug_str:00000000000002e5 .LASF59
     /tmp/cck9ALOD.s:2445   .debug_str:000000000000053a .LASF60
     /tmp/cck9ALOD.s:2361   .debug_str:000000000000029f .LASF61
     /tmp/cck9ALOD.s:2349   .debug_str:0000000000000215 .LASF62
     /tmp/cck9ALOD.s:2303   .debug_str:0000000000000085 .LASF63
     /tmp/cck9ALOD.s:2467   .debug_str:0000000000000602 .LASF64
     /tmp/cck9ALOD.s:2295   .debug_str:000000000000003d .LASF65
     /tmp/cck9ALOD.s:2405   .debug_str:0000000000000427 .LASF66
     /tmp/cck9ALOD.s:2321   .debug_str:000000000000014d .LASF111
     /tmp/cck9ALOD.s:2391   .debug_str:0000000000000393 .LASF112
     /tmp/cck9ALOD.s:2417   .debug_str:000000000000048b .LASF77
     /tmp/cck9ALOD.s:2313   .debug_str:00000000000000da .LASF79
     /tmp/cck9ALOD.s:2339   .debug_str:00000000000001e4 .LASF67
     /tmp/cck9ALOD.s:2453   .debug_str:0000000000000579 .LASF69
     /tmp/cck9ALOD.s:2355   .debug_str:0000000000000240 .LASF68
     /tmp/cck9ALOD.s:2509   .debug_str:000000000000080d .LASF70
     /tmp/cck9ALOD.s:2443   .debug_str:000000000000052f .LASF73
GAS LISTING /tmp/cck9ALOD.s 			page 13


     /tmp/cck9ALOD.s:2433   .debug_str:00000000000004e9 .LASF75
     /tmp/cck9ALOD.s:2463   .debug_str:00000000000005ee .LASF71
     /tmp/cck9ALOD.s:2507   .debug_str:00000000000007ed .LASF72
     /tmp/cck9ALOD.s:2387   .debug_str:0000000000000370 .LASF74
     /tmp/cck9ALOD.s:2287   .debug_str:0000000000000000 .LASF76
     /tmp/cck9ALOD.s:2389   .debug_str:0000000000000378 .LASF113
     /tmp/cck9ALOD.s:2327   .debug_str:000000000000017f .LASF78
     /tmp/cck9ALOD.s:2359   .debug_str:000000000000027a .LASF80
     /tmp/cck9ALOD.s:2379   .debug_str:000000000000032a .LASF81
     /tmp/cck9ALOD.s:2353   .debug_str:000000000000023b .LASF82
     /tmp/cck9ALOD.s:2475   .debug_str:0000000000000642 .LASF83
     /tmp/cck9ALOD.s:2393   .debug_str:00000000000003b0 .LASF84
     /tmp/cck9ALOD.s:2381   .debug_str:0000000000000333 .LASF85
     /tmp/cck9ALOD.s:2299   .debug_str:0000000000000058 .LASF86
     /tmp/cck9ALOD.s:2487   .debug_str:0000000000000747 .LASF87
     /tmp/cck9ALOD.s:2307   .debug_str:000000000000009e .LASF88
     /tmp/cck9ALOD.s:2435   .debug_str:0000000000000505 .LASF89
     /tmp/cck9ALOD.s:2497   .debug_str:00000000000007a5 .LASF90
     /tmp/cck9ALOD.s:2341   .debug_str:00000000000001f4 .LASF91
     /tmp/cck9ALOD.s:2479   .debug_str:0000000000000653 .LASF92
     /tmp/cck9ALOD.s:2465   .debug_str:00000000000005f4 .LASF93
     /tmp/cck9ALOD.s:2447   .debug_str:0000000000000544 .LASF94
     /tmp/cck9ALOD.s:2459   .debug_str:00000000000005c1 .LASF95
     /tmp/cck9ALOD.s:2325   .debug_str:0000000000000164 .LASF96
     /tmp/cck9ALOD.s:2351   .debug_str:000000000000021d .LASF97
     /tmp/cck9ALOD.s:2319   .debug_str:0000000000000130 .LASF98
     /tmp/cck9ALOD.s:2439   .debug_str:0000000000000525 .LASF99
     /tmp/cck9ALOD.s:269    .text:00000000000001ac .LFB9
     /tmp/cck9ALOD.s:304    .text:00000000000001d8 .LFE9
     /tmp/cck9ALOD.s:2423   .debug_str:00000000000004b2 .LASF100
     /tmp/cck9ALOD.s:2193   .debug_loc:0000000000000000 .LLST4
     /tmp/cck9ALOD.s:281    .text:00000000000001b8 .LBB4
     /tmp/cck9ALOD.s:291    .text:00000000000001c4 .LBE4
     /tmp/cck9ALOD.s:2206   .debug_loc:000000000000003a .LLST5
     /tmp/cck9ALOD.s:221    .text:0000000000000154 .LFB8
     /tmp/cck9ALOD.s:263    .text:00000000000001ac .LFE8
     /tmp/cck9ALOD.s:235    .text:000000000000016c .LVL13
     /tmp/cck9ALOD.s:239    .text:0000000000000174 .LVL14
     /tmp/cck9ALOD.s:244    .text:0000000000000184 .LVL15
     /tmp/cck9ALOD.s:250    .text:0000000000000194 .LVL16
     /tmp/cck9ALOD.s:252    .text:000000000000019c .LVL17
     /tmp/cck9ALOD.s:190    .text:0000000000000124 .LFB7
     /tmp/cck9ALOD.s:215    .text:0000000000000154 .LFE7
     /tmp/cck9ALOD.s:136    .text:00000000000000c4 .LFB6
     /tmp/cck9ALOD.s:184    .text:0000000000000124 .LFE6
     /tmp/cck9ALOD.s:2213   .debug_loc:000000000000005d .LLST3
     /tmp/cck9ALOD.s:159    .text:00000000000000f8 .LVL10
     /tmp/cck9ALOD.s:165    .text:0000000000000108 .LVL11
     /tmp/cck9ALOD.s:86     .text:0000000000000074 .LFB5
     /tmp/cck9ALOD.s:130    .text:00000000000000c4 .LFE5
     /tmp/cck9ALOD.s:2501   .debug_str:00000000000007dd .LASF101
     /tmp/cck9ALOD.s:2229   .debug_loc:00000000000000ae .LLST2
     /tmp/cck9ALOD.s:110    .text:00000000000000a4 .LVL7
     /tmp/cck9ALOD.s:36     .text:0000000000000020 .LFB4
     /tmp/cck9ALOD.s:80     .text:0000000000000074 .LFE4
     /tmp/cck9ALOD.s:2407   .debug_str:0000000000000434 .LASF102
     /tmp/cck9ALOD.s:2240   .debug_loc:00000000000000e4 .LLST0
GAS LISTING /tmp/cck9ALOD.s 			page 14


     /tmp/cck9ALOD.s:2373   .debug_str:0000000000000314 .LASF103
     /tmp/cck9ALOD.s:2254   .debug_loc:000000000000011d .LLST1
     /tmp/cck9ALOD.s:56     .text:0000000000000044 .LVL1
     /tmp/cck9ALOD.s:58     .text:000000000000004c .LVL2
     /tmp/cck9ALOD.s:64     .text:0000000000000058 .LVL3
     /tmp/cck9ALOD.s:66     .text:0000000000000060 .LVL4
     /tmp/cck9ALOD.s:10     .text:0000000000000000 .LFB3
     /tmp/cck9ALOD.s:30     .text:0000000000000020 .LFE3
     /tmp/cck9ALOD.s:2505   .debug_str:00000000000007e8 .LASF114
     /tmp/cck9ALOD.s:2513   .debug_str:0000000000000834 .LASF104
     /tmp/cck9ALOD.s:2311   .debug_str:00000000000000ce .LASF105
     /tmp/cck9ALOD.s:2403   .debug_str:0000000000000418 .LASF106
     /tmp/cck9ALOD.s:272    .text:00000000000001ac .LVL18
     /tmp/cck9ALOD.s:294    .text:00000000000001c8 .LVL21
     /tmp/cck9ALOD.s:280    .text:00000000000001b8 .LVL19
     /tmp/cck9ALOD.s:289    .text:00000000000001c4 .LVL20
     /tmp/cck9ALOD.s:139    .text:00000000000000c4 .LVL9
     /tmp/cck9ALOD.s:177    .text:0000000000000118 .LVL12
     /tmp/cck9ALOD.s:105    .text:0000000000000098 .LVL6
     /tmp/cck9ALOD.s:123    .text:00000000000000b8 .LVL8
     /tmp/cck9ALOD.s:39     .text:0000000000000020 .LVL0
     /tmp/cck9ALOD.s:75     .text:000000000000006c .LVL5
     /tmp/cck9ALOD.s:335    .debug_info:0000000000000000 .Ldebug_info0

UNDEFINED SYMBOLS
_ZN6Thread10getContextEv
saveContext
restoreContext
_ZN6Thread14getNextInQueueEv
_ZN6Thread21setNextAndPrevInQueueEPS_S0_
_ZN6Thread14setNextInQueueEPS_
end
_ZN15MemoryAllocator11GetInstanceEv
_ZN15MemoryAllocator16AllocateFragmentEm
setupStartContext
