GAS LISTING /tmp/cc35Pgdh.s 			page 1


   1              		.file	"Scheduler.cpp"
   2              		.option pic
   3              		.option norelax
   4              		.text
   5              	.Ltext0:
   6              		.align	2
   7              		.globl	_ZN9Scheduler10GetRunningEv
   9              	_ZN9Scheduler10GetRunningEv:
  10              	.LFB2:
  11              		.file 1 "src/Scheduler.cpp"
   1:src/Scheduler.cpp **** //
   2:src/Scheduler.cpp **** // Created by os on 6/10/26.
   3:src/Scheduler.cpp **** //
   4:src/Scheduler.cpp **** 
   5:src/Scheduler.cpp **** #include "Scheduler.hpp"
   6:src/Scheduler.cpp **** 
   7:src/Scheduler.cpp **** #include "MemoryAllocator.hpp"
   8:src/Scheduler.cpp **** 
   9:src/Scheduler.cpp **** extern "C" void saveContext(size_t* ctx);
  10:src/Scheduler.cpp **** extern "C" void restoreContext(size_t* ctx);
  11:src/Scheduler.cpp **** extern "C" void setupStartContext(size_t* ctx);
  12:src/Scheduler.cpp **** 
  13:src/Scheduler.cpp **** Thread* Scheduler::running = nullptr;
  14:src/Scheduler.cpp **** Thread* Scheduler::readyQueue = nullptr;
  15:src/Scheduler.cpp **** Thread* Scheduler::readyQueueEnd = nullptr;
  16:src/Scheduler.cpp **** size_t* Scheduler::stack_cursor = nullptr;
  17:src/Scheduler.cpp **** 
  18:src/Scheduler.cpp **** 
  19:src/Scheduler.cpp **** Thread* Scheduler::GetRunning(){
  12              		.loc 1 19 32
  13              		.cfi_startproc
  14 0000 130101FF 		addi	sp,sp,-16
  15              		.cfi_def_cfa_offset 16
  16 0004 23348100 		sd	s0,8(sp)
  17              		.cfi_offset 8, -8
  18 0008 13040101 		addi	s0,sp,16
  19              		.cfi_def_cfa 8, 0
  20:src/Scheduler.cpp ****     return running;
  20              		.loc 1 20 5
  21:src/Scheduler.cpp **** }
  21              		.loc 1 21 1 is_stmt 0
  22 000c 17050000 		ld	a0,.LANCHOR0
  22      03350500 
  23 0014 03348100 		ld	s0,8(sp)
  24              		.cfi_restore 8
  25              		.cfi_def_cfa 2, 16
  26 0018 13010101 		addi	sp,sp,16
  27              		.cfi_def_cfa_offset 0
  28 001c 67800000 		jr	ra
  29              		.cfi_endproc
  30              	.LFE2:
  32              		.align	2
  33              		.globl	_ZN9Scheduler5yieldEP6ThreadS1_
  35              	_ZN9Scheduler5yieldEP6ThreadS1_:
  36              	.LFB3:
  22:src/Scheduler.cpp **** void Scheduler::yield(Thread* oldThread, Thread* newThread){
  37              		.loc 1 22 60 is_stmt 1
GAS LISTING /tmp/cc35Pgdh.s 			page 2


  38              		.cfi_startproc
  39              	.LVL0:
  40 0020 130101FF 		addi	sp,sp,-16
  41              		.cfi_def_cfa_offset 16
  42 0024 23341100 		sd	ra,8(sp)
  43 0028 23308100 		sd	s0,0(sp)
  44              		.cfi_offset 1, -8
  45              		.cfi_offset 8, -16
  46 002c 13040101 		addi	s0,sp,16
  47              		.cfi_def_cfa 8, 0
  23:src/Scheduler.cpp ****     //if (oldThread != nullptr)//TODO: Add error and remove this temp logic
  24:src/Scheduler.cpp ****         //saveContext(oldThread->getContext());
  25:src/Scheduler.cpp ****     restoreContext(newThread->getContext());
  48              		.loc 1 25 5
  49              		.loc 1 25 19 is_stmt 0
  50 0030 13850500 		mv	a0,a1
  51              	.LVL1:
  52 0034 97000000 		call	_ZN6Thread10getContextEv@plt
  52      E7800000 
  53              	.LVL2:
  54 003c 97000000 		call	restoreContext@plt
  54      E7800000 
  55              	.LVL3:
  26:src/Scheduler.cpp **** }
  56              		.loc 1 26 1
  57 0044 83308100 		ld	ra,8(sp)
  58              		.cfi_restore 1
  59 0048 03340100 		ld	s0,0(sp)
  60              		.cfi_restore 8
  61              		.cfi_def_cfa 2, 16
  62 004c 13010101 		addi	sp,sp,16
  63              		.cfi_def_cfa_offset 0
  64 0050 67800000 		jr	ra
  65              		.cfi_endproc
  66              	.LFE3:
  68              		.align	2
  69              		.globl	_ZN9Scheduler7GetNextEv
  71              	_ZN9Scheduler7GetNextEv:
  72              	.LFB4:
  27:src/Scheduler.cpp **** Thread* Scheduler::GetNext(){
  73              		.loc 1 27 29 is_stmt 1
  74              		.cfi_startproc
  75 0054 130101FE 		addi	sp,sp,-32
  76              		.cfi_def_cfa_offset 32
  77 0058 233C1100 		sd	ra,24(sp)
  78 005c 23388100 		sd	s0,16(sp)
  79 0060 23349100 		sd	s1,8(sp)
  80 0064 23302101 		sd	s2,0(sp)
  81              		.cfi_offset 1, -8
  82              		.cfi_offset 8, -16
  83              		.cfi_offset 9, -24
  84              		.cfi_offset 18, -32
  85 0068 13040102 		addi	s0,sp,32
  86              		.cfi_def_cfa 8, 0
  28:src/Scheduler.cpp ****     //TODO: Add checks if empty and stuff
  29:src/Scheduler.cpp ****     Thread* toRet = readyQueue;
  87              		.loc 1 29 5
GAS LISTING /tmp/cc35Pgdh.s 			page 3


  88              		.loc 1 29 13 is_stmt 0
  89 006c 17090000 		lla	s2,.LANCHOR0
  89      13090900 
  90 0074 83348900 		ld	s1,8(s2)
  91              	.LVL4:
  30:src/Scheduler.cpp ****     readyQueue = readyQueue->getNextInQueue();
  92              		.loc 1 30 5 is_stmt 1
  93              		.loc 1 30 44 is_stmt 0
  94 0078 13850400 		mv	a0,s1
  95 007c 97000000 		call	_ZN6Thread14getNextInQueueEv@plt
  95      E7800000 
  96              	.LVL5:
  97              		.loc 1 30 16
  98 0084 2334A900 		sd	a0,8(s2)
  31:src/Scheduler.cpp ****     return toRet;
  99              		.loc 1 31 5 is_stmt 1
  32:src/Scheduler.cpp **** }
 100              		.loc 1 32 1 is_stmt 0
 101 0088 13850400 		mv	a0,s1
 102 008c 83308101 		ld	ra,24(sp)
 103              		.cfi_restore 1
 104 0090 03340101 		ld	s0,16(sp)
 105              		.cfi_restore 8
 106              		.cfi_def_cfa 2, 32
 107 0094 83348100 		ld	s1,8(sp)
 108              		.cfi_restore 9
 109              	.LVL6:
 110 0098 03390100 		ld	s2,0(sp)
 111              		.cfi_restore 18
 112 009c 13010102 		addi	sp,sp,32
 113              		.cfi_def_cfa_offset 0
 114 00a0 67800000 		jr	ra
 115              		.cfi_endproc
 116              	.LFE4:
 118              		.align	2
 119              		.globl	_ZN9Scheduler3PutEP6Thread
 121              	_ZN9Scheduler3PutEP6Thread:
 122              	.LFB5:
  33:src/Scheduler.cpp **** void Scheduler::Put(Thread* thread){
 123              		.loc 1 33 36 is_stmt 1
 124              		.cfi_startproc
 125              	.LVL7:
 126 00a4 130101FE 		addi	sp,sp,-32
 127              		.cfi_def_cfa_offset 32
 128 00a8 233C1100 		sd	ra,24(sp)
 129 00ac 23388100 		sd	s0,16(sp)
 130 00b0 23349100 		sd	s1,8(sp)
 131 00b4 23302101 		sd	s2,0(sp)
 132              		.cfi_offset 1, -8
 133              		.cfi_offset 8, -16
 134              		.cfi_offset 9, -24
 135              		.cfi_offset 18, -32
 136 00b8 13040102 		addi	s0,sp,32
 137              		.cfi_def_cfa 8, 0
 138 00bc 93040500 		mv	s1,a0
  34:src/Scheduler.cpp ****     //TODO: Add checks if it already exists
  35:src/Scheduler.cpp ****     thread->setNextAndPrevInQueue(nullptr, readyQueueEnd);
GAS LISTING /tmp/cc35Pgdh.s 			page 4


 139              		.loc 1 35 5
 140              		.loc 1 35 34 is_stmt 0
 141 00c0 17090000 		lla	s2,.LANCHOR0
 141      13090900 
 142 00c8 03360901 		ld	a2,16(s2)
 143 00cc 93050000 		li	a1,0
 144 00d0 97000000 		call	_ZN6Thread21setNextAndPrevInQueueEPS_S0_@plt
 144      E7800000 
 145              	.LVL8:
  36:src/Scheduler.cpp ****     readyQueueEnd->setNextInQueue(thread);
 146              		.loc 1 36 5 is_stmt 1
 147              		.loc 1 36 34 is_stmt 0
 148 00d8 93850400 		mv	a1,s1
 149 00dc 03350901 		ld	a0,16(s2)
 150 00e0 97000000 		call	_ZN6Thread14setNextInQueueEPS_@plt
 150      E7800000 
 151              	.LVL9:
  37:src/Scheduler.cpp ****     readyQueueEnd = thread;
 152              		.loc 1 37 5 is_stmt 1
 153              		.loc 1 37 19 is_stmt 0
 154 00e8 23389900 		sd	s1,16(s2)
  38:src/Scheduler.cpp **** }
 155              		.loc 1 38 1
 156 00ec 83308101 		ld	ra,24(sp)
 157              		.cfi_restore 1
 158 00f0 03340101 		ld	s0,16(sp)
 159              		.cfi_restore 8
 160              		.cfi_def_cfa 2, 32
 161 00f4 83348100 		ld	s1,8(sp)
 162              		.cfi_restore 9
 163              	.LVL10:
 164 00f8 03390100 		ld	s2,0(sp)
 165              		.cfi_restore 18
 166 00fc 13010102 		addi	sp,sp,32
 167              		.cfi_def_cfa_offset 0
 168 0100 67800000 		jr	ra
 169              		.cfi_endproc
 170              	.LFE5:
 172              		.align	2
 173              		.globl	_ZN9Scheduler15SetupStartStackEv
 175              	_ZN9Scheduler15SetupStartStackEv:
 176              	.LFB6:
  39:src/Scheduler.cpp **** 
  40:src/Scheduler.cpp **** extern "C" char end[];
  41:src/Scheduler.cpp **** 
  42:src/Scheduler.cpp **** void Scheduler::SetupStartStack() {
 177              		.loc 1 42 35 is_stmt 1
 178              		.cfi_startproc
 179 0104 130101FF 		addi	sp,sp,-16
 180              		.cfi_def_cfa_offset 16
 181 0108 23348100 		sd	s0,8(sp)
 182              		.cfi_offset 8, -8
 183 010c 13040101 		addi	s0,sp,16
 184              		.cfi_def_cfa 8, 0
  43:src/Scheduler.cpp **** 
  44:src/Scheduler.cpp ****     Scheduler::stack_cursor = reinterpret_cast<size_t*>(
 185              		.loc 1 44 5
GAS LISTING /tmp/cc35Pgdh.s 			page 5


  45:src/Scheduler.cpp ****         ((reinterpret_cast<size_t>(end) + 7) & ~7)
 186              		.loc 1 45 41 is_stmt 0
 187 0110 97070000 		la	a5,end
 187      83B70700 
 188 0118 93877700 		addi	a5,a5,7
 189              		.loc 1 45 46
 190 011c 93F787FF 		andi	a5,a5,-8
  44:src/Scheduler.cpp ****         ((reinterpret_cast<size_t>(end) + 7) & ~7)
 191              		.loc 1 44 29
 192 0120 17070000 		sd	a5,.LANCHOR0+24,a4
 192      2330F700 
  46:src/Scheduler.cpp ****     );
  47:src/Scheduler.cpp **** }
 193              		.loc 1 47 1
 194 0128 03348100 		ld	s0,8(sp)
 195              		.cfi_restore 8
 196              		.cfi_def_cfa 2, 16
 197 012c 13010101 		addi	sp,sp,16
 198              		.cfi_def_cfa_offset 0
 199 0130 67800000 		jr	ra
 200              		.cfi_endproc
 201              	.LFE6:
 203              		.align	2
 204              		.globl	_ZN9Scheduler16SetupStartThreadEv
 206              	_ZN9Scheduler16SetupStartThreadEv:
 207              	.LFB7:
  48:src/Scheduler.cpp **** 
  49:src/Scheduler.cpp **** void Scheduler::SetupStartThread() {
 208              		.loc 1 49 36 is_stmt 1
 209              		.cfi_startproc
 210 0134 130101FF 		addi	sp,sp,-16
 211              		.cfi_def_cfa_offset 16
 212 0138 23341100 		sd	ra,8(sp)
 213 013c 23308100 		sd	s0,0(sp)
 214              		.cfi_offset 1, -8
 215              		.cfi_offset 8, -16
 216 0140 13040101 		addi	s0,sp,16
 217              		.cfi_def_cfa 8, 0
  50:src/Scheduler.cpp ****     SetupStartStack();
 218              		.loc 1 50 5
 219              		.loc 1 50 20 is_stmt 0
 220 0144 97000000 		call	_ZN9Scheduler15SetupStartStackEv
 220      E7800000 
 221              	.LVL11:
  51:src/Scheduler.cpp ****     running = static_cast<Thread*>(MemoryAllocator::GetInstance().AllocateFragment(sizeof(Thread)))
 222              		.loc 1 51 5 is_stmt 1
 223              		.loc 1 51 65 is_stmt 0
 224 014c 97000000 		call	_ZN15MemoryAllocator11GetInstanceEv@plt
 224      E7800000 
 225              	.LVL12:
 226              		.loc 1 51 83
 227 0154 B7850000 		li	a1,32768
 228 0158 93850514 		addi	a1,a1,320
 229 015c 97000000 		call	_ZN15MemoryAllocator16AllocateFragmentEm@plt
 229      E7800000 
 230              	.LVL13:
 231              		.loc 1 51 13
GAS LISTING /tmp/cc35Pgdh.s 			page 6


 232 0164 97070000 		sd	a0,.LANCHOR0,a5
 232      23B0A700 
  52:src/Scheduler.cpp ****     setupStartContext(running->getContext());
 233              		.loc 1 52 5 is_stmt 1
 234              		.loc 1 52 22 is_stmt 0
 235 016c 97000000 		call	_ZN6Thread10getContextEv@plt
 235      E7800000 
 236              	.LVL14:
 237 0174 97000000 		call	setupStartContext@plt
 237      E7800000 
 238              	.LVL15:
  53:src/Scheduler.cpp **** }
 239              		.loc 1 53 1
 240 017c 83308100 		ld	ra,8(sp)
 241              		.cfi_restore 1
 242 0180 03340100 		ld	s0,0(sp)
 243              		.cfi_restore 8
 244              		.cfi_def_cfa 2, 16
 245 0184 13010101 		addi	sp,sp,16
 246              		.cfi_def_cfa_offset 0
 247 0188 67800000 		jr	ra
 248              		.cfi_endproc
 249              	.LFE7:
 251              		.align	2
 252              		.globl	_ZN9Scheduler12AddNewThreadEP6Thread
 254              	_ZN9Scheduler12AddNewThreadEP6Thread:
 255              	.LFB8:
  54:src/Scheduler.cpp **** 
  55:src/Scheduler.cpp **** void Scheduler::AddNewThread(Thread* thread) {
 256              		.loc 1 55 46 is_stmt 1
 257              		.cfi_startproc
 258              	.LVL16:
 259 018c 130101FF 		addi	sp,sp,-16
 260              		.cfi_def_cfa_offset 16
 261 0190 23348100 		sd	s0,8(sp)
 262              		.cfi_offset 8, -8
 263 0194 13040101 		addi	s0,sp,16
 264              		.cfi_def_cfa 8, 0
  56:src/Scheduler.cpp ****     thread->threadContext.x[2] = reinterpret_cast<size_t>(thread->getStackTop());
 265              		.loc 1 56 5
 266              	.LVL17:
 267              	.LBB4:
 268              	.LBB5:
 269              		.file 2 "src/Thread.hpp"
   1:src/Thread.hpp **** //
   2:src/Thread.hpp **** // Created by os on 6/10/26.
   3:src/Thread.hpp **** //
   4:src/Thread.hpp **** 
   5:src/Thread.hpp **** #ifndef OSPROJEKAT_THREAD_H
   6:src/Thread.hpp **** #define OSPROJEKAT_THREAD_H
   7:src/Thread.hpp **** 
   8:src/Thread.hpp **** #include "../lib/hw.h"
   9:src/Thread.hpp **** struct Context {
  10:src/Thread.hpp ****     size_t x[32];    // x0-x31, offsets 0x00-0xF
  11:src/Thread.hpp ****     size_t sepc;     // offset 0x100
  12:src/Thread.hpp ****     size_t sstatus;  // offset 0x108
  13:src/Thread.hpp ****     size_t pc;
GAS LISTING /tmp/cc35Pgdh.s 			page 7


  14:src/Thread.hpp **** };
  15:src/Thread.hpp **** 
  16:src/Thread.hpp **** class Thread{
  17:src/Thread.hpp **** protected:
  18:src/Thread.hpp ****     static void threadTrampoline(Thread* t);
  19:src/Thread.hpp ****     void (*body)(void);
  20:src/Thread.hpp **** 
  21:src/Thread.hpp ****     Thread* prev;
  22:src/Thread.hpp ****     Thread* next;
  23:src/Thread.hpp ****     size_t* stackPtr;
  24:src/Thread.hpp ****     size_t stack[DEFAULT_STACK_SIZE];
  25:src/Thread.hpp ****     size_t* supervisorSp;
  26:src/Thread.hpp **** public:
  27:src/Thread.hpp ****     Context threadContext;
  28:src/Thread.hpp ****     Thread();
  29:src/Thread.hpp ****     void copyContext(size_t* ctx);
  30:src/Thread.hpp ****     void init();
  31:src/Thread.hpp ****     void setStackPtr(size_t* stackPtr);
  32:src/Thread.hpp ****     size_t* getStackTop() { return stack + DEFAULT_STACK_SIZE; }
 270              		.loc 2 32 29
 271              		.loc 2 32 44 is_stmt 0
 272 0198 37870000 		li	a4,32768
 273 019c 93070702 		addi	a5,a4,32
 274 01a0 B307F500 		add	a5,a0,a5
 275              	.LVL18:
 276              	.LBE5:
 277              	.LBE4:
 278              		.loc 1 56 32
 279 01a4 3305E500 		add	a0,a0,a4
 280              	.LVL19:
 281 01a8 233CF502 		sd	a5,56(a0)
  57:src/Scheduler.cpp **** }
 282              		.loc 1 57 1
 283 01ac 03348100 		ld	s0,8(sp)
 284              		.cfi_restore 8
 285              		.cfi_def_cfa 2, 16
 286 01b0 13010101 		addi	sp,sp,16
 287              		.cfi_def_cfa_offset 0
 288 01b4 67800000 		jr	ra
 289              		.cfi_endproc
 290              	.LFE8:
 292              		.globl	_ZN9Scheduler12stack_cursorE
 293              		.globl	_ZN9Scheduler13readyQueueEndE
 294              		.globl	_ZN9Scheduler10readyQueueE
 295              		.globl	_ZN9Scheduler7runningE
 296              		.bss
 297              		.align	3
 298              		.set	.LANCHOR0,. + 0
 301              	_ZN9Scheduler7runningE:
 302 0000 00000000 		.zero	8
 302      00000000 
 305              	_ZN9Scheduler10readyQueueE:
 306 0008 00000000 		.zero	8
 306      00000000 
 309              	_ZN9Scheduler13readyQueueEndE:
 310 0010 00000000 		.zero	8
 310      00000000 
GAS LISTING /tmp/cc35Pgdh.s 			page 8


 313              	_ZN9Scheduler12stack_cursorE:
 314 0018 00000000 		.zero	8
 314      00000000 
 315              		.text
 316              	.Letext0:
 317              		.file 3 "src/../lib/hw.h"
 318              		.file 4 "src/Scheduler.hpp"
 319              		.file 5 "src/MemoryAllocator.hpp"
GAS LISTING /tmp/cc35Pgdh.s 			page 9


DEFINED SYMBOLS
                            *ABS*:0000000000000000 Scheduler.cpp
     /tmp/cc35Pgdh.s:9      .text:0000000000000000 _ZN9Scheduler10GetRunningEv
     /tmp/cc35Pgdh.s:13     .text:0000000000000000 .L0 
     /tmp/cc35Pgdh.s:14     .text:0000000000000000 .L0 
     /tmp/cc35Pgdh.s:15     .text:0000000000000004 .L0 
     /tmp/cc35Pgdh.s:17     .text:0000000000000008 .L0 
     /tmp/cc35Pgdh.s:19     .text:000000000000000c .L0 
     /tmp/cc35Pgdh.s:21     .text:000000000000000c .L0 
     /tmp/cc35Pgdh.s:22     .text:000000000000000c .L0 
     /tmp/cc35Pgdh.s:24     .text:0000000000000018 .L0 
     /tmp/cc35Pgdh.s:25     .text:0000000000000018 .L0 
     /tmp/cc35Pgdh.s:27     .text:000000000000001c .L0 
     /tmp/cc35Pgdh.s:29     .text:0000000000000020 .L0 
     /tmp/cc35Pgdh.s:35     .text:0000000000000020 _ZN9Scheduler5yieldEP6ThreadS1_
     /tmp/cc35Pgdh.s:38     .text:0000000000000020 .L0 
     /tmp/cc35Pgdh.s:40     .text:0000000000000020 .L0 
     /tmp/cc35Pgdh.s:41     .text:0000000000000024 .L0 
     /tmp/cc35Pgdh.s:44     .text:000000000000002c .L0 
     /tmp/cc35Pgdh.s:45     .text:000000000000002c .L0 
     /tmp/cc35Pgdh.s:47     .text:0000000000000030 .L0 
     /tmp/cc35Pgdh.s:49     .text:0000000000000030 .L0 
     /tmp/cc35Pgdh.s:50     .text:0000000000000030 .L0 
     /tmp/cc35Pgdh.s:57     .text:0000000000000044 .L0 
     /tmp/cc35Pgdh.s:58     .text:0000000000000048 .L0 
     /tmp/cc35Pgdh.s:60     .text:000000000000004c .L0 
     /tmp/cc35Pgdh.s:61     .text:000000000000004c .L0 
     /tmp/cc35Pgdh.s:63     .text:0000000000000050 .L0 
     /tmp/cc35Pgdh.s:65     .text:0000000000000054 .L0 
     /tmp/cc35Pgdh.s:71     .text:0000000000000054 _ZN9Scheduler7GetNextEv
     /tmp/cc35Pgdh.s:74     .text:0000000000000054 .L0 
     /tmp/cc35Pgdh.s:75     .text:0000000000000054 .L0 
     /tmp/cc35Pgdh.s:76     .text:0000000000000058 .L0 
     /tmp/cc35Pgdh.s:81     .text:0000000000000068 .L0 
     /tmp/cc35Pgdh.s:82     .text:0000000000000068 .L0 
     /tmp/cc35Pgdh.s:83     .text:0000000000000068 .L0 
     /tmp/cc35Pgdh.s:84     .text:0000000000000068 .L0 
     /tmp/cc35Pgdh.s:86     .text:000000000000006c .L0 
     /tmp/cc35Pgdh.s:88     .text:000000000000006c .L0 
     /tmp/cc35Pgdh.s:89     .text:000000000000006c .L0 
     /tmp/cc35Pgdh.s:93     .text:0000000000000078 .L0 
     /tmp/cc35Pgdh.s:94     .text:0000000000000078 .L0 
     /tmp/cc35Pgdh.s:98     .text:0000000000000084 .L0 
     /tmp/cc35Pgdh.s:100    .text:0000000000000088 .L0 
     /tmp/cc35Pgdh.s:101    .text:0000000000000088 .L0 
     /tmp/cc35Pgdh.s:103    .text:0000000000000090 .L0 
     /tmp/cc35Pgdh.s:105    .text:0000000000000094 .L0 
     /tmp/cc35Pgdh.s:106    .text:0000000000000094 .L0 
     /tmp/cc35Pgdh.s:108    .text:0000000000000098 .L0 
     /tmp/cc35Pgdh.s:111    .text:000000000000009c .L0 
     /tmp/cc35Pgdh.s:113    .text:00000000000000a0 .L0 
     /tmp/cc35Pgdh.s:115    .text:00000000000000a4 .L0 
     /tmp/cc35Pgdh.s:121    .text:00000000000000a4 _ZN9Scheduler3PutEP6Thread
     /tmp/cc35Pgdh.s:124    .text:00000000000000a4 .L0 
     /tmp/cc35Pgdh.s:126    .text:00000000000000a4 .L0 
     /tmp/cc35Pgdh.s:127    .text:00000000000000a8 .L0 
     /tmp/cc35Pgdh.s:132    .text:00000000000000b8 .L0 
GAS LISTING /tmp/cc35Pgdh.s 			page 10


     /tmp/cc35Pgdh.s:133    .text:00000000000000b8 .L0 
     /tmp/cc35Pgdh.s:134    .text:00000000000000b8 .L0 
     /tmp/cc35Pgdh.s:135    .text:00000000000000b8 .L0 
     /tmp/cc35Pgdh.s:137    .text:00000000000000bc .L0 
     /tmp/cc35Pgdh.s:140    .text:00000000000000c0 .L0 
     /tmp/cc35Pgdh.s:141    .text:00000000000000c0 .L0 
     /tmp/cc35Pgdh.s:147    .text:00000000000000d8 .L0 
     /tmp/cc35Pgdh.s:148    .text:00000000000000d8 .L0 
     /tmp/cc35Pgdh.s:153    .text:00000000000000e8 .L0 
     /tmp/cc35Pgdh.s:154    .text:00000000000000e8 .L0 
     /tmp/cc35Pgdh.s:156    .text:00000000000000ec .L0 
     /tmp/cc35Pgdh.s:157    .text:00000000000000f0 .L0 
     /tmp/cc35Pgdh.s:159    .text:00000000000000f4 .L0 
     /tmp/cc35Pgdh.s:160    .text:00000000000000f4 .L0 
     /tmp/cc35Pgdh.s:162    .text:00000000000000f8 .L0 
     /tmp/cc35Pgdh.s:165    .text:00000000000000fc .L0 
     /tmp/cc35Pgdh.s:167    .text:0000000000000100 .L0 
     /tmp/cc35Pgdh.s:169    .text:0000000000000104 .L0 
     /tmp/cc35Pgdh.s:175    .text:0000000000000104 _ZN9Scheduler15SetupStartStackEv
     /tmp/cc35Pgdh.s:178    .text:0000000000000104 .L0 
     /tmp/cc35Pgdh.s:179    .text:0000000000000104 .L0 
     /tmp/cc35Pgdh.s:180    .text:0000000000000108 .L0 
     /tmp/cc35Pgdh.s:182    .text:000000000000010c .L0 
     /tmp/cc35Pgdh.s:184    .text:0000000000000110 .L0 
     /tmp/cc35Pgdh.s:186    .text:0000000000000110 .L0 
     /tmp/cc35Pgdh.s:187    .text:0000000000000110 .L0 
     /tmp/cc35Pgdh.s:190    .text:000000000000011c .L0 
     /tmp/cc35Pgdh.s:192    .text:0000000000000120 .L0 
     /tmp/cc35Pgdh.s:194    .text:0000000000000128 .L0 
     /tmp/cc35Pgdh.s:195    .text:000000000000012c .L0 
     /tmp/cc35Pgdh.s:196    .text:000000000000012c .L0 
     /tmp/cc35Pgdh.s:198    .text:0000000000000130 .L0 
     /tmp/cc35Pgdh.s:200    .text:0000000000000134 .L0 
     /tmp/cc35Pgdh.s:206    .text:0000000000000134 _ZN9Scheduler16SetupStartThreadEv
     /tmp/cc35Pgdh.s:209    .text:0000000000000134 .L0 
     /tmp/cc35Pgdh.s:210    .text:0000000000000134 .L0 
     /tmp/cc35Pgdh.s:211    .text:0000000000000138 .L0 
     /tmp/cc35Pgdh.s:214    .text:0000000000000140 .L0 
     /tmp/cc35Pgdh.s:215    .text:0000000000000140 .L0 
     /tmp/cc35Pgdh.s:217    .text:0000000000000144 .L0 
     /tmp/cc35Pgdh.s:219    .text:0000000000000144 .L0 
     /tmp/cc35Pgdh.s:220    .text:0000000000000144 .L0 
     /tmp/cc35Pgdh.s:223    .text:000000000000014c .L0 
     /tmp/cc35Pgdh.s:224    .text:000000000000014c .L0 
     /tmp/cc35Pgdh.s:227    .text:0000000000000154 .L0 
     /tmp/cc35Pgdh.s:232    .text:0000000000000164 .L0 
     /tmp/cc35Pgdh.s:234    .text:000000000000016c .L0 
     /tmp/cc35Pgdh.s:235    .text:000000000000016c .L0 
     /tmp/cc35Pgdh.s:240    .text:000000000000017c .L0 
     /tmp/cc35Pgdh.s:241    .text:0000000000000180 .L0 
     /tmp/cc35Pgdh.s:243    .text:0000000000000184 .L0 
     /tmp/cc35Pgdh.s:244    .text:0000000000000184 .L0 
     /tmp/cc35Pgdh.s:246    .text:0000000000000188 .L0 
     /tmp/cc35Pgdh.s:248    .text:000000000000018c .L0 
     /tmp/cc35Pgdh.s:254    .text:000000000000018c _ZN9Scheduler12AddNewThreadEP6Thread
     /tmp/cc35Pgdh.s:257    .text:000000000000018c .L0 
     /tmp/cc35Pgdh.s:259    .text:000000000000018c .L0 
GAS LISTING /tmp/cc35Pgdh.s 			page 11


     /tmp/cc35Pgdh.s:260    .text:0000000000000190 .L0 
     /tmp/cc35Pgdh.s:262    .text:0000000000000194 .L0 
     /tmp/cc35Pgdh.s:264    .text:0000000000000198 .L0 
     /tmp/cc35Pgdh.s:270    .text:0000000000000198 .L0 
     /tmp/cc35Pgdh.s:271    .text:0000000000000198 .L0 
     /tmp/cc35Pgdh.s:272    .text:0000000000000198 .L0 
     /tmp/cc35Pgdh.s:279    .text:00000000000001a4 .L0 
     /tmp/cc35Pgdh.s:283    .text:00000000000001ac .L0 
     /tmp/cc35Pgdh.s:284    .text:00000000000001b0 .L0 
     /tmp/cc35Pgdh.s:285    .text:00000000000001b0 .L0 
     /tmp/cc35Pgdh.s:287    .text:00000000000001b4 .L0 
     /tmp/cc35Pgdh.s:289    .text:00000000000001b8 .L0 
     /tmp/cc35Pgdh.s:313    .bss:0000000000000018 _ZN9Scheduler12stack_cursorE
     /tmp/cc35Pgdh.s:309    .bss:0000000000000010 _ZN9Scheduler13readyQueueEndE
     /tmp/cc35Pgdh.s:305    .bss:0000000000000008 _ZN9Scheduler10readyQueueE
     /tmp/cc35Pgdh.s:301    .bss:0000000000000000 _ZN9Scheduler7runningE
     /tmp/cc35Pgdh.s:298    .bss:0000000000000000 .LANCHOR0
     /tmp/cc35Pgdh.s:320    .text:00000000000001b8 .L0 
     /tmp/cc35Pgdh.s:22     .text:000000000000000c .L0 
     /tmp/cc35Pgdh.s:89     .text:000000000000006c .L0 
     /tmp/cc35Pgdh.s:141    .text:00000000000000c0 .L0 
     /tmp/cc35Pgdh.s:187    .text:0000000000000110 .L0 
     /tmp/cc35Pgdh.s:192    .text:0000000000000120 .L0 
     /tmp/cc35Pgdh.s:232    .text:0000000000000164 .L0 
     /tmp/cc35Pgdh.s:1313   .debug_abbrev:0000000000000000 .Ldebug_abbrev0
     /tmp/cc35Pgdh.s:2465   .debug_str:0000000000000660 .LASF106
     /tmp/cc35Pgdh.s:2483   .debug_str:00000000000007bf .LASF107
     /tmp/cc35Pgdh.s:2453   .debug_str:0000000000000604 .LASF108
     /tmp/cc35Pgdh.s:5      .text:0000000000000000 .Ltext0
     /tmp/cc35Pgdh.s:316    .text:00000000000001b8 .Letext0
     /tmp/cc35Pgdh.s:2271   .debug_line:0000000000000000 .Ldebug_line0
     /tmp/cc35Pgdh.s:2399   .debug_str:0000000000000472 .LASF0
     /tmp/cc35Pgdh.s:2415   .debug_str:00000000000004ca .LASF1
     /tmp/cc35Pgdh.s:2383   .debug_str:00000000000003df .LASF2
     /tmp/cc35Pgdh.s:2331   .debug_str:0000000000000203 .LASF3
     /tmp/cc35Pgdh.s:2359   .debug_str:0000000000000312 .LASF4
     /tmp/cc35Pgdh.s:2405   .debug_str:0000000000000494 .LASF5
     /tmp/cc35Pgdh.s:2295   .debug_str:00000000000000c7 .LASF6
     /tmp/cc35Pgdh.s:2327   .debug_str:00000000000001ed .LASF7
     /tmp/cc35Pgdh.s:2421   .debug_str:0000000000000506 .LASF8
     /tmp/cc35Pgdh.s:2397   .debug_str:000000000000045f .LASF9
     /tmp/cc35Pgdh.s:2479   .debug_str:0000000000000789 .LASF10
     /tmp/cc35Pgdh.s:2351   .debug_str:00000000000002cb .LASF11
     /tmp/cc35Pgdh.s:2433   .debug_str:0000000000000544 .LASF12
     /tmp/cc35Pgdh.s:2467   .debug_str:0000000000000724 .LASF13
     /tmp/cc35Pgdh.s:2299   .debug_str:00000000000000f5 .LASF14
     /tmp/cc35Pgdh.s:2277   .debug_str:0000000000000025 .LASF15
     /tmp/cc35Pgdh.s:2315   .debug_str:0000000000000191 .LASF16
     /tmp/cc35Pgdh.s:2445   .debug_str:00000000000005cc .LASF17
     /tmp/cc35Pgdh.s:2321   .debug_str:00000000000001c2 .LASF18
     /tmp/cc35Pgdh.s:2279   .debug_str:0000000000000035 .LASF109
     /tmp/cc35Pgdh.s:2409   .debug_str:00000000000004ad .LASF19
     /tmp/cc35Pgdh.s:2441   .debug_str:00000000000005ad .LASF20
     /tmp/cc35Pgdh.s:2475   .debug_str:0000000000000769 .LASF28
     /tmp/cc35Pgdh.s:2313   .debug_str:0000000000000180 .LASF56
     /tmp/cc35Pgdh.s:2395   .debug_str:000000000000043e .LASF58
     /tmp/cc35Pgdh.s:2361   .debug_str:0000000000000319 .LASF21
GAS LISTING /tmp/cc35Pgdh.s 			page 12


     /tmp/cc35Pgdh.s:2487   .debug_str:00000000000007d7 .LASF22
     /tmp/cc35Pgdh.s:2495   .debug_str:0000000000000823 .LASF23
     /tmp/cc35Pgdh.s:2287   .debug_str:000000000000007c .LASF24
     /tmp/cc35Pgdh.s:2403   .debug_str:000000000000048e .LASF25
     /tmp/cc35Pgdh.s:2275   .debug_str:0000000000000018 .LASF26
     /tmp/cc35Pgdh.s:2291   .debug_str:0000000000000090 .LASF27
     /tmp/cc35Pgdh.s:2349   .debug_str:00000000000002bc .LASF30
     /tmp/cc35Pgdh.s:2461   .debug_str:000000000000063b .LASF29
     /tmp/cc35Pgdh.s:2367   .debug_str:0000000000000333 .LASF31
     /tmp/cc35Pgdh.s:2425   .debug_str:000000000000051e .LASF32
     /tmp/cc35Pgdh.s:2411   .debug_str:00000000000004b2 .LASF33
     /tmp/cc35Pgdh.s:2317   .debug_str:000000000000019d .LASF34
     /tmp/cc35Pgdh.s:2379   .debug_str:00000000000003b4 .LASF35
     /tmp/cc35Pgdh.s:2393   .debug_str:0000000000000432 .LASF38
     /tmp/cc35Pgdh.s:2435   .debug_str:0000000000000553 .LASF40
     /tmp/cc35Pgdh.s:2381   .debug_str:00000000000003cf .LASF36
     /tmp/cc35Pgdh.s:2301   .debug_str:0000000000000105 .LASF37
     /tmp/cc35Pgdh.s:2307   .debug_str:000000000000014d .LASF39
     /tmp/cc35Pgdh.s:2477   .debug_str:0000000000000770 .LASF41
     /tmp/cc35Pgdh.s:2329   .debug_str:00000000000001f4 .LASF42
     /tmp/cc35Pgdh.s:2355   .debug_str:00000000000002eb .LASF43
     /tmp/cc35Pgdh.s:2457   .debug_str:0000000000000627 .LASF44
     /tmp/cc35Pgdh.s:2473   .debug_str:000000000000074c .LASF45
     /tmp/cc35Pgdh.s:2499   .debug_str:000000000000083a .LASF46
     /tmp/cc35Pgdh.s:2385   .debug_str:00000000000003ed .LASF47
     /tmp/cc35Pgdh.s:2283   .debug_str:0000000000000049 .LASF48
     /tmp/cc35Pgdh.s:2439   .debug_str:000000000000058e .LASF49
     /tmp/cc35Pgdh.s:2369   .debug_str:000000000000034e .LASF50
     /tmp/cc35Pgdh.s:2341   .debug_str:0000000000000245 .LASF51
     /tmp/cc35Pgdh.s:2413   .debug_str:00000000000004c4 .LASF52
     /tmp/cc35Pgdh.s:2347   .debug_str:00000000000002a9 .LASF53
     /tmp/cc35Pgdh.s:2469   .debug_str:0000000000000733 .LASF54
     /tmp/cc35Pgdh.s:2319   .debug_str:00000000000001a9 .LASF55
     /tmp/cc35Pgdh.s:2455   .debug_str:0000000000000622 .LASF57
     /tmp/cc35Pgdh.s:2353   .debug_str:00000000000002d9 .LASF59
     /tmp/cc35Pgdh.s:2429   .debug_str:000000000000052e .LASF60
     /tmp/cc35Pgdh.s:2345   .debug_str:0000000000000293 .LASF61
     /tmp/cc35Pgdh.s:2333   .debug_str:0000000000000209 .LASF62
     /tmp/cc35Pgdh.s:2289   .debug_str:0000000000000085 .LASF63
     /tmp/cc35Pgdh.s:2451   .debug_str:00000000000005f6 .LASF64
     /tmp/cc35Pgdh.s:2281   .debug_str:000000000000003d .LASF65
     /tmp/cc35Pgdh.s:2389   .debug_str:000000000000041b .LASF66
     /tmp/cc35Pgdh.s:2305   .debug_str:0000000000000141 .LASF110
     /tmp/cc35Pgdh.s:2375   .debug_str:0000000000000387 .LASF111
     /tmp/cc35Pgdh.s:2401   .debug_str:000000000000047f .LASF77
     /tmp/cc35Pgdh.s:2297   .debug_str:00000000000000ce .LASF79
     /tmp/cc35Pgdh.s:2323   .debug_str:00000000000001d8 .LASF67
     /tmp/cc35Pgdh.s:2437   .debug_str:000000000000056d .LASF69
     /tmp/cc35Pgdh.s:2339   .debug_str:0000000000000234 .LASF68
     /tmp/cc35Pgdh.s:2493   .debug_str:0000000000000801 .LASF70
     /tmp/cc35Pgdh.s:2427   .debug_str:0000000000000523 .LASF73
     /tmp/cc35Pgdh.s:2417   .debug_str:00000000000004dd .LASF75
     /tmp/cc35Pgdh.s:2447   .debug_str:00000000000005e2 .LASF71
     /tmp/cc35Pgdh.s:2491   .debug_str:00000000000007e1 .LASF72
     /tmp/cc35Pgdh.s:2371   .debug_str:0000000000000364 .LASF74
     /tmp/cc35Pgdh.s:2273   .debug_str:0000000000000000 .LASF76
     /tmp/cc35Pgdh.s:2373   .debug_str:000000000000036c .LASF112
GAS LISTING /tmp/cc35Pgdh.s 			page 13


     /tmp/cc35Pgdh.s:2311   .debug_str:0000000000000173 .LASF78
     /tmp/cc35Pgdh.s:2343   .debug_str:000000000000026e .LASF80
     /tmp/cc35Pgdh.s:2363   .debug_str:000000000000031e .LASF81
     /tmp/cc35Pgdh.s:2337   .debug_str:000000000000022f .LASF82
     /tmp/cc35Pgdh.s:2459   .debug_str:0000000000000636 .LASF83
     /tmp/cc35Pgdh.s:2377   .debug_str:00000000000003a4 .LASF84
     /tmp/cc35Pgdh.s:2365   .debug_str:0000000000000327 .LASF85
     /tmp/cc35Pgdh.s:2285   .debug_str:0000000000000058 .LASF86
     /tmp/cc35Pgdh.s:2471   .debug_str:000000000000073b .LASF87
     /tmp/cc35Pgdh.s:2293   .debug_str:000000000000009e .LASF88
     /tmp/cc35Pgdh.s:2419   .debug_str:00000000000004f9 .LASF89
     /tmp/cc35Pgdh.s:2481   .debug_str:0000000000000799 .LASF90
     /tmp/cc35Pgdh.s:2325   .debug_str:00000000000001e8 .LASF91
     /tmp/cc35Pgdh.s:2463   .debug_str:0000000000000647 .LASF92
     /tmp/cc35Pgdh.s:2449   .debug_str:00000000000005e8 .LASF93
     /tmp/cc35Pgdh.s:2431   .debug_str:0000000000000538 .LASF94
     /tmp/cc35Pgdh.s:2443   .debug_str:00000000000005b5 .LASF95
     /tmp/cc35Pgdh.s:2309   .debug_str:0000000000000158 .LASF96
     /tmp/cc35Pgdh.s:2335   .debug_str:0000000000000211 .LASF97
     /tmp/cc35Pgdh.s:2303   .debug_str:0000000000000124 .LASF98
     /tmp/cc35Pgdh.s:2423   .debug_str:0000000000000519 .LASF99
     /tmp/cc35Pgdh.s:255    .text:000000000000018c .LFB8
     /tmp/cc35Pgdh.s:290    .text:00000000000001b8 .LFE8
     /tmp/cc35Pgdh.s:2407   .debug_str:00000000000004a6 .LASF100
     /tmp/cc35Pgdh.s:2183   .debug_loc:0000000000000000 .LLST4
     /tmp/cc35Pgdh.s:267    .text:0000000000000198 .LBB4
     /tmp/cc35Pgdh.s:277    .text:00000000000001a4 .LBE4
     /tmp/cc35Pgdh.s:2196   .debug_loc:000000000000003a .LLST5
     /tmp/cc35Pgdh.s:207    .text:0000000000000134 .LFB7
     /tmp/cc35Pgdh.s:249    .text:000000000000018c .LFE7
     /tmp/cc35Pgdh.s:221    .text:000000000000014c .LVL11
     /tmp/cc35Pgdh.s:225    .text:0000000000000154 .LVL12
     /tmp/cc35Pgdh.s:230    .text:0000000000000164 .LVL13
     /tmp/cc35Pgdh.s:236    .text:0000000000000174 .LVL14
     /tmp/cc35Pgdh.s:238    .text:000000000000017c .LVL15
     /tmp/cc35Pgdh.s:176    .text:0000000000000104 .LFB6
     /tmp/cc35Pgdh.s:201    .text:0000000000000134 .LFE6
     /tmp/cc35Pgdh.s:122    .text:00000000000000a4 .LFB5
     /tmp/cc35Pgdh.s:170    .text:0000000000000104 .LFE5
     /tmp/cc35Pgdh.s:2203   .debug_loc:000000000000005d .LLST3
     /tmp/cc35Pgdh.s:145    .text:00000000000000d8 .LVL8
     /tmp/cc35Pgdh.s:151    .text:00000000000000e8 .LVL9
     /tmp/cc35Pgdh.s:72     .text:0000000000000054 .LFB4
     /tmp/cc35Pgdh.s:116    .text:00000000000000a4 .LFE4
     /tmp/cc35Pgdh.s:2485   .debug_str:00000000000007d1 .LASF101
     /tmp/cc35Pgdh.s:2219   .debug_loc:00000000000000ae .LLST2
     /tmp/cc35Pgdh.s:96     .text:0000000000000084 .LVL5
     /tmp/cc35Pgdh.s:36     .text:0000000000000020 .LFB3
     /tmp/cc35Pgdh.s:66     .text:0000000000000054 .LFE3
     /tmp/cc35Pgdh.s:2391   .debug_str:0000000000000428 .LASF102
     /tmp/cc35Pgdh.s:2230   .debug_loc:00000000000000e4 .LLST0
     /tmp/cc35Pgdh.s:2357   .debug_str:0000000000000308 .LASF103
     /tmp/cc35Pgdh.s:2244   .debug_loc:000000000000011d .LLST1
     /tmp/cc35Pgdh.s:53     .text:000000000000003c .LVL2
     /tmp/cc35Pgdh.s:55     .text:0000000000000044 .LVL3
     /tmp/cc35Pgdh.s:10     .text:0000000000000000 .LFB2
     /tmp/cc35Pgdh.s:30     .text:0000000000000020 .LFE2
GAS LISTING /tmp/cc35Pgdh.s 			page 14


     /tmp/cc35Pgdh.s:2489   .debug_str:00000000000007dc .LASF113
     /tmp/cc35Pgdh.s:2497   .debug_str:0000000000000828 .LASF104
     /tmp/cc35Pgdh.s:2387   .debug_str:000000000000040c .LASF105
     /tmp/cc35Pgdh.s:258    .text:000000000000018c .LVL16
     /tmp/cc35Pgdh.s:280    .text:00000000000001a8 .LVL19
     /tmp/cc35Pgdh.s:266    .text:0000000000000198 .LVL17
     /tmp/cc35Pgdh.s:275    .text:00000000000001a4 .LVL18
     /tmp/cc35Pgdh.s:125    .text:00000000000000a4 .LVL7
     /tmp/cc35Pgdh.s:163    .text:00000000000000f8 .LVL10
     /tmp/cc35Pgdh.s:91     .text:0000000000000078 .LVL4
     /tmp/cc35Pgdh.s:109    .text:0000000000000098 .LVL6
     /tmp/cc35Pgdh.s:39     .text:0000000000000020 .LVL0
     /tmp/cc35Pgdh.s:51     .text:0000000000000034 .LVL1
     /tmp/cc35Pgdh.s:321    .debug_info:0000000000000000 .Ldebug_info0

UNDEFINED SYMBOLS
_ZN6Thread10getContextEv
restoreContext
_ZN6Thread14getNextInQueueEv
_ZN6Thread21setNextAndPrevInQueueEPS_S0_
_ZN6Thread14setNextInQueueEPS_
end
_ZN15MemoryAllocator11GetInstanceEv
_ZN15MemoryAllocator16AllocateFragmentEm
setupStartContext
