GAS LISTING /tmp/ccyNTiHa.s 			page 1


   1              		.file	"Scheduler.cpp"
   2              		.option pic
   3              		.option norelax
   4              		.text
   5              	.Ltext0:
   6              		.align	2
   8              	_ZL8idleBodyPv:
   9              	.LFB11:
  10              		.file 1 "src/Scheduler.cpp"
   1:src/Scheduler.cpp **** //
   2:src/Scheduler.cpp **** // Created by os on 6/10/26.
   3:src/Scheduler.cpp **** //
   4:src/Scheduler.cpp **** 
   5:src/Scheduler.cpp **** #include "Scheduler.hpp"
   6:src/Scheduler.cpp **** #include "MemoryAllocator.hpp"
   7:src/Scheduler.cpp **** 
   8:src/Scheduler.cpp **** extern "C" void saveContext(size_t* ctx);
   9:src/Scheduler.cpp **** extern "C" void restoreContext(size_t* ctx);
  10:src/Scheduler.cpp **** extern "C" void setupStartContext(size_t* ctx);
  11:src/Scheduler.cpp **** 
  12:src/Scheduler.cpp **** KThread* Scheduler::running = nullptr;
  13:src/Scheduler.cpp **** KThread* Scheduler::readyHead[Scheduler::LEVELS] = {};
  14:src/Scheduler.cpp **** KThread* Scheduler::readyTail[Scheduler::LEVELS] = {};
  15:src/Scheduler.cpp **** int      Scheduler::agingTick = 0;
  16:src/Scheduler.cpp **** KThread* Scheduler::sleepQueue = nullptr;
  17:src/Scheduler.cpp **** KThread* Scheduler::deadThread = nullptr;
  18:src/Scheduler.cpp **** time_t   Scheduler::runningThreadTimeLeft = DEFAULT_TIME_SLICE;
  19:src/Scheduler.cpp **** size_t*  Scheduler::stack_cursor = nullptr;
  20:src/Scheduler.cpp **** 
  21:src/Scheduler.cpp **** 
  22:src/Scheduler.cpp **** KThread* Scheduler::GetRunning(){
  23:src/Scheduler.cpp ****     return running;
  24:src/Scheduler.cpp **** }
  25:src/Scheduler.cpp **** void Scheduler::yield(KThread* oldThread, KThread* newThread){
  26:src/Scheduler.cpp ****     running = newThread;
  27:src/Scheduler.cpp ****     restoreContext(newThread->getContext());
  28:src/Scheduler.cpp **** }
  29:src/Scheduler.cpp **** 
  30:src/Scheduler.cpp **** void Scheduler::ThreadExit(KThread* t) {
  31:src/Scheduler.cpp ****     deadThread = t;
  32:src/Scheduler.cpp ****     KThread* next = GetNext();
  33:src/Scheduler.cpp ****     if (next == nullptr) {
  34:src/Scheduler.cpp ****         next = t->getParent();
  35:src/Scheduler.cpp ****         if (next == nullptr) { while (true) {} }
  36:src/Scheduler.cpp ****     }
  37:src/Scheduler.cpp ****     yield(t, next);
  38:src/Scheduler.cpp **** }
  39:src/Scheduler.cpp **** 
  40:src/Scheduler.cpp **** void Scheduler::freeDead() {
  41:src/Scheduler.cpp ****     if (deadThread == nullptr) return;
  42:src/Scheduler.cpp ****     KThread* dead = deadThread;
  43:src/Scheduler.cpp ****     deadThread = nullptr;
  44:src/Scheduler.cpp ****     if (dead->stackBase) MemoryAllocator::GetInstance().FreeFragment(dead->stackBase);
  45:src/Scheduler.cpp ****     MemoryAllocator::GetInstance().FreeFragment(dead);
  46:src/Scheduler.cpp **** }
  47:src/Scheduler.cpp **** KThread* Scheduler::GetNext() {
  48:src/Scheduler.cpp ****     for (int i = 0; i < LEVELS; i++) {
GAS LISTING /tmp/ccyNTiHa.s 			page 2


  49:src/Scheduler.cpp ****         if (readyHead[i] == nullptr) continue;
  50:src/Scheduler.cpp ****         KThread* toRet = readyHead[i];
  51:src/Scheduler.cpp ****         readyHead[i] = toRet->getNextInQueue();
  52:src/Scheduler.cpp ****         if (readyHead[i] != nullptr) readyHead[i]->setPrevInQueue(nullptr);
  53:src/Scheduler.cpp ****         else readyTail[i] = nullptr;
  54:src/Scheduler.cpp ****         toRet->setNextInQueue(nullptr);
  55:src/Scheduler.cpp ****         toRet->setPrevInQueue(nullptr);
  56:src/Scheduler.cpp ****         return toRet;
  57:src/Scheduler.cpp ****     }
  58:src/Scheduler.cpp ****     return nullptr;
  59:src/Scheduler.cpp **** }
  60:src/Scheduler.cpp **** 
  61:src/Scheduler.cpp **** void Scheduler::Put(KThread* thread) {
  62:src/Scheduler.cpp ****     int lvl = thread->priority;
  63:src/Scheduler.cpp ****     thread->setNextInQueue(nullptr);
  64:src/Scheduler.cpp ****     thread->setPrevInQueue(readyTail[lvl]);
  65:src/Scheduler.cpp ****     if (readyTail[lvl] != nullptr) readyTail[lvl]->setNextInQueue(thread);
  66:src/Scheduler.cpp ****     else readyHead[lvl] = thread;
  67:src/Scheduler.cpp ****     readyTail[lvl] = thread;
  68:src/Scheduler.cpp **** }
  69:src/Scheduler.cpp **** 
  70:src/Scheduler.cpp **** void Scheduler::PutPreempted(KThread* thread) {
  71:src/Scheduler.cpp ****     if (thread->priority < LEVELS - 1) thread->priority++;
  72:src/Scheduler.cpp ****     Put(thread);
  73:src/Scheduler.cpp **** }
  74:src/Scheduler.cpp **** 
  75:src/Scheduler.cpp **** extern "C" char end[];
  76:src/Scheduler.cpp **** 
  77:src/Scheduler.cpp **** void Scheduler::SetupStartStack() {
  78:src/Scheduler.cpp ****     Scheduler::stack_cursor = reinterpret_cast<size_t*>(
  79:src/Scheduler.cpp ****         ((reinterpret_cast<size_t>(end) + 7) & ~7)
  80:src/Scheduler.cpp ****     );
  81:src/Scheduler.cpp **** }
  82:src/Scheduler.cpp **** 
  83:src/Scheduler.cpp **** extern "C" void thread_dispatch(void);
  84:src/Scheduler.cpp **** static void idleBody(void*) {
  11              		.loc 1 84 29
  12              		.cfi_startproc
  13 0000 130101FF 		addi	sp,sp,-16
  14              		.cfi_def_cfa_offset 16
  15 0004 23341100 		sd	ra,8(sp)
  16 0008 23308100 		sd	s0,0(sp)
  17              		.cfi_offset 1, -8
  18              		.cfi_offset 8, -16
  19 000c 13040101 		addi	s0,sp,16
  20              		.cfi_def_cfa 8, 0
  21              	.L2:
  85:src/Scheduler.cpp ****     while (true) { thread_dispatch(); }
  22              		.loc 1 85 5 discriminator 1
  23              		.loc 1 85 20 discriminator 1
  24              		.loc 1 85 35 is_stmt 0 discriminator 1
  25 0010 97000000 		call	thread_dispatch@plt
  25      E7800000 
  26              	.LVL0:
  27              		.loc 1 85 5 is_stmt 1 discriminator 1
  28 0018 6FF09FFF 		j	.L2
  29              		.cfi_endproc
GAS LISTING /tmp/ccyNTiHa.s 			page 3


  30              	.LFE11:
  32              		.align	2
  33              		.globl	_ZN9Scheduler10GetRunningEv
  35              	_ZN9Scheduler10GetRunningEv:
  36              	.LFB3:
  22:src/Scheduler.cpp ****     return running;
  37              		.loc 1 22 33
  38              		.cfi_startproc
  39 001c 130101FF 		addi	sp,sp,-16
  40              		.cfi_def_cfa_offset 16
  41 0020 23348100 		sd	s0,8(sp)
  42              		.cfi_offset 8, -8
  43 0024 13040101 		addi	s0,sp,16
  44              		.cfi_def_cfa 8, 0
  23:src/Scheduler.cpp **** }
  45              		.loc 1 23 5
  24:src/Scheduler.cpp **** void Scheduler::yield(KThread* oldThread, KThread* newThread){
  46              		.loc 1 24 1 is_stmt 0
  47 0028 17050000 		ld	a0,.LANCHOR0
  47      03350500 
  48 0030 03348100 		ld	s0,8(sp)
  49              		.cfi_restore 8
  50              		.cfi_def_cfa 2, 16
  51 0034 13010101 		addi	sp,sp,16
  52              		.cfi_def_cfa_offset 0
  53 0038 67800000 		jr	ra
  54              		.cfi_endproc
  55              	.LFE3:
  57              		.align	2
  58              		.globl	_ZN9Scheduler5yieldEP7KThreadS1_
  60              	_ZN9Scheduler5yieldEP7KThreadS1_:
  61              	.LFB4:
  25:src/Scheduler.cpp ****     running = newThread;
  62              		.loc 1 25 62 is_stmt 1
  63              		.cfi_startproc
  64              	.LVL1:
  65 003c 130101FF 		addi	sp,sp,-16
  66              		.cfi_def_cfa_offset 16
  67 0040 23341100 		sd	ra,8(sp)
  68 0044 23308100 		sd	s0,0(sp)
  69              		.cfi_offset 1, -8
  70              		.cfi_offset 8, -16
  71 0048 13040101 		addi	s0,sp,16
  72              		.cfi_def_cfa 8, 0
  73 004c 13850500 		mv	a0,a1
  74              	.LVL2:
  26:src/Scheduler.cpp ****     restoreContext(newThread->getContext());
  75              		.loc 1 26 5
  26:src/Scheduler.cpp ****     restoreContext(newThread->getContext());
  76              		.loc 1 26 13 is_stmt 0
  77 0050 97070000 		sd	a1,.LANCHOR0,a5
  77      23B0B700 
  27:src/Scheduler.cpp **** }
  78              		.loc 1 27 5 is_stmt 1
  27:src/Scheduler.cpp **** }
  79              		.loc 1 27 19 is_stmt 0
  80 0058 97000000 		call	_ZN7KThread10getContextEv@plt
GAS LISTING /tmp/ccyNTiHa.s 			page 4


  80      E7800000 
  81              	.LVL3:
  82 0060 97000000 		call	restoreContext@plt
  82      E7800000 
  83              	.LVL4:
  28:src/Scheduler.cpp **** 
  84              		.loc 1 28 1
  85 0068 83308100 		ld	ra,8(sp)
  86              		.cfi_restore 1
  87 006c 03340100 		ld	s0,0(sp)
  88              		.cfi_restore 8
  89              		.cfi_def_cfa 2, 16
  90 0070 13010101 		addi	sp,sp,16
  91              		.cfi_def_cfa_offset 0
  92 0074 67800000 		jr	ra
  93              		.cfi_endproc
  94              	.LFE4:
  96              		.align	2
  97              		.globl	_ZN9Scheduler8freeDeadEv
  99              	_ZN9Scheduler8freeDeadEv:
 100              	.LFB6:
  40:src/Scheduler.cpp ****     if (deadThread == nullptr) return;
 101              		.loc 1 40 28 is_stmt 1
 102              		.cfi_startproc
 103 0078 130101FE 		addi	sp,sp,-32
 104              		.cfi_def_cfa_offset 32
 105 007c 233C1100 		sd	ra,24(sp)
 106 0080 23388100 		sd	s0,16(sp)
 107 0084 23349100 		sd	s1,8(sp)
 108              		.cfi_offset 1, -8
 109              		.cfi_offset 8, -16
 110              		.cfi_offset 9, -24
 111 0088 13040102 		addi	s0,sp,32
 112              		.cfi_def_cfa 8, 0
  41:src/Scheduler.cpp ****     KThread* dead = deadThread;
 113              		.loc 1 41 5
  41:src/Scheduler.cpp ****     KThread* dead = deadThread;
 114              		.loc 1 41 20 is_stmt 0
 115 008c 97040000 		ld	s1,.LANCHOR0+8
 115      83B40400 
  41:src/Scheduler.cpp ****     KThread* dead = deadThread;
 116              		.loc 1 41 5
 117 0094 638E0402 		beqz	s1,.L8
  42:src/Scheduler.cpp ****     deadThread = nullptr;
 118              		.loc 1 42 5 is_stmt 1
 119              	.LVL5:
  43:src/Scheduler.cpp ****     if (dead->stackBase) MemoryAllocator::GetInstance().FreeFragment(dead->stackBase);
 120              		.loc 1 43 5
  43:src/Scheduler.cpp ****     if (dead->stackBase) MemoryAllocator::GetInstance().FreeFragment(dead->stackBase);
 121              		.loc 1 43 16 is_stmt 0
 122 0098 97070000 		sd	zero,.LANCHOR0+8,a5
 122      23B00700 
  44:src/Scheduler.cpp ****     MemoryAllocator::GetInstance().FreeFragment(dead);
 123              		.loc 1 44 5 is_stmt 1
  44:src/Scheduler.cpp ****     MemoryAllocator::GetInstance().FreeFragment(dead);
 124              		.loc 1 44 15 is_stmt 0
 125 00a0 83B78404 		ld	a5,72(s1)
GAS LISTING /tmp/ccyNTiHa.s 			page 5


  44:src/Scheduler.cpp ****     MemoryAllocator::GetInstance().FreeFragment(dead);
 126              		.loc 1 44 5
 127 00a4 638C0700 		beqz	a5,.L10
  44:src/Scheduler.cpp ****     MemoryAllocator::GetInstance().FreeFragment(dead);
 128              		.loc 1 44 26 is_stmt 1 discriminator 1
  44:src/Scheduler.cpp ****     MemoryAllocator::GetInstance().FreeFragment(dead);
 129              		.loc 1 44 55 is_stmt 0 discriminator 1
 130 00a8 97000000 		call	_ZN15MemoryAllocator11GetInstanceEv@plt
 130      E7800000 
 131              	.LVL6:
  44:src/Scheduler.cpp ****     MemoryAllocator::GetInstance().FreeFragment(dead);
 132              		.loc 1 44 69 discriminator 1
 133 00b0 83B58404 		ld	a1,72(s1)
 134 00b4 97000000 		call	_ZN15MemoryAllocator12FreeFragmentEPv@plt
 134      E7800000 
 135              	.LVL7:
 136              	.L10:
  45:src/Scheduler.cpp **** }
 137              		.loc 1 45 5 is_stmt 1
  45:src/Scheduler.cpp **** }
 138              		.loc 1 45 34 is_stmt 0
 139 00bc 97000000 		call	_ZN15MemoryAllocator11GetInstanceEv@plt
 139      E7800000 
 140              	.LVL8:
  45:src/Scheduler.cpp **** }
 141              		.loc 1 45 48
 142 00c4 93850400 		mv	a1,s1
 143 00c8 97000000 		call	_ZN15MemoryAllocator12FreeFragmentEPv@plt
 143      E7800000 
 144              	.LVL9:
 145              	.L8:
  46:src/Scheduler.cpp **** KThread* Scheduler::GetNext() {
 146              		.loc 1 46 1
 147 00d0 83308101 		ld	ra,24(sp)
 148              		.cfi_restore 1
 149 00d4 03340101 		ld	s0,16(sp)
 150              		.cfi_restore 8
 151              		.cfi_def_cfa 2, 32
 152 00d8 83348100 		ld	s1,8(sp)
 153              		.cfi_restore 9
 154 00dc 13010102 		addi	sp,sp,32
 155              		.cfi_def_cfa_offset 0
 156 00e0 67800000 		jr	ra
 157              		.cfi_endproc
 158              	.LFE6:
 160              		.align	2
 161              		.globl	_ZN9Scheduler7GetNextEv
 163              	_ZN9Scheduler7GetNextEv:
 164              	.LFB7:
  47:src/Scheduler.cpp ****     for (int i = 0; i < LEVELS; i++) {
 165              		.loc 1 47 31 is_stmt 1
 166              		.cfi_startproc
 167 00e4 130101FE 		addi	sp,sp,-32
 168              		.cfi_def_cfa_offset 32
 169 00e8 233C1100 		sd	ra,24(sp)
 170 00ec 23388100 		sd	s0,16(sp)
 171 00f0 23349100 		sd	s1,8(sp)
GAS LISTING /tmp/ccyNTiHa.s 			page 6


 172 00f4 23302101 		sd	s2,0(sp)
 173              		.cfi_offset 1, -8
 174              		.cfi_offset 8, -16
 175              		.cfi_offset 9, -24
 176              		.cfi_offset 18, -32
 177 00f8 13040102 		addi	s0,sp,32
 178              		.cfi_def_cfa 8, 0
  48:src/Scheduler.cpp ****         if (readyHead[i] == nullptr) continue;
 179              		.loc 1 48 5
 180              	.LVL10:
 181              	.LBB8:
  48:src/Scheduler.cpp ****         if (readyHead[i] == nullptr) continue;
 182              		.loc 1 48 14 is_stmt 0
 183 00fc 93040000 		li	s1,0
 184              	.LVL11:
 185              	.L15:
  48:src/Scheduler.cpp ****         if (readyHead[i] == nullptr) continue;
 186              		.loc 1 48 23 is_stmt 1 discriminator 1
 187 0100 93073000 		li	a5,3
 188 0104 63C4970A 		bgt	s1,a5,.L18
 189              	.LBB9:
  49:src/Scheduler.cpp ****         KThread* toRet = readyHead[i];
 190              		.loc 1 49 9
  49:src/Scheduler.cpp ****         KThread* toRet = readyHead[i];
 191              		.loc 1 49 24 is_stmt 0
 192 0108 13973400 		slli	a4,s1,3
 193 010c 97070000 		lla	a5,.LANCHOR0
 193      93870700 
 194 0114 B387E700 		add	a5,a5,a4
 195 0118 03B90701 		ld	s2,16(a5)
  49:src/Scheduler.cpp ****         KThread* toRet = readyHead[i];
 196              		.loc 1 49 9
 197 011c 63080906 		beqz	s2,.L20
  50:src/Scheduler.cpp ****         readyHead[i] = toRet->getNextInQueue();
 198              		.loc 1 50 9 is_stmt 1
 199              	.LVL12:
  51:src/Scheduler.cpp ****         if (readyHead[i] != nullptr) readyHead[i]->setPrevInQueue(nullptr);
 200              		.loc 1 51 9
  51:src/Scheduler.cpp ****         if (readyHead[i] != nullptr) readyHead[i]->setPrevInQueue(nullptr);
 201              		.loc 1 51 45 is_stmt 0
 202 0120 13050900 		mv	a0,s2
 203 0124 97000000 		call	_ZN7KThread14getNextInQueueEv@plt
 203      E7800000 
 204              	.LVL13:
  51:src/Scheduler.cpp ****         if (readyHead[i] != nullptr) readyHead[i]->setPrevInQueue(nullptr);
 205              		.loc 1 51 22
 206 012c 13973400 		slli	a4,s1,3
 207 0130 97070000 		lla	a5,.LANCHOR0
 207      93870700 
 208 0138 B387E700 		add	a5,a5,a4
 209 013c 23B8A700 		sd	a0,16(a5)
  52:src/Scheduler.cpp ****         else readyTail[i] = nullptr;
 210              		.loc 1 52 9 is_stmt 1
 211 0140 630A0504 		beqz	a0,.L16
  52:src/Scheduler.cpp ****         else readyTail[i] = nullptr;
 212              		.loc 1 52 38 discriminator 1
  52:src/Scheduler.cpp ****         else readyTail[i] = nullptr;
GAS LISTING /tmp/ccyNTiHa.s 			page 7


 213              		.loc 1 52 66 is_stmt 0 discriminator 1
 214 0144 93050000 		li	a1,0
 215 0148 97000000 		call	_ZN7KThread14setPrevInQueueEPS_@plt
 215      E7800000 
 216              	.LVL14:
 217              	.L17:
  54:src/Scheduler.cpp ****         toRet->setPrevInQueue(nullptr);
 218              		.loc 1 54 9 is_stmt 1
  54:src/Scheduler.cpp ****         toRet->setPrevInQueue(nullptr);
 219              		.loc 1 54 30 is_stmt 0
 220 0150 93050000 		li	a1,0
 221 0154 13050900 		mv	a0,s2
 222 0158 97000000 		call	_ZN7KThread14setNextInQueueEPS_@plt
 222      E7800000 
 223              	.LVL15:
  55:src/Scheduler.cpp ****         return toRet;
 224              		.loc 1 55 9 is_stmt 1
  55:src/Scheduler.cpp ****         return toRet;
 225              		.loc 1 55 30 is_stmt 0
 226 0160 93050000 		li	a1,0
 227 0164 13050900 		mv	a0,s2
 228 0168 97000000 		call	_ZN7KThread14setPrevInQueueEPS_@plt
 228      E7800000 
 229              	.LVL16:
  56:src/Scheduler.cpp ****     }
 230              		.loc 1 56 9 is_stmt 1
 231              	.L12:
 232              	.LBE9:
 233              	.LBE8:
  59:src/Scheduler.cpp **** 
 234              		.loc 1 59 1 is_stmt 0
 235 0170 13050900 		mv	a0,s2
 236 0174 83308101 		ld	ra,24(sp)
 237              		.cfi_remember_state
 238              		.cfi_restore 1
 239 0178 03340101 		ld	s0,16(sp)
 240              		.cfi_restore 8
 241              		.cfi_def_cfa 2, 32
 242 017c 83348100 		ld	s1,8(sp)
 243              		.cfi_restore 9
 244 0180 03390100 		ld	s2,0(sp)
 245              		.cfi_restore 18
 246 0184 13010102 		addi	sp,sp,32
 247              		.cfi_def_cfa_offset 0
 248 0188 67800000 		jr	ra
 249              	.LVL17:
 250              	.L20:
 251              		.cfi_restore_state
 252              	.LBB12:
 253              	.LBB10:
  49:src/Scheduler.cpp ****         KThread* toRet = readyHead[i];
 254              		.loc 1 49 38 is_stmt 1 discriminator 1
 255              	.LBE10:
  48:src/Scheduler.cpp ****         if (readyHead[i] == nullptr) continue;
 256              		.loc 1 48 5 discriminator 1
 257 018c 9B841400 		addiw	s1,s1,1
 258              	.LVL18:
GAS LISTING /tmp/ccyNTiHa.s 			page 8


 259 0190 6FF01FF7 		j	.L15
 260              	.LVL19:
 261              	.L16:
 262              	.LBB11:
  53:src/Scheduler.cpp ****         toRet->setNextInQueue(nullptr);
 263              		.loc 1 53 14
  53:src/Scheduler.cpp ****         toRet->setNextInQueue(nullptr);
 264              		.loc 1 53 27 is_stmt 0
 265 0194 93943400 		slli	s1,s1,3
 266              	.LVL20:
 267 0198 97070000 		lla	a5,.LANCHOR0
 267      93870700 
 268 01a0 B3849700 		add	s1,a5,s1
 269 01a4 23B80402 		sd	zero,48(s1)
 270 01a8 6FF09FFA 		j	.L17
 271              	.LVL21:
 272              	.L18:
 273              	.LBE11:
 274              	.LBE12:
  58:src/Scheduler.cpp **** }
 275              		.loc 1 58 12
 276 01ac 13090000 		li	s2,0
 277 01b0 6FF01FFC 		j	.L12
 278              		.cfi_endproc
 279              	.LFE7:
 281              		.align	2
 282              		.globl	_ZN9Scheduler10ThreadExitEP7KThread
 284              	_ZN9Scheduler10ThreadExitEP7KThread:
 285              	.LFB5:
  30:src/Scheduler.cpp ****     deadThread = t;
 286              		.loc 1 30 40 is_stmt 1
 287              		.cfi_startproc
 288              	.LVL22:
 289 01b4 130101FE 		addi	sp,sp,-32
 290              		.cfi_def_cfa_offset 32
 291 01b8 233C1100 		sd	ra,24(sp)
 292 01bc 23388100 		sd	s0,16(sp)
 293 01c0 23349100 		sd	s1,8(sp)
 294              		.cfi_offset 1, -8
 295              		.cfi_offset 8, -16
 296              		.cfi_offset 9, -24
 297 01c4 13040102 		addi	s0,sp,32
 298              		.cfi_def_cfa 8, 0
 299 01c8 93040500 		mv	s1,a0
  31:src/Scheduler.cpp ****     KThread* next = GetNext();
 300              		.loc 1 31 5
  31:src/Scheduler.cpp ****     KThread* next = GetNext();
 301              		.loc 1 31 16 is_stmt 0
 302 01cc 97070000 		sd	a0,.LANCHOR0+8,a5
 302      23B0A700 
  32:src/Scheduler.cpp ****     if (next == nullptr) {
 303              		.loc 1 32 5 is_stmt 1
  32:src/Scheduler.cpp ****     if (next == nullptr) {
 304              		.loc 1 32 28 is_stmt 0
 305 01d4 97000000 		call	_ZN9Scheduler7GetNextEv
 305      E7800000 
 306              	.LVL23:
GAS LISTING /tmp/ccyNTiHa.s 			page 9


 307 01dc 93050500 		mv	a1,a0
 308              	.LVL24:
  33:src/Scheduler.cpp ****         next = t->getParent();
 309              		.loc 1 33 5 is_stmt 1
 310 01e0 63020502 		beqz	a0,.L25
 311              	.LVL25:
 312              	.L22:
  37:src/Scheduler.cpp **** }
 313              		.loc 1 37 5
  37:src/Scheduler.cpp **** }
 314              		.loc 1 37 10 is_stmt 0
 315 01e4 13850400 		mv	a0,s1
 316 01e8 97000000 		call	_ZN9Scheduler5yieldEP7KThreadS1_
 316      E7800000 
 317              	.LVL26:
  38:src/Scheduler.cpp **** 
 318              		.loc 1 38 1
 319 01f0 83308101 		ld	ra,24(sp)
 320              		.cfi_remember_state
 321              		.cfi_restore 1
 322 01f4 03340101 		ld	s0,16(sp)
 323              		.cfi_restore 8
 324              		.cfi_def_cfa 2, 32
 325 01f8 83348100 		ld	s1,8(sp)
 326              		.cfi_restore 9
 327              	.LVL27:
 328 01fc 13010102 		addi	sp,sp,32
 329              		.cfi_def_cfa_offset 0
 330 0200 67800000 		jr	ra
 331              	.LVL28:
 332              	.L25:
 333              		.cfi_restore_state
  34:src/Scheduler.cpp ****         if (next == nullptr) { while (true) {} }
 334              		.loc 1 34 9 is_stmt 1
 335              	.LBB13:
 336              	.LBB14:
 337              		.file 2 "src/Thread.hpp"
   1:src/Thread.hpp **** //
   2:src/Thread.hpp **** // Created by os on 6/10/26.
   3:src/Thread.hpp **** //
   4:src/Thread.hpp **** 
   5:src/Thread.hpp **** #ifndef OSPROJEKAT_THREAD_H
   6:src/Thread.hpp **** #define OSPROJEKAT_THREAD_H
   7:src/Thread.hpp **** 
   8:src/Thread.hpp **** #include "../lib/hw.h"
   9:src/Thread.hpp **** struct Context {
  10:src/Thread.hpp ****     size_t x[32];    // x0-x31, offsets 0x00-0xF8
  11:src/Thread.hpp ****     size_t sepc;     // offset 0x100
  12:src/Thread.hpp ****     size_t sstatus;  // offset 0x108
  13:src/Thread.hpp ****     size_t pc;
  14:src/Thread.hpp **** };
  15:src/Thread.hpp **** 
  16:src/Thread.hpp **** class KThread{
  17:src/Thread.hpp ****     friend class Scheduler;
  18:src/Thread.hpp ****     friend class KSemaphore;
  19:src/Thread.hpp **** protected:
  20:src/Thread.hpp ****     static void threadTrampoline(KThread* t);
GAS LISTING /tmp/ccyNTiHa.s 			page 10


  21:src/Thread.hpp ****     void (*body)(void*);
  22:src/Thread.hpp ****     void* arg;
  23:src/Thread.hpp ****     KThread* parent;
  24:src/Thread.hpp **** 
  25:src/Thread.hpp ****     KThread* prev;
  26:src/Thread.hpp ****     KThread* next;
  27:src/Thread.hpp ****     size_t* stackPtr;
  28:src/Thread.hpp ****     size_t* supervisorSp;
  29:src/Thread.hpp ****     time_t sleepDelta;
  30:src/Thread.hpp ****     uint8  priority;
  31:src/Thread.hpp **** public:
  32:src/Thread.hpp ****     void* stackBase;
  33:src/Thread.hpp ****     Context threadContext;
  34:src/Thread.hpp ****     KThread();
  35:src/Thread.hpp ****     void copyContext(size_t* ctx);
  36:src/Thread.hpp ****     void init();
  37:src/Thread.hpp ****     size_t* getStackTop() { return stackPtr; }
  38:src/Thread.hpp ****     size_t* getContext();
  39:src/Thread.hpp ****     KThread* getParent() { return parent; }
 338              		.loc 2 39 28
 339              		.loc 2 39 35 is_stmt 0
 340 0204 83B50401 		ld	a1,16(s1)
 341              	.LVL29:
 342              	.LBE14:
 343              	.LBE13:
  35:src/Scheduler.cpp ****     }
 344              		.loc 1 35 9 is_stmt 1
 345 0208 E39E05FC 		bnez	a1,.L22
 346              	.L23:
  35:src/Scheduler.cpp ****     }
 347              		.loc 1 35 32 discriminator 1
  35:src/Scheduler.cpp ****     }
 348              		.loc 1 35 32 discriminator 1
 349 020c 6F000000 		j	.L23
 350              		.cfi_endproc
 351              	.LFE5:
 353              		.align	2
 354              		.globl	_ZN9Scheduler3PutEP7KThread
 356              	_ZN9Scheduler3PutEP7KThread:
 357              	.LFB8:
  61:src/Scheduler.cpp ****     int lvl = thread->priority;
 358              		.loc 1 61 38
 359              		.cfi_startproc
 360              	.LVL30:
 361 0210 130101FD 		addi	sp,sp,-48
 362              		.cfi_def_cfa_offset 48
 363 0214 23341102 		sd	ra,40(sp)
 364 0218 23308102 		sd	s0,32(sp)
 365 021c 233C9100 		sd	s1,24(sp)
 366 0220 23382101 		sd	s2,16(sp)
 367 0224 23343101 		sd	s3,8(sp)
 368              		.cfi_offset 1, -8
 369              		.cfi_offset 8, -16
 370              		.cfi_offset 9, -24
 371              		.cfi_offset 18, -32
 372              		.cfi_offset 19, -40
 373 0228 13040103 		addi	s0,sp,48
GAS LISTING /tmp/ccyNTiHa.s 			page 11


 374              		.cfi_def_cfa 8, 0
 375 022c 93040500 		mv	s1,a0
  62:src/Scheduler.cpp ****     thread->setNextInQueue(nullptr);
 376              		.loc 1 62 5
  62:src/Scheduler.cpp ****     thread->setNextInQueue(nullptr);
 377              		.loc 1 62 9 is_stmt 0
 378 0230 03490504 		lbu	s2,64(a0)
 379              	.LVL31:
  63:src/Scheduler.cpp ****     thread->setPrevInQueue(readyTail[lvl]);
 380              		.loc 1 63 5 is_stmt 1
  63:src/Scheduler.cpp ****     thread->setPrevInQueue(readyTail[lvl]);
 381              		.loc 1 63 27 is_stmt 0
 382 0234 93050000 		li	a1,0
 383 0238 97000000 		call	_ZN7KThread14setNextInQueueEPS_@plt
 383      E7800000 
 384              	.LVL32:
  64:src/Scheduler.cpp ****     if (readyTail[lvl] != nullptr) readyTail[lvl]->setNextInQueue(thread);
 385              		.loc 1 64 5 is_stmt 1
  64:src/Scheduler.cpp ****     if (readyTail[lvl] != nullptr) readyTail[lvl]->setNextInQueue(thread);
 386              		.loc 1 64 27 is_stmt 0
 387 0240 93173900 		slli	a5,s2,3
 388 0244 97090000 		lla	s3,.LANCHOR0
 388      93890900 
 389 024c B389F900 		add	s3,s3,a5
 390 0250 83B50903 		ld	a1,48(s3)
 391 0254 13850400 		mv	a0,s1
 392 0258 97000000 		call	_ZN7KThread14setPrevInQueueEPS_@plt
 392      E7800000 
 393              	.LVL33:
  65:src/Scheduler.cpp ****     else readyHead[lvl] = thread;
 394              		.loc 1 65 5 is_stmt 1
  65:src/Scheduler.cpp ****     else readyHead[lvl] = thread;
 395              		.loc 1 65 22 is_stmt 0
 396 0260 03B50903 		ld	a0,48(s3)
  65:src/Scheduler.cpp ****     else readyHead[lvl] = thread;
 397              		.loc 1 65 5
 398 0264 63000504 		beqz	a0,.L27
  65:src/Scheduler.cpp ****     else readyHead[lvl] = thread;
 399              		.loc 1 65 36 is_stmt 1 discriminator 1
  65:src/Scheduler.cpp ****     else readyHead[lvl] = thread;
 400              		.loc 1 65 66 is_stmt 0 discriminator 1
 401 0268 93850400 		mv	a1,s1
 402 026c 97000000 		call	_ZN7KThread14setNextInQueueEPS_@plt
 402      E7800000 
 403              	.LVL34:
 404              	.L28:
  67:src/Scheduler.cpp **** }
 405              		.loc 1 67 5 is_stmt 1
  67:src/Scheduler.cpp **** }
 406              		.loc 1 67 20 is_stmt 0
 407 0274 13193900 		slli	s2,s2,3
 408              	.LVL35:
 409 0278 97070000 		lla	a5,.LANCHOR0
 409      93870700 
 410 0280 33892701 		add	s2,a5,s2
 411 0284 23389902 		sd	s1,48(s2)
  68:src/Scheduler.cpp **** 
GAS LISTING /tmp/ccyNTiHa.s 			page 12


 412              		.loc 1 68 1
 413 0288 83308102 		ld	ra,40(sp)
 414              		.cfi_remember_state
 415              		.cfi_restore 1
 416 028c 03340102 		ld	s0,32(sp)
 417              		.cfi_restore 8
 418              		.cfi_def_cfa 2, 48
 419 0290 83348101 		ld	s1,24(sp)
 420              		.cfi_restore 9
 421              	.LVL36:
 422 0294 03390101 		ld	s2,16(sp)
 423              		.cfi_restore 18
 424              	.LVL37:
 425 0298 83398100 		ld	s3,8(sp)
 426              		.cfi_restore 19
 427 029c 13010103 		addi	sp,sp,48
 428              		.cfi_def_cfa_offset 0
 429 02a0 67800000 		jr	ra
 430              	.LVL38:
 431              	.L27:
 432              		.cfi_restore_state
  66:src/Scheduler.cpp ****     readyTail[lvl] = thread;
 433              		.loc 1 66 10 is_stmt 1
  66:src/Scheduler.cpp ****     readyTail[lvl] = thread;
 434              		.loc 1 66 25 is_stmt 0
 435 02a4 13173900 		slli	a4,s2,3
 436 02a8 97070000 		lla	a5,.LANCHOR0
 436      93870700 
 437 02b0 B387E700 		add	a5,a5,a4
 438 02b4 23B89700 		sd	s1,16(a5)
 439 02b8 6FF0DFFB 		j	.L28
 440              		.cfi_endproc
 441              	.LFE8:
 443              		.align	2
 444              		.globl	_ZN9Scheduler12PutPreemptedEP7KThread
 446              	_ZN9Scheduler12PutPreemptedEP7KThread:
 447              	.LFB9:
  70:src/Scheduler.cpp ****     if (thread->priority < LEVELS - 1) thread->priority++;
 448              		.loc 1 70 47 is_stmt 1
 449              		.cfi_startproc
 450              	.LVL39:
 451 02bc 130101FF 		addi	sp,sp,-16
 452              		.cfi_def_cfa_offset 16
 453 02c0 23341100 		sd	ra,8(sp)
 454 02c4 23308100 		sd	s0,0(sp)
 455              		.cfi_offset 1, -8
 456              		.cfi_offset 8, -16
 457 02c8 13040101 		addi	s0,sp,16
 458              		.cfi_def_cfa 8, 0
  71:src/Scheduler.cpp ****     Put(thread);
 459              		.loc 1 71 5
  71:src/Scheduler.cpp ****     Put(thread);
 460              		.loc 1 71 17 is_stmt 0
 461 02cc 83470504 		lbu	a5,64(a0)
  71:src/Scheduler.cpp ****     Put(thread);
 462              		.loc 1 71 5
 463 02d0 13072000 		li	a4,2
GAS LISTING /tmp/ccyNTiHa.s 			page 13


 464 02d4 6366F700 		bgtu	a5,a4,.L31
  71:src/Scheduler.cpp ****     Put(thread);
 465              		.loc 1 71 40 is_stmt 1 discriminator 1
  71:src/Scheduler.cpp ****     Put(thread);
 466              		.loc 1 71 56 is_stmt 0 discriminator 1
 467 02d8 9B871700 		addiw	a5,a5,1
 468 02dc 2300F504 		sb	a5,64(a0)
 469              	.L31:
  72:src/Scheduler.cpp **** }
 470              		.loc 1 72 5 is_stmt 1
  72:src/Scheduler.cpp **** }
 471              		.loc 1 72 8 is_stmt 0
 472 02e0 97000000 		call	_ZN9Scheduler3PutEP7KThread
 472      E7800000 
 473              	.LVL40:
  73:src/Scheduler.cpp **** 
 474              		.loc 1 73 1
 475 02e8 83308100 		ld	ra,8(sp)
 476              		.cfi_restore 1
 477 02ec 03340100 		ld	s0,0(sp)
 478              		.cfi_restore 8
 479              		.cfi_def_cfa 2, 16
 480 02f0 13010101 		addi	sp,sp,16
 481              		.cfi_def_cfa_offset 0
 482 02f4 67800000 		jr	ra
 483              		.cfi_endproc
 484              	.LFE9:
 486              		.align	2
 487              		.globl	_ZN9Scheduler15SetupStartStackEv
 489              	_ZN9Scheduler15SetupStartStackEv:
 490              	.LFB10:
  77:src/Scheduler.cpp ****     Scheduler::stack_cursor = reinterpret_cast<size_t*>(
 491              		.loc 1 77 35 is_stmt 1
 492              		.cfi_startproc
 493 02f8 130101FF 		addi	sp,sp,-16
 494              		.cfi_def_cfa_offset 16
 495 02fc 23348100 		sd	s0,8(sp)
 496              		.cfi_offset 8, -8
 497 0300 13040101 		addi	s0,sp,16
 498              		.cfi_def_cfa 8, 0
  78:src/Scheduler.cpp ****         ((reinterpret_cast<size_t>(end) + 7) & ~7)
 499              		.loc 1 78 5
  79:src/Scheduler.cpp ****     );
 500              		.loc 1 79 41 is_stmt 0
 501 0304 97070000 		la	a5,end
 501      83B70700 
 502 030c 93877700 		addi	a5,a5,7
  79:src/Scheduler.cpp ****     );
 503              		.loc 1 79 46
 504 0310 93F787FF 		andi	a5,a5,-8
  78:src/Scheduler.cpp ****         ((reinterpret_cast<size_t>(end) + 7) & ~7)
 505              		.loc 1 78 29
 506 0314 17070000 		sd	a5,.LANCHOR0+80,a4
 506      2330F700 
  81:src/Scheduler.cpp **** 
 507              		.loc 1 81 1
 508 031c 03348100 		ld	s0,8(sp)
GAS LISTING /tmp/ccyNTiHa.s 			page 14


 509              		.cfi_restore 8
 510              		.cfi_def_cfa 2, 16
 511 0320 13010101 		addi	sp,sp,16
 512              		.cfi_def_cfa_offset 0
 513 0324 67800000 		jr	ra
 514              		.cfi_endproc
 515              	.LFE10:
 517              		.align	2
 518              		.globl	_ZN9Scheduler16SetupStartThreadEv
 520              	_ZN9Scheduler16SetupStartThreadEv:
 521              	.LFB12:
  86:src/Scheduler.cpp **** }
  87:src/Scheduler.cpp **** 
  88:src/Scheduler.cpp **** 
  89:src/Scheduler.cpp **** void Scheduler::SetupStartThread() {
 522              		.loc 1 89 36 is_stmt 1
 523              		.cfi_startproc
 524 0328 130101FE 		addi	sp,sp,-32
 525              		.cfi_def_cfa_offset 32
 526 032c 233C1100 		sd	ra,24(sp)
 527 0330 23388100 		sd	s0,16(sp)
 528 0334 23349100 		sd	s1,8(sp)
 529              		.cfi_offset 1, -8
 530              		.cfi_offset 8, -16
 531              		.cfi_offset 9, -24
 532 0338 13040102 		addi	s0,sp,32
 533              		.cfi_def_cfa 8, 0
  90:src/Scheduler.cpp ****     SetupStartStack();
 534              		.loc 1 90 5
 535              		.loc 1 90 20 is_stmt 0
 536 033c 97000000 		call	_ZN9Scheduler15SetupStartStackEv
 536      E7800000 
 537              	.LVL41:
  91:src/Scheduler.cpp **** 
  92:src/Scheduler.cpp ****     running = static_cast<KThread*>(MemoryAllocator::GetInstance().AllocateFragment(sizeof(KThread)
 538              		.loc 1 92 5 is_stmt 1
 539              		.loc 1 92 66 is_stmt 0
 540 0344 97000000 		call	_ZN15MemoryAllocator11GetInstanceEv@plt
 540      E7800000 
 541              	.LVL42:
 542              		.loc 1 92 84
 543 034c 93058016 		li	a1,360
 544 0350 97000000 		call	_ZN15MemoryAllocator16AllocateFragmentEm@plt
 544      E7800000 
 545              	.LVL43:
 546              		.loc 1 92 13
 547 0358 97040000 		lla	s1,.LANCHOR0
 547      93840400 
 548 0360 23B0A400 		sd	a0,0(s1)
  93:src/Scheduler.cpp ****     running->init();
 549              		.loc 1 93 5 is_stmt 1
 550              		.loc 1 93 18 is_stmt 0
 551 0364 97000000 		call	_ZN7KThread4initEv@plt
 551      E7800000 
 552              	.LVL44:
  94:src/Scheduler.cpp ****     setupStartContext(running->getContext());
 553              		.loc 1 94 5 is_stmt 1
GAS LISTING /tmp/ccyNTiHa.s 			page 15


 554              		.loc 1 94 22 is_stmt 0
 555 036c 03B50400 		ld	a0,0(s1)
 556 0370 97000000 		call	_ZN7KThread10getContextEv@plt
 556      E7800000 
 557              	.LVL45:
 558 0378 97000000 		call	setupStartContext@plt
 558      E7800000 
 559              	.LVL46:
  95:src/Scheduler.cpp ****     runningThreadTimeLeft = DEFAULT_TIME_SLICE;
 560              		.loc 1 95 5 is_stmt 1
 561              		.loc 1 95 27 is_stmt 0
 562 0380 93072000 		li	a5,2
 563 0384 17070000 		sd	a5,.LANCHOR1,a4
 563      2330F700 
  96:src/Scheduler.cpp **** 
  97:src/Scheduler.cpp ****     void* idleMem   = MemoryAllocator::GetInstance().AllocateFragment(sizeof(KThread));
 564              		.loc 1 97 5 is_stmt 1
 565              		.loc 1 97 52 is_stmt 0
 566 038c 97000000 		call	_ZN15MemoryAllocator11GetInstanceEv@plt
 566      E7800000 
 567              	.LVL47:
 568              		.loc 1 97 70
 569 0394 93058016 		li	a1,360
 570 0398 97000000 		call	_ZN15MemoryAllocator16AllocateFragmentEm@plt
 570      E7800000 
 571              	.LVL48:
 572 03a0 93040500 		mv	s1,a0
 573              	.LVL49:
  98:src/Scheduler.cpp ****     KThread* idle   = reinterpret_cast<KThread*>(idleMem);
 574              		.loc 1 98 5 is_stmt 1
  99:src/Scheduler.cpp ****     idle->init();
 575              		.loc 1 99 5
 576              		.loc 1 99 15 is_stmt 0
 577 03a4 97000000 		call	_ZN7KThread4initEv@plt
 577      E7800000 
 578              	.LVL50:
 100:src/Scheduler.cpp ****     idle->setBody(idleBody, nullptr);
 579              		.loc 1 100 5 is_stmt 1
 580              	.LBB15:
 581              	.LBB16:
  40:src/Thread.hpp ****     KThread* getNextInQueue();
  41:src/Thread.hpp ****     KThread* getPrevInQueue();
  42:src/Thread.hpp ****     void setNextInQueue(KThread* next);
  43:src/Thread.hpp ****     void setPrevInQueue(KThread* prev);
  44:src/Thread.hpp ****     void setNextAndPrevInQueue(KThread* next, KThread* prev);
  45:src/Thread.hpp ****     void setup(KThread* parentThread, size_t* stack_top);
  46:src/Thread.hpp ****     void setBody(void (*b)(void*), void* a) { body = b; arg = a; }
 582              		.loc 2 46 47
 583              		.loc 2 46 52 is_stmt 0
 584 03ac 97070000 		lla	a5,_ZL8idleBodyPv
 584      93870700 
 585 03b4 23B0F400 		sd	a5,0(s1)
 586              		.loc 2 46 57 is_stmt 1
 587              		.loc 2 46 61 is_stmt 0
 588 03b8 23B40400 		sd	zero,8(s1)
 589              	.LVL51:
 590              	.LBE16:
GAS LISTING /tmp/ccyNTiHa.s 			page 16


 591              	.LBE15:
 101:src/Scheduler.cpp ****     void* idleStack = MemoryAllocator::GetInstance().AllocateFragment(DEFAULT_STACK_SIZE * sizeof(s
 592              		.loc 1 101 5 is_stmt 1
 593              		.loc 1 101 52 is_stmt 0
 594 03bc 97000000 		call	_ZN15MemoryAllocator11GetInstanceEv@plt
 594      E7800000 
 595              	.LVL52:
 596              		.loc 1 101 70
 597 03c4 B7850000 		li	a1,32768
 598 03c8 97000000 		call	_ZN15MemoryAllocator16AllocateFragmentEm@plt
 598      E7800000 
 599              	.LVL53:
 102:src/Scheduler.cpp ****     size_t* idleTop = reinterpret_cast<size_t*>((char*)idleStack + DEFAULT_STACK_SIZE * sizeof(size
 600              		.loc 1 102 5 is_stmt 1
 103:src/Scheduler.cpp ****     idle->setup(nullptr, idleTop);
 601              		.loc 1 103 5
 602              		.loc 1 103 16 is_stmt 0
 603 03d0 37860000 		li	a2,32768
 604 03d4 3306C500 		add	a2,a0,a2
 605              	.LVL54:
 606 03d8 93050000 		li	a1,0
 607 03dc 13850400 		mv	a0,s1
 608              	.LVL55:
 609 03e0 97000000 		call	_ZN7KThread5setupEPS_Pm@plt
 609      E7800000 
 610              	.LVL56:
 104:src/Scheduler.cpp ****     Put(idle);
 611              		.loc 1 104 5 is_stmt 1
 612              		.loc 1 104 8 is_stmt 0
 613 03e8 13850400 		mv	a0,s1
 614 03ec 97000000 		call	_ZN9Scheduler3PutEP7KThread
 614      E7800000 
 615              	.LVL57:
 105:src/Scheduler.cpp **** }
 616              		.loc 1 105 1
 617 03f4 83308101 		ld	ra,24(sp)
 618              		.cfi_restore 1
 619 03f8 03340101 		ld	s0,16(sp)
 620              		.cfi_restore 8
 621              		.cfi_def_cfa 2, 32
 622 03fc 83348100 		ld	s1,8(sp)
 623              		.cfi_restore 9
 624              	.LVL58:
 625 0400 13010102 		addi	sp,sp,32
 626              		.cfi_def_cfa_offset 0
 627 0404 67800000 		jr	ra
 628              		.cfi_endproc
 629              	.LFE12:
 631              		.align	2
 632              		.globl	_ZN9Scheduler12AddNewThreadEP7KThread
 634              	_ZN9Scheduler12AddNewThreadEP7KThread:
 635              	.LFB13:
 106:src/Scheduler.cpp **** 
 107:src/Scheduler.cpp **** void Scheduler::AddNewThread(KThread* thread) {
 636              		.loc 1 107 47 is_stmt 1
 637              		.cfi_startproc
 638              	.LVL59:
GAS LISTING /tmp/ccyNTiHa.s 			page 17


 639 0408 130101FF 		addi	sp,sp,-16
 640              		.cfi_def_cfa_offset 16
 641 040c 23348100 		sd	s0,8(sp)
 642              		.cfi_offset 8, -8
 643 0410 13040101 		addi	s0,sp,16
 644              		.cfi_def_cfa 8, 0
 108:src/Scheduler.cpp ****     thread->threadContext.x[2] = reinterpret_cast<size_t>(thread->getStackTop());
 645              		.loc 1 108 5
 646              	.LVL60:
 647              	.LBB17:
 648              	.LBB18:
  37:src/Thread.hpp ****     size_t* getContext();
 649              		.loc 2 37 29
  37:src/Thread.hpp ****     size_t* getContext();
 650              		.loc 2 37 36 is_stmt 0
 651 0414 83378502 		ld	a5,40(a0)
 652              	.LVL61:
 653              	.LBE18:
 654              	.LBE17:
 655              		.loc 1 108 32
 656 0418 2330F506 		sd	a5,96(a0)
 109:src/Scheduler.cpp **** }
 657              		.loc 1 109 1
 658 041c 03348100 		ld	s0,8(sp)
 659              		.cfi_restore 8
 660              		.cfi_def_cfa 2, 16
 661 0420 13010101 		addi	sp,sp,16
 662              		.cfi_def_cfa_offset 0
 663 0424 67800000 		jr	ra
 664              		.cfi_endproc
 665              	.LFE13:
 667              		.align	2
 668              		.globl	_ZN9Scheduler9timerTickEP7KThread
 670              	_ZN9Scheduler9timerTickEP7KThread:
 671              	.LFB14:
 110:src/Scheduler.cpp **** 
 111:src/Scheduler.cpp **** void Scheduler::timerTick(KThread* current) {
 672              		.loc 1 111 45 is_stmt 1
 673              		.cfi_startproc
 674              	.LVL62:
 675 0428 130101FD 		addi	sp,sp,-48
 676              		.cfi_def_cfa_offset 48
 677 042c 23341102 		sd	ra,40(sp)
 678 0430 23308102 		sd	s0,32(sp)
 679 0434 233C9100 		sd	s1,24(sp)
 680 0438 23382101 		sd	s2,16(sp)
 681 043c 23343101 		sd	s3,8(sp)
 682 0440 23304101 		sd	s4,0(sp)
 683              		.cfi_offset 1, -8
 684              		.cfi_offset 8, -16
 685              		.cfi_offset 9, -24
 686              		.cfi_offset 18, -32
 687              		.cfi_offset 19, -40
 688              		.cfi_offset 20, -48
 689 0444 13040103 		addi	s0,sp,48
 690              		.cfi_def_cfa 8, 0
 691 0448 13090500 		mv	s2,a0
GAS LISTING /tmp/ccyNTiHa.s 			page 18


 112:src/Scheduler.cpp ****     __asm__ volatile("csrw sip, zero");
 692              		.loc 1 112 5
 693              		.loc 1 112 39 is_stmt 0
 694              	#APP
 695              	# 112 "src/Scheduler.cpp" 1
 113              	
 114:src/Scheduler.cpp ****     if (sleepQueue != nullptr) {
 696              		csrw sip, zero
 697              	# 0 "" 2
 698              		.loc 1 114 5 is_stmt 1
 699              	#NO_APP
 700              	.LBB19:
 701              		.loc 1 114 20 is_stmt 0
 702 0450 97070000 		ld	a5,.LANCHOR0+88
 702      83B70700 
 703              		.loc 1 114 5
 704 0458 638E0704 		beqz	a5,.L40
 705              	.LBB20:
 115:src/Scheduler.cpp ****         if (sleepQueue->sleepDelta > 0) sleepQueue->sleepDelta--;
 706              		.loc 1 115 9 is_stmt 1
 707              		.loc 1 115 25 is_stmt 0
 708 045c 03B78703 		ld	a4,56(a5)
 709              		.loc 1 115 9
 710 0460 63000704 		beqz	a4,.L42
 711              		.loc 1 115 41 is_stmt 1 discriminator 1
 712              		.loc 1 115 63 is_stmt 0 discriminator 1
 713 0464 1307F7FF 		addi	a4,a4,-1
 714 0468 23BCE702 		sd	a4,56(a5)
 715 046c 6F004003 		j	.L42
 716              	.LVL63:
 717              	.L53:
 718              	.LBB21:
 116:src/Scheduler.cpp ****         while (sleepQueue != nullptr && sleepQueue->sleepDelta == 0) {
 117:src/Scheduler.cpp ****             KThread* waking = sleepQueue;
 719              		.loc 1 117 13 is_stmt 1
 118:src/Scheduler.cpp ****             sleepQueue = waking->getNextInQueue();
 720              		.loc 1 118 13
 721              		.loc 1 118 48 is_stmt 0
 722 0470 13850400 		mv	a0,s1
 723 0474 97000000 		call	_ZN7KThread14getNextInQueueEv@plt
 723      E7800000 
 724              	.LVL64:
 725              		.loc 1 118 24
 726 047c 97070000 		sd	a0,.LANCHOR0+88,a5
 726      23B0A700 
 119:src/Scheduler.cpp ****             waking->setNextInQueue(nullptr);
 727              		.loc 1 119 13 is_stmt 1
 728              		.loc 1 119 35 is_stmt 0
 729 0484 93050000 		li	a1,0
 730 0488 13850400 		mv	a0,s1
 731 048c 97000000 		call	_ZN7KThread14setNextInQueueEPS_@plt
 731      E7800000 
 732              	.LVL65:
 120:src/Scheduler.cpp ****             Put(waking);
 733              		.loc 1 120 13 is_stmt 1
 734              		.loc 1 120 16 is_stmt 0
 735 0494 13850400 		mv	a0,s1
GAS LISTING /tmp/ccyNTiHa.s 			page 19


 736 0498 97000000 		call	_ZN9Scheduler3PutEP7KThread
 736      E7800000 
 737              	.LVL66:
 738              	.L42:
 739              	.LBE21:
 116:src/Scheduler.cpp ****             KThread* waking = sleepQueue;
 740              		.loc 1 116 9 is_stmt 1
 116:src/Scheduler.cpp ****             KThread* waking = sleepQueue;
 741              		.loc 1 116 38
 116:src/Scheduler.cpp ****             KThread* waking = sleepQueue;
 742              		.loc 1 116 27 is_stmt 0
 743 04a0 97040000 		ld	s1,.LANCHOR0+88
 743      83B40400 
 116:src/Scheduler.cpp ****             KThread* waking = sleepQueue;
 744              		.loc 1 116 38
 745 04a8 63860400 		beqz	s1,.L40
 116:src/Scheduler.cpp ****             KThread* waking = sleepQueue;
 746              		.loc 1 116 53 discriminator 1
 747 04ac 83B78403 		ld	a5,56(s1)
 116:src/Scheduler.cpp ****             KThread* waking = sleepQueue;
 748              		.loc 1 116 38 discriminator 1
 749 04b0 E38007FC 		beqz	a5,.L53
 750              	.L40:
 751              	.LBE20:
 752              	.LBE19:
 121:src/Scheduler.cpp ****         }
 122:src/Scheduler.cpp ****     }
 123:src/Scheduler.cpp **** 
 124:src/Scheduler.cpp ****     if (current == nullptr) return;
 753              		.loc 1 124 5 is_stmt 1
 754 04b4 630E0912 		beqz	s2,.L39
 125:src/Scheduler.cpp **** 
 126:src/Scheduler.cpp ****     if (runningThreadTimeLeft > 0) runningThreadTimeLeft--;
 755              		.loc 1 126 5
 756              		.loc 1 126 31 is_stmt 0
 757 04b8 97070000 		ld	a5,.LANCHOR1
 757      83B70700 
 758              		.loc 1 126 5
 759 04c0 63880700 		beqz	a5,.L44
 760              		.loc 1 126 36 is_stmt 1 discriminator 1
 761              		.loc 1 126 57 is_stmt 0 discriminator 1
 762 04c4 9387F7FF 		addi	a5,a5,-1
 763 04c8 17070000 		sd	a5,.LANCHOR1,a4
 763      2330F700 
 764              	.L44:
 127:src/Scheduler.cpp ****     if (runningThreadTimeLeft > 0) return;
 765              		.loc 1 127 5 is_stmt 1
 766              		.loc 1 127 31 is_stmt 0
 767 04d0 97070000 		ld	a5,.LANCHOR1
 767      83B70700 
 768              		.loc 1 127 5
 769 04d8 639C0710 		bnez	a5,.L39
 128:src/Scheduler.cpp **** 
 129:src/Scheduler.cpp ****     if (++agingTick >= 100) {
 770              		.loc 1 129 5 is_stmt 1
 771              	.LBB22:
 772              		.loc 1 129 9 is_stmt 0
GAS LISTING /tmp/ccyNTiHa.s 			page 20


 773 04dc 17070000 		lla	a4,.LANCHOR0
 773      13070700 
 774 04e4 83270706 		lw	a5,96(a4)
 775 04e8 9B871700 		addiw	a5,a5,1
 776 04ec 9B860700 		sext.w	a3,a5
 777              		.loc 1 129 21
 778 04f0 2320F706 		sw	a5,96(a4)
 779              		.loc 1 129 5
 780 04f4 93073006 		li	a5,99
 781 04f8 63D0D70C 		ble	a3,a5,.L45
 782              	.LBB23:
 130:src/Scheduler.cpp ****         agingTick = 0;
 783              		.loc 1 130 9 is_stmt 1
 784              		.loc 1 130 19 is_stmt 0
 785 04fc 97070000 		sw	zero,.LANCHOR0+96,a5
 785      23A00700 
 131:src/Scheduler.cpp ****         for (int i = 1; i < LEVELS; i++) {
 786              		.loc 1 131 9 is_stmt 1
 787              	.LVL67:
 788              	.LBB24:
 789              		.loc 1 131 18 is_stmt 0
 790 0504 93041000 		li	s1,1
 791 0508 6F000006 		j	.L51
 792              	.LVL68:
 793              	.L47:
 794              	.LBB25:
 132:src/Scheduler.cpp ****             if (readyHead[i] == nullptr) continue;
 133:src/Scheduler.cpp ****             KThread* curr = readyHead[i];
 134:src/Scheduler.cpp ****             while (curr) { curr->priority = 0; curr = curr->getNextInQueue(); }
 135:src/Scheduler.cpp ****             if (readyTail[0] != nullptr) {
 795              		.loc 1 135 13 is_stmt 1
 796              		.loc 1 135 28 is_stmt 0
 797 050c 17050000 		ld	a0,.LANCHOR0+48
 797      03350500 
 798              	.LVL69:
 799              		.loc 1 135 13
 800 0514 63040508 		beqz	a0,.L49
 136:src/Scheduler.cpp ****                 readyTail[0]->setNextInQueue(readyHead[i]);
 801              		.loc 1 136 17 is_stmt 1
 802              		.loc 1 136 45 is_stmt 0
 803 0518 170A0000 		lla	s4,.LANCHOR0
 803      130A0A00 
 804 0520 93993400 		slli	s3,s1,3
 805 0524 B3093A01 		add	s3,s4,s3
 806 0528 83B50901 		ld	a1,16(s3)
 807 052c 97000000 		call	_ZN7KThread14setNextInQueueEPS_@plt
 807      E7800000 
 808              	.LVL70:
 137:src/Scheduler.cpp ****                 readyHead[i]->setPrevInQueue(readyTail[0]);
 809              		.loc 1 137 17 is_stmt 1
 810              		.loc 1 137 45 is_stmt 0
 811 0534 83350A03 		ld	a1,48(s4)
 812 0538 03B50901 		ld	a0,16(s3)
 813 053c 97000000 		call	_ZN7KThread14setPrevInQueueEPS_@plt
 813      E7800000 
 814              	.LVL71:
 815              	.L50:
GAS LISTING /tmp/ccyNTiHa.s 			page 21


 138:src/Scheduler.cpp ****             } else {
 139:src/Scheduler.cpp ****                 readyHead[0] = readyHead[i];
 140:src/Scheduler.cpp ****             }
 141:src/Scheduler.cpp ****             readyTail[0] = readyTail[i];
 816              		.loc 1 141 13 is_stmt 1
 817              		.loc 1 141 39 is_stmt 0
 818 0544 17070000 		lla	a4,.LANCHOR0
 818      13070700 
 819 054c 93973400 		slli	a5,s1,3
 820 0550 B307F700 		add	a5,a4,a5
 821 0554 83B60703 		ld	a3,48(a5)
 822              		.loc 1 141 26
 823 0558 2338D702 		sd	a3,48(a4)
 142:src/Scheduler.cpp ****             readyHead[i] = readyTail[i] = nullptr;
 824              		.loc 1 142 13 is_stmt 1
 825              		.loc 1 142 41 is_stmt 0
 826 055c 23B80702 		sd	zero,48(a5)
 827              		.loc 1 142 26
 828 0560 23B80700 		sd	zero,16(a5)
 829              	.L46:
 830              	.LBE25:
 131:src/Scheduler.cpp ****             if (readyHead[i] == nullptr) continue;
 831              		.loc 1 131 9 is_stmt 1 discriminator 2
 832 0564 9B841400 		addiw	s1,s1,1
 833              	.LVL72:
 834              	.L51:
 131:src/Scheduler.cpp ****             if (readyHead[i] == nullptr) continue;
 835              		.loc 1 131 27 discriminator 1
 836 0568 93073000 		li	a5,3
 837 056c 63C69704 		bgt	s1,a5,.L45
 838              	.LBB26:
 132:src/Scheduler.cpp ****             KThread* curr = readyHead[i];
 839              		.loc 1 132 13
 132:src/Scheduler.cpp ****             KThread* curr = readyHead[i];
 840              		.loc 1 132 28 is_stmt 0
 841 0570 13973400 		slli	a4,s1,3
 842 0574 97070000 		lla	a5,.LANCHOR0
 842      93870700 
 843 057c B387E700 		add	a5,a5,a4
 844 0580 03B50701 		ld	a0,16(a5)
 132:src/Scheduler.cpp ****             KThread* curr = readyHead[i];
 845              		.loc 1 132 13
 846 0584 E30005FE 		beqz	a0,.L46
 847              	.L48:
 848              	.LVL73:
 134:src/Scheduler.cpp ****             if (readyTail[0] != nullptr) {
 849              		.loc 1 134 13 is_stmt 1 discriminator 2
 134:src/Scheduler.cpp ****             if (readyTail[0] != nullptr) {
 850              		.loc 1 134 20 discriminator 2
 851 0588 E30205F8 		beqz	a0,.L47
 134:src/Scheduler.cpp ****             if (readyTail[0] != nullptr) {
 852              		.loc 1 134 28 discriminator 1
 134:src/Scheduler.cpp ****             if (readyTail[0] != nullptr) {
 853              		.loc 1 134 43 is_stmt 0 discriminator 1
 854 058c 23000504 		sb	zero,64(a0)
 134:src/Scheduler.cpp ****             if (readyTail[0] != nullptr) {
 855              		.loc 1 134 48 is_stmt 1 discriminator 1
GAS LISTING /tmp/ccyNTiHa.s 			page 22


 134:src/Scheduler.cpp ****             if (readyTail[0] != nullptr) {
 856              		.loc 1 134 75 is_stmt 0 discriminator 1
 857 0590 97000000 		call	_ZN7KThread14getNextInQueueEv@plt
 857      E7800000 
 858              	.LVL74:
 134:src/Scheduler.cpp ****             if (readyTail[0] != nullptr) {
 859              		.loc 1 134 13 discriminator 1
 860 0598 6FF01FFF 		j	.L48
 861              	.LVL75:
 862              	.L49:
 139:src/Scheduler.cpp ****             }
 863              		.loc 1 139 17 is_stmt 1
 139:src/Scheduler.cpp ****             }
 864              		.loc 1 139 43 is_stmt 0
 865 059c 17070000 		lla	a4,.LANCHOR0
 865      13070700 
 866 05a4 93973400 		slli	a5,s1,3
 867 05a8 B307F700 		add	a5,a4,a5
 868 05ac 83B70701 		ld	a5,16(a5)
 139:src/Scheduler.cpp ****             }
 869              		.loc 1 139 30
 870 05b0 2338F700 		sd	a5,16(a4)
 871 05b4 6FF01FF9 		j	.L50
 872              	.LVL76:
 873              	.L45:
 874              	.LBE26:
 875              	.LBE24:
 876              	.LBE23:
 877              	.LBE22:
 143:src/Scheduler.cpp ****         }
 144:src/Scheduler.cpp ****     }
 145:src/Scheduler.cpp **** 
 146:src/Scheduler.cpp ****     KThread* next = GetNext();
 878              		.loc 1 146 5 is_stmt 1
 879              		.loc 1 146 28 is_stmt 0
 880 05b8 97000000 		call	_ZN9Scheduler7GetNextEv
 880      E7800000 
 881              	.LVL77:
 882 05c0 93040500 		mv	s1,a0
 883              	.LVL78:
 147:src/Scheduler.cpp ****     runningThreadTimeLeft = DEFAULT_TIME_SLICE;
 884              		.loc 1 147 5 is_stmt 1
 885              		.loc 1 147 27 is_stmt 0
 886 05c4 93072000 		li	a5,2
 887 05c8 17070000 		sd	a5,.LANCHOR1,a4
 887      2330F700 
 148:src/Scheduler.cpp ****     if (next == nullptr) return;
 888              		.loc 1 148 5 is_stmt 1
 889 05d0 63000502 		beqz	a0,.L39
 149:src/Scheduler.cpp ****     PutPreempted(current);
 890              		.loc 1 149 5
 891              		.loc 1 149 17 is_stmt 0
 892 05d4 13050900 		mv	a0,s2
 893 05d8 97000000 		call	_ZN9Scheduler12PutPreemptedEP7KThread
 893      E7800000 
 894              	.LVL79:
 150:src/Scheduler.cpp ****     yield(current, next);
GAS LISTING /tmp/ccyNTiHa.s 			page 23


 895              		.loc 1 150 5 is_stmt 1
 896              		.loc 1 150 10 is_stmt 0
 897 05e0 93850400 		mv	a1,s1
 898 05e4 13050900 		mv	a0,s2
 899 05e8 97000000 		call	_ZN9Scheduler5yieldEP7KThreadS1_
 899      E7800000 
 900              	.LVL80:
 901              	.L39:
 151:src/Scheduler.cpp **** }
 902              		.loc 1 151 1
 903 05f0 83308102 		ld	ra,40(sp)
 904              		.cfi_restore 1
 905 05f4 03340102 		ld	s0,32(sp)
 906              		.cfi_restore 8
 907              		.cfi_def_cfa 2, 48
 908 05f8 83348101 		ld	s1,24(sp)
 909              		.cfi_restore 9
 910 05fc 03390101 		ld	s2,16(sp)
 911              		.cfi_restore 18
 912              	.LVL81:
 913 0600 83398100 		ld	s3,8(sp)
 914              		.cfi_restore 19
 915 0604 033A0100 		ld	s4,0(sp)
 916              		.cfi_restore 20
 917 0608 13010103 		addi	sp,sp,48
 918              		.cfi_def_cfa_offset 0
 919 060c 67800000 		jr	ra
 920              		.cfi_endproc
 921              	.LFE14:
 923              		.align	2
 924              		.globl	_ZN9Scheduler5sleepEP7KThreadm
 926              	_ZN9Scheduler5sleepEP7KThreadm:
 927              	.LFB15:
 152:src/Scheduler.cpp **** 
 153:src/Scheduler.cpp **** void Scheduler::sleep(KThread* thread, time_t duration) {
 928              		.loc 1 153 57 is_stmt 1
 929              		.cfi_startproc
 930              	.LVL82:
 931 0610 130101FD 		addi	sp,sp,-48
 932              		.cfi_def_cfa_offset 48
 933 0614 23341102 		sd	ra,40(sp)
 934 0618 23308102 		sd	s0,32(sp)
 935 061c 233C9100 		sd	s1,24(sp)
 936 0620 23382101 		sd	s2,16(sp)
 937 0624 23343101 		sd	s3,8(sp)
 938 0628 23304101 		sd	s4,0(sp)
 939              		.cfi_offset 1, -8
 940              		.cfi_offset 8, -16
 941              		.cfi_offset 9, -24
 942              		.cfi_offset 18, -32
 943              		.cfi_offset 19, -40
 944              		.cfi_offset 20, -48
 945 062c 13040103 		addi	s0,sp,48
 946              		.cfi_def_cfa 8, 0
 947 0630 130A0500 		mv	s4,a0
 948 0634 13890500 		mv	s2,a1
 154:src/Scheduler.cpp ****     KThread* previous = nullptr;
GAS LISTING /tmp/ccyNTiHa.s 			page 24


 949              		.loc 1 154 5
 950              	.LVL83:
 155:src/Scheduler.cpp ****     KThread* current  = sleepQueue;
 951              		.loc 1 155 5
 952              		.loc 1 155 14 is_stmt 0
 953 0638 97040000 		ld	s1,.LANCHOR0+88
 953      83B40400 
 954              	.LVL84:
 156:src/Scheduler.cpp ****     time_t   remaining = duration;
 955              		.loc 1 156 5 is_stmt 1
 154:src/Scheduler.cpp ****     KThread* previous = nullptr;
 956              		.loc 1 154 14 is_stmt 0
 957 0640 93090000 		li	s3,0
 958              	.LVL85:
 959              	.L56:
 157:src/Scheduler.cpp **** 
 158:src/Scheduler.cpp ****     while (current != nullptr && current->sleepDelta <= remaining) {
 960              		.loc 1 158 5 is_stmt 1
 961              		.loc 1 158 31
 962 0644 63840402 		beqz	s1,.L55
 963              		.loc 1 158 43 is_stmt 0 discriminator 1
 964 0648 83B78403 		ld	a5,56(s1)
 965              		.loc 1 158 31 discriminator 1
 966 064c 6360F902 		bgtu	a5,s2,.L55
 159:src/Scheduler.cpp ****         remaining -= current->sleepDelta;
 967              		.loc 1 159 9 is_stmt 1
 968              		.loc 1 159 19 is_stmt 0
 969 0650 3309F940 		sub	s2,s2,a5
 970              	.LVL86:
 160:src/Scheduler.cpp ****         previous = current;
 971              		.loc 1 160 9 is_stmt 1
 161:src/Scheduler.cpp ****         current  = current->getNextInQueue();
 972              		.loc 1 161 9
 973              		.loc 1 161 43 is_stmt 0
 974 0654 13850400 		mv	a0,s1
 975 0658 97000000 		call	_ZN7KThread14getNextInQueueEv@plt
 975      E7800000 
 976              	.LVL87:
 160:src/Scheduler.cpp ****         previous = current;
 977              		.loc 1 160 18
 978 0660 93890400 		mv	s3,s1
 979              		.loc 1 161 43
 980 0664 93040500 		mv	s1,a0
 981              	.LVL88:
 158:src/Scheduler.cpp ****         remaining -= current->sleepDelta;
 982              		.loc 1 158 5
 983 0668 6FF0DFFD 		j	.L56
 984              	.LVL89:
 985              	.L55:
 162:src/Scheduler.cpp ****     }
 163:src/Scheduler.cpp **** 
 164:src/Scheduler.cpp ****     thread->sleepDelta = remaining;
 986              		.loc 1 164 5 is_stmt 1
 987              		.loc 1 164 24 is_stmt 0
 988 066c 233C2A03 		sd	s2,56(s4)
 165:src/Scheduler.cpp ****     thread->setNextInQueue(current);
 989              		.loc 1 165 5 is_stmt 1
GAS LISTING /tmp/ccyNTiHa.s 			page 25


 990              		.loc 1 165 27 is_stmt 0
 991 0670 93850400 		mv	a1,s1
 992 0674 13050A00 		mv	a0,s4
 993 0678 97000000 		call	_ZN7KThread14setNextInQueueEPS_@plt
 993      E7800000 
 994              	.LVL90:
 166:src/Scheduler.cpp ****     if (previous == nullptr) sleepQueue = thread;
 995              		.loc 1 166 5 is_stmt 1
 996 0680 63820904 		beqz	s3,.L61
 167:src/Scheduler.cpp ****     else previous->setNextInQueue(thread);
 997              		.loc 1 167 10
 998              		.loc 1 167 34 is_stmt 0
 999 0684 93050A00 		mv	a1,s4
 1000 0688 13850900 		mv	a0,s3
 1001 068c 97000000 		call	_ZN7KThread14setNextInQueueEPS_@plt
 1001      E7800000 
 1002              	.LVL91:
 1003              	.L58:
 168:src/Scheduler.cpp ****     if (current != nullptr) current->sleepDelta -= remaining;
 1004              		.loc 1 168 5 is_stmt 1
 1005 0694 63880400 		beqz	s1,.L54
 1006              		.loc 1 168 29 discriminator 1
 1007              		.loc 1 168 49 is_stmt 0 discriminator 1
 1008 0698 83B58403 		ld	a1,56(s1)
 1009 069c 33892541 		sub	s2,a1,s2
 1010              	.LVL92:
 1011 06a0 23BC2403 		sd	s2,56(s1)
 1012              	.L54:
 169:src/Scheduler.cpp **** }...
 1013              		.loc 1 169 1
 1014 06a4 83308102 		ld	ra,40(sp)
 1015              		.cfi_remember_state
 1016              		.cfi_restore 1
 1017 06a8 03340102 		ld	s0,32(sp)
 1018              		.cfi_restore 8
 1019              		.cfi_def_cfa 2, 48
 1020 06ac 83348101 		ld	s1,24(sp)
 1021              		.cfi_restore 9
 1022              	.LVL93:
 1023 06b0 03390101 		ld	s2,16(sp)
 1024              		.cfi_restore 18
 1025 06b4 83398100 		ld	s3,8(sp)
 1026              		.cfi_restore 19
 1027              	.LVL94:
 1028 06b8 033A0100 		ld	s4,0(sp)
 1029              		.cfi_restore 20
 1030              	.LVL95:
 1031 06bc 13010103 		addi	sp,sp,48
 1032              		.cfi_def_cfa_offset 0
 1033 06c0 67800000 		jr	ra
 1034              	.LVL96:
 1035              	.L61:
 1036              		.cfi_restore_state
 166:src/Scheduler.cpp ****     if (previous == nullptr) sleepQueue = thread;
 1037              		.loc 1 166 30 is_stmt 1 discriminator 1
 166:src/Scheduler.cpp ****     if (previous == nullptr) sleepQueue = thread;
 1038              		.loc 1 166 41 is_stmt 0 discriminator 1
GAS LISTING /tmp/ccyNTiHa.s 			page 26


 1039 06c4 97070000 		sd	s4,.LANCHOR0+88,a5
 1039      23B04701 
 1040 06cc 6FF09FFC 		j	.L58
 1041              		.cfi_endproc
 1042              	.LFE15:
 1044              		.globl	_ZN9Scheduler12stack_cursorE
 1045              		.globl	_ZN9Scheduler21runningThreadTimeLeftE
 1046              		.globl	_ZN9Scheduler10deadThreadE
 1047              		.globl	_ZN9Scheduler10sleepQueueE
 1048              		.globl	_ZN9Scheduler9agingTickE
 1049              		.globl	_ZN9Scheduler9readyTailE
 1050              		.globl	_ZN9Scheduler9readyHeadE
 1051              		.globl	_ZN9Scheduler7runningE
 1052              		.data
 1053              		.align	3
 1054              		.set	.LANCHOR1,. + 0
 1057              	_ZN9Scheduler21runningThreadTimeLeftE:
 1058 0000 02000000 		.dword	2
 1058      00000000 
 1059              		.bss
 1060              		.align	3
 1061              		.set	.LANCHOR0,. + 0
 1064              	_ZN9Scheduler7runningE:
 1065 0000 00000000 		.zero	8
 1065      00000000 
 1068              	_ZN9Scheduler10deadThreadE:
 1069 0008 00000000 		.zero	8
 1069      00000000 
 1072              	_ZN9Scheduler9readyHeadE:
 1073 0010 00000000 		.zero	32
 1073      00000000 
 1073      00000000 
 1073      00000000 
 1073      00000000 
 1076              	_ZN9Scheduler9readyTailE:
 1077 0030 00000000 		.zero	32
 1077      00000000 
 1077      00000000 
 1077      00000000 
 1077      00000000 
 1080              	_ZN9Scheduler12stack_cursorE:
 1081 0050 00000000 		.zero	8
 1081      00000000 
 1084              	_ZN9Scheduler10sleepQueueE:
 1085 0058 00000000 		.zero	8
 1085      00000000 
 1088              	_ZN9Scheduler9agingTickE:
 1089 0060 00000000 		.zero	4
 1090              		.text
 1091              	.Letext0:
 1092              		.file 3 "src/../lib/hw.h"
 1093              		.file 4 "src/Scheduler.hpp"
 1094              		.file 5 "src/MemoryAllocator.hpp"
GAS LISTING /tmp/ccyNTiHa.s 			page 27

