GAS LISTING /tmp/ccMoGOny.s 			page 1


   1              		.file	"syscall_cpp.cpp"
   2              		.option pic
   3              		.option norelax
   4              		.text
   5              	.Ltext0:
   6              		.section	.text._ZN6Thread3runEv,"axG",@progbits,_ZN6Thread3runEv,comdat
   7              		.align	2
   8              		.weak	_ZN6Thread3runEv
  10              	_ZN6Thread3runEv:
  11              	.LFB0:
  12              		.file 1 "src/syscall_cpp.hpp"
   1:src/syscall_cpp.hpp **** //
   2:src/syscall_cpp.hpp **** // Created by os on 6/25/26.
   3:src/syscall_cpp.hpp **** //
   4:src/syscall_cpp.hpp **** 
   5:src/syscall_cpp.hpp **** #ifndef _syscall_cpp
   6:src/syscall_cpp.hpp **** #define _syscall_cpp
   7:src/syscall_cpp.hpp **** 
   8:src/syscall_cpp.hpp **** #include "syscall_c.h"
   9:src/syscall_cpp.hpp **** 
  10:src/syscall_cpp.hpp **** void* operator new(size_t);
  11:src/syscall_cpp.hpp **** void  operator delete(void*);
  12:src/syscall_cpp.hpp **** 
  13:src/syscall_cpp.hpp **** class Thread {
  14:src/syscall_cpp.hpp **** public:
  15:src/syscall_cpp.hpp ****     Thread(void (*body)(void*), void* arg);
  16:src/syscall_cpp.hpp ****     virtual ~Thread();
  17:src/syscall_cpp.hpp ****     int start();
  18:src/syscall_cpp.hpp ****     static void dispatch();
  19:src/syscall_cpp.hpp ****     static int sleep(time_t);
  20:src/syscall_cpp.hpp **** protected:
  21:src/syscall_cpp.hpp ****     Thread();
  22:src/syscall_cpp.hpp ****     virtual void run() {}
  13              		.loc 1 22 18
  14              		.cfi_startproc
  15              	.LVL0:
  16 0000 130101FF 		addi	sp,sp,-16
  17              		.cfi_def_cfa_offset 16
  18 0004 23348100 		sd	s0,8(sp)
  19              		.cfi_offset 8, -8
  20 0008 13040101 		addi	s0,sp,16
  21              		.cfi_def_cfa 8, 0
  22              		.loc 1 22 25 is_stmt 0
  23 000c 03348100 		ld	s0,8(sp)
  24              		.cfi_restore 8
  25              		.cfi_def_cfa 2, 16
  26 0010 13010101 		addi	sp,sp,16
  27              		.cfi_def_cfa_offset 0
  28 0014 67800000 		jr	ra
  29              		.cfi_endproc
  30              	.LFE0:
  32              		.section	.text._ZN14PeriodicThread18periodicActivationEv,"axG",@progbits,_ZN14PeriodicThread18peri
  33              		.align	2
  34              		.weak	_ZN14PeriodicThread18periodicActivationEv
  36              	_ZN14PeriodicThread18periodicActivationEv:
  37              	.LFB1:
  23:src/syscall_cpp.hpp **** private:
GAS LISTING /tmp/ccMoGOny.s 			page 2


  24:src/syscall_cpp.hpp ****     thread_t myHandle;
  25:src/syscall_cpp.hpp ****     void (*body)(void*);
  26:src/syscall_cpp.hpp ****     void* arg;
  27:src/syscall_cpp.hpp ****     static void runBody(void* arg);
  28:src/syscall_cpp.hpp **** };
  29:src/syscall_cpp.hpp **** 
  30:src/syscall_cpp.hpp **** class Semaphore {
  31:src/syscall_cpp.hpp **** public:
  32:src/syscall_cpp.hpp ****     Semaphore(unsigned init = 1);
  33:src/syscall_cpp.hpp ****     virtual ~Semaphore();
  34:src/syscall_cpp.hpp ****     int wait();
  35:src/syscall_cpp.hpp ****     int signal();
  36:src/syscall_cpp.hpp **** private:
  37:src/syscall_cpp.hpp ****     sem_t myHandle;
  38:src/syscall_cpp.hpp **** };
  39:src/syscall_cpp.hpp **** 
  40:src/syscall_cpp.hpp **** class PeriodicThread : public Thread {
  41:src/syscall_cpp.hpp **** public:
  42:src/syscall_cpp.hpp ****     void terminate();
  43:src/syscall_cpp.hpp **** protected:
  44:src/syscall_cpp.hpp ****     PeriodicThread(time_t period);
  45:src/syscall_cpp.hpp ****     virtual void periodicActivation() {}
  38              		.loc 1 45 18 is_stmt 1
  39              		.cfi_startproc
  40              	.LVL1:
  41 0000 130101FF 		addi	sp,sp,-16
  42              		.cfi_def_cfa_offset 16
  43 0004 23348100 		sd	s0,8(sp)
  44              		.cfi_offset 8, -8
  45 0008 13040101 		addi	s0,sp,16
  46              		.cfi_def_cfa 8, 0
  47              		.loc 1 45 40 is_stmt 0
  48 000c 03348100 		ld	s0,8(sp)
  49              		.cfi_restore 8
  50              		.cfi_def_cfa 2, 16
  51 0010 13010101 		addi	sp,sp,16
  52              		.cfi_def_cfa_offset 0
  53 0014 67800000 		jr	ra
  54              		.cfi_endproc
  55              	.LFE1:
  57              		.text
  58              		.align	2
  59              		.globl	_ZN6ThreadD2Ev
  61              	_ZN6ThreadD2Ev:
  62              	.LFB11:
  63              		.file 2 "src/syscall_cpp.cpp"
   1:src/syscall_cpp.cpp **** //
   2:src/syscall_cpp.cpp **** // Created by os on 6/25/26.
   3:src/syscall_cpp.cpp **** //
   4:src/syscall_cpp.cpp **** #include "syscall_cpp.hpp"
   5:src/syscall_cpp.cpp **** 
   6:src/syscall_cpp.cpp **** void* operator new(size_t size) {
   7:src/syscall_cpp.cpp ****     return mem_alloc(size); }
   8:src/syscall_cpp.cpp **** void  operator delete(void* p)  {
   9:src/syscall_cpp.cpp ****     mem_free(p); }
  10:src/syscall_cpp.cpp **** 
  11:src/syscall_cpp.cpp **** Thread::Thread(void (*body)(void*), void* arg): myHandle(nullptr),
GAS LISTING /tmp/ccMoGOny.s 			page 3


  12:src/syscall_cpp.cpp ****     body(body), arg(arg) {}
  13:src/syscall_cpp.cpp **** Thread::Thread(): myHandle(nullptr),
  14:src/syscall_cpp.cpp ****     body(nullptr), arg(nullptr) {}
  15:src/syscall_cpp.cpp **** Thread::~Thread() {}
  64              		.loc 2 15 1 is_stmt 1
  65              		.cfi_startproc
  66              	.LVL2:
  67 0000 130101FF 		addi	sp,sp,-16
  68              		.cfi_def_cfa_offset 16
  69 0004 23348100 		sd	s0,8(sp)
  70              		.cfi_offset 8, -8
  71 0008 13040101 		addi	s0,sp,16
  72              		.cfi_def_cfa 8, 0
  73              		.loc 2 15 20 is_stmt 0
  74 000c 03348100 		ld	s0,8(sp)
  75              		.cfi_restore 8
  76              		.cfi_def_cfa 2, 16
  77 0010 13010101 		addi	sp,sp,16
  78              		.cfi_def_cfa_offset 0
  79 0014 67800000 		jr	ra
  80              		.cfi_endproc
  81              	.LFE11:
  83              		.globl	_ZN6ThreadD1Ev
  84              		.set	_ZN6ThreadD1Ev,_ZN6ThreadD2Ev
  85              		.align	2
  86              		.globl	_ZN6Thread7runBodyEPv
  88              	_ZN6Thread7runBodyEPv:
  89              	.LFB14:
  16:src/syscall_cpp.cpp **** 
  17:src/syscall_cpp.cpp **** void Thread::runBody(void* arg) {
  90              		.loc 2 17 33 is_stmt 1
  91              		.cfi_startproc
  92              	.LVL3:
  93 0018 130101FF 		addi	sp,sp,-16
  94              		.cfi_def_cfa_offset 16
  95 001c 23341100 		sd	ra,8(sp)
  96 0020 23308100 		sd	s0,0(sp)
  97              		.cfi_offset 1, -8
  98              		.cfi_offset 8, -16
  99 0024 13040101 		addi	s0,sp,16
 100              		.cfi_def_cfa 8, 0
  18:src/syscall_cpp.cpp ****     ((Thread*)arg)->run();
 101              		.loc 2 18 5
 102              		.loc 2 18 25 is_stmt 0
 103 0028 83370500 		ld	a5,0(a0)
 104 002c 83B70701 		ld	a5,16(a5)
 105              		.loc 2 18 24
 106 0030 E7800700 		jalr	a5
 107              	.LVL4:
  19:src/syscall_cpp.cpp **** }
 108              		.loc 2 19 1
 109 0034 83308100 		ld	ra,8(sp)
 110              		.cfi_restore 1
 111 0038 03340100 		ld	s0,0(sp)
 112              		.cfi_restore 8
 113              		.cfi_def_cfa 2, 16
 114 003c 13010101 		addi	sp,sp,16
GAS LISTING /tmp/ccMoGOny.s 			page 4


 115              		.cfi_def_cfa_offset 0
 116 0040 67800000 		jr	ra
 117              		.cfi_endproc
 118              	.LFE14:
 120              		.section	.text._ZN14PeriodicThreadD2Ev,"axG",@progbits,_ZN14PeriodicThreadD5Ev,comdat
 121              		.align	2
 122              		.weak	_ZN14PeriodicThreadD2Ev
 124              	_ZN14PeriodicThreadD2Ev:
 125              	.LFB35:
  40:src/syscall_cpp.hpp **** public:
 126              		.loc 1 40 7 is_stmt 1
 127              		.cfi_startproc
 128              	.LVL5:
 129 0000 130101FF 		addi	sp,sp,-16
 130              		.cfi_def_cfa_offset 16
 131 0004 23348100 		sd	s0,8(sp)
 132              		.cfi_offset 8, -8
 133 0008 13040101 		addi	s0,sp,16
 134              		.cfi_def_cfa 8, 0
 135              	.LBB5:
  40:src/syscall_cpp.hpp **** public:
 136              		.loc 1 40 7 is_stmt 0
 137 000c 97070000 		lla	a5,_ZTV14PeriodicThread+16
 137      93870700 
 138 0014 2330F500 		sd	a5,0(a0)
 139              	.LBE5:
 140 0018 03348100 		ld	s0,8(sp)
 141              		.cfi_restore 8
 142              		.cfi_def_cfa 2, 16
 143 001c 13010101 		addi	sp,sp,16
 144              		.cfi_def_cfa_offset 0
 145 0020 67800000 		jr	ra
 146              		.cfi_endproc
 147              	.LFE35:
 149              		.weak	_ZN14PeriodicThreadD1Ev
 150              		.set	_ZN14PeriodicThreadD1Ev,_ZN14PeriodicThreadD2Ev
 151              		.text
 152              		.align	2
 153              		.globl	_ZN14PeriodicThread3runEv
 155              	_ZN14PeriodicThread3runEv:
 156              	.LFB30:
  20:src/syscall_cpp.cpp **** 
  21:src/syscall_cpp.cpp **** int Thread::start() {
  22:src/syscall_cpp.cpp ****     void (*fn)(void*) = body ? body : runBody;
  23:src/syscall_cpp.cpp ****     void* fnArg       = body ? arg  : this;
  24:src/syscall_cpp.cpp ****     return thread_create(&myHandle, fn, fnArg);
  25:src/syscall_cpp.cpp **** }
  26:src/syscall_cpp.cpp **** 
  27:src/syscall_cpp.cpp **** void Thread::dispatch() {
  28:src/syscall_cpp.cpp ****     thread_dispatch();
  29:src/syscall_cpp.cpp **** }
  30:src/syscall_cpp.cpp **** int  Thread::sleep(time_t t) {
  31:src/syscall_cpp.cpp ****     return time_sleep(t);
  32:src/syscall_cpp.cpp **** }
  33:src/syscall_cpp.cpp **** 
  34:src/syscall_cpp.cpp **** Semaphore::Semaphore(unsigned init) {
  35:src/syscall_cpp.cpp ****     sem_open(&myHandle, init);
GAS LISTING /tmp/ccMoGOny.s 			page 5


  36:src/syscall_cpp.cpp **** }
  37:src/syscall_cpp.cpp **** Semaphore::~Semaphore() {
  38:src/syscall_cpp.cpp ****     sem_close(myHandle);
  39:src/syscall_cpp.cpp **** }
  40:src/syscall_cpp.cpp **** int Semaphore::wait() {
  41:src/syscall_cpp.cpp ****     return sem_wait(myHandle);
  42:src/syscall_cpp.cpp **** }
  43:src/syscall_cpp.cpp **** int Semaphore::signal() {
  44:src/syscall_cpp.cpp ****     return sem_signal(myHandle);
  45:src/syscall_cpp.cpp **** }
  46:src/syscall_cpp.cpp **** 
  47:src/syscall_cpp.cpp **** PeriodicThread::PeriodicThread(time_t period) : Thread(), period(period) {}
  48:src/syscall_cpp.cpp **** 
  49:src/syscall_cpp.cpp **** void PeriodicThread::run() {
 157              		.loc 2 49 28 is_stmt 1
 158              		.cfi_startproc
 159              	.LVL6:
 160 0044 130101FE 		addi	sp,sp,-32
 161              		.cfi_def_cfa_offset 32
 162 0048 233C1100 		sd	ra,24(sp)
 163 004c 23388100 		sd	s0,16(sp)
 164 0050 23349100 		sd	s1,8(sp)
 165              		.cfi_offset 1, -8
 166              		.cfi_offset 8, -16
 167              		.cfi_offset 9, -24
 168 0054 13040102 		addi	s0,sp,32
 169              		.cfi_def_cfa 8, 0
 170 0058 93040500 		mv	s1,a0
 171              	.LVL7:
 172              	.L13:
  50:src/syscall_cpp.cpp ****     while (period) {
 173              		.loc 2 50 5
 174              		.loc 2 50 12
 175 005c 83B70402 		ld	a5,32(s1)
 176 0060 63820702 		beqz	a5,.L11
  51:src/syscall_cpp.cpp ****         periodicActivation();
 177              		.loc 2 51 9
 178              		.loc 2 51 28 is_stmt 0
 179 0064 83B70400 		ld	a5,0(s1)
 180 0068 83B78701 		ld	a5,24(a5)
 181              		.loc 2 51 27
 182 006c 13850400 		mv	a0,s1
 183 0070 E7800700 		jalr	a5
 184              	.LVL8:
  52:src/syscall_cpp.cpp ****         time_sleep(period);
 185              		.loc 2 52 9 is_stmt 1
 186              		.loc 2 52 19 is_stmt 0
 187 0074 03B50402 		ld	a0,32(s1)
 188 0078 97000000 		call	time_sleep@plt
 188      E7800000 
 189              	.LVL9:
  50:src/syscall_cpp.cpp ****     while (period) {
 190              		.loc 2 50 5
 191 0080 6FF0DFFD 		j	.L13
 192              	.L11:
  53:src/syscall_cpp.cpp ****     }
  54:src/syscall_cpp.cpp **** }
GAS LISTING /tmp/ccMoGOny.s 			page 6


 193              		.loc 2 54 1
 194 0084 83308101 		ld	ra,24(sp)
 195              		.cfi_restore 1
 196 0088 03340101 		ld	s0,16(sp)
 197              		.cfi_restore 8
 198              		.cfi_def_cfa 2, 32
 199 008c 83348100 		ld	s1,8(sp)
 200              		.cfi_restore 9
 201              	.LVL10:
 202 0090 13010102 		addi	sp,sp,32
 203              		.cfi_def_cfa_offset 0
 204 0094 67800000 		jr	ra
 205              		.cfi_endproc
 206              	.LFE30:
 208              		.align	2
 209              		.globl	_ZN9SemaphoreD2Ev
 211              	_ZN9SemaphoreD2Ev:
 212              	.LFB22:
  37:src/syscall_cpp.cpp ****     sem_close(myHandle);
 213              		.loc 2 37 1 is_stmt 1
 214              		.cfi_startproc
 215              		.cfi_personality 0x9b,DW.ref.__gxx_personality_v0
 216              		.cfi_lsda 0x1b,.LLSDA22
 217              	.LVL11:
 218 0098 130101FF 		addi	sp,sp,-16
 219              		.cfi_def_cfa_offset 16
 220 009c 23341100 		sd	ra,8(sp)
 221 00a0 23308100 		sd	s0,0(sp)
 222              		.cfi_offset 1, -8
 223              		.cfi_offset 8, -16
 224 00a4 13040101 		addi	s0,sp,16
 225              		.cfi_def_cfa 8, 0
 226              	.LBB6:
  37:src/syscall_cpp.cpp ****     sem_close(myHandle);
 227              		.loc 2 37 23 is_stmt 0
 228 00a8 97070000 		lla	a5,_ZTV9Semaphore+16
 228      93870700 
 229 00b0 2330F500 		sd	a5,0(a0)
  38:src/syscall_cpp.cpp **** }
 230              		.loc 2 38 5 is_stmt 1
  38:src/syscall_cpp.cpp **** }
 231              		.loc 2 38 14 is_stmt 0
 232 00b4 03358500 		ld	a0,8(a0)
 233              	.LVL12:
 234 00b8 97000000 		call	sem_close@plt
 234      E7800000 
 235              	.LVL13:
 236              	.LBE6:
  39:src/syscall_cpp.cpp **** int Semaphore::wait() {
 237              		.loc 2 39 1
 238 00c0 83308100 		ld	ra,8(sp)
 239              		.cfi_restore 1
 240 00c4 03340100 		ld	s0,0(sp)
 241              		.cfi_restore 8
 242              		.cfi_def_cfa 2, 16
 243 00c8 13010101 		addi	sp,sp,16
 244              		.cfi_def_cfa_offset 0
GAS LISTING /tmp/ccMoGOny.s 			page 7


 245 00cc 67800000 		jr	ra
 246              		.cfi_endproc
 247              	.LFE22:
 248              		.globl	__gxx_personality_v0
 249              		.section	.gcc_except_table,"a",@progbits
 250              	.LLSDA22:
 251 0000 FF       		.byte	0xff
 252 0001 FF       		.byte	0xff
 253 0002 03       		.byte	0x3
 254 0003 00       		.byte	0
 255              		.text
 257              		.globl	_ZN9SemaphoreD1Ev
 258              		.set	_ZN9SemaphoreD1Ev,_ZN9SemaphoreD2Ev
 259              		.align	2
 260              		.globl	_Znwm
 262              	_Znwm:
 263              	.LFB2:
   6:src/syscall_cpp.cpp ****     return mem_alloc(size); }
 264              		.loc 2 6 33 is_stmt 1
 265              		.cfi_startproc
 266              	.LVL14:
 267 00d0 130101FF 		addi	sp,sp,-16
 268              		.cfi_def_cfa_offset 16
 269 00d4 23341100 		sd	ra,8(sp)
 270 00d8 23308100 		sd	s0,0(sp)
 271              		.cfi_offset 1, -8
 272              		.cfi_offset 8, -16
 273 00dc 13040101 		addi	s0,sp,16
 274              		.cfi_def_cfa 8, 0
   7:src/syscall_cpp.cpp **** void  operator delete(void* p)  {
 275              		.loc 2 7 5
   7:src/syscall_cpp.cpp **** void  operator delete(void* p)  {
 276              		.loc 2 7 21 is_stmt 0
 277 00e0 97000000 		call	mem_alloc@plt
 277      E7800000 
 278              	.LVL15:
   7:src/syscall_cpp.cpp **** void  operator delete(void* p)  {
 279              		.loc 2 7 29
 280 00e8 83308100 		ld	ra,8(sp)
 281              		.cfi_restore 1
 282 00ec 03340100 		ld	s0,0(sp)
 283              		.cfi_restore 8
 284              		.cfi_def_cfa 2, 16
 285 00f0 13010101 		addi	sp,sp,16
 286              		.cfi_def_cfa_offset 0
 287 00f4 67800000 		jr	ra
 288              		.cfi_endproc
 289              	.LFE2:
 291              		.align	2
 292              		.globl	_ZdlPv
 294              	_ZdlPv:
 295              	.LFB3:
   8:src/syscall_cpp.cpp ****     mem_free(p); }
 296              		.loc 2 8 33 is_stmt 1
 297              		.cfi_startproc
 298              	.LVL16:
 299 00f8 130101FF 		addi	sp,sp,-16
GAS LISTING /tmp/ccMoGOny.s 			page 8


 300              		.cfi_def_cfa_offset 16
 301 00fc 23341100 		sd	ra,8(sp)
 302 0100 23308100 		sd	s0,0(sp)
 303              		.cfi_offset 1, -8
 304              		.cfi_offset 8, -16
 305 0104 13040101 		addi	s0,sp,16
 306              		.cfi_def_cfa 8, 0
   9:src/syscall_cpp.cpp **** 
 307              		.loc 2 9 5
   9:src/syscall_cpp.cpp **** 
 308              		.loc 2 9 13 is_stmt 0
 309 0108 97000000 		call	mem_free@plt
 309      E7800000 
 310              	.LVL17:
   9:src/syscall_cpp.cpp **** 
 311              		.loc 2 9 18
 312 0110 83308100 		ld	ra,8(sp)
 313              		.cfi_restore 1
 314 0114 03340100 		ld	s0,0(sp)
 315              		.cfi_restore 8
 316              		.cfi_def_cfa 2, 16
 317 0118 13010101 		addi	sp,sp,16
 318              		.cfi_def_cfa_offset 0
 319 011c 67800000 		jr	ra
 320              		.cfi_endproc
 321              	.LFE3:
 323              		.align	2
 324              		.globl	_ZN6ThreadD0Ev
 326              	_ZN6ThreadD0Ev:
 327              	.LFB13:
  15:src/syscall_cpp.cpp **** 
 328              		.loc 2 15 1 is_stmt 1
 329              		.cfi_startproc
 330              	.LVL18:
 331 0120 130101FF 		addi	sp,sp,-16
 332              		.cfi_def_cfa_offset 16
 333 0124 23341100 		sd	ra,8(sp)
 334 0128 23308100 		sd	s0,0(sp)
 335              		.cfi_offset 1, -8
 336              		.cfi_offset 8, -16
 337 012c 13040101 		addi	s0,sp,16
 338              		.cfi_def_cfa 8, 0
  15:src/syscall_cpp.cpp **** 
 339              		.loc 2 15 20 is_stmt 0
 340 0130 97000000 		call	_ZdlPv
 340      E7800000 
 341              	.LVL19:
 342 0138 83308100 		ld	ra,8(sp)
 343              		.cfi_restore 1
 344 013c 03340100 		ld	s0,0(sp)
 345              		.cfi_restore 8
 346              		.cfi_def_cfa 2, 16
 347 0140 13010101 		addi	sp,sp,16
 348              		.cfi_def_cfa_offset 0
 349 0144 67800000 		jr	ra
 350              		.cfi_endproc
 351              	.LFE13:
GAS LISTING /tmp/ccMoGOny.s 			page 9


 353              		.align	2
 354              		.globl	_ZN9SemaphoreD0Ev
 356              	_ZN9SemaphoreD0Ev:
 357              	.LFB24:
  37:src/syscall_cpp.cpp ****     sem_close(myHandle);
 358              		.loc 2 37 1 is_stmt 1
 359              		.cfi_startproc
 360              	.LVL20:
 361 0148 130101FE 		addi	sp,sp,-32
 362              		.cfi_def_cfa_offset 32
 363 014c 233C1100 		sd	ra,24(sp)
 364 0150 23388100 		sd	s0,16(sp)
 365 0154 23349100 		sd	s1,8(sp)
 366              		.cfi_offset 1, -8
 367              		.cfi_offset 8, -16
 368              		.cfi_offset 9, -24
 369 0158 13040102 		addi	s0,sp,32
 370              		.cfi_def_cfa 8, 0
 371 015c 93040500 		mv	s1,a0
  39:src/syscall_cpp.cpp **** int Semaphore::wait() {
 372              		.loc 2 39 1 is_stmt 0
 373 0160 97000000 		call	_ZN9SemaphoreD1Ev
 373      E7800000 
 374              	.LVL21:
 375 0168 13850400 		mv	a0,s1
 376 016c 97000000 		call	_ZdlPv
 376      E7800000 
 377              	.LVL22:
 378 0174 83308101 		ld	ra,24(sp)
 379              		.cfi_restore 1
 380 0178 03340101 		ld	s0,16(sp)
 381              		.cfi_restore 8
 382              		.cfi_def_cfa 2, 32
 383 017c 83348100 		ld	s1,8(sp)
 384              		.cfi_restore 9
 385              	.LVL23:
 386 0180 13010102 		addi	sp,sp,32
 387              		.cfi_def_cfa_offset 0
 388 0184 67800000 		jr	ra
 389              		.cfi_endproc
 390              	.LFE24:
 392              		.section	.text._ZN14PeriodicThreadD0Ev,"axG",@progbits,_ZN14PeriodicThreadD5Ev,comdat
 393              		.align	2
 394              		.weak	_ZN14PeriodicThreadD0Ev
 396              	_ZN14PeriodicThreadD0Ev:
 397              	.LFB37:
  40:src/syscall_cpp.hpp **** public:
 398              		.loc 1 40 7 is_stmt 1
 399              		.cfi_startproc
 400              	.LVL24:
 401 0000 130101FF 		addi	sp,sp,-16
 402              		.cfi_def_cfa_offset 16
 403 0004 23341100 		sd	ra,8(sp)
 404 0008 23308100 		sd	s0,0(sp)
 405              		.cfi_offset 1, -8
 406              		.cfi_offset 8, -16
 407 000c 13040101 		addi	s0,sp,16
GAS LISTING /tmp/ccMoGOny.s 			page 10


 408              		.cfi_def_cfa 8, 0
 409              	.LVL25:
 410              	.LBB7:
 411              	.LBB8:
  40:src/syscall_cpp.hpp **** public:
 412              		.loc 1 40 7 is_stmt 0
 413 0010 97070000 		lla	a5,_ZTV14PeriodicThread+16
 413      93870700 
 414 0018 2330F500 		sd	a5,0(a0)
 415              	.LVL26:
 416              	.LBE8:
 417              	.LBE7:
 418 001c 97000000 		call	_ZdlPv
 418      E7800000 
 419              	.LVL27:
 420 0024 83308100 		ld	ra,8(sp)
 421              		.cfi_restore 1
 422 0028 03340100 		ld	s0,0(sp)
 423              		.cfi_restore 8
 424              		.cfi_def_cfa 2, 16
 425 002c 13010101 		addi	sp,sp,16
 426              		.cfi_def_cfa_offset 0
 427 0030 67800000 		jr	ra
 428              		.cfi_endproc
 429              	.LFE37:
 431              		.text
 432              		.align	2
 433              		.globl	_ZN6ThreadC2EPFvPvES0_
 435              	_ZN6ThreadC2EPFvPvES0_:
 436              	.LFB5:
  11:src/syscall_cpp.cpp ****     body(body), arg(arg) {}
 437              		.loc 2 11 1 is_stmt 1
 438              		.cfi_startproc
 439              	.LVL28:
 440 0188 130101FF 		addi	sp,sp,-16
 441              		.cfi_def_cfa_offset 16
 442 018c 23348100 		sd	s0,8(sp)
 443              		.cfi_offset 8, -8
 444 0190 13040101 		addi	s0,sp,16
 445              		.cfi_def_cfa 8, 0
 446              	.LBB9:
  12:src/syscall_cpp.cpp **** Thread::Thread(): myHandle(nullptr),
 447              		.loc 2 12 24 is_stmt 0
 448 0194 97070000 		lla	a5,_ZTV6Thread+16
 448      93870700 
 449 019c 2330F500 		sd	a5,0(a0)
 450 01a0 23340500 		sd	zero,8(a0)
 451 01a4 2338B500 		sd	a1,16(a0)
 452 01a8 233CC500 		sd	a2,24(a0)
 453              	.LBE9:
  12:src/syscall_cpp.cpp **** Thread::Thread(): myHandle(nullptr),
 454              		.loc 2 12 27
 455 01ac 03348100 		ld	s0,8(sp)
 456              		.cfi_restore 8
 457              		.cfi_def_cfa 2, 16
 458 01b0 13010101 		addi	sp,sp,16
 459              		.cfi_def_cfa_offset 0
GAS LISTING /tmp/ccMoGOny.s 			page 11


 460 01b4 67800000 		jr	ra
 461              		.cfi_endproc
 462              	.LFE5:
 464              		.globl	_ZN6ThreadC1EPFvPvES0_
 465              		.set	_ZN6ThreadC1EPFvPvES0_,_ZN6ThreadC2EPFvPvES0_
 466              		.align	2
 467              		.globl	_ZN6ThreadC2Ev
 469              	_ZN6ThreadC2Ev:
 470              	.LFB8:
  13:src/syscall_cpp.cpp ****     body(nullptr), arg(nullptr) {}
 471              		.loc 2 13 1 is_stmt 1
 472              		.cfi_startproc
 473              	.LVL29:
 474 01b8 130101FF 		addi	sp,sp,-16
 475              		.cfi_def_cfa_offset 16
 476 01bc 23348100 		sd	s0,8(sp)
 477              		.cfi_offset 8, -8
 478 01c0 13040101 		addi	s0,sp,16
 479              		.cfi_def_cfa 8, 0
 480              	.LBB10:
  14:src/syscall_cpp.cpp **** Thread::~Thread() {}
 481              		.loc 2 14 31 is_stmt 0
 482 01c4 97070000 		lla	a5,_ZTV6Thread+16
 482      93870700 
 483 01cc 2330F500 		sd	a5,0(a0)
 484 01d0 23340500 		sd	zero,8(a0)
 485 01d4 23380500 		sd	zero,16(a0)
 486 01d8 233C0500 		sd	zero,24(a0)
 487              	.LBE10:
  14:src/syscall_cpp.cpp **** Thread::~Thread() {}
 488              		.loc 2 14 34
 489 01dc 03348100 		ld	s0,8(sp)
 490              		.cfi_restore 8
 491              		.cfi_def_cfa 2, 16
 492 01e0 13010101 		addi	sp,sp,16
 493              		.cfi_def_cfa_offset 0
 494 01e4 67800000 		jr	ra
 495              		.cfi_endproc
 496              	.LFE8:
 498              		.globl	_ZN6ThreadC1Ev
 499              		.set	_ZN6ThreadC1Ev,_ZN6ThreadC2Ev
 500              		.align	2
 501              		.globl	_ZN6Thread5startEv
 503              	_ZN6Thread5startEv:
 504              	.LFB15:
  21:src/syscall_cpp.cpp ****     void (*fn)(void*) = body ? body : runBody;
 505              		.loc 2 21 21 is_stmt 1
 506              		.cfi_startproc
 507              	.LVL30:
 508 01e8 130101FF 		addi	sp,sp,-16
 509              		.cfi_def_cfa_offset 16
 510 01ec 23341100 		sd	ra,8(sp)
 511 01f0 23308100 		sd	s0,0(sp)
 512              		.cfi_offset 1, -8
 513              		.cfi_offset 8, -16
 514 01f4 13040101 		addi	s0,sp,16
 515              		.cfi_def_cfa 8, 0
GAS LISTING /tmp/ccMoGOny.s 			page 12


  22:src/syscall_cpp.cpp ****     void* fnArg       = body ? arg  : this;
 516              		.loc 2 22 5
  22:src/syscall_cpp.cpp ****     void* fnArg       = body ? arg  : this;
 517              		.loc 2 22 25 is_stmt 0
 518 01f8 83370501 		ld	a5,16(a0)
  22:src/syscall_cpp.cpp ****     void* fnArg       = body ? arg  : this;
 519              		.loc 2 22 30
 520 01fc 63860702 		beqz	a5,.L37
 521 0200 93850700 		mv	a1,a5
 522              	.L32:
 523              	.LVL31:
  23:src/syscall_cpp.cpp ****     return thread_create(&myHandle, fn, fnArg);
 524              		.loc 2 23 5 is_stmt 1 discriminator 4
  23:src/syscall_cpp.cpp ****     return thread_create(&myHandle, fn, fnArg);
 525              		.loc 2 23 30 is_stmt 0 discriminator 4
 526 0204 63880702 		beqz	a5,.L35
  23:src/syscall_cpp.cpp ****     return thread_create(&myHandle, fn, fnArg);
 527              		.loc 2 23 30 discriminator 1
 528 0208 03368501 		ld	a2,24(a0)
 529              	.L33:
 530              	.LVL32:
  24:src/syscall_cpp.cpp **** }
 531              		.loc 2 24 5 is_stmt 1 discriminator 4
  24:src/syscall_cpp.cpp **** }
 532              		.loc 2 24 25 is_stmt 0 discriminator 4
 533 020c 13058500 		addi	a0,a0,8
 534              	.LVL33:
 535 0210 97000000 		call	thread_create@plt
 535      E7800000 
 536              	.LVL34:
  25:src/syscall_cpp.cpp **** 
 537              		.loc 2 25 1 discriminator 4
 538 0218 83308100 		ld	ra,8(sp)
 539              		.cfi_remember_state
 540              		.cfi_restore 1
 541 021c 03340100 		ld	s0,0(sp)
 542              		.cfi_restore 8
 543              		.cfi_def_cfa 2, 16
 544 0220 13010101 		addi	sp,sp,16
 545              		.cfi_def_cfa_offset 0
 546 0224 67800000 		jr	ra
 547              	.LVL35:
 548              	.L37:
 549              		.cfi_restore_state
  22:src/syscall_cpp.cpp ****     void* fnArg       = body ? arg  : this;
 550              		.loc 2 22 30
 551 0228 97050000 		lla	a1,_ZN6Thread7runBodyEPv
 551      93850500 
 552 0230 6FF05FFD 		j	.L32
 553              	.LVL36:
 554              	.L35:
  23:src/syscall_cpp.cpp ****     return thread_create(&myHandle, fn, fnArg);
 555              		.loc 2 23 30
 556 0234 13060500 		mv	a2,a0
 557 0238 6FF05FFD 		j	.L33
 558              		.cfi_endproc
 559              	.LFE15:
GAS LISTING /tmp/ccMoGOny.s 			page 13


 561              		.align	2
 562              		.globl	_ZN6Thread8dispatchEv
 564              	_ZN6Thread8dispatchEv:
 565              	.LFB16:
  27:src/syscall_cpp.cpp ****     thread_dispatch();
 566              		.loc 2 27 25 is_stmt 1
 567              		.cfi_startproc
 568 023c 130101FF 		addi	sp,sp,-16
 569              		.cfi_def_cfa_offset 16
 570 0240 23341100 		sd	ra,8(sp)
 571 0244 23308100 		sd	s0,0(sp)
 572              		.cfi_offset 1, -8
 573              		.cfi_offset 8, -16
 574 0248 13040101 		addi	s0,sp,16
 575              		.cfi_def_cfa 8, 0
  28:src/syscall_cpp.cpp **** }
 576              		.loc 2 28 5
  28:src/syscall_cpp.cpp **** }
 577              		.loc 2 28 20 is_stmt 0
 578 024c 97000000 		call	thread_dispatch@plt
 578      E7800000 
 579              	.LVL37:
  29:src/syscall_cpp.cpp **** int  Thread::sleep(time_t t) {
 580              		.loc 2 29 1
 581 0254 83308100 		ld	ra,8(sp)
 582              		.cfi_restore 1
 583 0258 03340100 		ld	s0,0(sp)
 584              		.cfi_restore 8
 585              		.cfi_def_cfa 2, 16
 586 025c 13010101 		addi	sp,sp,16
 587              		.cfi_def_cfa_offset 0
 588 0260 67800000 		jr	ra
 589              		.cfi_endproc
 590              	.LFE16:
 592              		.align	2
 593              		.globl	_ZN6Thread5sleepEm
 595              	_ZN6Thread5sleepEm:
 596              	.LFB17:
  30:src/syscall_cpp.cpp ****     return time_sleep(t);
 597              		.loc 2 30 30 is_stmt 1
 598              		.cfi_startproc
 599              	.LVL38:
 600 0264 130101FF 		addi	sp,sp,-16
 601              		.cfi_def_cfa_offset 16
 602 0268 23341100 		sd	ra,8(sp)
 603 026c 23308100 		sd	s0,0(sp)
 604              		.cfi_offset 1, -8
 605              		.cfi_offset 8, -16
 606 0270 13040101 		addi	s0,sp,16
 607              		.cfi_def_cfa 8, 0
  31:src/syscall_cpp.cpp **** }
 608              		.loc 2 31 5
  31:src/syscall_cpp.cpp **** }
 609              		.loc 2 31 22 is_stmt 0
 610 0274 97000000 		call	time_sleep@plt
 610      E7800000 
 611              	.LVL39:
GAS LISTING /tmp/ccMoGOny.s 			page 14


  32:src/syscall_cpp.cpp **** 
 612              		.loc 2 32 1
 613 027c 83308100 		ld	ra,8(sp)
 614              		.cfi_restore 1
 615 0280 03340100 		ld	s0,0(sp)
 616              		.cfi_restore 8
 617              		.cfi_def_cfa 2, 16
 618 0284 13010101 		addi	sp,sp,16
 619              		.cfi_def_cfa_offset 0
 620 0288 67800000 		jr	ra
 621              		.cfi_endproc
 622              	.LFE17:
 624              		.align	2
 625              		.globl	_ZN9SemaphoreC2Ej
 627              	_ZN9SemaphoreC2Ej:
 628              	.LFB19:
  34:src/syscall_cpp.cpp ****     sem_open(&myHandle, init);
 629              		.loc 2 34 1 is_stmt 1
 630              		.cfi_startproc
 631              	.LVL40:
 632 028c 130101FF 		addi	sp,sp,-16
 633              		.cfi_def_cfa_offset 16
 634 0290 23341100 		sd	ra,8(sp)
 635 0294 23308100 		sd	s0,0(sp)
 636              		.cfi_offset 1, -8
 637              		.cfi_offset 8, -16
 638 0298 13040101 		addi	s0,sp,16
 639              		.cfi_def_cfa 8, 0
 640              	.LBB11:
  34:src/syscall_cpp.cpp ****     sem_open(&myHandle, init);
 641              		.loc 2 34 35 is_stmt 0
 642 029c 97070000 		lla	a5,_ZTV9Semaphore+16
 642      93870700 
 643 02a4 2330F500 		sd	a5,0(a0)
  35:src/syscall_cpp.cpp **** }
 644              		.loc 2 35 5 is_stmt 1
  35:src/syscall_cpp.cpp **** }
 645              		.loc 2 35 13 is_stmt 0
 646 02a8 13058500 		addi	a0,a0,8
 647              	.LVL41:
 648 02ac 97000000 		call	sem_open@plt
 648      E7800000 
 649              	.LVL42:
 650              	.LBE11:
  36:src/syscall_cpp.cpp **** Semaphore::~Semaphore() {
 651              		.loc 2 36 1
 652 02b4 83308100 		ld	ra,8(sp)
 653              		.cfi_restore 1
 654 02b8 03340100 		ld	s0,0(sp)
 655              		.cfi_restore 8
 656              		.cfi_def_cfa 2, 16
 657 02bc 13010101 		addi	sp,sp,16
 658              		.cfi_def_cfa_offset 0
 659 02c0 67800000 		jr	ra
 660              		.cfi_endproc
 661              	.LFE19:
 663              		.globl	_ZN9SemaphoreC1Ej
GAS LISTING /tmp/ccMoGOny.s 			page 15


 664              		.set	_ZN9SemaphoreC1Ej,_ZN9SemaphoreC2Ej
 665              		.align	2
 666              		.globl	_ZN9Semaphore4waitEv
 668              	_ZN9Semaphore4waitEv:
 669              	.LFB25:
  40:src/syscall_cpp.cpp ****     return sem_wait(myHandle);
 670              		.loc 2 40 23 is_stmt 1
 671              		.cfi_startproc
 672              	.LVL43:
 673 02c4 130101FF 		addi	sp,sp,-16
 674              		.cfi_def_cfa_offset 16
 675 02c8 23341100 		sd	ra,8(sp)
 676 02cc 23308100 		sd	s0,0(sp)
 677              		.cfi_offset 1, -8
 678              		.cfi_offset 8, -16
 679 02d0 13040101 		addi	s0,sp,16
 680              		.cfi_def_cfa 8, 0
  41:src/syscall_cpp.cpp **** }
 681              		.loc 2 41 5
  41:src/syscall_cpp.cpp **** }
 682              		.loc 2 41 20 is_stmt 0
 683 02d4 03358500 		ld	a0,8(a0)
 684              	.LVL44:
 685 02d8 97000000 		call	sem_wait@plt
 685      E7800000 
 686              	.LVL45:
  42:src/syscall_cpp.cpp **** int Semaphore::signal() {
 687              		.loc 2 42 1
 688 02e0 83308100 		ld	ra,8(sp)
 689              		.cfi_restore 1
 690 02e4 03340100 		ld	s0,0(sp)
 691              		.cfi_restore 8
 692              		.cfi_def_cfa 2, 16
 693 02e8 13010101 		addi	sp,sp,16
 694              		.cfi_def_cfa_offset 0
 695 02ec 67800000 		jr	ra
 696              		.cfi_endproc
 697              	.LFE25:
 699              		.align	2
 700              		.globl	_ZN9Semaphore6signalEv
 702              	_ZN9Semaphore6signalEv:
 703              	.LFB26:
  43:src/syscall_cpp.cpp ****     return sem_signal(myHandle);
 704              		.loc 2 43 25 is_stmt 1
 705              		.cfi_startproc
 706              	.LVL46:
 707 02f0 130101FF 		addi	sp,sp,-16
 708              		.cfi_def_cfa_offset 16
 709 02f4 23341100 		sd	ra,8(sp)
 710 02f8 23308100 		sd	s0,0(sp)
 711              		.cfi_offset 1, -8
 712              		.cfi_offset 8, -16
 713 02fc 13040101 		addi	s0,sp,16
 714              		.cfi_def_cfa 8, 0
  44:src/syscall_cpp.cpp **** }
 715              		.loc 2 44 5
  44:src/syscall_cpp.cpp **** }
GAS LISTING /tmp/ccMoGOny.s 			page 16


 716              		.loc 2 44 22 is_stmt 0
 717 0300 03358500 		ld	a0,8(a0)
 718              	.LVL47:
 719 0304 97000000 		call	sem_signal@plt
 719      E7800000 
 720              	.LVL48:
  45:src/syscall_cpp.cpp **** 
 721              		.loc 2 45 1
 722 030c 83308100 		ld	ra,8(sp)
 723              		.cfi_restore 1
 724 0310 03340100 		ld	s0,0(sp)
 725              		.cfi_restore 8
 726              		.cfi_def_cfa 2, 16
 727 0314 13010101 		addi	sp,sp,16
 728              		.cfi_def_cfa_offset 0
 729 0318 67800000 		jr	ra
 730              		.cfi_endproc
 731              	.LFE26:
 733              		.align	2
 734              		.globl	_ZN14PeriodicThreadC2Em
 736              	_ZN14PeriodicThreadC2Em:
 737              	.LFB28:
  47:src/syscall_cpp.cpp **** 
 738              		.loc 2 47 1 is_stmt 1
 739              		.cfi_startproc
 740              	.LVL49:
 741 031c 130101FE 		addi	sp,sp,-32
 742              		.cfi_def_cfa_offset 32
 743 0320 233C1100 		sd	ra,24(sp)
 744 0324 23388100 		sd	s0,16(sp)
 745 0328 23349100 		sd	s1,8(sp)
 746 032c 23302101 		sd	s2,0(sp)
 747              		.cfi_offset 1, -8
 748              		.cfi_offset 8, -16
 749              		.cfi_offset 9, -24
 750              		.cfi_offset 18, -32
 751 0330 13040102 		addi	s0,sp,32
 752              		.cfi_def_cfa 8, 0
 753 0334 93040500 		mv	s1,a0
 754 0338 13890500 		mv	s2,a1
 755              	.LBB12:
  47:src/syscall_cpp.cpp **** 
 756              		.loc 2 47 72 is_stmt 0
 757 033c 97000000 		call	_ZN6ThreadC2Ev
 757      E7800000 
 758              	.LVL50:
 759 0344 97070000 		lla	a5,_ZTV14PeriodicThread+16
 759      93870700 
 760 034c 23B0F400 		sd	a5,0(s1)
 761 0350 23B02403 		sd	s2,32(s1)
 762              	.LBE12:
  47:src/syscall_cpp.cpp **** 
 763              		.loc 2 47 75
 764 0354 83308101 		ld	ra,24(sp)
 765              		.cfi_restore 1
 766 0358 03340101 		ld	s0,16(sp)
 767              		.cfi_restore 8
GAS LISTING /tmp/ccMoGOny.s 			page 17


 768              		.cfi_def_cfa 2, 32
 769 035c 83348100 		ld	s1,8(sp)
 770              		.cfi_restore 9
 771              	.LVL51:
 772 0360 03390100 		ld	s2,0(sp)
 773              		.cfi_restore 18
 774              	.LVL52:
 775 0364 13010102 		addi	sp,sp,32
 776              		.cfi_def_cfa_offset 0
 777 0368 67800000 		jr	ra
 778              		.cfi_endproc
 779              	.LFE28:
 781              		.globl	_ZN14PeriodicThreadC1Em
 782              		.set	_ZN14PeriodicThreadC1Em,_ZN14PeriodicThreadC2Em
 783              		.align	2
 784              		.globl	_ZN14PeriodicThread9terminateEv
 786              	_ZN14PeriodicThread9terminateEv:
 787              	.LFB31:
  55:src/syscall_cpp.cpp **** 
  56:src/syscall_cpp.cpp **** void PeriodicThread::terminate() { period = 0; }
 788              		.loc 2 56 34 is_stmt 1
 789              		.cfi_startproc
 790              	.LVL53:
 791 036c 130101FF 		addi	sp,sp,-16
 792              		.cfi_def_cfa_offset 16
 793 0370 23348100 		sd	s0,8(sp)
 794              		.cfi_offset 8, -8
 795 0374 13040101 		addi	s0,sp,16
 796              		.cfi_def_cfa 8, 0
 797              		.loc 2 56 36
 798              		.loc 2 56 43 is_stmt 0
 799 0378 23300502 		sd	zero,32(a0)
 800              		.loc 2 56 48
 801 037c 03348100 		ld	s0,8(sp)
 802              		.cfi_restore 8
 803              		.cfi_def_cfa 2, 16
 804 0380 13010101 		addi	sp,sp,16
 805              		.cfi_def_cfa_offset 0
 806 0384 67800000 		jr	ra
 807              		.cfi_endproc
 808              	.LFE31:
 810              		.align	2
 811              		.globl	_ZN7Console4getcEv
 813              	_ZN7Console4getcEv:
 814              	.LFB32:
  57:src/syscall_cpp.cpp **** 
  58:src/syscall_cpp.cpp **** char Console::getc()       { return ::getc(); }
 815              		.loc 2 58 28 is_stmt 1
 816              		.cfi_startproc
 817 0388 130101FF 		addi	sp,sp,-16
 818              		.cfi_def_cfa_offset 16
 819 038c 23341100 		sd	ra,8(sp)
 820 0390 23308100 		sd	s0,0(sp)
 821              		.cfi_offset 1, -8
 822              		.cfi_offset 8, -16
 823 0394 13040101 		addi	s0,sp,16
 824              		.cfi_def_cfa 8, 0
GAS LISTING /tmp/ccMoGOny.s 			page 18


 825              		.loc 2 58 30
 826              		.loc 2 58 43 is_stmt 0
 827 0398 97000000 		call	getc@plt
 827      E7800000 
 828              	.LVL54:
 829              		.loc 2 58 47
 830 03a0 83308100 		ld	ra,8(sp)
 831              		.cfi_restore 1
 832 03a4 03340100 		ld	s0,0(sp)
 833              		.cfi_restore 8
 834              		.cfi_def_cfa 2, 16
 835 03a8 13010101 		addi	sp,sp,16
 836              		.cfi_def_cfa_offset 0
 837 03ac 67800000 		jr	ra
 838              		.cfi_endproc
 839              	.LFE32:
 841              		.align	2
 842              		.globl	_ZN7Console4putcEc
 844              	_ZN7Console4putcEc:
 845              	.LFB33:
  59:src/syscall_cpp.cpp **** void Console::putc(char c) { ::putc(c); }...
 846              		.loc 2 59 28 is_stmt 1
 847              		.cfi_startproc
 848              	.LVL55:
 849 03b0 130101FF 		addi	sp,sp,-16
 850              		.cfi_def_cfa_offset 16
 851 03b4 23341100 		sd	ra,8(sp)
 852 03b8 23308100 		sd	s0,0(sp)
 853              		.cfi_offset 1, -8
 854              		.cfi_offset 8, -16
 855 03bc 13040101 		addi	s0,sp,16
 856              		.cfi_def_cfa 8, 0
 857              		.loc 2 59 30
 858              		.loc 2 59 36 is_stmt 0
 859 03c0 97000000 		call	putc@plt
 859      E7800000 
 860              	.LVL56:
 861              		.loc 2 59 41
 862 03c8 83308100 		ld	ra,8(sp)
 863              		.cfi_restore 1
 864 03cc 03340100 		ld	s0,0(sp)
 865              		.cfi_restore 8
 866              		.cfi_def_cfa 2, 16
 867 03d0 13010101 		addi	sp,sp,16
 868              		.cfi_def_cfa_offset 0
 869 03d4 67800000 		jr	ra
 870              		.cfi_endproc
 871              	.LFE33:
 873              		.weak	_ZTV6Thread
 874              		.section	.data.rel.ro.local._ZTV6Thread,"awG",@progbits,_ZTV6Thread,comdat
 875              		.align	3
 878              	_ZTV6Thread:
 879 0000 00000000 		.dword	0
 879      00000000 
 880 0008 00000000 		.dword	0
 880      00000000 
 881 0010 00000000 		.dword	_ZN6ThreadD1Ev
GAS LISTING /tmp/ccMoGOny.s 			page 19


 881      00000000 
 882 0018 00000000 		.dword	_ZN6ThreadD0Ev
 882      00000000 
 883 0020 00000000 		.dword	_ZN6Thread3runEv
 883      00000000 
 884              		.weak	_ZTV9Semaphore
 885              		.section	.data.rel.ro.local._ZTV9Semaphore,"awG",@progbits,_ZTV9Semaphore,comdat
 886              		.align	3
 889              	_ZTV9Semaphore:
 890 0000 00000000 		.dword	0
 890      00000000 
 891 0008 00000000 		.dword	0
 891      00000000 
 892 0010 00000000 		.dword	_ZN9SemaphoreD1Ev
 892      00000000 
 893 0018 00000000 		.dword	_ZN9SemaphoreD0Ev
 893      00000000 
 894              		.weak	_ZTV14PeriodicThread
 895              		.section	.data.rel.ro.local._ZTV14PeriodicThread,"awG",@progbits,_ZTV14PeriodicThread,comdat
 896              		.align	3
 899              	_ZTV14PeriodicThread:
 900 0000 00000000 		.dword	0
 900      00000000 
 901 0008 00000000 		.dword	0
 901      00000000 
 902 0010 00000000 		.dword	_ZN14PeriodicThreadD1Ev
 902      00000000 
 903 0018 00000000 		.dword	_ZN14PeriodicThreadD0Ev
 903      00000000 
 904 0020 00000000 		.dword	_ZN14PeriodicThread3runEv
 904      00000000 
 905 0028 00000000 		.dword	_ZN14PeriodicThread18periodicActivationEv
 905      00000000 
 906              		.text
 907              	.Letext0:
 908              		.file 3 "src/../lib/hw.h"
 909              		.file 4 "src/syscall_c.h"
 3739              		.align	3
 3742              	DW.ref.__gxx_personality_v0:
 3743 0000 00000000 		.dword	__gxx_personality_v0
 3743      00000000 
 3744              		.ident	"GCC: (Ubuntu 9.4.0-1ubuntu1~20.04) 9.4.0"
 3745              		.section	.note.GNU-stack,"",@progbits
GAS LISTING /tmp/ccMoGOny.s 			page 20

