GAS LISTING /tmp/ccYzqtqz.s 			page 1


   1              		.file	"syscall_cpp.cpp"
   2              		.option pic
   3              		.option norelax
   4              		.text
   5              	.Ltext0:
   6              		.section	.text._ZN6Thread3runEv,"axG",@progbits,_ZN6Thread3runEv,comdat
   7              		.align	2
   8              		.weak	_ZN6Thread3runEv
  10              	_ZN6Thread3runEv:
  11              	.LFB0:
  12              		.file 1 "src/syscall_cpp.hpp"
   1:src/syscall_cpp.hpp **** //
   2:src/syscall_cpp.hpp **** // Created by os on 6/25/26.
   3:src/syscall_cpp.hpp **** //
   4:src/syscall_cpp.hpp **** 
   5:src/syscall_cpp.hpp **** #ifndef _syscall_cpp
   6:src/syscall_cpp.hpp **** #define _syscall_cpp
   7:src/syscall_cpp.hpp **** 
   8:src/syscall_cpp.hpp **** #include "syscall_c.h"
   9:src/syscall_cpp.hpp **** 
  10:src/syscall_cpp.hpp **** void* operator new(size_t);
  11:src/syscall_cpp.hpp **** void  operator delete(void*);
  12:src/syscall_cpp.hpp **** 
  13:src/syscall_cpp.hpp **** class Thread {
  14:src/syscall_cpp.hpp **** public:
  15:src/syscall_cpp.hpp ****     Thread(void (*body)(void*), void* arg);
  16:src/syscall_cpp.hpp ****     virtual ~Thread();
  17:src/syscall_cpp.hpp ****     int start();
  18:src/syscall_cpp.hpp ****     static void dispatch();
  19:src/syscall_cpp.hpp ****     static void join(Thread* thread);
  20:src/syscall_cpp.hpp ****     static int sleep(time_t);
  21:src/syscall_cpp.hpp **** protected:
  22:src/syscall_cpp.hpp ****     Thread();
  23:src/syscall_cpp.hpp ****     virtual void run() {}
  13              		.loc 1 23 18
  14              		.cfi_startproc
  15              	.LVL0:
  16 0000 130101FF 		addi	sp,sp,-16
  17              		.cfi_def_cfa_offset 16
  18 0004 23348100 		sd	s0,8(sp)
  19              		.cfi_offset 8, -8
  20 0008 13040101 		addi	s0,sp,16
  21              		.cfi_def_cfa 8, 0
  22              		.loc 1 23 25 is_stmt 0
  23 000c 03348100 		ld	s0,8(sp)
  24              		.cfi_restore 8
  25              		.cfi_def_cfa 2, 16
  26 0010 13010101 		addi	sp,sp,16
  27              		.cfi_def_cfa_offset 0
  28 0014 67800000 		jr	ra
  29              		.cfi_endproc
  30              	.LFE0:
  32              		.section	.text._ZN14PeriodicThread18periodicActivationEv,"axG",@progbits,_ZN14PeriodicThread18peri
  33              		.align	2
  34              		.weak	_ZN14PeriodicThread18periodicActivationEv
  36              	_ZN14PeriodicThread18periodicActivationEv:
  37              	.LFB1:
GAS LISTING /tmp/ccYzqtqz.s 			page 2


  24:src/syscall_cpp.hpp **** private:
  25:src/syscall_cpp.hpp ****     thread_t myHandle;
  26:src/syscall_cpp.hpp ****     void (*body)(void*);
  27:src/syscall_cpp.hpp ****     void* arg;
  28:src/syscall_cpp.hpp ****     static void runBody(void* arg);
  29:src/syscall_cpp.hpp **** };
  30:src/syscall_cpp.hpp **** 
  31:src/syscall_cpp.hpp **** class Semaphore {
  32:src/syscall_cpp.hpp **** public:
  33:src/syscall_cpp.hpp ****     Semaphore(unsigned init = 1);
  34:src/syscall_cpp.hpp ****     virtual ~Semaphore();
  35:src/syscall_cpp.hpp ****     int wait();
  36:src/syscall_cpp.hpp ****     int signal();
  37:src/syscall_cpp.hpp **** private:
  38:src/syscall_cpp.hpp ****     sem_t myHandle;
  39:src/syscall_cpp.hpp **** };
  40:src/syscall_cpp.hpp **** 
  41:src/syscall_cpp.hpp **** class PeriodicThread : public Thread {
  42:src/syscall_cpp.hpp **** public:
  43:src/syscall_cpp.hpp ****     void terminate();
  44:src/syscall_cpp.hpp **** protected:
  45:src/syscall_cpp.hpp ****     PeriodicThread(time_t period);
  46:src/syscall_cpp.hpp ****     virtual void periodicActivation() {}
  38              		.loc 1 46 18 is_stmt 1
  39              		.cfi_startproc
  40              	.LVL1:
  41 0000 130101FF 		addi	sp,sp,-16
  42              		.cfi_def_cfa_offset 16
  43 0004 23348100 		sd	s0,8(sp)
  44              		.cfi_offset 8, -8
  45 0008 13040101 		addi	s0,sp,16
  46              		.cfi_def_cfa 8, 0
  47              		.loc 1 46 40 is_stmt 0
  48 000c 03348100 		ld	s0,8(sp)
  49              		.cfi_restore 8
  50              		.cfi_def_cfa 2, 16
  51 0010 13010101 		addi	sp,sp,16
  52              		.cfi_def_cfa_offset 0
  53 0014 67800000 		jr	ra
  54              		.cfi_endproc
  55              	.LFE1:
  57              		.text
  58              		.align	2
  59              		.globl	_ZN6ThreadD2Ev
  61              	_ZN6ThreadD2Ev:
  62              	.LFB11:
  63              		.file 2 "src/syscall_cpp.cpp"
   1:src/syscall_cpp.cpp **** //
   2:src/syscall_cpp.cpp **** // Created by os on 6/25/26.
   3:src/syscall_cpp.cpp **** //
   4:src/syscall_cpp.cpp **** #include "syscall_cpp.hpp"
   5:src/syscall_cpp.cpp **** 
   6:src/syscall_cpp.cpp **** void* operator new(size_t size) {
   7:src/syscall_cpp.cpp ****     return mem_alloc(size); }
   8:src/syscall_cpp.cpp **** void  operator delete(void* p)  {
   9:src/syscall_cpp.cpp ****     mem_free(p); }
  10:src/syscall_cpp.cpp **** 
GAS LISTING /tmp/ccYzqtqz.s 			page 3


  11:src/syscall_cpp.cpp **** Thread::Thread(void (*body)(void*), void* arg): myHandle(nullptr),
  12:src/syscall_cpp.cpp ****     body(body), arg(arg) {}
  13:src/syscall_cpp.cpp **** Thread::Thread(): myHandle(nullptr),
  14:src/syscall_cpp.cpp ****     body(nullptr), arg(nullptr) {}
  15:src/syscall_cpp.cpp **** Thread::~Thread() {}
  64              		.loc 2 15 1 is_stmt 1
  65              		.cfi_startproc
  66              	.LVL2:
  67 0000 130101FF 		addi	sp,sp,-16
  68              		.cfi_def_cfa_offset 16
  69 0004 23348100 		sd	s0,8(sp)
  70              		.cfi_offset 8, -8
  71 0008 13040101 		addi	s0,sp,16
  72              		.cfi_def_cfa 8, 0
  73              		.loc 2 15 20 is_stmt 0
  74 000c 03348100 		ld	s0,8(sp)
  75              		.cfi_restore 8
  76              		.cfi_def_cfa 2, 16
  77 0010 13010101 		addi	sp,sp,16
  78              		.cfi_def_cfa_offset 0
  79 0014 67800000 		jr	ra
  80              		.cfi_endproc
  81              	.LFE11:
  83              		.globl	_ZN6ThreadD1Ev
  84              		.set	_ZN6ThreadD1Ev,_ZN6ThreadD2Ev
  85              		.align	2
  86              		.globl	_ZN6Thread7runBodyEPv
  88              	_ZN6Thread7runBodyEPv:
  89              	.LFB14:
  16:src/syscall_cpp.cpp **** 
  17:src/syscall_cpp.cpp **** void Thread::runBody(void* arg) {
  90              		.loc 2 17 33 is_stmt 1
  91              		.cfi_startproc
  92              	.LVL3:
  93 0018 130101FF 		addi	sp,sp,-16
  94              		.cfi_def_cfa_offset 16
  95 001c 23341100 		sd	ra,8(sp)
  96 0020 23308100 		sd	s0,0(sp)
  97              		.cfi_offset 1, -8
  98              		.cfi_offset 8, -16
  99 0024 13040101 		addi	s0,sp,16
 100              		.cfi_def_cfa 8, 0
  18:src/syscall_cpp.cpp ****     ((Thread*)arg)->run();
 101              		.loc 2 18 5
 102              		.loc 2 18 25 is_stmt 0
 103 0028 83370500 		ld	a5,0(a0)
 104 002c 83B70701 		ld	a5,16(a5)
 105              		.loc 2 18 24
 106 0030 E7800700 		jalr	a5
 107              	.LVL4:
  19:src/syscall_cpp.cpp **** }
 108              		.loc 2 19 1
 109 0034 83308100 		ld	ra,8(sp)
 110              		.cfi_restore 1
 111 0038 03340100 		ld	s0,0(sp)
 112              		.cfi_restore 8
 113              		.cfi_def_cfa 2, 16
GAS LISTING /tmp/ccYzqtqz.s 			page 4


 114 003c 13010101 		addi	sp,sp,16
 115              		.cfi_def_cfa_offset 0
 116 0040 67800000 		jr	ra
 117              		.cfi_endproc
 118              	.LFE14:
 120              		.section	.text._ZN14PeriodicThreadD2Ev,"axG",@progbits,_ZN14PeriodicThreadD5Ev,comdat
 121              		.align	2
 122              		.weak	_ZN14PeriodicThreadD2Ev
 124              	_ZN14PeriodicThreadD2Ev:
 125              	.LFB36:
  41:src/syscall_cpp.hpp **** public:
 126              		.loc 1 41 7 is_stmt 1
 127              		.cfi_startproc
 128              	.LVL5:
 129 0000 130101FF 		addi	sp,sp,-16
 130              		.cfi_def_cfa_offset 16
 131 0004 23348100 		sd	s0,8(sp)
 132              		.cfi_offset 8, -8
 133 0008 13040101 		addi	s0,sp,16
 134              		.cfi_def_cfa 8, 0
 135              	.LBB5:
  41:src/syscall_cpp.hpp **** public:
 136              		.loc 1 41 7 is_stmt 0
 137 000c 97070000 		lla	a5,_ZTV14PeriodicThread+16
 137      93870700 
 138 0014 2330F500 		sd	a5,0(a0)
 139              	.LBE5:
 140 0018 03348100 		ld	s0,8(sp)
 141              		.cfi_restore 8
 142              		.cfi_def_cfa 2, 16
 143 001c 13010101 		addi	sp,sp,16
 144              		.cfi_def_cfa_offset 0
 145 0020 67800000 		jr	ra
 146              		.cfi_endproc
 147              	.LFE36:
 149              		.weak	_ZN14PeriodicThreadD1Ev
 150              		.set	_ZN14PeriodicThreadD1Ev,_ZN14PeriodicThreadD2Ev
 151              		.text
 152              		.align	2
 153              		.globl	_ZN14PeriodicThread3runEv
 155              	_ZN14PeriodicThread3runEv:
 156              	.LFB31:
  20:src/syscall_cpp.cpp **** 
  21:src/syscall_cpp.cpp **** int Thread::start() {
  22:src/syscall_cpp.cpp ****     void (*fn)(void*) = body ? body : runBody;
  23:src/syscall_cpp.cpp ****     void* fnArg       = body ? arg  : this;
  24:src/syscall_cpp.cpp ****     return thread_create(&myHandle, fn, fnArg);
  25:src/syscall_cpp.cpp **** }
  26:src/syscall_cpp.cpp **** 
  27:src/syscall_cpp.cpp **** void Thread::dispatch() {
  28:src/syscall_cpp.cpp ****     thread_dispatch();
  29:src/syscall_cpp.cpp **** }
  30:src/syscall_cpp.cpp **** int  Thread::sleep(time_t t) {
  31:src/syscall_cpp.cpp ****     return time_sleep(t);
  32:src/syscall_cpp.cpp **** }
  33:src/syscall_cpp.cpp **** 
  34:src/syscall_cpp.cpp **** Semaphore::Semaphore(unsigned init) {
GAS LISTING /tmp/ccYzqtqz.s 			page 5


  35:src/syscall_cpp.cpp ****     sem_open(&myHandle, init);
  36:src/syscall_cpp.cpp **** }
  37:src/syscall_cpp.cpp **** Semaphore::~Semaphore() {
  38:src/syscall_cpp.cpp ****     sem_close(myHandle);
  39:src/syscall_cpp.cpp **** }
  40:src/syscall_cpp.cpp **** int Semaphore::wait() {
  41:src/syscall_cpp.cpp ****     return sem_wait(myHandle);
  42:src/syscall_cpp.cpp **** }
  43:src/syscall_cpp.cpp **** int Semaphore::signal() {
  44:src/syscall_cpp.cpp ****     return sem_signal(myHandle);
  45:src/syscall_cpp.cpp **** }
  46:src/syscall_cpp.cpp **** void Thread::join(Thread* thread) {
  47:src/syscall_cpp.cpp ****     ::join(&thread->myHandle);
  48:src/syscall_cpp.cpp **** }
  49:src/syscall_cpp.cpp **** 
  50:src/syscall_cpp.cpp **** 
  51:src/syscall_cpp.cpp **** PeriodicThread::PeriodicThread(time_t period) : Thread(), period(period) {}
  52:src/syscall_cpp.cpp **** 
  53:src/syscall_cpp.cpp **** void PeriodicThread::run() {
 157              		.loc 2 53 28 is_stmt 1
 158              		.cfi_startproc
 159              	.LVL6:
 160 0044 130101FE 		addi	sp,sp,-32
 161              		.cfi_def_cfa_offset 32
 162 0048 233C1100 		sd	ra,24(sp)
 163 004c 23388100 		sd	s0,16(sp)
 164 0050 23349100 		sd	s1,8(sp)
 165              		.cfi_offset 1, -8
 166              		.cfi_offset 8, -16
 167              		.cfi_offset 9, -24
 168 0054 13040102 		addi	s0,sp,32
 169              		.cfi_def_cfa 8, 0
 170 0058 93040500 		mv	s1,a0
 171              	.LVL7:
 172              	.L13:
  54:src/syscall_cpp.cpp ****     while (period) {
 173              		.loc 2 54 5
 174              		.loc 2 54 12
 175 005c 83B70402 		ld	a5,32(s1)
 176 0060 63820702 		beqz	a5,.L11
  55:src/syscall_cpp.cpp ****         periodicActivation();
 177              		.loc 2 55 9
 178              		.loc 2 55 28 is_stmt 0
 179 0064 83B70400 		ld	a5,0(s1)
 180 0068 83B78701 		ld	a5,24(a5)
 181              		.loc 2 55 27
 182 006c 13850400 		mv	a0,s1
 183 0070 E7800700 		jalr	a5
 184              	.LVL8:
  56:src/syscall_cpp.cpp ****         time_sleep(period);
 185              		.loc 2 56 9 is_stmt 1
 186              		.loc 2 56 19 is_stmt 0
 187 0074 03B50402 		ld	a0,32(s1)
 188 0078 97000000 		call	time_sleep@plt
 188      E7800000 
 189              	.LVL9:
  54:src/syscall_cpp.cpp ****     while (period) {
GAS LISTING /tmp/ccYzqtqz.s 			page 6


 190              		.loc 2 54 5
 191 0080 6FF0DFFD 		j	.L13
 192              	.L11:
  57:src/syscall_cpp.cpp ****     }
  58:src/syscall_cpp.cpp **** }
 193              		.loc 2 58 1
 194 0084 83308101 		ld	ra,24(sp)
 195              		.cfi_restore 1
 196 0088 03340101 		ld	s0,16(sp)
 197              		.cfi_restore 8
 198              		.cfi_def_cfa 2, 32
 199 008c 83348100 		ld	s1,8(sp)
 200              		.cfi_restore 9
 201              	.LVL10:
 202 0090 13010102 		addi	sp,sp,32
 203              		.cfi_def_cfa_offset 0
 204 0094 67800000 		jr	ra
 205              		.cfi_endproc
 206              	.LFE31:
 208              		.align	2
 209              		.globl	_ZN9SemaphoreD2Ev
 211              	_ZN9SemaphoreD2Ev:
 212              	.LFB22:
  37:src/syscall_cpp.cpp ****     sem_close(myHandle);
 213              		.loc 2 37 1 is_stmt 1
 214              		.cfi_startproc
 215              		.cfi_personality 0x9b,DW.ref.__gxx_personality_v0
 216              		.cfi_lsda 0x1b,.LLSDA22
 217              	.LVL11:
 218 0098 130101FF 		addi	sp,sp,-16
 219              		.cfi_def_cfa_offset 16
 220 009c 23341100 		sd	ra,8(sp)
 221 00a0 23308100 		sd	s0,0(sp)
 222              		.cfi_offset 1, -8
 223              		.cfi_offset 8, -16
 224 00a4 13040101 		addi	s0,sp,16
 225              		.cfi_def_cfa 8, 0
 226              	.LBB6:
  37:src/syscall_cpp.cpp ****     sem_close(myHandle);
 227              		.loc 2 37 23 is_stmt 0
 228 00a8 97070000 		lla	a5,_ZTV9Semaphore+16
 228      93870700 
 229 00b0 2330F500 		sd	a5,0(a0)
  38:src/syscall_cpp.cpp **** }
 230              		.loc 2 38 5 is_stmt 1
  38:src/syscall_cpp.cpp **** }
 231              		.loc 2 38 14 is_stmt 0
 232 00b4 03358500 		ld	a0,8(a0)
 233              	.LVL12:
 234 00b8 97000000 		call	sem_close@plt
 234      E7800000 
 235              	.LVL13:
 236              	.LBE6:
  39:src/syscall_cpp.cpp **** int Semaphore::wait() {
 237              		.loc 2 39 1
 238 00c0 83308100 		ld	ra,8(sp)
 239              		.cfi_restore 1
GAS LISTING /tmp/ccYzqtqz.s 			page 7


 240 00c4 03340100 		ld	s0,0(sp)
 241              		.cfi_restore 8
 242              		.cfi_def_cfa 2, 16
 243 00c8 13010101 		addi	sp,sp,16
 244              		.cfi_def_cfa_offset 0
 245 00cc 67800000 		jr	ra
 246              		.cfi_endproc
 247              	.LFE22:
 248              		.globl	__gxx_personality_v0
 249              		.section	.gcc_except_table,"a",@progbits
 250              	.LLSDA22:
 251 0000 FF       		.byte	0xff
 252 0001 FF       		.byte	0xff
 253 0002 03       		.byte	0x3
 254 0003 00       		.byte	0
 255              		.text
 257              		.globl	_ZN9SemaphoreD1Ev
 258              		.set	_ZN9SemaphoreD1Ev,_ZN9SemaphoreD2Ev
 259              		.align	2
 260              		.globl	_Znwm
 262              	_Znwm:
 263              	.LFB2:
   6:src/syscall_cpp.cpp ****     return mem_alloc(size); }
 264              		.loc 2 6 33 is_stmt 1
 265              		.cfi_startproc
 266              	.LVL14:
 267 00d0 130101FF 		addi	sp,sp,-16
 268              		.cfi_def_cfa_offset 16
 269 00d4 23341100 		sd	ra,8(sp)
 270 00d8 23308100 		sd	s0,0(sp)
 271              		.cfi_offset 1, -8
 272              		.cfi_offset 8, -16
 273 00dc 13040101 		addi	s0,sp,16
 274              		.cfi_def_cfa 8, 0
   7:src/syscall_cpp.cpp **** void  operator delete(void* p)  {
 275              		.loc 2 7 5
   7:src/syscall_cpp.cpp **** void  operator delete(void* p)  {
 276              		.loc 2 7 21 is_stmt 0
 277 00e0 97000000 		call	mem_alloc@plt
 277      E7800000 
 278              	.LVL15:
   7:src/syscall_cpp.cpp **** void  operator delete(void* p)  {
 279              		.loc 2 7 29
 280 00e8 83308100 		ld	ra,8(sp)
 281              		.cfi_restore 1
 282 00ec 03340100 		ld	s0,0(sp)
 283              		.cfi_restore 8
 284              		.cfi_def_cfa 2, 16
 285 00f0 13010101 		addi	sp,sp,16
 286              		.cfi_def_cfa_offset 0
 287 00f4 67800000 		jr	ra
 288              		.cfi_endproc
 289              	.LFE2:
 291              		.align	2
 292              		.globl	_ZdlPv
 294              	_ZdlPv:
 295              	.LFB3:
GAS LISTING /tmp/ccYzqtqz.s 			page 8


   8:src/syscall_cpp.cpp ****     mem_free(p); }
 296              		.loc 2 8 33 is_stmt 1
 297              		.cfi_startproc
 298              	.LVL16:
 299 00f8 130101FF 		addi	sp,sp,-16
 300              		.cfi_def_cfa_offset 16
 301 00fc 23341100 		sd	ra,8(sp)
 302 0100 23308100 		sd	s0,0(sp)
 303              		.cfi_offset 1, -8
 304              		.cfi_offset 8, -16
 305 0104 13040101 		addi	s0,sp,16
 306              		.cfi_def_cfa 8, 0
   9:src/syscall_cpp.cpp **** 
 307              		.loc 2 9 5
   9:src/syscall_cpp.cpp **** 
 308              		.loc 2 9 13 is_stmt 0
 309 0108 97000000 		call	mem_free@plt
 309      E7800000 
 310              	.LVL17:
   9:src/syscall_cpp.cpp **** 
 311              		.loc 2 9 18
 312 0110 83308100 		ld	ra,8(sp)
 313              		.cfi_restore 1
 314 0114 03340100 		ld	s0,0(sp)
 315              		.cfi_restore 8
 316              		.cfi_def_cfa 2, 16
 317 0118 13010101 		addi	sp,sp,16
 318              		.cfi_def_cfa_offset 0
 319 011c 67800000 		jr	ra
 320              		.cfi_endproc
 321              	.LFE3:
 323              		.align	2
 324              		.globl	_ZN6ThreadD0Ev
 326              	_ZN6ThreadD0Ev:
 327              	.LFB13:
  15:src/syscall_cpp.cpp **** 
 328              		.loc 2 15 1 is_stmt 1
 329              		.cfi_startproc
 330              	.LVL18:
 331 0120 130101FF 		addi	sp,sp,-16
 332              		.cfi_def_cfa_offset 16
 333 0124 23341100 		sd	ra,8(sp)
 334 0128 23308100 		sd	s0,0(sp)
 335              		.cfi_offset 1, -8
 336              		.cfi_offset 8, -16
 337 012c 13040101 		addi	s0,sp,16
 338              		.cfi_def_cfa 8, 0
  15:src/syscall_cpp.cpp **** 
 339              		.loc 2 15 20 is_stmt 0
 340 0130 97000000 		call	_ZdlPv
 340      E7800000 
 341              	.LVL19:
 342 0138 83308100 		ld	ra,8(sp)
 343              		.cfi_restore 1
 344 013c 03340100 		ld	s0,0(sp)
 345              		.cfi_restore 8
 346              		.cfi_def_cfa 2, 16
GAS LISTING /tmp/ccYzqtqz.s 			page 9


 347 0140 13010101 		addi	sp,sp,16
 348              		.cfi_def_cfa_offset 0
 349 0144 67800000 		jr	ra
 350              		.cfi_endproc
 351              	.LFE13:
 353              		.align	2
 354              		.globl	_ZN9SemaphoreD0Ev
 356              	_ZN9SemaphoreD0Ev:
 357              	.LFB24:
  37:src/syscall_cpp.cpp ****     sem_close(myHandle);
 358              		.loc 2 37 1 is_stmt 1
 359              		.cfi_startproc
 360              	.LVL20:
 361 0148 130101FE 		addi	sp,sp,-32
 362              		.cfi_def_cfa_offset 32
 363 014c 233C1100 		sd	ra,24(sp)
 364 0150 23388100 		sd	s0,16(sp)
 365 0154 23349100 		sd	s1,8(sp)
 366              		.cfi_offset 1, -8
 367              		.cfi_offset 8, -16
 368              		.cfi_offset 9, -24
 369 0158 13040102 		addi	s0,sp,32
 370              		.cfi_def_cfa 8, 0
 371 015c 93040500 		mv	s1,a0
  39:src/syscall_cpp.cpp **** int Semaphore::wait() {
 372              		.loc 2 39 1 is_stmt 0
 373 0160 97000000 		call	_ZN9SemaphoreD1Ev
 373      E7800000 
 374              	.LVL21:
 375 0168 13850400 		mv	a0,s1
 376 016c 97000000 		call	_ZdlPv
 376      E7800000 
 377              	.LVL22:
 378 0174 83308101 		ld	ra,24(sp)
 379              		.cfi_restore 1
 380 0178 03340101 		ld	s0,16(sp)
 381              		.cfi_restore 8
 382              		.cfi_def_cfa 2, 32
 383 017c 83348100 		ld	s1,8(sp)
 384              		.cfi_restore 9
 385              	.LVL23:
 386 0180 13010102 		addi	sp,sp,32
 387              		.cfi_def_cfa_offset 0
 388 0184 67800000 		jr	ra
 389              		.cfi_endproc
 390              	.LFE24:
 392              		.section	.text._ZN14PeriodicThreadD0Ev,"axG",@progbits,_ZN14PeriodicThreadD5Ev,comdat
 393              		.align	2
 394              		.weak	_ZN14PeriodicThreadD0Ev
 396              	_ZN14PeriodicThreadD0Ev:
 397              	.LFB38:
  41:src/syscall_cpp.hpp **** public:
 398              		.loc 1 41 7 is_stmt 1
 399              		.cfi_startproc
 400              	.LVL24:
 401 0000 130101FF 		addi	sp,sp,-16
 402              		.cfi_def_cfa_offset 16
GAS LISTING /tmp/ccYzqtqz.s 			page 10


 403 0004 23341100 		sd	ra,8(sp)
 404 0008 23308100 		sd	s0,0(sp)
 405              		.cfi_offset 1, -8
 406              		.cfi_offset 8, -16
 407 000c 13040101 		addi	s0,sp,16
 408              		.cfi_def_cfa 8, 0
 409              	.LVL25:
 410              	.LBB7:
 411              	.LBB8:
  41:src/syscall_cpp.hpp **** public:
 412              		.loc 1 41 7 is_stmt 0
 413 0010 97070000 		lla	a5,_ZTV14PeriodicThread+16
 413      93870700 
 414 0018 2330F500 		sd	a5,0(a0)
 415              	.LVL26:
 416              	.LBE8:
 417              	.LBE7:
 418 001c 97000000 		call	_ZdlPv
 418      E7800000 
 419              	.LVL27:
 420 0024 83308100 		ld	ra,8(sp)
 421              		.cfi_restore 1
 422 0028 03340100 		ld	s0,0(sp)
 423              		.cfi_restore 8
 424              		.cfi_def_cfa 2, 16
 425 002c 13010101 		addi	sp,sp,16
 426              		.cfi_def_cfa_offset 0
 427 0030 67800000 		jr	ra
 428              		.cfi_endproc
 429              	.LFE38:
 431              		.text
 432              		.align	2
 433              		.globl	_ZN6ThreadC2EPFvPvES0_
 435              	_ZN6ThreadC2EPFvPvES0_:
 436              	.LFB5:
  11:src/syscall_cpp.cpp ****     body(body), arg(arg) {}
 437              		.loc 2 11 1 is_stmt 1
 438              		.cfi_startproc
 439              	.LVL28:
 440 0188 130101FF 		addi	sp,sp,-16
 441              		.cfi_def_cfa_offset 16
 442 018c 23348100 		sd	s0,8(sp)
 443              		.cfi_offset 8, -8
 444 0190 13040101 		addi	s0,sp,16
 445              		.cfi_def_cfa 8, 0
 446              	.LBB9:
  12:src/syscall_cpp.cpp **** Thread::Thread(): myHandle(nullptr),
 447              		.loc 2 12 24 is_stmt 0
 448 0194 97070000 		lla	a5,_ZTV6Thread+16
 448      93870700 
 449 019c 2330F500 		sd	a5,0(a0)
 450 01a0 23340500 		sd	zero,8(a0)
 451 01a4 2338B500 		sd	a1,16(a0)
 452 01a8 233CC500 		sd	a2,24(a0)
 453              	.LBE9:
  12:src/syscall_cpp.cpp **** Thread::Thread(): myHandle(nullptr),
 454              		.loc 2 12 27
GAS LISTING /tmp/ccYzqtqz.s 			page 11


 455 01ac 03348100 		ld	s0,8(sp)
 456              		.cfi_restore 8
 457              		.cfi_def_cfa 2, 16
 458 01b0 13010101 		addi	sp,sp,16
 459              		.cfi_def_cfa_offset 0
 460 01b4 67800000 		jr	ra
 461              		.cfi_endproc
 462              	.LFE5:
 464              		.globl	_ZN6ThreadC1EPFvPvES0_
 465              		.set	_ZN6ThreadC1EPFvPvES0_,_ZN6ThreadC2EPFvPvES0_
 466              		.align	2
 467              		.globl	_ZN6ThreadC2Ev
 469              	_ZN6ThreadC2Ev:
 470              	.LFB8:
  13:src/syscall_cpp.cpp ****     body(nullptr), arg(nullptr) {}
 471              		.loc 2 13 1 is_stmt 1
 472              		.cfi_startproc
 473              	.LVL29:
 474 01b8 130101FF 		addi	sp,sp,-16
 475              		.cfi_def_cfa_offset 16
 476 01bc 23348100 		sd	s0,8(sp)
 477              		.cfi_offset 8, -8
 478 01c0 13040101 		addi	s0,sp,16
 479              		.cfi_def_cfa 8, 0
 480              	.LBB10:
  14:src/syscall_cpp.cpp **** Thread::~Thread() {}
 481              		.loc 2 14 31 is_stmt 0
 482 01c4 97070000 		lla	a5,_ZTV6Thread+16
 482      93870700 
 483 01cc 2330F500 		sd	a5,0(a0)
 484 01d0 23340500 		sd	zero,8(a0)
 485 01d4 23380500 		sd	zero,16(a0)
 486 01d8 233C0500 		sd	zero,24(a0)
 487              	.LBE10:
  14:src/syscall_cpp.cpp **** Thread::~Thread() {}
 488              		.loc 2 14 34
 489 01dc 03348100 		ld	s0,8(sp)
 490              		.cfi_restore 8
 491              		.cfi_def_cfa 2, 16
 492 01e0 13010101 		addi	sp,sp,16
 493              		.cfi_def_cfa_offset 0
 494 01e4 67800000 		jr	ra
 495              		.cfi_endproc
 496              	.LFE8:
 498              		.globl	_ZN6ThreadC1Ev
 499              		.set	_ZN6ThreadC1Ev,_ZN6ThreadC2Ev
 500              		.align	2
 501              		.globl	_ZN6Thread5startEv
 503              	_ZN6Thread5startEv:
 504              	.LFB15:
  21:src/syscall_cpp.cpp ****     void (*fn)(void*) = body ? body : runBody;
 505              		.loc 2 21 21 is_stmt 1
 506              		.cfi_startproc
 507              	.LVL30:
 508 01e8 130101FF 		addi	sp,sp,-16
 509              		.cfi_def_cfa_offset 16
 510 01ec 23341100 		sd	ra,8(sp)
GAS LISTING /tmp/ccYzqtqz.s 			page 12


 511 01f0 23308100 		sd	s0,0(sp)
 512              		.cfi_offset 1, -8
 513              		.cfi_offset 8, -16
 514 01f4 13040101 		addi	s0,sp,16
 515              		.cfi_def_cfa 8, 0
  22:src/syscall_cpp.cpp ****     void* fnArg       = body ? arg  : this;
 516              		.loc 2 22 5
  22:src/syscall_cpp.cpp ****     void* fnArg       = body ? arg  : this;
 517              		.loc 2 22 25 is_stmt 0
 518 01f8 83370501 		ld	a5,16(a0)
  22:src/syscall_cpp.cpp ****     void* fnArg       = body ? arg  : this;
 519              		.loc 2 22 30
 520 01fc 63860702 		beqz	a5,.L37
 521 0200 93850700 		mv	a1,a5
 522              	.L32:
 523              	.LVL31:
  23:src/syscall_cpp.cpp ****     return thread_create(&myHandle, fn, fnArg);
 524              		.loc 2 23 5 is_stmt 1 discriminator 4
  23:src/syscall_cpp.cpp ****     return thread_create(&myHandle, fn, fnArg);
 525              		.loc 2 23 30 is_stmt 0 discriminator 4
 526 0204 63880702 		beqz	a5,.L35
  23:src/syscall_cpp.cpp ****     return thread_create(&myHandle, fn, fnArg);
 527              		.loc 2 23 30 discriminator 1
 528 0208 03368501 		ld	a2,24(a0)
 529              	.L33:
 530              	.LVL32:
  24:src/syscall_cpp.cpp **** }
 531              		.loc 2 24 5 is_stmt 1 discriminator 4
  24:src/syscall_cpp.cpp **** }
 532              		.loc 2 24 25 is_stmt 0 discriminator 4
 533 020c 13058500 		addi	a0,a0,8
 534              	.LVL33:
 535 0210 97000000 		call	thread_create@plt
 535      E7800000 
 536              	.LVL34:
  25:src/syscall_cpp.cpp **** 
 537              		.loc 2 25 1 discriminator 4
 538 0218 83308100 		ld	ra,8(sp)
 539              		.cfi_remember_state
 540              		.cfi_restore 1
 541 021c 03340100 		ld	s0,0(sp)
 542              		.cfi_restore 8
 543              		.cfi_def_cfa 2, 16
 544 0220 13010101 		addi	sp,sp,16
 545              		.cfi_def_cfa_offset 0
 546 0224 67800000 		jr	ra
 547              	.LVL35:
 548              	.L37:
 549              		.cfi_restore_state
  22:src/syscall_cpp.cpp ****     void* fnArg       = body ? arg  : this;
 550              		.loc 2 22 30
 551 0228 97050000 		lla	a1,_ZN6Thread7runBodyEPv
 551      93850500 
 552 0230 6FF05FFD 		j	.L32
 553              	.LVL36:
 554              	.L35:
  23:src/syscall_cpp.cpp ****     return thread_create(&myHandle, fn, fnArg);
GAS LISTING /tmp/ccYzqtqz.s 			page 13


 555              		.loc 2 23 30
 556 0234 13060500 		mv	a2,a0
 557 0238 6FF05FFD 		j	.L33
 558              		.cfi_endproc
 559              	.LFE15:
 561              		.align	2
 562              		.globl	_ZN6Thread8dispatchEv
 564              	_ZN6Thread8dispatchEv:
 565              	.LFB16:
  27:src/syscall_cpp.cpp ****     thread_dispatch();
 566              		.loc 2 27 25 is_stmt 1
 567              		.cfi_startproc
 568 023c 130101FF 		addi	sp,sp,-16
 569              		.cfi_def_cfa_offset 16
 570 0240 23341100 		sd	ra,8(sp)
 571 0244 23308100 		sd	s0,0(sp)
 572              		.cfi_offset 1, -8
 573              		.cfi_offset 8, -16
 574 0248 13040101 		addi	s0,sp,16
 575              		.cfi_def_cfa 8, 0
  28:src/syscall_cpp.cpp **** }
 576              		.loc 2 28 5
  28:src/syscall_cpp.cpp **** }
 577              		.loc 2 28 20 is_stmt 0
 578 024c 97000000 		call	thread_dispatch@plt
 578      E7800000 
 579              	.LVL37:
  29:src/syscall_cpp.cpp **** int  Thread::sleep(time_t t) {
 580              		.loc 2 29 1
 581 0254 83308100 		ld	ra,8(sp)
 582              		.cfi_restore 1
 583 0258 03340100 		ld	s0,0(sp)
 584              		.cfi_restore 8
 585              		.cfi_def_cfa 2, 16
 586 025c 13010101 		addi	sp,sp,16
 587              		.cfi_def_cfa_offset 0
 588 0260 67800000 		jr	ra
 589              		.cfi_endproc
 590              	.LFE16:
 592              		.align	2
 593              		.globl	_ZN6Thread5sleepEm
 595              	_ZN6Thread5sleepEm:
 596              	.LFB17:
  30:src/syscall_cpp.cpp ****     return time_sleep(t);
 597              		.loc 2 30 30 is_stmt 1
 598              		.cfi_startproc
 599              	.LVL38:
 600 0264 130101FF 		addi	sp,sp,-16
 601              		.cfi_def_cfa_offset 16
 602 0268 23341100 		sd	ra,8(sp)
 603 026c 23308100 		sd	s0,0(sp)
 604              		.cfi_offset 1, -8
 605              		.cfi_offset 8, -16
 606 0270 13040101 		addi	s0,sp,16
 607              		.cfi_def_cfa 8, 0
  31:src/syscall_cpp.cpp **** }
 608              		.loc 2 31 5
GAS LISTING /tmp/ccYzqtqz.s 			page 14


  31:src/syscall_cpp.cpp **** }
 609              		.loc 2 31 22 is_stmt 0
 610 0274 97000000 		call	time_sleep@plt
 610      E7800000 
 611              	.LVL39:
  32:src/syscall_cpp.cpp **** 
 612              		.loc 2 32 1
 613 027c 83308100 		ld	ra,8(sp)
 614              		.cfi_restore 1
 615 0280 03340100 		ld	s0,0(sp)
 616              		.cfi_restore 8
 617              		.cfi_def_cfa 2, 16
 618 0284 13010101 		addi	sp,sp,16
 619              		.cfi_def_cfa_offset 0
 620 0288 67800000 		jr	ra
 621              		.cfi_endproc
 622              	.LFE17:
 624              		.align	2
 625              		.globl	_ZN9SemaphoreC2Ej
 627              	_ZN9SemaphoreC2Ej:
 628              	.LFB19:
  34:src/syscall_cpp.cpp ****     sem_open(&myHandle, init);
 629              		.loc 2 34 1 is_stmt 1
 630              		.cfi_startproc
 631              	.LVL40:
 632 028c 130101FF 		addi	sp,sp,-16
 633              		.cfi_def_cfa_offset 16
 634 0290 23341100 		sd	ra,8(sp)
 635 0294 23308100 		sd	s0,0(sp)
 636              		.cfi_offset 1, -8
 637              		.cfi_offset 8, -16
 638 0298 13040101 		addi	s0,sp,16
 639              		.cfi_def_cfa 8, 0
 640              	.LBB11:
  34:src/syscall_cpp.cpp ****     sem_open(&myHandle, init);
 641              		.loc 2 34 35 is_stmt 0
 642 029c 97070000 		lla	a5,_ZTV9Semaphore+16
 642      93870700 
 643 02a4 2330F500 		sd	a5,0(a0)
  35:src/syscall_cpp.cpp **** }
 644              		.loc 2 35 5 is_stmt 1
  35:src/syscall_cpp.cpp **** }
 645              		.loc 2 35 13 is_stmt 0
 646 02a8 13058500 		addi	a0,a0,8
 647              	.LVL41:
 648 02ac 97000000 		call	sem_open@plt
 648      E7800000 
 649              	.LVL42:
 650              	.LBE11:
  36:src/syscall_cpp.cpp **** Semaphore::~Semaphore() {
 651              		.loc 2 36 1
 652 02b4 83308100 		ld	ra,8(sp)
 653              		.cfi_restore 1
 654 02b8 03340100 		ld	s0,0(sp)
 655              		.cfi_restore 8
 656              		.cfi_def_cfa 2, 16
 657 02bc 13010101 		addi	sp,sp,16
GAS LISTING /tmp/ccYzqtqz.s 			page 15


 658              		.cfi_def_cfa_offset 0
 659 02c0 67800000 		jr	ra
 660              		.cfi_endproc
 661              	.LFE19:
 663              		.globl	_ZN9SemaphoreC1Ej
 664              		.set	_ZN9SemaphoreC1Ej,_ZN9SemaphoreC2Ej
 665              		.align	2
 666              		.globl	_ZN9Semaphore4waitEv
 668              	_ZN9Semaphore4waitEv:
 669              	.LFB25:
  40:src/syscall_cpp.cpp ****     return sem_wait(myHandle);
 670              		.loc 2 40 23 is_stmt 1
 671              		.cfi_startproc
 672              	.LVL43:
 673 02c4 130101FF 		addi	sp,sp,-16
 674              		.cfi_def_cfa_offset 16
 675 02c8 23341100 		sd	ra,8(sp)
 676 02cc 23308100 		sd	s0,0(sp)
 677              		.cfi_offset 1, -8
 678              		.cfi_offset 8, -16
 679 02d0 13040101 		addi	s0,sp,16
 680              		.cfi_def_cfa 8, 0
  41:src/syscall_cpp.cpp **** }
 681              		.loc 2 41 5
  41:src/syscall_cpp.cpp **** }
 682              		.loc 2 41 20 is_stmt 0
 683 02d4 03358500 		ld	a0,8(a0)
 684              	.LVL44:
 685 02d8 97000000 		call	sem_wait@plt
 685      E7800000 
 686              	.LVL45:
  42:src/syscall_cpp.cpp **** int Semaphore::signal() {
 687              		.loc 2 42 1
 688 02e0 83308100 		ld	ra,8(sp)
 689              		.cfi_restore 1
 690 02e4 03340100 		ld	s0,0(sp)
 691              		.cfi_restore 8
 692              		.cfi_def_cfa 2, 16
 693 02e8 13010101 		addi	sp,sp,16
 694              		.cfi_def_cfa_offset 0
 695 02ec 67800000 		jr	ra
 696              		.cfi_endproc
 697              	.LFE25:
 699              		.align	2
 700              		.globl	_ZN9Semaphore6signalEv
 702              	_ZN9Semaphore6signalEv:
 703              	.LFB26:
  43:src/syscall_cpp.cpp ****     return sem_signal(myHandle);
 704              		.loc 2 43 25 is_stmt 1
 705              		.cfi_startproc
 706              	.LVL46:
 707 02f0 130101FF 		addi	sp,sp,-16
 708              		.cfi_def_cfa_offset 16
 709 02f4 23341100 		sd	ra,8(sp)
 710 02f8 23308100 		sd	s0,0(sp)
 711              		.cfi_offset 1, -8
 712              		.cfi_offset 8, -16
GAS LISTING /tmp/ccYzqtqz.s 			page 16


 713 02fc 13040101 		addi	s0,sp,16
 714              		.cfi_def_cfa 8, 0
  44:src/syscall_cpp.cpp **** }
 715              		.loc 2 44 5
  44:src/syscall_cpp.cpp **** }
 716              		.loc 2 44 22 is_stmt 0
 717 0300 03358500 		ld	a0,8(a0)
 718              	.LVL47:
 719 0304 97000000 		call	sem_signal@plt
 719      E7800000 
 720              	.LVL48:
  45:src/syscall_cpp.cpp **** void Thread::join(Thread* thread) {
 721              		.loc 2 45 1
 722 030c 83308100 		ld	ra,8(sp)
 723              		.cfi_restore 1
 724 0310 03340100 		ld	s0,0(sp)
 725              		.cfi_restore 8
 726              		.cfi_def_cfa 2, 16
 727 0314 13010101 		addi	sp,sp,16
 728              		.cfi_def_cfa_offset 0
 729 0318 67800000 		jr	ra
 730              		.cfi_endproc
 731              	.LFE26:
 733              		.align	2
 734              		.globl	_ZN6Thread4joinEPS_
 736              	_ZN6Thread4joinEPS_:
 737              	.LFB27:
  46:src/syscall_cpp.cpp ****     ::join(&thread->myHandle);
 738              		.loc 2 46 35 is_stmt 1
 739              		.cfi_startproc
 740              	.LVL49:
 741 031c 130101FF 		addi	sp,sp,-16
 742              		.cfi_def_cfa_offset 16
 743 0320 23341100 		sd	ra,8(sp)
 744 0324 23308100 		sd	s0,0(sp)
 745              		.cfi_offset 1, -8
 746              		.cfi_offset 8, -16
 747 0328 13040101 		addi	s0,sp,16
 748              		.cfi_def_cfa 8, 0
  47:src/syscall_cpp.cpp **** }
 749              		.loc 2 47 5
  47:src/syscall_cpp.cpp **** }
 750              		.loc 2 47 11 is_stmt 0
 751 032c 13058500 		addi	a0,a0,8
 752              	.LVL50:
 753 0330 97000000 		call	join@plt
 753      E7800000 
 754              	.LVL51:
  48:src/syscall_cpp.cpp **** 
 755              		.loc 2 48 1
 756 0338 83308100 		ld	ra,8(sp)
 757              		.cfi_restore 1
 758 033c 03340100 		ld	s0,0(sp)
 759              		.cfi_restore 8
 760              		.cfi_def_cfa 2, 16
 761 0340 13010101 		addi	sp,sp,16
 762              		.cfi_def_cfa_offset 0
GAS LISTING /tmp/ccYzqtqz.s 			page 17


 763 0344 67800000 		jr	ra
 764              		.cfi_endproc
 765              	.LFE27:
 767              		.align	2
 768              		.globl	_ZN14PeriodicThreadC2Em
 770              	_ZN14PeriodicThreadC2Em:
 771              	.LFB29:
  51:src/syscall_cpp.cpp **** 
 772              		.loc 2 51 1 is_stmt 1
 773              		.cfi_startproc
 774              	.LVL52:
 775 0348 130101FE 		addi	sp,sp,-32
 776              		.cfi_def_cfa_offset 32
 777 034c 233C1100 		sd	ra,24(sp)
 778 0350 23388100 		sd	s0,16(sp)
 779 0354 23349100 		sd	s1,8(sp)
 780 0358 23302101 		sd	s2,0(sp)
 781              		.cfi_offset 1, -8
 782              		.cfi_offset 8, -16
 783              		.cfi_offset 9, -24
 784              		.cfi_offset 18, -32
 785 035c 13040102 		addi	s0,sp,32
 786              		.cfi_def_cfa 8, 0
 787 0360 93040500 		mv	s1,a0
 788 0364 13890500 		mv	s2,a1
 789              	.LBB12:
  51:src/syscall_cpp.cpp **** 
 790              		.loc 2 51 72 is_stmt 0
 791 0368 97000000 		call	_ZN6ThreadC2Ev
 791      E7800000 
 792              	.LVL53:
 793 0370 97070000 		lla	a5,_ZTV14PeriodicThread+16
 793      93870700 
 794 0378 23B0F400 		sd	a5,0(s1)
 795 037c 23B02403 		sd	s2,32(s1)
 796              	.LBE12:
  51:src/syscall_cpp.cpp **** 
 797              		.loc 2 51 75
 798 0380 83308101 		ld	ra,24(sp)
 799              		.cfi_restore 1
 800 0384 03340101 		ld	s0,16(sp)
 801              		.cfi_restore 8
 802              		.cfi_def_cfa 2, 32
 803 0388 83348100 		ld	s1,8(sp)
 804              		.cfi_restore 9
 805              	.LVL54:
 806 038c 03390100 		ld	s2,0(sp)
 807              		.cfi_restore 18
 808              	.LVL55:
 809 0390 13010102 		addi	sp,sp,32
 810              		.cfi_def_cfa_offset 0
 811 0394 67800000 		jr	ra
 812              		.cfi_endproc
 813              	.LFE29:
 815              		.globl	_ZN14PeriodicThreadC1Em
 816              		.set	_ZN14PeriodicThreadC1Em,_ZN14PeriodicThreadC2Em
 817              		.align	2
GAS LISTING /tmp/ccYzqtqz.s 			page 18


 818              		.globl	_ZN14PeriodicThread9terminateEv
 820              	_ZN14PeriodicThread9terminateEv:
 821              	.LFB32:
  59:src/syscall_cpp.cpp **** 
  60:src/syscall_cpp.cpp **** void PeriodicThread::terminate() { period = 0; }
 822              		.loc 2 60 34 is_stmt 1
 823              		.cfi_startproc
 824              	.LVL56:
 825 0398 130101FF 		addi	sp,sp,-16
 826              		.cfi_def_cfa_offset 16
 827 039c 23348100 		sd	s0,8(sp)
 828              		.cfi_offset 8, -8
 829 03a0 13040101 		addi	s0,sp,16
 830              		.cfi_def_cfa 8, 0
 831              		.loc 2 60 36
 832              		.loc 2 60 43 is_stmt 0
 833 03a4 23300502 		sd	zero,32(a0)
 834              		.loc 2 60 48
 835 03a8 03348100 		ld	s0,8(sp)
 836              		.cfi_restore 8
 837              		.cfi_def_cfa 2, 16
 838 03ac 13010101 		addi	sp,sp,16
 839              		.cfi_def_cfa_offset 0
 840 03b0 67800000 		jr	ra
 841              		.cfi_endproc
 842              	.LFE32:
 844              		.align	2
 845              		.globl	_ZN7Console4getcEv
 847              	_ZN7Console4getcEv:
 848              	.LFB33:
  61:src/syscall_cpp.cpp **** 
  62:src/syscall_cpp.cpp **** char Console::getc()       { return ::getc(); }
 849              		.loc 2 62 28 is_stmt 1
 850              		.cfi_startproc
 851 03b4 130101FF 		addi	sp,sp,-16
 852              		.cfi_def_cfa_offset 16
 853 03b8 23341100 		sd	ra,8(sp)
 854 03bc 23308100 		sd	s0,0(sp)
 855              		.cfi_offset 1, -8
 856              		.cfi_offset 8, -16
 857 03c0 13040101 		addi	s0,sp,16
 858              		.cfi_def_cfa 8, 0
 859              		.loc 2 62 30
 860              		.loc 2 62 43 is_stmt 0
 861 03c4 97000000 		call	getc@plt
 861      E7800000 
 862              	.LVL57:
 863              		.loc 2 62 47
 864 03cc 83308100 		ld	ra,8(sp)
 865              		.cfi_restore 1
 866 03d0 03340100 		ld	s0,0(sp)
 867              		.cfi_restore 8
 868              		.cfi_def_cfa 2, 16
 869 03d4 13010101 		addi	sp,sp,16
 870              		.cfi_def_cfa_offset 0
 871 03d8 67800000 		jr	ra
 872              		.cfi_endproc
GAS LISTING /tmp/ccYzqtqz.s 			page 19


 873              	.LFE33:
 875              		.align	2
 876              		.globl	_ZN7Console4putcEc
 878              	_ZN7Console4putcEc:
 879              	.LFB34:
  63:src/syscall_cpp.cpp **** void Console::putc(char c) { ::putc(c); }...
 880              		.loc 2 63 28 is_stmt 1
 881              		.cfi_startproc
 882              	.LVL58:
 883 03dc 130101FF 		addi	sp,sp,-16
 884              		.cfi_def_cfa_offset 16
 885 03e0 23341100 		sd	ra,8(sp)
 886 03e4 23308100 		sd	s0,0(sp)
 887              		.cfi_offset 1, -8
 888              		.cfi_offset 8, -16
 889 03e8 13040101 		addi	s0,sp,16
 890              		.cfi_def_cfa 8, 0
 891              		.loc 2 63 30
 892              		.loc 2 63 36 is_stmt 0
 893 03ec 97000000 		call	putc@plt
 893      E7800000 
 894              	.LVL59:
 895              		.loc 2 63 41
 896 03f4 83308100 		ld	ra,8(sp)
 897              		.cfi_restore 1
 898 03f8 03340100 		ld	s0,0(sp)
 899              		.cfi_restore 8
 900              		.cfi_def_cfa 2, 16
 901 03fc 13010101 		addi	sp,sp,16
 902              		.cfi_def_cfa_offset 0
 903 0400 67800000 		jr	ra
 904              		.cfi_endproc
 905              	.LFE34:
 907              		.weak	_ZTV6Thread
 908              		.section	.data.rel.ro.local._ZTV6Thread,"awG",@progbits,_ZTV6Thread,comdat
 909              		.align	3
 912              	_ZTV6Thread:
 913 0000 00000000 		.dword	0
 913      00000000 
 914 0008 00000000 		.dword	0
 914      00000000 
 915 0010 00000000 		.dword	_ZN6ThreadD1Ev
 915      00000000 
 916 0018 00000000 		.dword	_ZN6ThreadD0Ev
 916      00000000 
 917 0020 00000000 		.dword	_ZN6Thread3runEv
 917      00000000 
 918              		.weak	_ZTV9Semaphore
 919              		.section	.data.rel.ro.local._ZTV9Semaphore,"awG",@progbits,_ZTV9Semaphore,comdat
 920              		.align	3
 923              	_ZTV9Semaphore:
 924 0000 00000000 		.dword	0
 924      00000000 
 925 0008 00000000 		.dword	0
 925      00000000 
 926 0010 00000000 		.dword	_ZN9SemaphoreD1Ev
 926      00000000 
GAS LISTING /tmp/ccYzqtqz.s 			page 20


 927 0018 00000000 		.dword	_ZN9SemaphoreD0Ev
 927      00000000 
 928              		.weak	_ZTV14PeriodicThread
 929              		.section	.data.rel.ro.local._ZTV14PeriodicThread,"awG",@progbits,_ZTV14PeriodicThread,comdat
 930              		.align	3
 933              	_ZTV14PeriodicThread:
 934 0000 00000000 		.dword	0
 934      00000000 
 935 0008 00000000 		.dword	0
 935      00000000 
 936 0010 00000000 		.dword	_ZN14PeriodicThreadD1Ev
 936      00000000 
 937 0018 00000000 		.dword	_ZN14PeriodicThreadD0Ev
 937      00000000 
 938 0020 00000000 		.dword	_ZN14PeriodicThread3runEv
 938      00000000 
 939 0028 00000000 		.dword	_ZN14PeriodicThread18periodicActivationEv
 939      00000000 
 940              		.text
 941              	.Letext0:
 942              		.file 3 "src/../lib/hw.h"
 943              		.file 4 "src/syscall_c.h"
 3867              		.align	3
 3870              	DW.ref.__gxx_personality_v0:
 3871 0000 00000000 		.dword	__gxx_personality_v0
 3871      00000000 
 3872              		.ident	"GCC: (Ubuntu 9.4.0-1ubuntu1~20.04) 9.4.0"
 3873              		.section	.note.GNU-stack,"",@progbits
GAS LISTING /tmp/ccYzqtqz.s 			page 21


DEFINED SYMBOLS
                            *ABS*:0000000000000000 syscall_cpp.cpp
     /tmp/ccYzqtqz.s:10     .text._ZN6Thread3runEv:0000000000000000 _ZN6Thread3runEv
     /tmp/ccYzqtqz.s:14     .text._ZN6Thread3runEv:0000000000000000 .L0 
     /tmp/ccYzqtqz.s:16     .text._ZN6Thread3runEv:0000000000000000 .L0 
     /tmp/ccYzqtqz.s:17     .text._ZN6Thread3runEv:0000000000000004 .L0 
     /tmp/ccYzqtqz.s:19     .text._ZN6Thread3runEv:0000000000000008 .L0 
     /tmp/ccYzqtqz.s:21     .text._ZN6Thread3runEv:000000000000000c .L0 
     /tmp/ccYzqtqz.s:23     .text._ZN6Thread3runEv:000000000000000c .L0 
     /tmp/ccYzqtqz.s:24     .text._ZN6Thread3runEv:0000000000000010 .L0 
     /tmp/ccYzqtqz.s:25     .text._ZN6Thread3runEv:0000000000000010 .L0 
     /tmp/ccYzqtqz.s:27     .text._ZN6Thread3runEv:0000000000000014 .L0 
     /tmp/ccYzqtqz.s:29     .text._ZN6Thread3runEv:0000000000000018 .L0 
     /tmp/ccYzqtqz.s:36     .text._ZN14PeriodicThread18periodicActivationEv:0000000000000000 _ZN14PeriodicThread18periodicActivationEv
     /tmp/ccYzqtqz.s:39     .text._ZN14PeriodicThread18periodicActivationEv:0000000000000000 .L0 
     /tmp/ccYzqtqz.s:41     .text._ZN14PeriodicThread18periodicActivationEv:0000000000000000 .L0 
     /tmp/ccYzqtqz.s:42     .text._ZN14PeriodicThread18periodicActivationEv:0000000000000004 .L0 
     /tmp/ccYzqtqz.s:44     .text._ZN14PeriodicThread18periodicActivationEv:0000000000000008 .L0 
     /tmp/ccYzqtqz.s:46     .text._ZN14PeriodicThread18periodicActivationEv:000000000000000c .L0 
     /tmp/ccYzqtqz.s:48     .text._ZN14PeriodicThread18periodicActivationEv:000000000000000c .L0 
     /tmp/ccYzqtqz.s:49     .text._ZN14PeriodicThread18periodicActivationEv:0000000000000010 .L0 
     /tmp/ccYzqtqz.s:50     .text._ZN14PeriodicThread18periodicActivationEv:0000000000000010 .L0 
     /tmp/ccYzqtqz.s:52     .text._ZN14PeriodicThread18periodicActivationEv:0000000000000014 .L0 
     /tmp/ccYzqtqz.s:54     .text._ZN14PeriodicThread18periodicActivationEv:0000000000000018 .L0 
     /tmp/ccYzqtqz.s:61     .text:0000000000000000 _ZN6ThreadD2Ev
     /tmp/ccYzqtqz.s:65     .text:0000000000000000 .L0 
     /tmp/ccYzqtqz.s:67     .text:0000000000000000 .L0 
     /tmp/ccYzqtqz.s:68     .text:0000000000000004 .L0 
     /tmp/ccYzqtqz.s:70     .text:0000000000000008 .L0 
     /tmp/ccYzqtqz.s:72     .text:000000000000000c .L0 
     /tmp/ccYzqtqz.s:74     .text:000000000000000c .L0 
     /tmp/ccYzqtqz.s:75     .text:0000000000000010 .L0 
     /tmp/ccYzqtqz.s:76     .text:0000000000000010 .L0 
     /tmp/ccYzqtqz.s:78     .text:0000000000000014 .L0 
     /tmp/ccYzqtqz.s:80     .text:0000000000000018 .L0 
     /tmp/ccYzqtqz.s:61     .text:0000000000000000 _ZN6ThreadD1Ev
     /tmp/ccYzqtqz.s:88     .text:0000000000000018 _ZN6Thread7runBodyEPv
     /tmp/ccYzqtqz.s:91     .text:0000000000000018 .L0 
     /tmp/ccYzqtqz.s:93     .text:0000000000000018 .L0 
     /tmp/ccYzqtqz.s:94     .text:000000000000001c .L0 
     /tmp/ccYzqtqz.s:97     .text:0000000000000024 .L0 
     /tmp/ccYzqtqz.s:98     .text:0000000000000024 .L0 
     /tmp/ccYzqtqz.s:100    .text:0000000000000028 .L0 
     /tmp/ccYzqtqz.s:102    .text:0000000000000028 .L0 
     /tmp/ccYzqtqz.s:103    .text:0000000000000028 .L0 
     /tmp/ccYzqtqz.s:106    .text:0000000000000030 .L0 
     /tmp/ccYzqtqz.s:109    .text:0000000000000034 .L0 
     /tmp/ccYzqtqz.s:110    .text:0000000000000038 .L0 
     /tmp/ccYzqtqz.s:112    .text:000000000000003c .L0 
     /tmp/ccYzqtqz.s:113    .text:000000000000003c .L0 
     /tmp/ccYzqtqz.s:115    .text:0000000000000040 .L0 
     /tmp/ccYzqtqz.s:117    .text:0000000000000044 .L0 
     /tmp/ccYzqtqz.s:124    .text._ZN14PeriodicThreadD2Ev:0000000000000000 _ZN14PeriodicThreadD2Ev
     /tmp/ccYzqtqz.s:127    .text._ZN14PeriodicThreadD2Ev:0000000000000000 .L0 
     /tmp/ccYzqtqz.s:129    .text._ZN14PeriodicThreadD2Ev:0000000000000000 .L0 
     /tmp/ccYzqtqz.s:130    .text._ZN14PeriodicThreadD2Ev:0000000000000004 .L0 
     /tmp/ccYzqtqz.s:132    .text._ZN14PeriodicThreadD2Ev:0000000000000008 .L0 
GAS LISTING /tmp/ccYzqtqz.s 			page 22


     /tmp/ccYzqtqz.s:134    .text._ZN14PeriodicThreadD2Ev:000000000000000c .L0 
     /tmp/ccYzqtqz.s:933    .data.rel.ro.local._ZTV14PeriodicThread:0000000000000000 _ZTV14PeriodicThread
     /tmp/ccYzqtqz.s:137    .text._ZN14PeriodicThreadD2Ev:000000000000000c .L0 
     /tmp/ccYzqtqz.s:141    .text._ZN14PeriodicThreadD2Ev:000000000000001c .L0 
     /tmp/ccYzqtqz.s:142    .text._ZN14PeriodicThreadD2Ev:000000000000001c .L0 
     /tmp/ccYzqtqz.s:144    .text._ZN14PeriodicThreadD2Ev:0000000000000020 .L0 
     /tmp/ccYzqtqz.s:146    .text._ZN14PeriodicThreadD2Ev:0000000000000024 .L0 
     /tmp/ccYzqtqz.s:124    .text._ZN14PeriodicThreadD2Ev:0000000000000000 _ZN14PeriodicThreadD1Ev
     /tmp/ccYzqtqz.s:155    .text:0000000000000044 _ZN14PeriodicThread3runEv
     /tmp/ccYzqtqz.s:158    .text:0000000000000044 .L0 
     /tmp/ccYzqtqz.s:160    .text:0000000000000044 .L0 
     /tmp/ccYzqtqz.s:161    .text:0000000000000048 .L0 
     /tmp/ccYzqtqz.s:165    .text:0000000000000054 .L0 
     /tmp/ccYzqtqz.s:166    .text:0000000000000054 .L0 
     /tmp/ccYzqtqz.s:167    .text:0000000000000054 .L0 
     /tmp/ccYzqtqz.s:169    .text:0000000000000058 .L0 
     /tmp/ccYzqtqz.s:174    .text:000000000000005c .L0 
     /tmp/ccYzqtqz.s:175    .text:000000000000005c .L0 
     /tmp/ccYzqtqz.s:178    .text:0000000000000064 .L0 
     /tmp/ccYzqtqz.s:179    .text:0000000000000064 .L0 
     /tmp/ccYzqtqz.s:182    .text:000000000000006c .L0 
     /tmp/ccYzqtqz.s:186    .text:0000000000000074 .L0 
     /tmp/ccYzqtqz.s:187    .text:0000000000000074 .L0 
     /tmp/ccYzqtqz.s:191    .text:0000000000000080 .L0 
     /tmp/ccYzqtqz.s:194    .text:0000000000000084 .L0 
     /tmp/ccYzqtqz.s:195    .text:0000000000000088 .L0 
     /tmp/ccYzqtqz.s:197    .text:000000000000008c .L0 
     /tmp/ccYzqtqz.s:198    .text:000000000000008c .L0 
     /tmp/ccYzqtqz.s:200    .text:0000000000000090 .L0 
     /tmp/ccYzqtqz.s:203    .text:0000000000000094 .L0 
     /tmp/ccYzqtqz.s:205    .text:0000000000000098 .L0 
     /tmp/ccYzqtqz.s:211    .text:0000000000000098 _ZN9SemaphoreD2Ev
     /tmp/ccYzqtqz.s:214    .text:0000000000000098 .L0 
     /tmp/ccYzqtqz.s:3870   .data.rel.local.DW.ref.__gxx_personality_v0:0000000000000000 DW.ref.__gxx_personality_v0
     /tmp/ccYzqtqz.s:218    .text:0000000000000098 .L0 
     /tmp/ccYzqtqz.s:219    .text:000000000000009c .L0 
     /tmp/ccYzqtqz.s:222    .text:00000000000000a4 .L0 
     /tmp/ccYzqtqz.s:223    .text:00000000000000a4 .L0 
     /tmp/ccYzqtqz.s:225    .text:00000000000000a8 .L0 
     /tmp/ccYzqtqz.s:923    .data.rel.ro.local._ZTV9Semaphore:0000000000000000 _ZTV9Semaphore
     /tmp/ccYzqtqz.s:228    .text:00000000000000a8 .L0 
     /tmp/ccYzqtqz.s:231    .text:00000000000000b4 .L0 
     /tmp/ccYzqtqz.s:232    .text:00000000000000b4 .L0 
     /tmp/ccYzqtqz.s:238    .text:00000000000000c0 .L0 
     /tmp/ccYzqtqz.s:239    .text:00000000000000c4 .L0 
     /tmp/ccYzqtqz.s:241    .text:00000000000000c8 .L0 
     /tmp/ccYzqtqz.s:242    .text:00000000000000c8 .L0 
     /tmp/ccYzqtqz.s:244    .text:00000000000000cc .L0 
     /tmp/ccYzqtqz.s:246    .text:00000000000000d0 .L0 
     /tmp/ccYzqtqz.s:211    .text:0000000000000098 _ZN9SemaphoreD1Ev
     /tmp/ccYzqtqz.s:262    .text:00000000000000d0 _Znwm
     /tmp/ccYzqtqz.s:265    .text:00000000000000d0 .L0 
     /tmp/ccYzqtqz.s:267    .text:00000000000000d0 .L0 
     /tmp/ccYzqtqz.s:268    .text:00000000000000d4 .L0 
     /tmp/ccYzqtqz.s:271    .text:00000000000000dc .L0 
     /tmp/ccYzqtqz.s:272    .text:00000000000000dc .L0 
     /tmp/ccYzqtqz.s:274    .text:00000000000000e0 .L0 
GAS LISTING /tmp/ccYzqtqz.s 			page 23


     /tmp/ccYzqtqz.s:276    .text:00000000000000e0 .L0 
     /tmp/ccYzqtqz.s:277    .text:00000000000000e0 .L0 
     /tmp/ccYzqtqz.s:280    .text:00000000000000e8 .L0 
     /tmp/ccYzqtqz.s:281    .text:00000000000000ec .L0 
     /tmp/ccYzqtqz.s:283    .text:00000000000000f0 .L0 
     /tmp/ccYzqtqz.s:284    .text:00000000000000f0 .L0 
     /tmp/ccYzqtqz.s:286    .text:00000000000000f4 .L0 
     /tmp/ccYzqtqz.s:288    .text:00000000000000f8 .L0 
     /tmp/ccYzqtqz.s:294    .text:00000000000000f8 _ZdlPv
     /tmp/ccYzqtqz.s:297    .text:00000000000000f8 .L0 
     /tmp/ccYzqtqz.s:299    .text:00000000000000f8 .L0 
     /tmp/ccYzqtqz.s:300    .text:00000000000000fc .L0 
     /tmp/ccYzqtqz.s:303    .text:0000000000000104 .L0 
     /tmp/ccYzqtqz.s:304    .text:0000000000000104 .L0 
     /tmp/ccYzqtqz.s:306    .text:0000000000000108 .L0 
     /tmp/ccYzqtqz.s:308    .text:0000000000000108 .L0 
     /tmp/ccYzqtqz.s:309    .text:0000000000000108 .L0 
     /tmp/ccYzqtqz.s:312    .text:0000000000000110 .L0 
     /tmp/ccYzqtqz.s:313    .text:0000000000000114 .L0 
     /tmp/ccYzqtqz.s:315    .text:0000000000000118 .L0 
     /tmp/ccYzqtqz.s:316    .text:0000000000000118 .L0 
     /tmp/ccYzqtqz.s:318    .text:000000000000011c .L0 
     /tmp/ccYzqtqz.s:320    .text:0000000000000120 .L0 
     /tmp/ccYzqtqz.s:326    .text:0000000000000120 _ZN6ThreadD0Ev
     /tmp/ccYzqtqz.s:329    .text:0000000000000120 .L0 
     /tmp/ccYzqtqz.s:331    .text:0000000000000120 .L0 
     /tmp/ccYzqtqz.s:332    .text:0000000000000124 .L0 
     /tmp/ccYzqtqz.s:335    .text:000000000000012c .L0 
     /tmp/ccYzqtqz.s:336    .text:000000000000012c .L0 
     /tmp/ccYzqtqz.s:338    .text:0000000000000130 .L0 
     /tmp/ccYzqtqz.s:340    .text:0000000000000130 .L0 
     /tmp/ccYzqtqz.s:343    .text:000000000000013c .L0 
     /tmp/ccYzqtqz.s:345    .text:0000000000000140 .L0 
     /tmp/ccYzqtqz.s:346    .text:0000000000000140 .L0 
     /tmp/ccYzqtqz.s:348    .text:0000000000000144 .L0 
     /tmp/ccYzqtqz.s:350    .text:0000000000000148 .L0 
     /tmp/ccYzqtqz.s:356    .text:0000000000000148 _ZN9SemaphoreD0Ev
     /tmp/ccYzqtqz.s:359    .text:0000000000000148 .L0 
     /tmp/ccYzqtqz.s:361    .text:0000000000000148 .L0 
     /tmp/ccYzqtqz.s:362    .text:000000000000014c .L0 
     /tmp/ccYzqtqz.s:366    .text:0000000000000158 .L0 
     /tmp/ccYzqtqz.s:367    .text:0000000000000158 .L0 
     /tmp/ccYzqtqz.s:368    .text:0000000000000158 .L0 
     /tmp/ccYzqtqz.s:370    .text:000000000000015c .L0 
     /tmp/ccYzqtqz.s:373    .text:0000000000000160 .L0 
     /tmp/ccYzqtqz.s:379    .text:0000000000000178 .L0 
     /tmp/ccYzqtqz.s:381    .text:000000000000017c .L0 
     /tmp/ccYzqtqz.s:382    .text:000000000000017c .L0 
     /tmp/ccYzqtqz.s:384    .text:0000000000000180 .L0 
     /tmp/ccYzqtqz.s:387    .text:0000000000000184 .L0 
     /tmp/ccYzqtqz.s:389    .text:0000000000000188 .L0 
     /tmp/ccYzqtqz.s:396    .text._ZN14PeriodicThreadD0Ev:0000000000000000 _ZN14PeriodicThreadD0Ev
     /tmp/ccYzqtqz.s:399    .text._ZN14PeriodicThreadD0Ev:0000000000000000 .L0 
     /tmp/ccYzqtqz.s:401    .text._ZN14PeriodicThreadD0Ev:0000000000000000 .L0 
     /tmp/ccYzqtqz.s:402    .text._ZN14PeriodicThreadD0Ev:0000000000000004 .L0 
     /tmp/ccYzqtqz.s:405    .text._ZN14PeriodicThreadD0Ev:000000000000000c .L0 
     /tmp/ccYzqtqz.s:406    .text._ZN14PeriodicThreadD0Ev:000000000000000c .L0 
GAS LISTING /tmp/ccYzqtqz.s 			page 24


     /tmp/ccYzqtqz.s:408    .text._ZN14PeriodicThreadD0Ev:0000000000000010 .L0 
     /tmp/ccYzqtqz.s:413    .text._ZN14PeriodicThreadD0Ev:0000000000000010 .L0 
     /tmp/ccYzqtqz.s:421    .text._ZN14PeriodicThreadD0Ev:0000000000000028 .L0 
     /tmp/ccYzqtqz.s:423    .text._ZN14PeriodicThreadD0Ev:000000000000002c .L0 
     /tmp/ccYzqtqz.s:424    .text._ZN14PeriodicThreadD0Ev:000000000000002c .L0 
     /tmp/ccYzqtqz.s:426    .text._ZN14PeriodicThreadD0Ev:0000000000000030 .L0 
     /tmp/ccYzqtqz.s:428    .text._ZN14PeriodicThreadD0Ev:0000000000000034 .L0 
     /tmp/ccYzqtqz.s:435    .text:0000000000000188 _ZN6ThreadC2EPFvPvES0_
     /tmp/ccYzqtqz.s:438    .text:0000000000000188 .L0 
     /tmp/ccYzqtqz.s:440    .text:0000000000000188 .L0 
     /tmp/ccYzqtqz.s:441    .text:000000000000018c .L0 
     /tmp/ccYzqtqz.s:443    .text:0000000000000190 .L0 
     /tmp/ccYzqtqz.s:445    .text:0000000000000194 .L0 
     /tmp/ccYzqtqz.s:912    .data.rel.ro.local._ZTV6Thread:0000000000000000 _ZTV6Thread
     /tmp/ccYzqtqz.s:448    .text:0000000000000194 .L0 
     /tmp/ccYzqtqz.s:455    .text:00000000000001ac .L0 
     /tmp/ccYzqtqz.s:456    .text:00000000000001b0 .L0 
     /tmp/ccYzqtqz.s:457    .text:00000000000001b0 .L0 
     /tmp/ccYzqtqz.s:459    .text:00000000000001b4 .L0 
     /tmp/ccYzqtqz.s:461    .text:00000000000001b8 .L0 
     /tmp/ccYzqtqz.s:435    .text:0000000000000188 _ZN6ThreadC1EPFvPvES0_
     /tmp/ccYzqtqz.s:469    .text:00000000000001b8 _ZN6ThreadC2Ev
     /tmp/ccYzqtqz.s:472    .text:00000000000001b8 .L0 
     /tmp/ccYzqtqz.s:474    .text:00000000000001b8 .L0 
     /tmp/ccYzqtqz.s:475    .text:00000000000001bc .L0 
     /tmp/ccYzqtqz.s:477    .text:00000000000001c0 .L0 
     /tmp/ccYzqtqz.s:479    .text:00000000000001c4 .L0 
     /tmp/ccYzqtqz.s:482    .text:00000000000001c4 .L0 
     /tmp/ccYzqtqz.s:489    .text:00000000000001dc .L0 
     /tmp/ccYzqtqz.s:490    .text:00000000000001e0 .L0 
     /tmp/ccYzqtqz.s:491    .text:00000000000001e0 .L0 
     /tmp/ccYzqtqz.s:493    .text:00000000000001e4 .L0 
     /tmp/ccYzqtqz.s:495    .text:00000000000001e8 .L0 
     /tmp/ccYzqtqz.s:469    .text:00000000000001b8 _ZN6ThreadC1Ev
     /tmp/ccYzqtqz.s:503    .text:00000000000001e8 _ZN6Thread5startEv
     /tmp/ccYzqtqz.s:506    .text:00000000000001e8 .L0 
     /tmp/ccYzqtqz.s:508    .text:00000000000001e8 .L0 
     /tmp/ccYzqtqz.s:509    .text:00000000000001ec .L0 
     /tmp/ccYzqtqz.s:512    .text:00000000000001f4 .L0 
     /tmp/ccYzqtqz.s:513    .text:00000000000001f4 .L0 
     /tmp/ccYzqtqz.s:515    .text:00000000000001f8 .L0 
     /tmp/ccYzqtqz.s:517    .text:00000000000001f8 .L0 
     /tmp/ccYzqtqz.s:518    .text:00000000000001f8 .L0 
     /tmp/ccYzqtqz.s:520    .text:00000000000001fc .L0 
     /tmp/ccYzqtqz.s:525    .text:0000000000000204 .L0 
     /tmp/ccYzqtqz.s:526    .text:0000000000000204 .L0 
     /tmp/ccYzqtqz.s:528    .text:0000000000000208 .L0 
     /tmp/ccYzqtqz.s:532    .text:000000000000020c .L0 
     /tmp/ccYzqtqz.s:533    .text:000000000000020c .L0 
     /tmp/ccYzqtqz.s:538    .text:0000000000000218 .L0 
     /tmp/ccYzqtqz.s:539    .text:000000000000021c .L0 
     /tmp/ccYzqtqz.s:540    .text:000000000000021c .L0 
     /tmp/ccYzqtqz.s:542    .text:0000000000000220 .L0 
     /tmp/ccYzqtqz.s:543    .text:0000000000000220 .L0 
     /tmp/ccYzqtqz.s:545    .text:0000000000000224 .L0 
     /tmp/ccYzqtqz.s:549    .text:0000000000000228 .L0 
     /tmp/ccYzqtqz.s:551    .text:0000000000000228 .L0 
GAS LISTING /tmp/ccYzqtqz.s 			page 25


     /tmp/ccYzqtqz.s:556    .text:0000000000000234 .L0 
     /tmp/ccYzqtqz.s:558    .text:000000000000023c .L0 
     /tmp/ccYzqtqz.s:564    .text:000000000000023c _ZN6Thread8dispatchEv
     /tmp/ccYzqtqz.s:567    .text:000000000000023c .L0 
     /tmp/ccYzqtqz.s:568    .text:000000000000023c .L0 
     /tmp/ccYzqtqz.s:569    .text:0000000000000240 .L0 
     /tmp/ccYzqtqz.s:572    .text:0000000000000248 .L0 
     /tmp/ccYzqtqz.s:573    .text:0000000000000248 .L0 
     /tmp/ccYzqtqz.s:575    .text:000000000000024c .L0 
     /tmp/ccYzqtqz.s:577    .text:000000000000024c .L0 
     /tmp/ccYzqtqz.s:578    .text:000000000000024c .L0 
     /tmp/ccYzqtqz.s:581    .text:0000000000000254 .L0 
     /tmp/ccYzqtqz.s:582    .text:0000000000000258 .L0 
     /tmp/ccYzqtqz.s:584    .text:000000000000025c .L0 
     /tmp/ccYzqtqz.s:585    .text:000000000000025c .L0 
     /tmp/ccYzqtqz.s:587    .text:0000000000000260 .L0 
     /tmp/ccYzqtqz.s:589    .text:0000000000000264 .L0 
     /tmp/ccYzqtqz.s:595    .text:0000000000000264 _ZN6Thread5sleepEm
     /tmp/ccYzqtqz.s:598    .text:0000000000000264 .L0 
     /tmp/ccYzqtqz.s:600    .text:0000000000000264 .L0 
     /tmp/ccYzqtqz.s:601    .text:0000000000000268 .L0 
     /tmp/ccYzqtqz.s:604    .text:0000000000000270 .L0 
     /tmp/ccYzqtqz.s:605    .text:0000000000000270 .L0 
     /tmp/ccYzqtqz.s:607    .text:0000000000000274 .L0 
     /tmp/ccYzqtqz.s:609    .text:0000000000000274 .L0 
     /tmp/ccYzqtqz.s:610    .text:0000000000000274 .L0 
     /tmp/ccYzqtqz.s:613    .text:000000000000027c .L0 
     /tmp/ccYzqtqz.s:614    .text:0000000000000280 .L0 
     /tmp/ccYzqtqz.s:616    .text:0000000000000284 .L0 
     /tmp/ccYzqtqz.s:617    .text:0000000000000284 .L0 
     /tmp/ccYzqtqz.s:619    .text:0000000000000288 .L0 
     /tmp/ccYzqtqz.s:621    .text:000000000000028c .L0 
     /tmp/ccYzqtqz.s:627    .text:000000000000028c _ZN9SemaphoreC2Ej
     /tmp/ccYzqtqz.s:630    .text:000000000000028c .L0 
     /tmp/ccYzqtqz.s:632    .text:000000000000028c .L0 
     /tmp/ccYzqtqz.s:633    .text:0000000000000290 .L0 
     /tmp/ccYzqtqz.s:636    .text:0000000000000298 .L0 
     /tmp/ccYzqtqz.s:637    .text:0000000000000298 .L0 
     /tmp/ccYzqtqz.s:639    .text:000000000000029c .L0 
     /tmp/ccYzqtqz.s:642    .text:000000000000029c .L0 
     /tmp/ccYzqtqz.s:645    .text:00000000000002a8 .L0 
     /tmp/ccYzqtqz.s:646    .text:00000000000002a8 .L0 
     /tmp/ccYzqtqz.s:652    .text:00000000000002b4 .L0 
     /tmp/ccYzqtqz.s:653    .text:00000000000002b8 .L0 
     /tmp/ccYzqtqz.s:655    .text:00000000000002bc .L0 
     /tmp/ccYzqtqz.s:656    .text:00000000000002bc .L0 
     /tmp/ccYzqtqz.s:658    .text:00000000000002c0 .L0 
     /tmp/ccYzqtqz.s:660    .text:00000000000002c4 .L0 
     /tmp/ccYzqtqz.s:627    .text:000000000000028c _ZN9SemaphoreC1Ej
     /tmp/ccYzqtqz.s:668    .text:00000000000002c4 _ZN9Semaphore4waitEv
     /tmp/ccYzqtqz.s:671    .text:00000000000002c4 .L0 
     /tmp/ccYzqtqz.s:673    .text:00000000000002c4 .L0 
     /tmp/ccYzqtqz.s:674    .text:00000000000002c8 .L0 
     /tmp/ccYzqtqz.s:677    .text:00000000000002d0 .L0 
     /tmp/ccYzqtqz.s:678    .text:00000000000002d0 .L0 
     /tmp/ccYzqtqz.s:680    .text:00000000000002d4 .L0 
     /tmp/ccYzqtqz.s:682    .text:00000000000002d4 .L0 
GAS LISTING /tmp/ccYzqtqz.s 			page 26


     /tmp/ccYzqtqz.s:683    .text:00000000000002d4 .L0 
     /tmp/ccYzqtqz.s:688    .text:00000000000002e0 .L0 
     /tmp/ccYzqtqz.s:689    .text:00000000000002e4 .L0 
     /tmp/ccYzqtqz.s:691    .text:00000000000002e8 .L0 
     /tmp/ccYzqtqz.s:692    .text:00000000000002e8 .L0 
     /tmp/ccYzqtqz.s:694    .text:00000000000002ec .L0 
     /tmp/ccYzqtqz.s:696    .text:00000000000002f0 .L0 
     /tmp/ccYzqtqz.s:702    .text:00000000000002f0 _ZN9Semaphore6signalEv
     /tmp/ccYzqtqz.s:705    .text:00000000000002f0 .L0 
     /tmp/ccYzqtqz.s:707    .text:00000000000002f0 .L0 
     /tmp/ccYzqtqz.s:708    .text:00000000000002f4 .L0 
     /tmp/ccYzqtqz.s:711    .text:00000000000002fc .L0 
     /tmp/ccYzqtqz.s:712    .text:00000000000002fc .L0 
     /tmp/ccYzqtqz.s:714    .text:0000000000000300 .L0 
     /tmp/ccYzqtqz.s:716    .text:0000000000000300 .L0 
     /tmp/ccYzqtqz.s:717    .text:0000000000000300 .L0 
     /tmp/ccYzqtqz.s:722    .text:000000000000030c .L0 
     /tmp/ccYzqtqz.s:723    .text:0000000000000310 .L0 
     /tmp/ccYzqtqz.s:725    .text:0000000000000314 .L0 
     /tmp/ccYzqtqz.s:726    .text:0000000000000314 .L0 
     /tmp/ccYzqtqz.s:728    .text:0000000000000318 .L0 
     /tmp/ccYzqtqz.s:730    .text:000000000000031c .L0 
     /tmp/ccYzqtqz.s:736    .text:000000000000031c _ZN6Thread4joinEPS_
     /tmp/ccYzqtqz.s:739    .text:000000000000031c .L0 
     /tmp/ccYzqtqz.s:741    .text:000000000000031c .L0 
     /tmp/ccYzqtqz.s:742    .text:0000000000000320 .L0 
     /tmp/ccYzqtqz.s:745    .text:0000000000000328 .L0 
     /tmp/ccYzqtqz.s:746    .text:0000000000000328 .L0 
     /tmp/ccYzqtqz.s:748    .text:000000000000032c .L0 
     /tmp/ccYzqtqz.s:750    .text:000000000000032c .L0 
     /tmp/ccYzqtqz.s:751    .text:000000000000032c .L0 
     /tmp/ccYzqtqz.s:756    .text:0000000000000338 .L0 
     /tmp/ccYzqtqz.s:757    .text:000000000000033c .L0 
     /tmp/ccYzqtqz.s:759    .text:0000000000000340 .L0 
     /tmp/ccYzqtqz.s:760    .text:0000000000000340 .L0 
     /tmp/ccYzqtqz.s:762    .text:0000000000000344 .L0 
     /tmp/ccYzqtqz.s:764    .text:0000000000000348 .L0 
     /tmp/ccYzqtqz.s:770    .text:0000000000000348 _ZN14PeriodicThreadC2Em
     /tmp/ccYzqtqz.s:773    .text:0000000000000348 .L0 
     /tmp/ccYzqtqz.s:775    .text:0000000000000348 .L0 
     /tmp/ccYzqtqz.s:776    .text:000000000000034c .L0 
     /tmp/ccYzqtqz.s:781    .text:000000000000035c .L0 
     /tmp/ccYzqtqz.s:782    .text:000000000000035c .L0 
     /tmp/ccYzqtqz.s:783    .text:000000000000035c .L0 
     /tmp/ccYzqtqz.s:784    .text:000000000000035c .L0 
     /tmp/ccYzqtqz.s:786    .text:0000000000000360 .L0 
     /tmp/ccYzqtqz.s:791    .text:0000000000000368 .L0 
     /tmp/ccYzqtqz.s:798    .text:0000000000000380 .L0 
     /tmp/ccYzqtqz.s:799    .text:0000000000000384 .L0 
     /tmp/ccYzqtqz.s:801    .text:0000000000000388 .L0 
     /tmp/ccYzqtqz.s:802    .text:0000000000000388 .L0 
     /tmp/ccYzqtqz.s:804    .text:000000000000038c .L0 
     /tmp/ccYzqtqz.s:807    .text:0000000000000390 .L0 
     /tmp/ccYzqtqz.s:810    .text:0000000000000394 .L0 
     /tmp/ccYzqtqz.s:812    .text:0000000000000398 .L0 
     /tmp/ccYzqtqz.s:770    .text:0000000000000348 _ZN14PeriodicThreadC1Em
     /tmp/ccYzqtqz.s:820    .text:0000000000000398 _ZN14PeriodicThread9terminateEv
GAS LISTING /tmp/ccYzqtqz.s 			page 27


     /tmp/ccYzqtqz.s:823    .text:0000000000000398 .L0 
     /tmp/ccYzqtqz.s:825    .text:0000000000000398 .L0 
     /tmp/ccYzqtqz.s:826    .text:000000000000039c .L0 
     /tmp/ccYzqtqz.s:828    .text:00000000000003a0 .L0 
     /tmp/ccYzqtqz.s:830    .text:00000000000003a4 .L0 
     /tmp/ccYzqtqz.s:832    .text:00000000000003a4 .L0 
     /tmp/ccYzqtqz.s:833    .text:00000000000003a4 .L0 
     /tmp/ccYzqtqz.s:835    .text:00000000000003a8 .L0 
     /tmp/ccYzqtqz.s:836    .text:00000000000003ac .L0 
     /tmp/ccYzqtqz.s:837    .text:00000000000003ac .L0 
     /tmp/ccYzqtqz.s:839    .text:00000000000003b0 .L0 
     /tmp/ccYzqtqz.s:841    .text:00000000000003b4 .L0 
     /tmp/ccYzqtqz.s:847    .text:00000000000003b4 _ZN7Console4getcEv
     /tmp/ccYzqtqz.s:850    .text:00000000000003b4 .L0 
     /tmp/ccYzqtqz.s:851    .text:00000000000003b4 .L0 
     /tmp/ccYzqtqz.s:852    .text:00000000000003b8 .L0 
     /tmp/ccYzqtqz.s:855    .text:00000000000003c0 .L0 
     /tmp/ccYzqtqz.s:856    .text:00000000000003c0 .L0 
     /tmp/ccYzqtqz.s:858    .text:00000000000003c4 .L0 
     /tmp/ccYzqtqz.s:860    .text:00000000000003c4 .L0 
     /tmp/ccYzqtqz.s:861    .text:00000000000003c4 .L0 
     /tmp/ccYzqtqz.s:864    .text:00000000000003cc .L0 
     /tmp/ccYzqtqz.s:865    .text:00000000000003d0 .L0 
     /tmp/ccYzqtqz.s:867    .text:00000000000003d4 .L0 
     /tmp/ccYzqtqz.s:868    .text:00000000000003d4 .L0 
     /tmp/ccYzqtqz.s:870    .text:00000000000003d8 .L0 
     /tmp/ccYzqtqz.s:872    .text:00000000000003dc .L0 
     /tmp/ccYzqtqz.s:878    .text:00000000000003dc _ZN7Console4putcEc
     /tmp/ccYzqtqz.s:881    .text:00000000000003dc .L0 
     /tmp/ccYzqtqz.s:883    .text:00000000000003dc .L0 
     /tmp/ccYzqtqz.s:884    .text:00000000000003e0 .L0 
     /tmp/ccYzqtqz.s:887    .text:00000000000003e8 .L0 
     /tmp/ccYzqtqz.s:888    .text:00000000000003e8 .L0 
     /tmp/ccYzqtqz.s:890    .text:00000000000003ec .L0 
     /tmp/ccYzqtqz.s:892    .text:00000000000003ec .L0 
     /tmp/ccYzqtqz.s:893    .text:00000000000003ec .L0 
     /tmp/ccYzqtqz.s:896    .text:00000000000003f4 .L0 
     /tmp/ccYzqtqz.s:897    .text:00000000000003f8 .L0 
     /tmp/ccYzqtqz.s:899    .text:00000000000003fc .L0 
     /tmp/ccYzqtqz.s:900    .text:00000000000003fc .L0 
     /tmp/ccYzqtqz.s:902    .text:0000000000000400 .L0 
     /tmp/ccYzqtqz.s:904    .text:0000000000000404 .L0 
     /tmp/ccYzqtqz.s:32     .text._ZN6Thread3runEv:0000000000000018 .L0 
     /tmp/ccYzqtqz.s:57     .text._ZN14PeriodicThread18periodicActivationEv:0000000000000018 .L0 
     /tmp/ccYzqtqz.s:944    .text:0000000000000404 .L0 
     /tmp/ccYzqtqz.s:151    .text._ZN14PeriodicThreadD2Ev:0000000000000024 .L0 
     /tmp/ccYzqtqz.s:431    .text._ZN14PeriodicThreadD0Ev:0000000000000034 .L0 
     /tmp/ccYzqtqz.s:228    .text:00000000000000a8 .L0 
     /tmp/ccYzqtqz.s:448    .text:0000000000000194 .L0 
     /tmp/ccYzqtqz.s:482    .text:00000000000001c4 .L0 
     /tmp/ccYzqtqz.s:551    .text:0000000000000228 .L0 
     /tmp/ccYzqtqz.s:642    .text:000000000000029c .L0 
     /tmp/ccYzqtqz.s:793    .text:0000000000000370 .L0 
     /tmp/ccYzqtqz.s:192    .text:0000000000000084 .L11
     /tmp/ccYzqtqz.s:172    .text:000000000000005c .L13
     /tmp/ccYzqtqz.s:548    .text:0000000000000228 .L37
     /tmp/ccYzqtqz.s:554    .text:0000000000000234 .L35
GAS LISTING /tmp/ccYzqtqz.s 			page 28


     /tmp/ccYzqtqz.s:522    .text:0000000000000204 .L32
     /tmp/ccYzqtqz.s:529    .text:000000000000020c .L33
     /tmp/ccYzqtqz.s:137    .text._ZN14PeriodicThreadD2Ev:000000000000000c .L0 
     /tmp/ccYzqtqz.s:413    .text._ZN14PeriodicThreadD0Ev:0000000000000010 .L0 
     /tmp/ccYzqtqz.s:2281   .debug_abbrev:0000000000000000 .Ldebug_abbrev0
     /tmp/ccYzqtqz.s:3830   .debug_str:00000000000004ed .LASF89
     /tmp/ccYzqtqz.s:3810   .debug_str:0000000000000438 .LASF90
     /tmp/ccYzqtqz.s:3816   .debug_str:000000000000046d .LASF91
     /tmp/ccYzqtqz.s:3642   .debug_ranges:0000000000000000 .Ldebug_ranges0
     /tmp/ccYzqtqz.s:3656   .debug_line:0000000000000000 .Ldebug_line0
     /tmp/ccYzqtqz.s:3766   .debug_str:0000000000000318 .LASF0
     /tmp/ccYzqtqz.s:3780   .debug_str:000000000000036a .LASF1
     /tmp/ccYzqtqz.s:3758   .debug_str:00000000000002d1 .LASF2
     /tmp/ccYzqtqz.s:3738   .debug_str:000000000000025c .LASF4
     /tmp/ccYzqtqz.s:3818   .debug_str:0000000000000492 .LASF3
     /tmp/ccYzqtqz.s:3680   .debug_str:00000000000000ac .LASF5
     /tmp/ccYzqtqz.s:3702   .debug_str:0000000000000162 .LASF6
     /tmp/ccYzqtqz.s:3784   .debug_str:000000000000038f .LASF7
     /tmp/ccYzqtqz.s:3764   .debug_str:0000000000000305 .LASF8
     /tmp/ccYzqtqz.s:3842   .debug_str:00000000000005fc .LASF9
     /tmp/ccYzqtqz.s:3722   .debug_str:00000000000001f0 .LASF10
     /tmp/ccYzqtqz.s:3794   .debug_str:00000000000003c3 .LASF11
     /tmp/ccYzqtqz.s:3832   .debug_str:00000000000005b1 .LASF12
     /tmp/ccYzqtqz.s:3682   .debug_str:00000000000000b3 .LASF13
     /tmp/ccYzqtqz.s:3662   .debug_str:0000000000000013 .LASF14
     /tmp/ccYzqtqz.s:3692   .debug_str:00000000000000ff .LASF15
     /tmp/ccYzqtqz.s:3814   .debug_str:0000000000000457 .LASF16
     /tmp/ccYzqtqz.s:3698   .debug_str:000000000000013e .LASF17
     /tmp/ccYzqtqz.s:3734   .debug_str:000000000000024f .LASF18
     /tmp/ccYzqtqz.s:3838   .debug_str:00000000000005ea .LASF19
     /tmp/ccYzqtqz.s:3782   .debug_str:000000000000037d .LASF29
     /tmp/ccYzqtqz.s:3756   .debug_str:00000000000002c4 .LASF31
     /tmp/ccYzqtqz.s:3798   .debug_str:00000000000003dc .LASF21
     /tmp/ccYzqtqz.s:3748   .debug_str:0000000000000291 .LASF34
     /tmp/ccYzqtqz.s:3776   .debug_str:0000000000000355 .LASF36
     /tmp/ccYzqtqz.s:3778   .debug_str:0000000000000364 .LASF38
     /tmp/ccYzqtqz.s:3718   .debug_str:00000000000001ce .LASF40
     /tmp/ccYzqtqz.s:3768   .debug_str:0000000000000325 .LASF92
     /tmp/ccYzqtqz.s:3714   .debug_str:00000000000001a0 .LASF93
     /tmp/ccYzqtqz.s:3820   .debug_str:00000000000004a4 .LASF57
     /tmp/ccYzqtqz.s:3672   .debug_str:0000000000000064 .LASF94
     /tmp/ccYzqtqz.s:3860   .debug_str:0000000000000689 .LASF20
     /tmp/ccYzqtqz.s:3724   .debug_str:00000000000001fe .LASF22
     /tmp/ccYzqtqz.s:3720   .debug_str:00000000000001e1 .LASF23
     /tmp/ccYzqtqz.s:3710   .debug_str:000000000000017d .LASF54
     /tmp/ccYzqtqz.s:3858   .debug_str:0000000000000680 .LASF24
     /tmp/ccYzqtqz.s:3744   .debug_str:0000000000000282 .LASF25
     /tmp/ccYzqtqz.s:3774   .debug_str:000000000000034d .LASF95
     /tmp/ccYzqtqz.s:3760   .debug_str:00000000000002df .LASF96
     /tmp/ccYzqtqz.s:3658   .debug_str:0000000000000000 .LASF26
     /tmp/ccYzqtqz.s:3736   .debug_str:0000000000000257 .LASF27
     /tmp/ccYzqtqz.s:3660   .debug_str:0000000000000009 .LASF28
     /tmp/ccYzqtqz.s:3750   .debug_str:0000000000000299 .LASF30
     /tmp/ccYzqtqz.s:3762   .debug_str:00000000000002f5 .LASF32
     /tmp/ccYzqtqz.s:3836   .debug_str:00000000000005d8 .LASF33
     /tmp/ccYzqtqz.s:3808   .debug_str:000000000000042d .LASF35
     /tmp/ccYzqtqz.s:3690   .debug_str:00000000000000ed .LASF37
GAS LISTING /tmp/ccYzqtqz.s 			page 29


     /tmp/ccYzqtqz.s:3708   .debug_str:0000000000000178 .LASF39
     /tmp/ccYzqtqz.s:3804   .debug_str:0000000000000401 .LASF41
     /tmp/ccYzqtqz.s:3790   .debug_str:00000000000003ad .LASF42
     /tmp/ccYzqtqz.s:3806   .debug_str:0000000000000416 .LASF43
     /tmp/ccYzqtqz.s:3704   .debug_str:0000000000000169 .LASF44
     /tmp/ccYzqtqz.s:3732   .debug_str:0000000000000247 .LASF97
     /tmp/ccYzqtqz.s:3664   .debug_str:0000000000000023 .LASF79
     /tmp/ccYzqtqz.s:3688   .debug_str:00000000000000da .LASF98
     /tmp/ccYzqtqz.s:3686   .debug_str:00000000000000d5 .LASF45
     /tmp/ccYzqtqz.s:3850   .debug_str:0000000000000635 .LASF99
     /tmp/ccYzqtqz.s:3788   .debug_str:00000000000003a8 .LASF46
     /tmp/ccYzqtqz.s:3792   .debug_str:00000000000003b4 .LASF47
     /tmp/ccYzqtqz.s:3670   .debug_str:000000000000004a .LASF48
     /tmp/ccYzqtqz.s:3854   .debug_str:0000000000000655 .LASF49
     /tmp/ccYzqtqz.s:3674   .debug_str:0000000000000078 .LASF50
     /tmp/ccYzqtqz.s:3826   .debug_str:00000000000004be .LASF51
     /tmp/ccYzqtqz.s:3678   .debug_str:0000000000000094 .LASF52
     /tmp/ccYzqtqz.s:3666   .debug_str:0000000000000028 .LASF53
     /tmp/ccYzqtqz.s:3696   .debug_str:0000000000000114 .LASF100
     /tmp/ccYzqtqz.s:3726   .debug_str:0000000000000211 .LASF55
     /tmp/ccYzqtqz.s:3740   .debug_str:0000000000000263 .LASF56
     /tmp/ccYzqtqz.s:3856   .debug_str:0000000000000670 .LASF58
     /tmp/ccYzqtqz.s:3742   .debug_str:000000000000026a .LASF101
     /tmp/ccYzqtqz.s:3844   .debug_str:000000000000060c .LASF102
     /tmp/ccYzqtqz.s:3802   .debug_str:00000000000003fc .LASF59
     /tmp/ccYzqtqz.s:3796   .debug_str:00000000000003d2 .LASF60
     /tmp/ccYzqtqz.s:3834   .debug_str:00000000000005c0 .LASF61
     /tmp/ccYzqtqz.s:397    .text._ZN14PeriodicThreadD0Ev:0000000000000000 .LFB38
     /tmp/ccYzqtqz.s:429    .text._ZN14PeriodicThreadD0Ev:0000000000000034 .LFE38
     /tmp/ccYzqtqz.s:3305   .debug_loc:0000000000000000 .LLST7
     /tmp/ccYzqtqz.s:410    .text._ZN14PeriodicThreadD0Ev:0000000000000010 .LBB7
     /tmp/ccYzqtqz.s:417    .text._ZN14PeriodicThreadD0Ev:000000000000001c .LBE7
     /tmp/ccYzqtqz.s:3319   .debug_loc:0000000000000039 .LLST8
     /tmp/ccYzqtqz.s:419    .text._ZN14PeriodicThreadD0Ev:0000000000000024 .LVL27
     /tmp/ccYzqtqz.s:3770   .debug_str:000000000000032e .LASF62
     /tmp/ccYzqtqz.s:125    .text._ZN14PeriodicThreadD2Ev:0000000000000000 .LFB36
     /tmp/ccYzqtqz.s:147    .text._ZN14PeriodicThreadD2Ev:0000000000000024 .LFE36
     /tmp/ccYzqtqz.s:879    .text:00000000000003dc .LFB34
     /tmp/ccYzqtqz.s:905    .text:0000000000000404 .LFE34
     /tmp/ccYzqtqz.s:3326   .debug_loc:000000000000005c .LLST20
     /tmp/ccYzqtqz.s:894    .text:00000000000003f4 .LVL59
     /tmp/ccYzqtqz.s:848    .text:00000000000003b4 .LFB33
     /tmp/ccYzqtqz.s:873    .text:00000000000003dc .LFE33
     /tmp/ccYzqtqz.s:862    .text:00000000000003cc .LVL57
     /tmp/ccYzqtqz.s:821    .text:0000000000000398 .LFB32
     /tmp/ccYzqtqz.s:842    .text:00000000000003b4 .LFE32
     /tmp/ccYzqtqz.s:156    .text:0000000000000044 .LFB31
     /tmp/ccYzqtqz.s:206    .text:0000000000000098 .LFE31
     /tmp/ccYzqtqz.s:3340   .debug_loc:0000000000000095 .LLST1
     /tmp/ccYzqtqz.s:184    .text:0000000000000074 .LVL8
     /tmp/ccYzqtqz.s:189    .text:0000000000000080 .LVL9
     /tmp/ccYzqtqz.s:3716   .debug_str:00000000000001b6 .LASF63
     /tmp/ccYzqtqz.s:771    .text:0000000000000348 .LFB29
     /tmp/ccYzqtqz.s:813    .text:0000000000000398 .LFE29
     /tmp/ccYzqtqz.s:3358   .debug_loc:00000000000000e1 .LLST18
     /tmp/ccYzqtqz.s:3376   .debug_loc:000000000000012d .LLST19
     /tmp/ccYzqtqz.s:792    .text:0000000000000370 .LVL53
GAS LISTING /tmp/ccYzqtqz.s 			page 30


     /tmp/ccYzqtqz.s:737    .text:000000000000031c .LFB27
     /tmp/ccYzqtqz.s:765    .text:0000000000000348 .LFE27
     /tmp/ccYzqtqz.s:3772   .debug_str:0000000000000346 .LASF64
     /tmp/ccYzqtqz.s:3395   .debug_loc:000000000000017a .LLST17
     /tmp/ccYzqtqz.s:754    .text:0000000000000338 .LVL51
     /tmp/ccYzqtqz.s:703    .text:00000000000002f0 .LFB26
     /tmp/ccYzqtqz.s:731    .text:000000000000031c .LFE26
     /tmp/ccYzqtqz.s:3415   .debug_loc:00000000000001c8 .LLST16
     /tmp/ccYzqtqz.s:720    .text:000000000000030c .LVL48
     /tmp/ccYzqtqz.s:669    .text:00000000000002c4 .LFB25
     /tmp/ccYzqtqz.s:697    .text:00000000000002f0 .LFE25
     /tmp/ccYzqtqz.s:3429   .debug_loc:0000000000000201 .LLST15
     /tmp/ccYzqtqz.s:686    .text:00000000000002e0 .LVL45
     /tmp/ccYzqtqz.s:3712   .debug_str:000000000000018e .LASF65
     /tmp/ccYzqtqz.s:357    .text:0000000000000148 .LFB24
     /tmp/ccYzqtqz.s:390    .text:0000000000000188 .LFE24
     /tmp/ccYzqtqz.s:3443   .debug_loc:000000000000023a .LLST6
     /tmp/ccYzqtqz.s:374    .text:0000000000000168 .LVL21
     /tmp/ccYzqtqz.s:377    .text:0000000000000174 .LVL22
     /tmp/ccYzqtqz.s:3684   .debug_str:00000000000000c3 .LASF66
     /tmp/ccYzqtqz.s:212    .text:0000000000000098 .LFB22
     /tmp/ccYzqtqz.s:247    .text:00000000000000d0 .LFE22
     /tmp/ccYzqtqz.s:3461   .debug_loc:0000000000000286 .LLST2
     /tmp/ccYzqtqz.s:235    .text:00000000000000c0 .LVL13
     /tmp/ccYzqtqz.s:3728   .debug_str:000000000000022b .LASF67
     /tmp/ccYzqtqz.s:3676   .debug_str:0000000000000082 .LASF68
     /tmp/ccYzqtqz.s:628    .text:000000000000028c .LFB19
     /tmp/ccYzqtqz.s:661    .text:00000000000002c4 .LFE19
     /tmp/ccYzqtqz.s:3475   .debug_loc:00000000000002bf .LLST13
     /tmp/ccYzqtqz.s:3495   .debug_loc:000000000000030d .LLST14
     /tmp/ccYzqtqz.s:649    .text:00000000000002b4 .LVL42
     /tmp/ccYzqtqz.s:596    .text:0000000000000264 .LFB17
     /tmp/ccYzqtqz.s:622    .text:000000000000028c .LFE17
     /tmp/ccYzqtqz.s:3509   .debug_loc:0000000000000346 .LLST12
     /tmp/ccYzqtqz.s:611    .text:000000000000027c .LVL39
     /tmp/ccYzqtqz.s:565    .text:000000000000023c .LFB16
     /tmp/ccYzqtqz.s:590    .text:0000000000000264 .LFE16
     /tmp/ccYzqtqz.s:579    .text:0000000000000254 .LVL37
     /tmp/ccYzqtqz.s:504    .text:00000000000001e8 .LFB15
     /tmp/ccYzqtqz.s:559    .text:000000000000023c .LFE15
     /tmp/ccYzqtqz.s:3523   .debug_loc:000000000000037f .LLST9
     /tmp/ccYzqtqz.s:3547   .debug_loc:00000000000003e0 .LLST10
     /tmp/ccYzqtqz.s:3786   .debug_str:00000000000003a2 .LASF69
     /tmp/ccYzqtqz.s:3558   .debug_loc:0000000000000416 .LLST11
     /tmp/ccYzqtqz.s:536    .text:0000000000000218 .LVL34
     /tmp/ccYzqtqz.s:89     .text:0000000000000018 .LFB14
     /tmp/ccYzqtqz.s:118    .text:0000000000000044 .LFE14
     /tmp/ccYzqtqz.s:3565   .debug_loc:0000000000000439 .LLST0
     /tmp/ccYzqtqz.s:107    .text:0000000000000034 .LVL4
     /tmp/ccYzqtqz.s:3668   .debug_str:000000000000003b .LASF70
     /tmp/ccYzqtqz.s:327    .text:0000000000000120 .LFB13
     /tmp/ccYzqtqz.s:351    .text:0000000000000148 .LFE13
     /tmp/ccYzqtqz.s:3579   .debug_loc:0000000000000472 .LLST5
     /tmp/ccYzqtqz.s:341    .text:0000000000000138 .LVL19
     /tmp/ccYzqtqz.s:3828   .debug_str:00000000000004de .LASF71
     /tmp/ccYzqtqz.s:62     .text:0000000000000000 .LFB11
     /tmp/ccYzqtqz.s:81     .text:0000000000000018 .LFE11
GAS LISTING /tmp/ccYzqtqz.s 			page 31


     /tmp/ccYzqtqz.s:3848   .debug_str:0000000000000626 .LASF72
     /tmp/ccYzqtqz.s:470    .text:00000000000001b8 .LFB8
     /tmp/ccYzqtqz.s:496    .text:00000000000001e8 .LFE8
     /tmp/ccYzqtqz.s:3730   .debug_str:0000000000000230 .LASF73
     /tmp/ccYzqtqz.s:436    .text:0000000000000188 .LFB5
     /tmp/ccYzqtqz.s:462    .text:00000000000001b8 .LFE5
     /tmp/ccYzqtqz.s:3822   .debug_str:00000000000004a9 .LASF74
     /tmp/ccYzqtqz.s:3862   .debug_str:000000000000068f .LASF75
     /tmp/ccYzqtqz.s:295    .text:00000000000000f8 .LFB3
     /tmp/ccYzqtqz.s:321    .text:0000000000000120 .LFE3
     /tmp/ccYzqtqz.s:3593   .debug_loc:00000000000004ab .LLST4
     /tmp/ccYzqtqz.s:310    .text:0000000000000110 .LVL17
     /tmp/ccYzqtqz.s:3852   .debug_str:0000000000000648 .LASF76
     /tmp/ccYzqtqz.s:3754   .debug_str:00000000000002be .LASF77
     /tmp/ccYzqtqz.s:263    .text:00000000000000d0 .LFB2
     /tmp/ccYzqtqz.s:289    .text:00000000000000f8 .LFE2
     /tmp/ccYzqtqz.s:3824   .debug_str:00000000000004b9 .LASF78
     /tmp/ccYzqtqz.s:3607   .debug_loc:00000000000004e4 .LLST3
     /tmp/ccYzqtqz.s:278    .text:00000000000000e8 .LVL15
     /tmp/ccYzqtqz.s:37     .text._ZN14PeriodicThread18periodicActivationEv:0000000000000000 .LFB1
     /tmp/ccYzqtqz.s:55     .text._ZN14PeriodicThread18periodicActivationEv:0000000000000018 .LFE1
     /tmp/ccYzqtqz.s:11     .text._ZN6Thread3runEv:0000000000000000 .LFB0
     /tmp/ccYzqtqz.s:30     .text._ZN6Thread3runEv:0000000000000018 .LFE0
     /tmp/ccYzqtqz.s:3812   .debug_str:000000000000044c .LASF80
     /tmp/ccYzqtqz.s:3840   .debug_str:00000000000005f1 .LASF81
     /tmp/ccYzqtqz.s:3694   .debug_str:000000000000010b .LASF82
     /tmp/ccYzqtqz.s:3746   .debug_str:0000000000000287 .LASF83
     /tmp/ccYzqtqz.s:3706   .debug_str:000000000000016f .LASF84
     /tmp/ccYzqtqz.s:3752   .debug_str:00000000000002ae .LASF85
     /tmp/ccYzqtqz.s:3700   .debug_str:0000000000000154 .LASF86
     /tmp/ccYzqtqz.s:3800   .debug_str:00000000000003f3 .LASF87
     /tmp/ccYzqtqz.s:3846   .debug_str:000000000000061c .LASF88
     /tmp/ccYzqtqz.s:400    .text._ZN14PeriodicThreadD0Ev:0000000000000000 .LVL24
     /tmp/ccYzqtqz.s:409    .text._ZN14PeriodicThreadD0Ev:0000000000000010 .LVL25
     /tmp/ccYzqtqz.s:415    .text._ZN14PeriodicThreadD0Ev:000000000000001c .LVL26
     /tmp/ccYzqtqz.s:882    .text:00000000000003dc .LVL58
     /tmp/ccYzqtqz.s:159    .text:0000000000000044 .LVL6
     /tmp/ccYzqtqz.s:171    .text:000000000000005c .LVL7
     /tmp/ccYzqtqz.s:201    .text:0000000000000090 .LVL10
     /tmp/ccYzqtqz.s:774    .text:0000000000000348 .LVL52
     /tmp/ccYzqtqz.s:805    .text:000000000000038c .LVL54
     /tmp/ccYzqtqz.s:808    .text:0000000000000390 .LVL55
     /tmp/ccYzqtqz.s:740    .text:000000000000031c .LVL49
     /tmp/ccYzqtqz.s:752    .text:0000000000000330 .LVL50
     /tmp/ccYzqtqz.s:706    .text:00000000000002f0 .LVL46
     /tmp/ccYzqtqz.s:718    .text:0000000000000304 .LVL47
     /tmp/ccYzqtqz.s:672    .text:00000000000002c4 .LVL43
     /tmp/ccYzqtqz.s:684    .text:00000000000002d8 .LVL44
     /tmp/ccYzqtqz.s:360    .text:0000000000000148 .LVL20
     /tmp/ccYzqtqz.s:385    .text:0000000000000180 .LVL23
     /tmp/ccYzqtqz.s:217    .text:0000000000000098 .LVL11
     /tmp/ccYzqtqz.s:233    .text:00000000000000b8 .LVL12
     /tmp/ccYzqtqz.s:631    .text:000000000000028c .LVL40
     /tmp/ccYzqtqz.s:647    .text:00000000000002ac .LVL41
     /tmp/ccYzqtqz.s:599    .text:0000000000000264 .LVL38
     /tmp/ccYzqtqz.s:507    .text:00000000000001e8 .LVL30
     /tmp/ccYzqtqz.s:534    .text:0000000000000210 .LVL33
GAS LISTING /tmp/ccYzqtqz.s 			page 32


     /tmp/ccYzqtqz.s:547    .text:0000000000000228 .LVL35
     /tmp/ccYzqtqz.s:523    .text:0000000000000204 .LVL31
     /tmp/ccYzqtqz.s:553    .text:0000000000000234 .LVL36
     /tmp/ccYzqtqz.s:530    .text:000000000000020c .LVL32
     /tmp/ccYzqtqz.s:92     .text:0000000000000018 .LVL3
     /tmp/ccYzqtqz.s:330    .text:0000000000000120 .LVL18
     /tmp/ccYzqtqz.s:298    .text:00000000000000f8 .LVL16
     /tmp/ccYzqtqz.s:266    .text:00000000000000d0 .LVL14
     /tmp/ccYzqtqz.s:945    .debug_info:0000000000000000 .Ldebug_info0
     /tmp/ccYzqtqz.s:5      .text:0000000000000000 .Ltext0
     /tmp/ccYzqtqz.s:941    .text:0000000000000404 .Letext0
     /tmp/ccYzqtqz.s:250    .gcc_except_table:0000000000000000 .LLSDA22
                           .group:0000000000000000 _ZN14PeriodicThreadD5Ev

UNDEFINED SYMBOLS
time_sleep
sem_close
__gxx_personality_v0
mem_alloc
mem_free
thread_create
thread_dispatch
sem_open
sem_wait
sem_signal
join
getc
putc
