GAS LISTING /tmp/cc9iSHlz.s 			page 1


   1              		.file	"Thread.cpp"
   2              		.option pic
   3              		.option norelax
   4              		.text
   5              	.Ltext0:
   6              		.align	2
   7              		.globl	_ZN7KThread16threadTrampolineEPS_
   9              	_ZN7KThread16threadTrampolineEPS_:
  10              	.LFB15:
  11              		.file 1 "src/Thread.cpp"
   1:src/Thread.cpp **** //
   2:src/Thread.cpp **** // Created by os on 6/10/26.
   3:src/Thread.cpp **** //
   4:src/Thread.cpp **** 
   5:src/Thread.cpp **** #include "Thread.hpp"
   6:src/Thread.cpp **** #include "Scheduler.hpp"
   7:src/Thread.cpp **** 
   8:src/Thread.cpp **** #include "../lib/console.h"
   9:src/Thread.cpp **** 
  10:src/Thread.cpp **** KThread::KThread() {
  11:src/Thread.cpp **** }
  12:src/Thread.cpp **** 
  13:src/Thread.cpp **** void KThread::init() {
  14:src/Thread.cpp ****     body = nullptr;
  15:src/Thread.cpp ****     arg = nullptr;
  16:src/Thread.cpp ****     parent = nullptr;
  17:src/Thread.cpp ****     prev = nullptr;
  18:src/Thread.cpp ****     next = nullptr;
  19:src/Thread.cpp ****     stackPtr = nullptr;
  20:src/Thread.cpp ****     supervisorSp = nullptr;
  21:src/Thread.cpp ****     sleepDelta = 0;
  22:src/Thread.cpp ****     for (int i = 0; i < 32; i++) threadContext.x[i] = 0;
  23:src/Thread.cpp ****     threadContext.sepc = 0;
  24:src/Thread.cpp ****     threadContext.sstatus = 0;
  25:src/Thread.cpp ****     threadContext.pc = 0;
  26:src/Thread.cpp **** }
  27:src/Thread.cpp **** 
  28:src/Thread.cpp **** void KThread::copyContext(size_t* ctx) {
  29:src/Thread.cpp ****     Context* cont = reinterpret_cast<Context*>(ctx);
  30:src/Thread.cpp ****     for (int i = 0;i<32;i++) {
  31:src/Thread.cpp ****         threadContext.x[i] = cont->x[i];
  32:src/Thread.cpp ****     }
  33:src/Thread.cpp ****     threadContext.x[2] = reinterpret_cast<size_t>(this->stackPtr);
  34:src/Thread.cpp ****     threadContext.sepc = cont->sepc;
  35:src/Thread.cpp ****     threadContext.sstatus =cont->sstatus;
  36:src/Thread.cpp **** }
  37:src/Thread.cpp **** 
  38:src/Thread.cpp **** size_t* KThread::getContext() {
  39:src/Thread.cpp ****     return reinterpret_cast<size_t*>(&threadContext);
  40:src/Thread.cpp **** }
  41:src/Thread.cpp **** KThread* KThread::getNextInQueue(){
  42:src/Thread.cpp ****     return next;
  43:src/Thread.cpp **** }
  44:src/Thread.cpp **** KThread* KThread::getPrevInQueue(){
  45:src/Thread.cpp ****     return prev;
  46:src/Thread.cpp **** }
  47:src/Thread.cpp **** void KThread::setNextInQueue(KThread* next){
GAS LISTING /tmp/cc9iSHlz.s 			page 2


  48:src/Thread.cpp ****     this->next = next;
  49:src/Thread.cpp **** }
  50:src/Thread.cpp **** void KThread::setPrevInQueue(KThread* prev){
  51:src/Thread.cpp ****     this->prev = prev;
  52:src/Thread.cpp **** }
  53:src/Thread.cpp **** void KThread::setNextAndPrevInQueue(KThread* next, KThread* prev){
  54:src/Thread.cpp ****     setNextInQueue(next);
  55:src/Thread.cpp ****     setPrevInQueue(prev);
  56:src/Thread.cpp **** }
  57:src/Thread.cpp **** 
  58:src/Thread.cpp **** void KThread::setup(KThread* parentThread, size_t* stack_top) {
  59:src/Thread.cpp ****     parent = parentThread;
  60:src/Thread.cpp ****     stackPtr = stack_top;
  61:src/Thread.cpp ****     threadContext.x[2] = reinterpret_cast<size_t>(stack_top);
  62:src/Thread.cpp ****     threadContext.sepc  = reinterpret_cast<size_t>(&threadTrampoline);
  63:src/Thread.cpp ****     threadContext.x[10] = reinterpret_cast<size_t>(this);
  64:src/Thread.cpp **** 
  65:src/Thread.cpp ****     size_t gp_val;
  66:src/Thread.cpp ****     __asm__ volatile("mv %0, gp" : "=r"(gp_val));
  67:src/Thread.cpp ****     threadContext.x[3] = gp_val;
  68:src/Thread.cpp **** 
  69:src/Thread.cpp ****     size_t sstatus_val;
  70:src/Thread.cpp ****     __asm__ volatile("csrr %0, sstatus" : "=r"(sstatus_val));
  71:src/Thread.cpp ****     sstatus_val &= ~(1UL << 8); // SPP=0
  72:src/Thread.cpp ****     sstatus_val |= (1UL << 5); // SPIE=1
  73:src/Thread.cpp ****     threadContext.sstatus = sstatus_val;
  74:src/Thread.cpp **** }
  75:src/Thread.cpp **** 
  76:src/Thread.cpp **** void KThread::threadTrampoline(KThread* t) {
  12              		.loc 1 76 44
  13              		.cfi_startproc
  14              	.LVL0:
  77:src/Thread.cpp ****     if (t->body) t->body(t->arg);
  15              		.loc 1 77 5
  16              		.loc 1 77 12 is_stmt 0
  17 0000 83370500 		ld	a5,0(a0)
  18              		.loc 1 77 5
  19 0004 638A0702 		beqz	a5,.L4
  76:src/Thread.cpp ****     if (t->body) t->body(t->arg);
  20              		.loc 1 76 44 discriminator 1
  21 0008 130101FF 		addi	sp,sp,-16
  22              		.cfi_def_cfa_offset 16
  23 000c 23341100 		sd	ra,8(sp)
  24 0010 23308100 		sd	s0,0(sp)
  25              		.cfi_offset 1, -8
  26              		.cfi_offset 8, -16
  27 0014 13040101 		addi	s0,sp,16
  28              		.cfi_def_cfa 8, 0
  29              		.loc 1 77 18 is_stmt 1 discriminator 1
  30              		.loc 1 77 25 is_stmt 0 discriminator 1
  31 0018 03358500 		ld	a0,8(a0)
  32              	.LVL1:
  33 001c E7800700 		jalr	a5
  34              	.LVL2:
  78:src/Thread.cpp ****     __asm__ volatile("li a0, 0x12; ecall");
  35              		.loc 1 78 5 is_stmt 1 discriminator 1
  36              		.loc 1 78 43 is_stmt 0 discriminator 1
GAS LISTING /tmp/cc9iSHlz.s 			page 3


  37              	#APP
  38              	# 78 "src/Thread.cpp" 1
  79              	}...
  39              		li a0, 0x12; ecall
  40              	# 0 "" 2
  41              		.loc 1 79 1 discriminator 1
  42              	#NO_APP
  43 0028 83308100 		ld	ra,8(sp)
  44              		.cfi_restore 1
  45 002c 03340100 		ld	s0,0(sp)
  46              		.cfi_restore 8
  47              		.cfi_def_cfa 2, 16
  48 0030 13010101 		addi	sp,sp,16
  49              		.cfi_def_cfa_offset 0
  50 0034 67800000 		jr	ra
  51              	.LVL3:
  52              	.L4:
  78:src/Thread.cpp ****     __asm__ volatile("li a0, 0x12; ecall");
  53              		.loc 1 78 5 is_stmt 1
  78:src/Thread.cpp ****     __asm__ volatile("li a0, 0x12; ecall");
  54              		.loc 1 78 43 is_stmt 0
  55              	#APP
  56              	# 78 "src/Thread.cpp" 1
  57              		li a0, 0x12; ecall
  58              	# 0 "" 2
  59              	#NO_APP
  60 0040 67800000 		ret
  61              		.cfi_endproc
  62              	.LFE15:
  64              		.align	2
  65              		.globl	_ZN7KThreadC2Ev
  67              	_ZN7KThreadC2Ev:
  68              	.LFB4:
  10:src/Thread.cpp **** KThread::KThread() {
  69              		.loc 1 10 1 is_stmt 1
  70              		.cfi_startproc
  71              	.LVL4:
  72 0044 130101FF 		addi	sp,sp,-16
  73              		.cfi_def_cfa_offset 16
  74 0048 23348100 		sd	s0,8(sp)
  75              		.cfi_offset 8, -8
  76 004c 13040101 		addi	s0,sp,16
  77              		.cfi_def_cfa 8, 0
  11:src/Thread.cpp **** }
  78              		.loc 1 11 1 is_stmt 0
  79 0050 03348100 		ld	s0,8(sp)
  80              		.cfi_restore 8
  81              		.cfi_def_cfa 2, 16
  82 0054 13010101 		addi	sp,sp,16
  83              		.cfi_def_cfa_offset 0
  84 0058 67800000 		jr	ra
  85              		.cfi_endproc
  86              	.LFE4:
  88              		.globl	_ZN7KThreadC1Ev
  89              		.set	_ZN7KThreadC1Ev,_ZN7KThreadC2Ev
  90              		.align	2
  91              		.globl	_ZN7KThread4initEv
GAS LISTING /tmp/cc9iSHlz.s 			page 4


  93              	_ZN7KThread4initEv:
  94              	.LFB6:
  13:src/Thread.cpp **** void KThread::init() {
  95              		.loc 1 13 22 is_stmt 1
  96              		.cfi_startproc
  97              	.LVL5:
  98 005c 130101FF 		addi	sp,sp,-16
  99              		.cfi_def_cfa_offset 16
 100 0060 23348100 		sd	s0,8(sp)
 101              		.cfi_offset 8, -8
 102 0064 13040101 		addi	s0,sp,16
 103              		.cfi_def_cfa 8, 0
  14:src/Thread.cpp ****     body = nullptr;
 104              		.loc 1 14 5
  14:src/Thread.cpp ****     body = nullptr;
 105              		.loc 1 14 10 is_stmt 0
 106 0068 23300500 		sd	zero,0(a0)
  15:src/Thread.cpp ****     arg = nullptr;
 107              		.loc 1 15 5 is_stmt 1
  15:src/Thread.cpp ****     arg = nullptr;
 108              		.loc 1 15 9 is_stmt 0
 109 006c 23340500 		sd	zero,8(a0)
  16:src/Thread.cpp ****     parent = nullptr;
 110              		.loc 1 16 5 is_stmt 1
  16:src/Thread.cpp ****     parent = nullptr;
 111              		.loc 1 16 12 is_stmt 0
 112 0070 23380500 		sd	zero,16(a0)
  17:src/Thread.cpp ****     prev = nullptr;
 113              		.loc 1 17 5 is_stmt 1
  17:src/Thread.cpp ****     prev = nullptr;
 114              		.loc 1 17 10 is_stmt 0
 115 0074 233C0500 		sd	zero,24(a0)
  18:src/Thread.cpp ****     next = nullptr;
 116              		.loc 1 18 5 is_stmt 1
  18:src/Thread.cpp ****     next = nullptr;
 117              		.loc 1 18 10 is_stmt 0
 118 0078 23300502 		sd	zero,32(a0)
  19:src/Thread.cpp ****     stackPtr = nullptr;
 119              		.loc 1 19 5 is_stmt 1
  19:src/Thread.cpp ****     stackPtr = nullptr;
 120              		.loc 1 19 14 is_stmt 0
 121 007c 23340502 		sd	zero,40(a0)
  20:src/Thread.cpp ****     supervisorSp = nullptr;
 122              		.loc 1 20 5 is_stmt 1
  20:src/Thread.cpp ****     supervisorSp = nullptr;
 123              		.loc 1 20 18 is_stmt 0
 124 0080 23380502 		sd	zero,48(a0)
  21:src/Thread.cpp ****     sleepDelta = 0;
 125              		.loc 1 21 5 is_stmt 1
  21:src/Thread.cpp ****     sleepDelta = 0;
 126              		.loc 1 21 16 is_stmt 0
 127 0084 233C0502 		sd	zero,56(a0)
  22:src/Thread.cpp ****     for (int i = 0; i < 32; i++) threadContext.x[i] = 0;
 128              		.loc 1 22 5 is_stmt 1
 129              	.LVL6:
 130              	.LBB2:
  22:src/Thread.cpp ****     for (int i = 0; i < 32; i++) threadContext.x[i] = 0;
GAS LISTING /tmp/cc9iSHlz.s 			page 5


 131              		.loc 1 22 14 is_stmt 0
 132 0088 13070000 		li	a4,0
 133              	.LVL7:
 134              	.L11:
  22:src/Thread.cpp ****     for (int i = 0; i < 32; i++) threadContext.x[i] = 0;
 135              		.loc 1 22 23 is_stmt 1 discriminator 3
 136 008c 9307F001 		li	a5,31
 137 0090 63CEE700 		bgt	a4,a5,.L10
  22:src/Thread.cpp ****     for (int i = 0; i < 32; i++) threadContext.x[i] = 0;
 138              		.loc 1 22 34 discriminator 2
  22:src/Thread.cpp ****     for (int i = 0; i < 32; i++) threadContext.x[i] = 0;
 139              		.loc 1 22 53 is_stmt 0 discriminator 2
 140 0094 93078700 		addi	a5,a4,8
 141 0098 93973700 		slli	a5,a5,3
 142 009c B307F500 		add	a5,a0,a5
 143 00a0 23B00700 		sd	zero,0(a5)
  22:src/Thread.cpp ****     for (int i = 0; i < 32; i++) threadContext.x[i] = 0;
 144              		.loc 1 22 5 is_stmt 1 discriminator 2
 145 00a4 1B071700 		addiw	a4,a4,1
 146              	.LVL8:
 147 00a8 6FF05FFE 		j	.L11
 148              	.LVL9:
 149              	.L10:
 150              	.LBE2:
  23:src/Thread.cpp ****     threadContext.sepc = 0;
 151              		.loc 1 23 5
  23:src/Thread.cpp ****     threadContext.sepc = 0;
 152              		.loc 1 23 24 is_stmt 0
 153 00ac 23300514 		sd	zero,320(a0)
  24:src/Thread.cpp ****     threadContext.sstatus = 0;
 154              		.loc 1 24 5 is_stmt 1
  24:src/Thread.cpp ****     threadContext.sstatus = 0;
 155              		.loc 1 24 27 is_stmt 0
 156 00b0 23340514 		sd	zero,328(a0)
  25:src/Thread.cpp ****     threadContext.pc = 0;
 157              		.loc 1 25 5 is_stmt 1
  25:src/Thread.cpp ****     threadContext.pc = 0;
 158              		.loc 1 25 22 is_stmt 0
 159 00b4 23380514 		sd	zero,336(a0)
  26:src/Thread.cpp **** }
 160              		.loc 1 26 1
 161 00b8 03348100 		ld	s0,8(sp)
 162              		.cfi_restore 8
 163              		.cfi_def_cfa 2, 16
 164 00bc 13010101 		addi	sp,sp,16
 165              		.cfi_def_cfa_offset 0
 166 00c0 67800000 		jr	ra
 167              		.cfi_endproc
 168              	.LFE6:
 170              		.align	2
 171              		.globl	_ZN7KThread11copyContextEPm
 173              	_ZN7KThread11copyContextEPm:
 174              	.LFB7:
  28:src/Thread.cpp **** void KThread::copyContext(size_t* ctx) {
 175              		.loc 1 28 40 is_stmt 1
 176              		.cfi_startproc
 177              	.LVL10:
GAS LISTING /tmp/cc9iSHlz.s 			page 6


 178 00c4 130101FF 		addi	sp,sp,-16
 179              		.cfi_def_cfa_offset 16
 180 00c8 23348100 		sd	s0,8(sp)
 181              		.cfi_offset 8, -8
 182 00cc 13040101 		addi	s0,sp,16
 183              		.cfi_def_cfa 8, 0
  29:src/Thread.cpp ****     Context* cont = reinterpret_cast<Context*>(ctx);
 184              		.loc 1 29 5
 185              	.LVL11:
  30:src/Thread.cpp ****     for (int i = 0;i<32;i++) {
 186              		.loc 1 30 5
 187              	.LBB3:
  30:src/Thread.cpp ****     for (int i = 0;i<32;i++) {
 188              		.loc 1 30 14 is_stmt 0
 189 00d0 13070000 		li	a4,0
 190              	.LVL12:
 191              	.L15:
  30:src/Thread.cpp ****     for (int i = 0;i<32;i++) {
 192              		.loc 1 30 21 is_stmt 1 discriminator 3
 193 00d4 9307F001 		li	a5,31
 194 00d8 63C4E702 		bgt	a4,a5,.L14
  31:src/Thread.cpp ****         threadContext.x[i] = cont->x[i];
 195              		.loc 1 31 9 discriminator 2
  31:src/Thread.cpp ****         threadContext.x[i] = cont->x[i];
 196              		.loc 1 31 39 is_stmt 0 discriminator 2
 197 00dc 93173700 		slli	a5,a4,3
 198 00e0 B387F500 		add	a5,a1,a5
 199 00e4 83B60700 		ld	a3,0(a5)
  31:src/Thread.cpp ****         threadContext.x[i] = cont->x[i];
 200              		.loc 1 31 28 discriminator 2
 201 00e8 93078700 		addi	a5,a4,8
 202 00ec 93973700 		slli	a5,a5,3
 203 00f0 B307F500 		add	a5,a0,a5
 204 00f4 23B0D700 		sd	a3,0(a5)
  30:src/Thread.cpp ****     for (int i = 0;i<32;i++) {
 205              		.loc 1 30 5 is_stmt 1 discriminator 2
 206 00f8 1B071700 		addiw	a4,a4,1
 207              	.LVL13:
 208 00fc 6FF09FFD 		j	.L15
 209              	.LVL14:
 210              	.L14:
 211              	.LBE3:
  33:src/Thread.cpp ****     threadContext.x[2] = reinterpret_cast<size_t>(this->stackPtr);
 212              		.loc 1 33 5
  33:src/Thread.cpp ****     threadContext.x[2] = reinterpret_cast<size_t>(this->stackPtr);
 213              		.loc 1 33 57 is_stmt 0
 214 0100 83378502 		ld	a5,40(a0)
  33:src/Thread.cpp ****     threadContext.x[2] = reinterpret_cast<size_t>(this->stackPtr);
 215              		.loc 1 33 24
 216 0104 2338F504 		sd	a5,80(a0)
  34:src/Thread.cpp ****     threadContext.sepc = cont->sepc;
 217              		.loc 1 34 5 is_stmt 1
  34:src/Thread.cpp ****     threadContext.sepc = cont->sepc;
 218              		.loc 1 34 32 is_stmt 0
 219 0108 83B70510 		ld	a5,256(a1)
  34:src/Thread.cpp ****     threadContext.sepc = cont->sepc;
 220              		.loc 1 34 24
GAS LISTING /tmp/cc9iSHlz.s 			page 7


 221 010c 2330F514 		sd	a5,320(a0)
  35:src/Thread.cpp ****     threadContext.sstatus =cont->sstatus;
 222              		.loc 1 35 5 is_stmt 1
  35:src/Thread.cpp ****     threadContext.sstatus =cont->sstatus;
 223              		.loc 1 35 34 is_stmt 0
 224 0110 83B78510 		ld	a5,264(a1)
  35:src/Thread.cpp ****     threadContext.sstatus =cont->sstatus;
 225              		.loc 1 35 27
 226 0114 2334F514 		sd	a5,328(a0)
  36:src/Thread.cpp **** }
 227              		.loc 1 36 1
 228 0118 03348100 		ld	s0,8(sp)
 229              		.cfi_restore 8
 230              		.cfi_def_cfa 2, 16
 231 011c 13010101 		addi	sp,sp,16
 232              		.cfi_def_cfa_offset 0
 233 0120 67800000 		jr	ra
 234              		.cfi_endproc
 235              	.LFE7:
 237              		.align	2
 238              		.globl	_ZN7KThread10getContextEv
 240              	_ZN7KThread10getContextEv:
 241              	.LFB8:
  38:src/Thread.cpp **** size_t* KThread::getContext() {
 242              		.loc 1 38 31 is_stmt 1
 243              		.cfi_startproc
 244              	.LVL15:
 245 0124 130101FF 		addi	sp,sp,-16
 246              		.cfi_def_cfa_offset 16
 247 0128 23348100 		sd	s0,8(sp)
 248              		.cfi_offset 8, -8
 249 012c 13040101 		addi	s0,sp,16
 250              		.cfi_def_cfa 8, 0
  39:src/Thread.cpp ****     return reinterpret_cast<size_t*>(&threadContext);
 251              		.loc 1 39 5
  40:src/Thread.cpp **** }
 252              		.loc 1 40 1 is_stmt 0
 253 0130 13050504 		addi	a0,a0,64
 254              	.LVL16:
 255 0134 03348100 		ld	s0,8(sp)
 256              		.cfi_restore 8
 257              		.cfi_def_cfa 2, 16
 258 0138 13010101 		addi	sp,sp,16
 259              		.cfi_def_cfa_offset 0
 260 013c 67800000 		jr	ra
 261              		.cfi_endproc
 262              	.LFE8:
 264              		.align	2
 265              		.globl	_ZN7KThread14getNextInQueueEv
 267              	_ZN7KThread14getNextInQueueEv:
 268              	.LFB9:
  41:src/Thread.cpp **** KThread* KThread::getNextInQueue(){
 269              		.loc 1 41 35 is_stmt 1
 270              		.cfi_startproc
 271              	.LVL17:
 272 0140 130101FF 		addi	sp,sp,-16
 273              		.cfi_def_cfa_offset 16
GAS LISTING /tmp/cc9iSHlz.s 			page 8


 274 0144 23348100 		sd	s0,8(sp)
 275              		.cfi_offset 8, -8
 276 0148 13040101 		addi	s0,sp,16
 277              		.cfi_def_cfa 8, 0
  42:src/Thread.cpp ****     return next;
 278              		.loc 1 42 5
  43:src/Thread.cpp **** }
 279              		.loc 1 43 1 is_stmt 0
 280 014c 03350502 		ld	a0,32(a0)
 281              	.LVL18:
 282 0150 03348100 		ld	s0,8(sp)
 283              		.cfi_restore 8
 284              		.cfi_def_cfa 2, 16
 285 0154 13010101 		addi	sp,sp,16
 286              		.cfi_def_cfa_offset 0
 287 0158 67800000 		jr	ra
 288              		.cfi_endproc
 289              	.LFE9:
 291              		.align	2
 292              		.globl	_ZN7KThread14getPrevInQueueEv
 294              	_ZN7KThread14getPrevInQueueEv:
 295              	.LFB10:
  44:src/Thread.cpp **** KThread* KThread::getPrevInQueue(){
 296              		.loc 1 44 35 is_stmt 1
 297              		.cfi_startproc
 298              	.LVL19:
 299 015c 130101FF 		addi	sp,sp,-16
 300              		.cfi_def_cfa_offset 16
 301 0160 23348100 		sd	s0,8(sp)
 302              		.cfi_offset 8, -8
 303 0164 13040101 		addi	s0,sp,16
 304              		.cfi_def_cfa 8, 0
  45:src/Thread.cpp ****     return prev;
 305              		.loc 1 45 5
  46:src/Thread.cpp **** }
 306              		.loc 1 46 1 is_stmt 0
 307 0168 03358501 		ld	a0,24(a0)
 308              	.LVL20:
 309 016c 03348100 		ld	s0,8(sp)
 310              		.cfi_restore 8
 311              		.cfi_def_cfa 2, 16
 312 0170 13010101 		addi	sp,sp,16
 313              		.cfi_def_cfa_offset 0
 314 0174 67800000 		jr	ra
 315              		.cfi_endproc
 316              	.LFE10:
 318              		.align	2
 319              		.globl	_ZN7KThread14setNextInQueueEPS_
 321              	_ZN7KThread14setNextInQueueEPS_:
 322              	.LFB11:
  47:src/Thread.cpp **** void KThread::setNextInQueue(KThread* next){
 323              		.loc 1 47 44 is_stmt 1
 324              		.cfi_startproc
 325              	.LVL21:
 326 0178 130101FF 		addi	sp,sp,-16
 327              		.cfi_def_cfa_offset 16
 328 017c 23348100 		sd	s0,8(sp)
GAS LISTING /tmp/cc9iSHlz.s 			page 9


 329              		.cfi_offset 8, -8
 330 0180 13040101 		addi	s0,sp,16
 331              		.cfi_def_cfa 8, 0
  48:src/Thread.cpp ****     this->next = next;
 332              		.loc 1 48 5
  48:src/Thread.cpp ****     this->next = next;
 333              		.loc 1 48 16 is_stmt 0
 334 0184 2330B502 		sd	a1,32(a0)
  49:src/Thread.cpp **** }
 335              		.loc 1 49 1
 336 0188 03348100 		ld	s0,8(sp)
 337              		.cfi_restore 8
 338              		.cfi_def_cfa 2, 16
 339 018c 13010101 		addi	sp,sp,16
 340              		.cfi_def_cfa_offset 0
 341 0190 67800000 		jr	ra
 342              		.cfi_endproc
 343              	.LFE11:
 345              		.align	2
 346              		.globl	_ZN7KThread14setPrevInQueueEPS_
 348              	_ZN7KThread14setPrevInQueueEPS_:
 349              	.LFB12:
  50:src/Thread.cpp **** void KThread::setPrevInQueue(KThread* prev){
 350              		.loc 1 50 44 is_stmt 1
 351              		.cfi_startproc
 352              	.LVL22:
 353 0194 130101FF 		addi	sp,sp,-16
 354              		.cfi_def_cfa_offset 16
 355 0198 23348100 		sd	s0,8(sp)
 356              		.cfi_offset 8, -8
 357 019c 13040101 		addi	s0,sp,16
 358              		.cfi_def_cfa 8, 0
  51:src/Thread.cpp ****     this->prev = prev;
 359              		.loc 1 51 5
  51:src/Thread.cpp ****     this->prev = prev;
 360              		.loc 1 51 16 is_stmt 0
 361 01a0 233CB500 		sd	a1,24(a0)
  52:src/Thread.cpp **** }
 362              		.loc 1 52 1
 363 01a4 03348100 		ld	s0,8(sp)
 364              		.cfi_restore 8
 365              		.cfi_def_cfa 2, 16
 366 01a8 13010101 		addi	sp,sp,16
 367              		.cfi_def_cfa_offset 0
 368 01ac 67800000 		jr	ra
 369              		.cfi_endproc
 370              	.LFE12:
 372              		.align	2
 373              		.globl	_ZN7KThread21setNextAndPrevInQueueEPS_S0_
 375              	_ZN7KThread21setNextAndPrevInQueueEPS_S0_:
 376              	.LFB13:
  53:src/Thread.cpp **** void KThread::setNextAndPrevInQueue(KThread* next, KThread* prev){
 377              		.loc 1 53 66 is_stmt 1
 378              		.cfi_startproc
 379              	.LVL23:
 380 01b0 130101FE 		addi	sp,sp,-32
 381              		.cfi_def_cfa_offset 32
GAS LISTING /tmp/cc9iSHlz.s 			page 10


 382 01b4 233C1100 		sd	ra,24(sp)
 383 01b8 23388100 		sd	s0,16(sp)
 384 01bc 23349100 		sd	s1,8(sp)
 385 01c0 23302101 		sd	s2,0(sp)
 386              		.cfi_offset 1, -8
 387              		.cfi_offset 8, -16
 388              		.cfi_offset 9, -24
 389              		.cfi_offset 18, -32
 390 01c4 13040102 		addi	s0,sp,32
 391              		.cfi_def_cfa 8, 0
 392 01c8 93040500 		mv	s1,a0
 393 01cc 13090600 		mv	s2,a2
  54:src/Thread.cpp ****     setNextInQueue(next);
 394              		.loc 1 54 5
  54:src/Thread.cpp ****     setNextInQueue(next);
 395              		.loc 1 54 19 is_stmt 0
 396 01d0 97000000 		call	_ZN7KThread14setNextInQueueEPS_
 396      E7800000 
 397              	.LVL24:
  55:src/Thread.cpp ****     setPrevInQueue(prev);
 398              		.loc 1 55 5 is_stmt 1
  55:src/Thread.cpp ****     setPrevInQueue(prev);
 399              		.loc 1 55 19 is_stmt 0
 400 01d8 93050900 		mv	a1,s2
 401 01dc 13850400 		mv	a0,s1
 402 01e0 97000000 		call	_ZN7KThread14setPrevInQueueEPS_
 402      E7800000 
 403              	.LVL25:
  56:src/Thread.cpp **** }
 404              		.loc 1 56 1
 405 01e8 83308101 		ld	ra,24(sp)
 406              		.cfi_restore 1
 407 01ec 03340101 		ld	s0,16(sp)
 408              		.cfi_restore 8
 409              		.cfi_def_cfa 2, 32
 410 01f0 83348100 		ld	s1,8(sp)
 411              		.cfi_restore 9
 412              	.LVL26:
 413 01f4 03390100 		ld	s2,0(sp)
 414              		.cfi_restore 18
 415              	.LVL27:
 416 01f8 13010102 		addi	sp,sp,32
 417              		.cfi_def_cfa_offset 0
 418 01fc 67800000 		jr	ra
 419              		.cfi_endproc
 420              	.LFE13:
 422              		.align	2
 423              		.globl	_ZN7KThread5setupEPS_Pm
 425              	_ZN7KThread5setupEPS_Pm:
 426              	.LFB14:
  58:src/Thread.cpp **** void KThread::setup(KThread* parentThread, size_t* stack_top) {
 427              		.loc 1 58 63 is_stmt 1
 428              		.cfi_startproc
 429              	.LVL28:
 430 0200 130101FF 		addi	sp,sp,-16
 431              		.cfi_def_cfa_offset 16
 432 0204 23348100 		sd	s0,8(sp)
GAS LISTING /tmp/cc9iSHlz.s 			page 11


 433              		.cfi_offset 8, -8
 434 0208 13040101 		addi	s0,sp,16
 435              		.cfi_def_cfa 8, 0
  59:src/Thread.cpp ****     parent = parentThread;
 436              		.loc 1 59 5
  59:src/Thread.cpp ****     parent = parentThread;
 437              		.loc 1 59 12 is_stmt 0
 438 020c 2338B500 		sd	a1,16(a0)
  60:src/Thread.cpp ****     stackPtr = stack_top;
 439              		.loc 1 60 5 is_stmt 1
  60:src/Thread.cpp ****     stackPtr = stack_top;
 440              		.loc 1 60 14 is_stmt 0
 441 0210 2334C502 		sd	a2,40(a0)
  61:src/Thread.cpp ****     threadContext.x[2] = reinterpret_cast<size_t>(stack_top);
 442              		.loc 1 61 5 is_stmt 1
  61:src/Thread.cpp ****     threadContext.x[2] = reinterpret_cast<size_t>(stack_top);
 443              		.loc 1 61 24 is_stmt 0
 444 0214 2338C504 		sd	a2,80(a0)
  62:src/Thread.cpp ****     threadContext.sepc  = reinterpret_cast<size_t>(&threadTrampoline);
 445              		.loc 1 62 5 is_stmt 1
  62:src/Thread.cpp ****     threadContext.sepc  = reinterpret_cast<size_t>(&threadTrampoline);
 446              		.loc 1 62 25 is_stmt 0
 447 0218 97070000 		lla	a5,_ZN7KThread16threadTrampolineEPS_
 447      93870700 
 448 0220 2330F514 		sd	a5,320(a0)
  63:src/Thread.cpp ****     threadContext.x[10] = reinterpret_cast<size_t>(this);
 449              		.loc 1 63 5 is_stmt 1
  63:src/Thread.cpp ****     threadContext.x[10] = reinterpret_cast<size_t>(this);
 450              		.loc 1 63 25 is_stmt 0
 451 0224 2338A508 		sd	a0,144(a0)
  65:src/Thread.cpp ****     size_t gp_val;
 452              		.loc 1 65 5 is_stmt 1
  66:src/Thread.cpp ****     __asm__ volatile("mv %0, gp" : "=r"(gp_val));
 453              		.loc 1 66 5
  66:src/Thread.cpp ****     __asm__ volatile("mv %0, gp" : "=r"(gp_val));
 454              		.loc 1 66 49 is_stmt 0
 455              	#APP
 456              	# 66 "src/Thread.cpp" 1
 457              		mv a5, gp
 458              	# 0 "" 2
 459              	.LVL29:
  67:src/Thread.cpp ****     threadContext.x[3] = gp_val;
 460              		.loc 1 67 5 is_stmt 1
  67:src/Thread.cpp ****     threadContext.x[3] = gp_val;
 461              		.loc 1 67 24 is_stmt 0
 462              	#NO_APP
 463 022c 233CF504 		sd	a5,88(a0)
  69:src/Thread.cpp ****     size_t sstatus_val;
 464              		.loc 1 69 5 is_stmt 1
  70:src/Thread.cpp ****     __asm__ volatile("csrr %0, sstatus" : "=r"(sstatus_val));
 465              		.loc 1 70 5
  70:src/Thread.cpp ****     __asm__ volatile("csrr %0, sstatus" : "=r"(sstatus_val));
 466              		.loc 1 70 61 is_stmt 0
 467              	#APP
 468              	# 70 "src/Thread.cpp" 1
 469              		csrr a5, sstatus
 470              	# 0 "" 2
GAS LISTING /tmp/cc9iSHlz.s 			page 12


 471              	.LVL30:
  71:src/Thread.cpp ****     sstatus_val &= ~(1UL << 8); // SPP=0
 472              		.loc 1 71 5 is_stmt 1
  71:src/Thread.cpp ****     sstatus_val &= ~(1UL << 8); // SPP=0
 473              		.loc 1 71 17 is_stmt 0
 474              	#NO_APP
 475 0234 93F7F7EF 		andi	a5,a5,-257
 476              	.LVL31:
  72:src/Thread.cpp ****     sstatus_val |= (1UL << 5); // SPIE=1
 477              		.loc 1 72 5 is_stmt 1
  72:src/Thread.cpp ****     sstatus_val |= (1UL << 5); // SPIE=1
 478              		.loc 1 72 17 is_stmt 0
 479 0238 93E70702 		ori	a5,a5,32
 480              	.LVL32:
  73:src/Thread.cpp ****     threadContext.sstatus = sstatus_val;
 481              		.loc 1 73 5 is_stmt 1
  73:src/Thread.cpp ****     threadContext.sstatus = sstatus_val;
 482              		.loc 1 73 27 is_stmt 0
 483 023c 2334F514 		sd	a5,328(a0)
  74:src/Thread.cpp **** }
 484              		.loc 1 74 1
 485 0240 03348100 		ld	s0,8(sp)
 486              		.cfi_restore 8
 487              		.cfi_def_cfa 2, 16
 488 0244 13010101 		addi	sp,sp,16
 489              		.cfi_def_cfa_offset 0
 490 0248 67800000 		jr	ra
 491              		.cfi_endproc
 492              	.LFE14:
 494              	.Letext0:
 495              		.file 2 "src/../lib/hw.h"
 496              		.file 3 "src/Thread.hpp"
GAS LISTING /tmp/cc9iSHlz.s 			page 13


DEFINED SYMBOLS
                            *ABS*:0000000000000000 Thread.cpp
     /tmp/cc9iSHlz.s:9      .text:0000000000000000 _ZN7KThread16threadTrampolineEPS_
     /tmp/cc9iSHlz.s:13     .text:0000000000000000 .L0 
     /tmp/cc9iSHlz.s:15     .text:0000000000000000 .L0 
     /tmp/cc9iSHlz.s:16     .text:0000000000000000 .L0 
     /tmp/cc9iSHlz.s:17     .text:0000000000000000 .L0 
     /tmp/cc9iSHlz.s:19     .text:0000000000000004 .L0 
     /tmp/cc9iSHlz.s:21     .text:0000000000000008 .L0 
     /tmp/cc9iSHlz.s:22     .text:000000000000000c .L0 
     /tmp/cc9iSHlz.s:25     .text:0000000000000014 .L0 
     /tmp/cc9iSHlz.s:26     .text:0000000000000014 .L0 
     /tmp/cc9iSHlz.s:28     .text:0000000000000018 .L0 
     /tmp/cc9iSHlz.s:30     .text:0000000000000018 .L0 
     /tmp/cc9iSHlz.s:31     .text:0000000000000018 .L0 
     /tmp/cc9iSHlz.s:36     .text:0000000000000020 .L0 
      src/Thread.cpp:78     .text:0000000000000020 .L0 
     /tmp/cc9iSHlz.s:43     .text:0000000000000028 .L0 
     /tmp/cc9iSHlz.s:44     .text:000000000000002c .L0 
     /tmp/cc9iSHlz.s:46     .text:0000000000000030 .L0 
     /tmp/cc9iSHlz.s:47     .text:0000000000000030 .L0 
     /tmp/cc9iSHlz.s:49     .text:0000000000000034 .L0 
     /tmp/cc9iSHlz.s:54     .text:0000000000000038 .L0 
      src/Thread.cpp:78     .text:0000000000000038 .L0 
     /tmp/cc9iSHlz.s:61     .text:0000000000000044 .L0 
     /tmp/cc9iSHlz.s:67     .text:0000000000000044 _ZN7KThreadC2Ev
     /tmp/cc9iSHlz.s:70     .text:0000000000000044 .L0 
     /tmp/cc9iSHlz.s:72     .text:0000000000000044 .L0 
     /tmp/cc9iSHlz.s:73     .text:0000000000000048 .L0 
     /tmp/cc9iSHlz.s:75     .text:000000000000004c .L0 
     /tmp/cc9iSHlz.s:77     .text:0000000000000050 .L0 
     /tmp/cc9iSHlz.s:79     .text:0000000000000050 .L0 
     /tmp/cc9iSHlz.s:80     .text:0000000000000054 .L0 
     /tmp/cc9iSHlz.s:81     .text:0000000000000054 .L0 
     /tmp/cc9iSHlz.s:83     .text:0000000000000058 .L0 
     /tmp/cc9iSHlz.s:85     .text:000000000000005c .L0 
     /tmp/cc9iSHlz.s:67     .text:0000000000000044 _ZN7KThreadC1Ev
     /tmp/cc9iSHlz.s:93     .text:000000000000005c _ZN7KThread4initEv
     /tmp/cc9iSHlz.s:96     .text:000000000000005c .L0 
     /tmp/cc9iSHlz.s:98     .text:000000000000005c .L0 
     /tmp/cc9iSHlz.s:99     .text:0000000000000060 .L0 
     /tmp/cc9iSHlz.s:101    .text:0000000000000064 .L0 
     /tmp/cc9iSHlz.s:103    .text:0000000000000068 .L0 
     /tmp/cc9iSHlz.s:105    .text:0000000000000068 .L0 
     /tmp/cc9iSHlz.s:106    .text:0000000000000068 .L0 
     /tmp/cc9iSHlz.s:108    .text:000000000000006c .L0 
     /tmp/cc9iSHlz.s:109    .text:000000000000006c .L0 
     /tmp/cc9iSHlz.s:111    .text:0000000000000070 .L0 
     /tmp/cc9iSHlz.s:112    .text:0000000000000070 .L0 
     /tmp/cc9iSHlz.s:114    .text:0000000000000074 .L0 
     /tmp/cc9iSHlz.s:115    .text:0000000000000074 .L0 
     /tmp/cc9iSHlz.s:117    .text:0000000000000078 .L0 
     /tmp/cc9iSHlz.s:118    .text:0000000000000078 .L0 
     /tmp/cc9iSHlz.s:120    .text:000000000000007c .L0 
     /tmp/cc9iSHlz.s:121    .text:000000000000007c .L0 
     /tmp/cc9iSHlz.s:123    .text:0000000000000080 .L0 
     /tmp/cc9iSHlz.s:124    .text:0000000000000080 .L0 
GAS LISTING /tmp/cc9iSHlz.s 			page 14


     /tmp/cc9iSHlz.s:126    .text:0000000000000084 .L0 
     /tmp/cc9iSHlz.s:127    .text:0000000000000084 .L0 
     /tmp/cc9iSHlz.s:131    .text:0000000000000088 .L0 
     /tmp/cc9iSHlz.s:132    .text:0000000000000088 .L0 
     /tmp/cc9iSHlz.s:136    .text:000000000000008c .L0 
     /tmp/cc9iSHlz.s:139    .text:0000000000000094 .L0 
     /tmp/cc9iSHlz.s:140    .text:0000000000000094 .L0 
     /tmp/cc9iSHlz.s:145    .text:00000000000000a4 .L0 
     /tmp/cc9iSHlz.s:152    .text:00000000000000ac .L0 
     /tmp/cc9iSHlz.s:153    .text:00000000000000ac .L0 
     /tmp/cc9iSHlz.s:155    .text:00000000000000b0 .L0 
     /tmp/cc9iSHlz.s:156    .text:00000000000000b0 .L0 
     /tmp/cc9iSHlz.s:158    .text:00000000000000b4 .L0 
     /tmp/cc9iSHlz.s:159    .text:00000000000000b4 .L0 
     /tmp/cc9iSHlz.s:161    .text:00000000000000b8 .L0 
     /tmp/cc9iSHlz.s:162    .text:00000000000000bc .L0 
     /tmp/cc9iSHlz.s:163    .text:00000000000000bc .L0 
     /tmp/cc9iSHlz.s:165    .text:00000000000000c0 .L0 
     /tmp/cc9iSHlz.s:167    .text:00000000000000c4 .L0 
     /tmp/cc9iSHlz.s:173    .text:00000000000000c4 _ZN7KThread11copyContextEPm
     /tmp/cc9iSHlz.s:176    .text:00000000000000c4 .L0 
     /tmp/cc9iSHlz.s:178    .text:00000000000000c4 .L0 
     /tmp/cc9iSHlz.s:179    .text:00000000000000c8 .L0 
     /tmp/cc9iSHlz.s:181    .text:00000000000000cc .L0 
     /tmp/cc9iSHlz.s:183    .text:00000000000000d0 .L0 
     /tmp/cc9iSHlz.s:186    .text:00000000000000d0 .L0 
     /tmp/cc9iSHlz.s:188    .text:00000000000000d0 .L0 
     /tmp/cc9iSHlz.s:189    .text:00000000000000d0 .L0 
     /tmp/cc9iSHlz.s:193    .text:00000000000000d4 .L0 
     /tmp/cc9iSHlz.s:196    .text:00000000000000dc .L0 
     /tmp/cc9iSHlz.s:197    .text:00000000000000dc .L0 
     /tmp/cc9iSHlz.s:201    .text:00000000000000e8 .L0 
     /tmp/cc9iSHlz.s:206    .text:00000000000000f8 .L0 
     /tmp/cc9iSHlz.s:213    .text:0000000000000100 .L0 
     /tmp/cc9iSHlz.s:214    .text:0000000000000100 .L0 
     /tmp/cc9iSHlz.s:216    .text:0000000000000104 .L0 
     /tmp/cc9iSHlz.s:218    .text:0000000000000108 .L0 
     /tmp/cc9iSHlz.s:219    .text:0000000000000108 .L0 
     /tmp/cc9iSHlz.s:221    .text:000000000000010c .L0 
     /tmp/cc9iSHlz.s:223    .text:0000000000000110 .L0 
     /tmp/cc9iSHlz.s:224    .text:0000000000000110 .L0 
     /tmp/cc9iSHlz.s:226    .text:0000000000000114 .L0 
     /tmp/cc9iSHlz.s:228    .text:0000000000000118 .L0 
     /tmp/cc9iSHlz.s:229    .text:000000000000011c .L0 
     /tmp/cc9iSHlz.s:230    .text:000000000000011c .L0 
     /tmp/cc9iSHlz.s:232    .text:0000000000000120 .L0 
     /tmp/cc9iSHlz.s:234    .text:0000000000000124 .L0 
     /tmp/cc9iSHlz.s:240    .text:0000000000000124 _ZN7KThread10getContextEv
     /tmp/cc9iSHlz.s:243    .text:0000000000000124 .L0 
     /tmp/cc9iSHlz.s:245    .text:0000000000000124 .L0 
     /tmp/cc9iSHlz.s:246    .text:0000000000000128 .L0 
     /tmp/cc9iSHlz.s:248    .text:000000000000012c .L0 
     /tmp/cc9iSHlz.s:250    .text:0000000000000130 .L0 
     /tmp/cc9iSHlz.s:252    .text:0000000000000130 .L0 
     /tmp/cc9iSHlz.s:253    .text:0000000000000130 .L0 
     /tmp/cc9iSHlz.s:256    .text:0000000000000138 .L0 
     /tmp/cc9iSHlz.s:257    .text:0000000000000138 .L0 
GAS LISTING /tmp/cc9iSHlz.s 			page 15


     /tmp/cc9iSHlz.s:259    .text:000000000000013c .L0 
     /tmp/cc9iSHlz.s:261    .text:0000000000000140 .L0 
     /tmp/cc9iSHlz.s:267    .text:0000000000000140 _ZN7KThread14getNextInQueueEv
     /tmp/cc9iSHlz.s:270    .text:0000000000000140 .L0 
     /tmp/cc9iSHlz.s:272    .text:0000000000000140 .L0 
     /tmp/cc9iSHlz.s:273    .text:0000000000000144 .L0 
     /tmp/cc9iSHlz.s:275    .text:0000000000000148 .L0 
     /tmp/cc9iSHlz.s:277    .text:000000000000014c .L0 
     /tmp/cc9iSHlz.s:279    .text:000000000000014c .L0 
     /tmp/cc9iSHlz.s:280    .text:000000000000014c .L0 
     /tmp/cc9iSHlz.s:283    .text:0000000000000154 .L0 
     /tmp/cc9iSHlz.s:284    .text:0000000000000154 .L0 
     /tmp/cc9iSHlz.s:286    .text:0000000000000158 .L0 
     /tmp/cc9iSHlz.s:288    .text:000000000000015c .L0 
     /tmp/cc9iSHlz.s:294    .text:000000000000015c _ZN7KThread14getPrevInQueueEv
     /tmp/cc9iSHlz.s:297    .text:000000000000015c .L0 
     /tmp/cc9iSHlz.s:299    .text:000000000000015c .L0 
     /tmp/cc9iSHlz.s:300    .text:0000000000000160 .L0 
     /tmp/cc9iSHlz.s:302    .text:0000000000000164 .L0 
     /tmp/cc9iSHlz.s:304    .text:0000000000000168 .L0 
     /tmp/cc9iSHlz.s:306    .text:0000000000000168 .L0 
     /tmp/cc9iSHlz.s:307    .text:0000000000000168 .L0 
     /tmp/cc9iSHlz.s:310    .text:0000000000000170 .L0 
     /tmp/cc9iSHlz.s:311    .text:0000000000000170 .L0 
     /tmp/cc9iSHlz.s:313    .text:0000000000000174 .L0 
     /tmp/cc9iSHlz.s:315    .text:0000000000000178 .L0 
     /tmp/cc9iSHlz.s:321    .text:0000000000000178 _ZN7KThread14setNextInQueueEPS_
     /tmp/cc9iSHlz.s:324    .text:0000000000000178 .L0 
     /tmp/cc9iSHlz.s:326    .text:0000000000000178 .L0 
     /tmp/cc9iSHlz.s:327    .text:000000000000017c .L0 
     /tmp/cc9iSHlz.s:329    .text:0000000000000180 .L0 
     /tmp/cc9iSHlz.s:331    .text:0000000000000184 .L0 
     /tmp/cc9iSHlz.s:333    .text:0000000000000184 .L0 
     /tmp/cc9iSHlz.s:334    .text:0000000000000184 .L0 
     /tmp/cc9iSHlz.s:336    .text:0000000000000188 .L0 
     /tmp/cc9iSHlz.s:337    .text:000000000000018c .L0 
     /tmp/cc9iSHlz.s:338    .text:000000000000018c .L0 
     /tmp/cc9iSHlz.s:340    .text:0000000000000190 .L0 
     /tmp/cc9iSHlz.s:342    .text:0000000000000194 .L0 
     /tmp/cc9iSHlz.s:348    .text:0000000000000194 _ZN7KThread14setPrevInQueueEPS_
     /tmp/cc9iSHlz.s:351    .text:0000000000000194 .L0 
     /tmp/cc9iSHlz.s:353    .text:0000000000000194 .L0 
     /tmp/cc9iSHlz.s:354    .text:0000000000000198 .L0 
     /tmp/cc9iSHlz.s:356    .text:000000000000019c .L0 
     /tmp/cc9iSHlz.s:358    .text:00000000000001a0 .L0 
     /tmp/cc9iSHlz.s:360    .text:00000000000001a0 .L0 
     /tmp/cc9iSHlz.s:361    .text:00000000000001a0 .L0 
     /tmp/cc9iSHlz.s:363    .text:00000000000001a4 .L0 
     /tmp/cc9iSHlz.s:364    .text:00000000000001a8 .L0 
     /tmp/cc9iSHlz.s:365    .text:00000000000001a8 .L0 
     /tmp/cc9iSHlz.s:367    .text:00000000000001ac .L0 
     /tmp/cc9iSHlz.s:369    .text:00000000000001b0 .L0 
     /tmp/cc9iSHlz.s:375    .text:00000000000001b0 _ZN7KThread21setNextAndPrevInQueueEPS_S0_
     /tmp/cc9iSHlz.s:378    .text:00000000000001b0 .L0 
     /tmp/cc9iSHlz.s:380    .text:00000000000001b0 .L0 
     /tmp/cc9iSHlz.s:381    .text:00000000000001b4 .L0 
     /tmp/cc9iSHlz.s:386    .text:00000000000001c4 .L0 
GAS LISTING /tmp/cc9iSHlz.s 			page 16


     /tmp/cc9iSHlz.s:387    .text:00000000000001c4 .L0 
     /tmp/cc9iSHlz.s:388    .text:00000000000001c4 .L0 
     /tmp/cc9iSHlz.s:389    .text:00000000000001c4 .L0 
     /tmp/cc9iSHlz.s:391    .text:00000000000001c8 .L0 
     /tmp/cc9iSHlz.s:395    .text:00000000000001d0 .L0 
     /tmp/cc9iSHlz.s:396    .text:00000000000001d0 .L0 
     /tmp/cc9iSHlz.s:399    .text:00000000000001d8 .L0 
     /tmp/cc9iSHlz.s:400    .text:00000000000001d8 .L0 
     /tmp/cc9iSHlz.s:405    .text:00000000000001e8 .L0 
     /tmp/cc9iSHlz.s:406    .text:00000000000001ec .L0 
     /tmp/cc9iSHlz.s:408    .text:00000000000001f0 .L0 
     /tmp/cc9iSHlz.s:409    .text:00000000000001f0 .L0 
     /tmp/cc9iSHlz.s:411    .text:00000000000001f4 .L0 
     /tmp/cc9iSHlz.s:414    .text:00000000000001f8 .L0 
     /tmp/cc9iSHlz.s:417    .text:00000000000001fc .L0 
     /tmp/cc9iSHlz.s:419    .text:0000000000000200 .L0 
     /tmp/cc9iSHlz.s:425    .text:0000000000000200 _ZN7KThread5setupEPS_Pm
     /tmp/cc9iSHlz.s:428    .text:0000000000000200 .L0 
     /tmp/cc9iSHlz.s:430    .text:0000000000000200 .L0 
     /tmp/cc9iSHlz.s:431    .text:0000000000000204 .L0 
     /tmp/cc9iSHlz.s:433    .text:0000000000000208 .L0 
     /tmp/cc9iSHlz.s:435    .text:000000000000020c .L0 
     /tmp/cc9iSHlz.s:437    .text:000000000000020c .L0 
     /tmp/cc9iSHlz.s:438    .text:000000000000020c .L0 
     /tmp/cc9iSHlz.s:440    .text:0000000000000210 .L0 
     /tmp/cc9iSHlz.s:441    .text:0000000000000210 .L0 
     /tmp/cc9iSHlz.s:443    .text:0000000000000214 .L0 
     /tmp/cc9iSHlz.s:444    .text:0000000000000214 .L0 
     /tmp/cc9iSHlz.s:446    .text:0000000000000218 .L0 
     /tmp/cc9iSHlz.s:447    .text:0000000000000218 .L0 
     /tmp/cc9iSHlz.s:450    .text:0000000000000224 .L0 
     /tmp/cc9iSHlz.s:451    .text:0000000000000224 .L0 
     /tmp/cc9iSHlz.s:453    .text:0000000000000228 .L0 
     /tmp/cc9iSHlz.s:454    .text:0000000000000228 .L0 
      src/Thread.cpp:66     .text:0000000000000228 .L0 
     /tmp/cc9iSHlz.s:461    .text:000000000000022c .L0 
     /tmp/cc9iSHlz.s:463    .text:000000000000022c .L0 
     /tmp/cc9iSHlz.s:465    .text:0000000000000230 .L0 
     /tmp/cc9iSHlz.s:466    .text:0000000000000230 .L0 
      src/Thread.cpp:70     .text:0000000000000230 .L0 
     /tmp/cc9iSHlz.s:473    .text:0000000000000234 .L0 
     /tmp/cc9iSHlz.s:475    .text:0000000000000234 .L0 
     /tmp/cc9iSHlz.s:478    .text:0000000000000238 .L0 
     /tmp/cc9iSHlz.s:479    .text:0000000000000238 .L0 
     /tmp/cc9iSHlz.s:482    .text:000000000000023c .L0 
     /tmp/cc9iSHlz.s:483    .text:000000000000023c .L0 
     /tmp/cc9iSHlz.s:485    .text:0000000000000240 .L0 
     /tmp/cc9iSHlz.s:486    .text:0000000000000244 .L0 
     /tmp/cc9iSHlz.s:487    .text:0000000000000244 .L0 
     /tmp/cc9iSHlz.s:489    .text:0000000000000248 .L0 
     /tmp/cc9iSHlz.s:491    .text:000000000000024c .L0 
     /tmp/cc9iSHlz.s:497    .text:000000000000024c .L0 
     /tmp/cc9iSHlz.s:447    .text:0000000000000218 .L0 
     /tmp/cc9iSHlz.s:52     .text:0000000000000038 .L4
     /tmp/cc9iSHlz.s:149    .text:00000000000000ac .L10
     /tmp/cc9iSHlz.s:134    .text:000000000000008c .L11
     /tmp/cc9iSHlz.s:210    .text:0000000000000100 .L14
GAS LISTING /tmp/cc9iSHlz.s 			page 17


     /tmp/cc9iSHlz.s:191    .text:00000000000000d4 .L15
     /tmp/cc9iSHlz.s:1289   .debug_abbrev:0000000000000000 .Ldebug_abbrev0
     /tmp/cc9iSHlz.s:2263   .debug_str:0000000000000373 .LASF62
     /tmp/cc9iSHlz.s:2257   .debug_str:000000000000034c .LASF63
     /tmp/cc9iSHlz.s:2251   .debug_str:00000000000002fd .LASF64
     /tmp/cc9iSHlz.s:5      .text:0000000000000000 .Ltext0
     /tmp/cc9iSHlz.s:494    .text:000000000000024c .Letext0
     /tmp/cc9iSHlz.s:2147   .debug_line:0000000000000000 .Ldebug_line0
     /tmp/cc9iSHlz.s:2223   .debug_str:000000000000021f .LASF0
     /tmp/cc9iSHlz.s:2229   .debug_str:0000000000000243 .LASF1
     /tmp/cc9iSHlz.s:2215   .debug_str:00000000000001ea .LASF2
     /tmp/cc9iSHlz.s:2201   .debug_str:0000000000000180 .LASF4
     /tmp/cc9iSHlz.s:2225   .debug_str:000000000000022c .LASF3
     /tmp/cc9iSHlz.s:2165   .debug_str:0000000000000087 .LASF5
     /tmp/cc9iSHlz.s:2181   .debug_str:00000000000000ed .LASF6
     /tmp/cc9iSHlz.s:2231   .debug_str:0000000000000256 .LASF7
     /tmp/cc9iSHlz.s:2221   .debug_str:000000000000020c .LASF8
     /tmp/cc9iSHlz.s:2273   .debug_str:0000000000000480 .LASF9
     /tmp/cc9iSHlz.s:2197   .debug_str:0000000000000152 .LASF10
     /tmp/cc9iSHlz.s:2237   .debug_str:000000000000028c .LASF11
     /tmp/cc9iSHlz.s:2265   .debug_str:0000000000000437 .LASF12
     /tmp/cc9iSHlz.s:2169   .debug_str:0000000000000098 .LASF13
     /tmp/cc9iSHlz.s:2151   .debug_str:000000000000000d .LASF14
     /tmp/cc9iSHlz.s:2175   .debug_str:00000000000000c4 .LASF15
     /tmp/cc9iSHlz.s:2247   .debug_str:00000000000002d4 .LASF16
     /tmp/cc9iSHlz.s:2179   .debug_str:00000000000000d7 .LASF17
     /tmp/cc9iSHlz.s:2155   .debug_str:000000000000003b .LASF65
     /tmp/cc9iSHlz.s:2227   .debug_str:000000000000023e .LASF18
     /tmp/cc9iSHlz.s:2245   .debug_str:00000000000002cc .LASF19
     /tmp/cc9iSHlz.s:2187   .debug_str:0000000000000129 .LASF28
     /tmp/cc9iSHlz.s:2173   .debug_str:00000000000000b3 .LASF52
     /tmp/cc9iSHlz.s:2255   .debug_str:000000000000032a .LASF54
     /tmp/cc9iSHlz.s:2203   .debug_str:0000000000000187 .LASF20
     /tmp/cc9iSHlz.s:2193   .debug_str:000000000000013c .LASF21
     /tmp/cc9iSHlz.s:2275   .debug_str:0000000000000490 .LASF22
     /tmp/cc9iSHlz.s:2279   .debug_str:00000000000004bf .LASF23
     /tmp/cc9iSHlz.s:2159   .debug_str:0000000000000052 .LASF24
     /tmp/cc9iSHlz.s:2149   .debug_str:0000000000000000 .LASF25
     /tmp/cc9iSHlz.s:2205   .debug_str:000000000000018c .LASF26
     /tmp/cc9iSHlz.s:2163   .debug_str:0000000000000079 .LASF27
     /tmp/cc9iSHlz.s:2211   .debug_str:00000000000001ba .LASF30
     /tmp/cc9iSHlz.s:2261   .debug_str:0000000000000367 .LASF29
     /tmp/cc9iSHlz.s:2243   .debug_str:00000000000002b0 .LASF31
     /tmp/cc9iSHlz.s:2233   .debug_str:0000000000000269 .LASF32
     /tmp/cc9iSHlz.s:2249   .debug_str:00000000000002ea .LASF33
     /tmp/cc9iSHlz.s:2219   .debug_str:0000000000000200 .LASF34
     /tmp/cc9iSHlz.s:2185   .debug_str:000000000000010e .LASF36
     /tmp/cc9iSHlz.s:2171   .debug_str:00000000000000a8 .LASF35
     /tmp/cc9iSHlz.s:2183   .debug_str:00000000000000f4 .LASF37
     /tmp/cc9iSHlz.s:2167   .debug_str:000000000000008e .LASF38
     /tmp/cc9iSHlz.s:2267   .debug_str:0000000000000446 .LASF39
     /tmp/cc9iSHlz.s:2195   .debug_str:0000000000000143 .LASF40
     /tmp/cc9iSHlz.s:2153   .debug_str:000000000000001d .LASF41
     /tmp/cc9iSHlz.s:2253   .debug_str:000000000000031b .LASF42
     /tmp/cc9iSHlz.s:2235   .debug_str:000000000000026e .LASF43
     /tmp/cc9iSHlz.s:2281   .debug_str:00000000000004c4 .LASF44
     /tmp/cc9iSHlz.s:2199   .debug_str:0000000000000160 .LASF45
GAS LISTING /tmp/cc9iSHlz.s 			page 18


     /tmp/cc9iSHlz.s:2157   .debug_str:0000000000000043 .LASF46
     /tmp/cc9iSHlz.s:2213   .debug_str:00000000000001ca .LASF47
     /tmp/cc9iSHlz.s:2209   .debug_str:00000000000001a4 .LASF48
     /tmp/cc9iSHlz.s:2277   .debug_str:0000000000000495 .LASF49
     /tmp/cc9iSHlz.s:2189   .debug_str:0000000000000131 .LASF50
     /tmp/cc9iSHlz.s:2271   .debug_str:0000000000000468 .LASF51
     /tmp/cc9iSHlz.s:2217   .debug_str:00000000000001f8 .LASF53
     /tmp/cc9iSHlz.s:2161   .debug_str:000000000000005b .LASF55
     /tmp/cc9iSHlz.s:10     .text:0000000000000000 .LFB15
     /tmp/cc9iSHlz.s:62     .text:0000000000000044 .LFE15
     /tmp/cc9iSHlz.s:1981   .debug_loc:0000000000000000 .LLST0
     /tmp/cc9iSHlz.s:426    .text:0000000000000200 .LFB14
     /tmp/cc9iSHlz.s:492    .text:000000000000024c .LFE14
     /tmp/cc9iSHlz.s:2241   .debug_str:00000000000002ab .LASF60
     /tmp/cc9iSHlz.s:2207   .debug_str:0000000000000197 .LASF56
     /tmp/cc9iSHlz.s:2269   .debug_str:000000000000045e .LASF57
     /tmp/cc9iSHlz.s:2177   .debug_str:00000000000000d0 .LASF58
     /tmp/cc9iSHlz.s:1999   .debug_loc:000000000000004c .LLST9
     /tmp/cc9iSHlz.s:2259   .debug_str:000000000000035b .LASF59
     /tmp/cc9iSHlz.s:376    .text:00000000000001b0 .LFB13
     /tmp/cc9iSHlz.s:420    .text:0000000000000200 .LFE13
     /tmp/cc9iSHlz.s:2011   .debug_loc:0000000000000084 .LLST6
     /tmp/cc9iSHlz.s:2029   .debug_loc:00000000000000d0 .LLST7
     /tmp/cc9iSHlz.s:2043   .debug_loc:0000000000000109 .LLST8
     /tmp/cc9iSHlz.s:397    .text:00000000000001d8 .LVL24
     /tmp/cc9iSHlz.s:403    .text:00000000000001e8 .LVL25
     /tmp/cc9iSHlz.s:349    .text:0000000000000194 .LFB12
     /tmp/cc9iSHlz.s:370    .text:00000000000001b0 .LFE12
     /tmp/cc9iSHlz.s:322    .text:0000000000000178 .LFB11
     /tmp/cc9iSHlz.s:343    .text:0000000000000194 .LFE11
     /tmp/cc9iSHlz.s:295    .text:000000000000015c .LFB10
     /tmp/cc9iSHlz.s:316    .text:0000000000000178 .LFE10
     /tmp/cc9iSHlz.s:2061   .debug_loc:0000000000000155 .LLST5
     /tmp/cc9iSHlz.s:268    .text:0000000000000140 .LFB9
     /tmp/cc9iSHlz.s:289    .text:000000000000015c .LFE9
     /tmp/cc9iSHlz.s:2075   .debug_loc:000000000000018e .LLST4
     /tmp/cc9iSHlz.s:241    .text:0000000000000124 .LFB8
     /tmp/cc9iSHlz.s:262    .text:0000000000000140 .LFE8
     /tmp/cc9iSHlz.s:2089   .debug_loc:00000000000001c7 .LLST3
     /tmp/cc9iSHlz.s:174    .text:00000000000000c4 .LFB7
     /tmp/cc9iSHlz.s:235    .text:0000000000000124 .LFE7
     /tmp/cc9iSHlz.s:2191   .debug_str:0000000000000137 .LASF61
     /tmp/cc9iSHlz.s:187    .text:00000000000000d0 .LBB3
     /tmp/cc9iSHlz.s:211    .text:0000000000000100 .LBE3
     /tmp/cc9iSHlz.s:2102   .debug_loc:00000000000001ff .LLST2
     /tmp/cc9iSHlz.s:94     .text:000000000000005c .LFB6
     /tmp/cc9iSHlz.s:168    .text:00000000000000c4 .LFE6
     /tmp/cc9iSHlz.s:130    .text:0000000000000088 .LBB2
     /tmp/cc9iSHlz.s:150    .text:00000000000000ac .LBE2
     /tmp/cc9iSHlz.s:2118   .debug_loc:0000000000000249 .LLST1
     /tmp/cc9iSHlz.s:2239   .debug_str:000000000000029b .LASF66
     /tmp/cc9iSHlz.s:68     .text:0000000000000044 .LFB4
     /tmp/cc9iSHlz.s:86     .text:000000000000005c .LFE4
     /tmp/cc9iSHlz.s:14     .text:0000000000000000 .LVL0
     /tmp/cc9iSHlz.s:32     .text:000000000000001c .LVL1
     /tmp/cc9iSHlz.s:51     .text:0000000000000038 .LVL3
     /tmp/cc9iSHlz.s:459    .text:000000000000022c .LVL29
GAS LISTING /tmp/cc9iSHlz.s 			page 19


     /tmp/cc9iSHlz.s:471    .text:0000000000000234 .LVL30
     /tmp/cc9iSHlz.s:379    .text:00000000000001b0 .LVL23
     /tmp/cc9iSHlz.s:412    .text:00000000000001f4 .LVL26
     /tmp/cc9iSHlz.s:415    .text:00000000000001f8 .LVL27
     /tmp/cc9iSHlz.s:298    .text:000000000000015c .LVL19
     /tmp/cc9iSHlz.s:308    .text:000000000000016c .LVL20
     /tmp/cc9iSHlz.s:271    .text:0000000000000140 .LVL17
     /tmp/cc9iSHlz.s:281    .text:0000000000000150 .LVL18
     /tmp/cc9iSHlz.s:244    .text:0000000000000124 .LVL15
     /tmp/cc9iSHlz.s:254    .text:0000000000000134 .LVL16
     /tmp/cc9iSHlz.s:185    .text:00000000000000d0 .LVL11
     /tmp/cc9iSHlz.s:190    .text:00000000000000d4 .LVL12
     /tmp/cc9iSHlz.s:207    .text:00000000000000fc .LVL13
     /tmp/cc9iSHlz.s:209    .text:0000000000000100 .LVL14
     /tmp/cc9iSHlz.s:129    .text:0000000000000088 .LVL6
     /tmp/cc9iSHlz.s:133    .text:000000000000008c .LVL7
     /tmp/cc9iSHlz.s:146    .text:00000000000000a8 .LVL8
     /tmp/cc9iSHlz.s:148    .text:00000000000000ac .LVL9
     /tmp/cc9iSHlz.s:498    .debug_info:0000000000000000 .Ldebug_info0

NO UNDEFINED SYMBOLS
