GAS LISTING /tmp/cch0p4o5.s 			page 1


   1              		.file	"Thread.cpp"
   2              		.option pic
   3              		.option norelax
   4              		.text
   5              	.Ltext0:
   6              		.section	.text._ZN6Thread16threadTrampolineEPS_,"axG",@progbits,_ZN6Thread16threadTrampolineEPS_,c
   7              		.align	2
   8              		.weak	_ZN6Thread16threadTrampolineEPS_
  10              	_ZN6Thread16threadTrampolineEPS_:
  11              	.LFB0:
  12              		.file 1 "src/Thread.hpp"
   1:src/Thread.hpp **** //
   2:src/Thread.hpp **** // Created by os on 6/10/26.
   3:src/Thread.hpp **** //
   4:src/Thread.hpp **** 
   5:src/Thread.hpp **** #ifndef OSPROJEKAT_THREAD_H
   6:src/Thread.hpp **** #define OSPROJEKAT_THREAD_H
   7:src/Thread.hpp **** 
   8:src/Thread.hpp **** #include "../lib/hw.h"
   9:src/Thread.hpp **** struct Context {
  10:src/Thread.hpp ****     size_t x[32];    // x0-x31, offsets 0x00-0xF
  11:src/Thread.hpp ****     size_t sepc;     // offset 0x100
  12:src/Thread.hpp ****     size_t sstatus;  // offset 0x108
  13:src/Thread.hpp **** };
  14:src/Thread.hpp **** 
  15:src/Thread.hpp **** class Thread{
  16:src/Thread.hpp **** protected:
  17:src/Thread.hpp ****     static void threadTrampoline(Thread* t) {
  13              		.loc 1 17 17
  14              		.cfi_startproc
  15              	.LVL0:
  16 0000 130101FF 		addi	sp,sp,-16
  17              		.cfi_def_cfa_offset 16
  18 0004 23341100 		sd	ra,8(sp)
  19 0008 23308100 		sd	s0,0(sp)
  20              		.cfi_offset 1, -8
  21              		.cfi_offset 8, -16
  22 000c 13040101 		addi	s0,sp,16
  23              		.cfi_def_cfa 8, 0
  18:src/Thread.hpp ****         t->run();
  24              		.loc 1 18 9
  25              		.loc 1 18 16 is_stmt 0
  26 0010 83370500 		ld	a5,0(a0)
  27 0014 83B78700 		ld	a5,8(a5)
  28              		.loc 1 18 15
  29 0018 E7800700 		jalr	a5
  30              	.LVL1:
  19:src/Thread.hpp ****     }
  31              		.loc 1 19 5
  32 001c 83308100 		ld	ra,8(sp)
  33              		.cfi_restore 1
  34 0020 03340100 		ld	s0,0(sp)
  35              		.cfi_restore 8
  36              		.cfi_def_cfa 2, 16
  37 0024 13010101 		addi	sp,sp,16
  38              		.cfi_def_cfa_offset 0
  39 0028 67800000 		jr	ra
GAS LISTING /tmp/cch0p4o5.s 			page 2


  40              		.cfi_endproc
  41              	.LFE0:
  43              		.text
  44              		.align	2
  45              		.globl	_ZN6Thread4initEv
  47              	_ZN6Thread4initEv:
  48              	.LFB4:
  49              		.file 2 "src/Thread.cpp"
   1:src/Thread.cpp **** //
   2:src/Thread.cpp **** // Created by os on 6/10/26.
   3:src/Thread.cpp **** //
   4:src/Thread.cpp **** 
   5:src/Thread.cpp **** #include "Thread.hpp"
   6:src/Thread.cpp **** #include "Scheduler.hpp"
   7:src/Thread.cpp **** 
   8:src/Thread.cpp **** #include "../lib/console.h"
   9:src/Thread.cpp **** 
  10:src/Thread.cpp **** Thread::Thread() {
  11:src/Thread.cpp **** }
  12:src/Thread.cpp **** 
  13:src/Thread.cpp **** void Thread::init() {
  50              		.loc 2 13 21 is_stmt 1
  51              		.cfi_startproc
  52              	.LVL2:
  53 0000 130101FF 		addi	sp,sp,-16
  54              		.cfi_def_cfa_offset 16
  55 0004 23348100 		sd	s0,8(sp)
  56              		.cfi_offset 8, -8
  57 0008 13040101 		addi	s0,sp,16
  58              		.cfi_def_cfa 8, 0
  14:src/Thread.cpp **** 
  15:src/Thread.cpp **** }
  59              		.loc 2 15 1 is_stmt 0
  60 000c 03348100 		ld	s0,8(sp)
  61              		.cfi_restore 8
  62              		.cfi_def_cfa 2, 16
  63 0010 13010101 		addi	sp,sp,16
  64              		.cfi_def_cfa_offset 0
  65 0014 67800000 		jr	ra
  66              		.cfi_endproc
  67              	.LFE4:
  69              		.align	2
  70              		.globl	_ZN6Thread3runEv
  72              	_ZN6Thread3runEv:
  73              	.LFB13:
  16:src/Thread.cpp **** void Thread::copyContext(size_t* ctx) {
  17:src/Thread.cpp ****     Context* cont = reinterpret_cast<Context*>(ctx);
  18:src/Thread.cpp ****     for (int i = 0;i<32;i++) {
  19:src/Thread.cpp ****         threadContext.x[i] = cont->x[i];
  20:src/Thread.cpp ****     }
  21:src/Thread.cpp ****     threadContext.sepc = cont->sepc;
  22:src/Thread.cpp ****     threadContext.sstatus =cont->sstatus;
  23:src/Thread.cpp **** }
  24:src/Thread.cpp **** 
  25:src/Thread.cpp **** size_t* Thread::getContext() {
  26:src/Thread.cpp ****     return reinterpret_cast<size_t*>(&threadContext);
  27:src/Thread.cpp **** }
GAS LISTING /tmp/cch0p4o5.s 			page 3


  28:src/Thread.cpp **** Thread* Thread::getNextInQueue(){
  29:src/Thread.cpp ****     return next;
  30:src/Thread.cpp **** }
  31:src/Thread.cpp **** Thread* Thread::getPrevInQueue(){
  32:src/Thread.cpp ****     return prev;
  33:src/Thread.cpp **** }
  34:src/Thread.cpp **** void Thread::setNextInQueue(Thread* next){
  35:src/Thread.cpp ****     this->next = next;
  36:src/Thread.cpp **** }
  37:src/Thread.cpp **** void Thread::setPrevInQueue(Thread* prev){
  38:src/Thread.cpp ****     this->prev = prev;
  39:src/Thread.cpp **** }
  40:src/Thread.cpp **** void Thread::setNextAndPrevInQueue(Thread* next, Thread* prev){
  41:src/Thread.cpp ****     setNextInQueue(next);
  42:src/Thread.cpp ****     setPrevInQueue(prev);
  43:src/Thread.cpp **** }
  44:src/Thread.cpp **** void Thread::start(){
  45:src/Thread.cpp ****     Scheduler::AddNewThread(this);
  46:src/Thread.cpp ****     this->threadContext.x[5] = reinterpret_cast<size_t>(&Thread::threadTrampoline);
  47:src/Thread.cpp ****     this->threadContext.x[10] = reinterpret_cast<size_t>(this);
  48:src/Thread.cpp ****     Scheduler::yield(nullptr,this);
  49:src/Thread.cpp **** }
  50:src/Thread.cpp **** void Thread::run(){
  74              		.loc 2 50 19 is_stmt 1
  75              		.cfi_startproc
  76              	.LVL3:
  77 0018 130101FF 		addi	sp,sp,-16
  78              		.cfi_def_cfa_offset 16
  79 001c 23341100 		sd	ra,8(sp)
  80 0020 23308100 		sd	s0,0(sp)
  81              		.cfi_offset 1, -8
  82              		.cfi_offset 8, -16
  83 0024 13040101 		addi	s0,sp,16
  84              		.cfi_def_cfa 8, 0
  51:src/Thread.cpp ****     __putc('{');
  85              		.loc 2 51 5
  86              		.loc 2 51 11 is_stmt 0
  87 0028 1305B007 		li	a0,123
  88              	.LVL4:
  89 002c 97000000 		call	__putc@plt
  89      E7800000 
  90              	.LVL5:
  52:src/Thread.cpp **** }
  91              		.loc 2 52 1
  92 0034 83308100 		ld	ra,8(sp)
  93              		.cfi_restore 1
  94 0038 03340100 		ld	s0,0(sp)
  95              		.cfi_restore 8
  96              		.cfi_def_cfa 2, 16
  97 003c 13010101 		addi	sp,sp,16
  98              		.cfi_def_cfa_offset 0
  99 0040 67800000 		jr	ra
 100              		.cfi_endproc
 101              	.LFE13:
 103              		.align	2
 104              		.globl	_ZN6ThreadC2Ev
 106              	_ZN6ThreadC2Ev:
GAS LISTING /tmp/cch0p4o5.s 			page 4


 107              	.LFB2:
  10:src/Thread.cpp **** }
 108              		.loc 2 10 1 is_stmt 1
 109              		.cfi_startproc
 110              	.LVL6:
 111 0044 130101FF 		addi	sp,sp,-16
 112              		.cfi_def_cfa_offset 16
 113 0048 23348100 		sd	s0,8(sp)
 114              		.cfi_offset 8, -8
 115 004c 13040101 		addi	s0,sp,16
 116              		.cfi_def_cfa 8, 0
 117              	.LBB2:
  10:src/Thread.cpp **** }
 118              		.loc 2 10 16 is_stmt 0
 119 0050 97070000 		lla	a5,_ZTV6Thread+16
 119      93870700 
 120 0058 2330F500 		sd	a5,0(a0)
 121              	.LBE2:
  11:src/Thread.cpp **** 
 122              		.loc 2 11 1
 123 005c 03348100 		ld	s0,8(sp)
 124              		.cfi_restore 8
 125              		.cfi_def_cfa 2, 16
 126 0060 13010101 		addi	sp,sp,16
 127              		.cfi_def_cfa_offset 0
 128 0064 67800000 		jr	ra
 129              		.cfi_endproc
 130              	.LFE2:
 132              		.globl	_ZN6ThreadC1Ev
 133              		.set	_ZN6ThreadC1Ev,_ZN6ThreadC2Ev
 134              		.align	2
 135              		.globl	_ZN6Thread11copyContextEPm
 137              	_ZN6Thread11copyContextEPm:
 138              	.LFB5:
  16:src/Thread.cpp ****     Context* cont = reinterpret_cast<Context*>(ctx);
 139              		.loc 2 16 39 is_stmt 1
 140              		.cfi_startproc
 141              	.LVL7:
 142 0068 130101FF 		addi	sp,sp,-16
 143              		.cfi_def_cfa_offset 16
 144 006c 23348100 		sd	s0,8(sp)
 145              		.cfi_offset 8, -8
 146 0070 13040101 		addi	s0,sp,16
 147              		.cfi_def_cfa 8, 0
  17:src/Thread.cpp ****     for (int i = 0;i<32;i++) {
 148              		.loc 2 17 5
 149              	.LVL8:
  18:src/Thread.cpp ****         threadContext.x[i] = cont->x[i];
 150              		.loc 2 18 5
 151              	.LBB3:
  18:src/Thread.cpp ****         threadContext.x[i] = cont->x[i];
 152              		.loc 2 18 14 is_stmt 0
 153 0074 13070000 		li	a4,0
 154              	.LVL9:
 155              	.L11:
  18:src/Thread.cpp ****         threadContext.x[i] = cont->x[i];
 156              		.loc 2 18 21 is_stmt 1 discriminator 3
GAS LISTING /tmp/cch0p4o5.s 			page 5


 157 0078 9307F001 		li	a5,31
 158 007c 63C0E702 		bgt	a4,a5,.L10
  19:src/Thread.cpp ****     }
 159              		.loc 2 19 9 discriminator 2
  19:src/Thread.cpp ****     }
 160              		.loc 2 19 39 is_stmt 0 discriminator 2
 161 0080 93173700 		slli	a5,a4,3
 162 0084 B386F500 		add	a3,a1,a5
 163 0088 83B60600 		ld	a3,0(a3)
  19:src/Thread.cpp ****     }
 164              		.loc 2 19 28 discriminator 2
 165 008c B307F500 		add	a5,a0,a5
 166 0090 23B4D700 		sd	a3,8(a5)
  18:src/Thread.cpp ****         threadContext.x[i] = cont->x[i];
 167              		.loc 2 18 5 is_stmt 1 discriminator 2
 168 0094 1B071700 		addiw	a4,a4,1
 169              	.LVL10:
 170 0098 6FF01FFE 		j	.L11
 171              	.LVL11:
 172              	.L10:
 173              	.LBE3:
  21:src/Thread.cpp ****     threadContext.sstatus =cont->sstatus;
 174              		.loc 2 21 5
  21:src/Thread.cpp ****     threadContext.sstatus =cont->sstatus;
 175              		.loc 2 21 32 is_stmt 0
 176 009c 83B70510 		ld	a5,256(a1)
  21:src/Thread.cpp ****     threadContext.sstatus =cont->sstatus;
 177              		.loc 2 21 24
 178 00a0 2334F510 		sd	a5,264(a0)
  22:src/Thread.cpp **** }
 179              		.loc 2 22 5 is_stmt 1
  22:src/Thread.cpp **** }
 180              		.loc 2 22 34 is_stmt 0
 181 00a4 83B78510 		ld	a5,264(a1)
  22:src/Thread.cpp **** }
 182              		.loc 2 22 27
 183 00a8 2338F510 		sd	a5,272(a0)
  23:src/Thread.cpp **** 
 184              		.loc 2 23 1
 185 00ac 03348100 		ld	s0,8(sp)
 186              		.cfi_restore 8
 187              		.cfi_def_cfa 2, 16
 188 00b0 13010101 		addi	sp,sp,16
 189              		.cfi_def_cfa_offset 0
 190 00b4 67800000 		jr	ra
 191              		.cfi_endproc
 192              	.LFE5:
 194              		.align	2
 195              		.globl	_ZN6Thread10getContextEv
 197              	_ZN6Thread10getContextEv:
 198              	.LFB6:
  25:src/Thread.cpp ****     return reinterpret_cast<size_t*>(&threadContext);
 199              		.loc 2 25 30 is_stmt 1
 200              		.cfi_startproc
 201              	.LVL12:
 202 00b8 130101FF 		addi	sp,sp,-16
 203              		.cfi_def_cfa_offset 16
GAS LISTING /tmp/cch0p4o5.s 			page 6


 204 00bc 23348100 		sd	s0,8(sp)
 205              		.cfi_offset 8, -8
 206 00c0 13040101 		addi	s0,sp,16
 207              		.cfi_def_cfa 8, 0
  26:src/Thread.cpp **** }
 208              		.loc 2 26 5
  27:src/Thread.cpp **** Thread* Thread::getNextInQueue(){
 209              		.loc 2 27 1 is_stmt 0
 210 00c4 13058500 		addi	a0,a0,8
 211              	.LVL13:
 212 00c8 03348100 		ld	s0,8(sp)
 213              		.cfi_restore 8
 214              		.cfi_def_cfa 2, 16
 215 00cc 13010101 		addi	sp,sp,16
 216              		.cfi_def_cfa_offset 0
 217 00d0 67800000 		jr	ra
 218              		.cfi_endproc
 219              	.LFE6:
 221              		.align	2
 222              		.globl	_ZN6Thread14getNextInQueueEv
 224              	_ZN6Thread14getNextInQueueEv:
 225              	.LFB7:
  28:src/Thread.cpp ****     return next;
 226              		.loc 2 28 33 is_stmt 1
 227              		.cfi_startproc
 228              	.LVL14:
 229 00d4 130101FF 		addi	sp,sp,-16
 230              		.cfi_def_cfa_offset 16
 231 00d8 23348100 		sd	s0,8(sp)
 232              		.cfi_offset 8, -8
 233 00dc 13040101 		addi	s0,sp,16
 234              		.cfi_def_cfa 8, 0
  29:src/Thread.cpp **** }
 235              		.loc 2 29 5
  30:src/Thread.cpp **** Thread* Thread::getPrevInQueue(){
 236              		.loc 2 30 1 is_stmt 0
 237 00e0 03350512 		ld	a0,288(a0)
 238              	.LVL15:
 239 00e4 03348100 		ld	s0,8(sp)
 240              		.cfi_restore 8
 241              		.cfi_def_cfa 2, 16
 242 00e8 13010101 		addi	sp,sp,16
 243              		.cfi_def_cfa_offset 0
 244 00ec 67800000 		jr	ra
 245              		.cfi_endproc
 246              	.LFE7:
 248              		.align	2
 249              		.globl	_ZN6Thread14getPrevInQueueEv
 251              	_ZN6Thread14getPrevInQueueEv:
 252              	.LFB8:
  31:src/Thread.cpp ****     return prev;
 253              		.loc 2 31 33 is_stmt 1
 254              		.cfi_startproc
 255              	.LVL16:
 256 00f0 130101FF 		addi	sp,sp,-16
 257              		.cfi_def_cfa_offset 16
 258 00f4 23348100 		sd	s0,8(sp)
GAS LISTING /tmp/cch0p4o5.s 			page 7


 259              		.cfi_offset 8, -8
 260 00f8 13040101 		addi	s0,sp,16
 261              		.cfi_def_cfa 8, 0
  32:src/Thread.cpp **** }
 262              		.loc 2 32 5
  33:src/Thread.cpp **** void Thread::setNextInQueue(Thread* next){
 263              		.loc 2 33 1 is_stmt 0
 264 00fc 03358511 		ld	a0,280(a0)
 265              	.LVL17:
 266 0100 03348100 		ld	s0,8(sp)
 267              		.cfi_restore 8
 268              		.cfi_def_cfa 2, 16
 269 0104 13010101 		addi	sp,sp,16
 270              		.cfi_def_cfa_offset 0
 271 0108 67800000 		jr	ra
 272              		.cfi_endproc
 273              	.LFE8:
 275              		.align	2
 276              		.globl	_ZN6Thread14setNextInQueueEPS_
 278              	_ZN6Thread14setNextInQueueEPS_:
 279              	.LFB9:
  34:src/Thread.cpp ****     this->next = next;
 280              		.loc 2 34 42 is_stmt 1
 281              		.cfi_startproc
 282              	.LVL18:
 283 010c 130101FF 		addi	sp,sp,-16
 284              		.cfi_def_cfa_offset 16
 285 0110 23348100 		sd	s0,8(sp)
 286              		.cfi_offset 8, -8
 287 0114 13040101 		addi	s0,sp,16
 288              		.cfi_def_cfa 8, 0
  35:src/Thread.cpp **** }
 289              		.loc 2 35 5
  35:src/Thread.cpp **** }
 290              		.loc 2 35 16 is_stmt 0
 291 0118 2330B512 		sd	a1,288(a0)
  36:src/Thread.cpp **** void Thread::setPrevInQueue(Thread* prev){
 292              		.loc 2 36 1
 293 011c 03348100 		ld	s0,8(sp)
 294              		.cfi_restore 8
 295              		.cfi_def_cfa 2, 16
 296 0120 13010101 		addi	sp,sp,16
 297              		.cfi_def_cfa_offset 0
 298 0124 67800000 		jr	ra
 299              		.cfi_endproc
 300              	.LFE9:
 302              		.align	2
 303              		.globl	_ZN6Thread14setPrevInQueueEPS_
 305              	_ZN6Thread14setPrevInQueueEPS_:
 306              	.LFB10:
  37:src/Thread.cpp ****     this->prev = prev;
 307              		.loc 2 37 42 is_stmt 1
 308              		.cfi_startproc
 309              	.LVL19:
 310 0128 130101FF 		addi	sp,sp,-16
 311              		.cfi_def_cfa_offset 16
 312 012c 23348100 		sd	s0,8(sp)
GAS LISTING /tmp/cch0p4o5.s 			page 8


 313              		.cfi_offset 8, -8
 314 0130 13040101 		addi	s0,sp,16
 315              		.cfi_def_cfa 8, 0
  38:src/Thread.cpp **** }
 316              		.loc 2 38 5
  38:src/Thread.cpp **** }
 317              		.loc 2 38 16 is_stmt 0
 318 0134 233CB510 		sd	a1,280(a0)
  39:src/Thread.cpp **** void Thread::setNextAndPrevInQueue(Thread* next, Thread* prev){
 319              		.loc 2 39 1
 320 0138 03348100 		ld	s0,8(sp)
 321              		.cfi_restore 8
 322              		.cfi_def_cfa 2, 16
 323 013c 13010101 		addi	sp,sp,16
 324              		.cfi_def_cfa_offset 0
 325 0140 67800000 		jr	ra
 326              		.cfi_endproc
 327              	.LFE10:
 329              		.align	2
 330              		.globl	_ZN6Thread21setNextAndPrevInQueueEPS_S0_
 332              	_ZN6Thread21setNextAndPrevInQueueEPS_S0_:
 333              	.LFB11:
  40:src/Thread.cpp ****     setNextInQueue(next);
 334              		.loc 2 40 63 is_stmt 1
 335              		.cfi_startproc
 336              	.LVL20:
 337 0144 130101FE 		addi	sp,sp,-32
 338              		.cfi_def_cfa_offset 32
 339 0148 233C1100 		sd	ra,24(sp)
 340 014c 23388100 		sd	s0,16(sp)
 341 0150 23349100 		sd	s1,8(sp)
 342 0154 23302101 		sd	s2,0(sp)
 343              		.cfi_offset 1, -8
 344              		.cfi_offset 8, -16
 345              		.cfi_offset 9, -24
 346              		.cfi_offset 18, -32
 347 0158 13040102 		addi	s0,sp,32
 348              		.cfi_def_cfa 8, 0
 349 015c 93040500 		mv	s1,a0
 350 0160 13090600 		mv	s2,a2
  41:src/Thread.cpp ****     setPrevInQueue(prev);
 351              		.loc 2 41 5
  41:src/Thread.cpp ****     setPrevInQueue(prev);
 352              		.loc 2 41 19 is_stmt 0
 353 0164 97000000 		call	_ZN6Thread14setNextInQueueEPS_
 353      E7800000 
 354              	.LVL21:
  42:src/Thread.cpp **** }
 355              		.loc 2 42 5 is_stmt 1
  42:src/Thread.cpp **** }
 356              		.loc 2 42 19 is_stmt 0
 357 016c 93050900 		mv	a1,s2
 358 0170 13850400 		mv	a0,s1
 359 0174 97000000 		call	_ZN6Thread14setPrevInQueueEPS_
 359      E7800000 
 360              	.LVL22:
  43:src/Thread.cpp **** void Thread::start(){
GAS LISTING /tmp/cch0p4o5.s 			page 9


 361              		.loc 2 43 1
 362 017c 83308101 		ld	ra,24(sp)
 363              		.cfi_restore 1
 364 0180 03340101 		ld	s0,16(sp)
 365              		.cfi_restore 8
 366              		.cfi_def_cfa 2, 32
 367 0184 83348100 		ld	s1,8(sp)
 368              		.cfi_restore 9
 369              	.LVL23:
 370 0188 03390100 		ld	s2,0(sp)
 371              		.cfi_restore 18
 372              	.LVL24:
 373 018c 13010102 		addi	sp,sp,32
 374              		.cfi_def_cfa_offset 0
 375 0190 67800000 		jr	ra
 376              		.cfi_endproc
 377              	.LFE11:
 379              		.align	2
 380              		.globl	_ZN6Thread5startEv
 382              	_ZN6Thread5startEv:
 383              	.LFB12:
  44:src/Thread.cpp ****     Scheduler::AddNewThread(this);
 384              		.loc 2 44 21 is_stmt 1
 385              		.cfi_startproc
 386              	.LVL25:
 387 0194 130101FE 		addi	sp,sp,-32
 388              		.cfi_def_cfa_offset 32
 389 0198 233C1100 		sd	ra,24(sp)
 390 019c 23388100 		sd	s0,16(sp)
 391 01a0 23349100 		sd	s1,8(sp)
 392              		.cfi_offset 1, -8
 393              		.cfi_offset 8, -16
 394              		.cfi_offset 9, -24
 395 01a4 13040102 		addi	s0,sp,32
 396              		.cfi_def_cfa 8, 0
 397 01a8 93040500 		mv	s1,a0
  45:src/Thread.cpp ****     this->threadContext.x[5] = reinterpret_cast<size_t>(&Thread::threadTrampoline);
 398              		.loc 2 45 5
  45:src/Thread.cpp ****     this->threadContext.x[5] = reinterpret_cast<size_t>(&Thread::threadTrampoline);
 399              		.loc 2 45 28 is_stmt 0
 400 01ac 97000000 		call	_ZN9Scheduler12AddNewThreadEP6Thread@plt
 400      E7800000 
 401              	.LVL26:
  46:src/Thread.cpp ****     this->threadContext.x[10] = reinterpret_cast<size_t>(this);
 402              		.loc 2 46 5 is_stmt 1
  46:src/Thread.cpp ****     this->threadContext.x[10] = reinterpret_cast<size_t>(this);
 403              		.loc 2 46 30 is_stmt 0
 404 01b4 97070000 		lla	a5,_ZN6Thread16threadTrampolineEPS_
 404      93870700 
 405 01bc 23B8F402 		sd	a5,48(s1)
  47:src/Thread.cpp ****     Scheduler::yield(nullptr,this);
 406              		.loc 2 47 5 is_stmt 1
  47:src/Thread.cpp ****     Scheduler::yield(nullptr,this);
 407              		.loc 2 47 31 is_stmt 0
 408 01c0 23BC9404 		sd	s1,88(s1)
  48:src/Thread.cpp **** }
 409              		.loc 2 48 5 is_stmt 1
GAS LISTING /tmp/cch0p4o5.s 			page 10


  48:src/Thread.cpp **** }
 410              		.loc 2 48 21 is_stmt 0
 411 01c4 93850400 		mv	a1,s1
 412 01c8 13050000 		li	a0,0
 413 01cc 97000000 		call	_ZN9Scheduler5yieldEP6ThreadS1_@plt
 413      E7800000 
 414              	.LVL27:
  49:src/Thread.cpp **** void Thread::run(){
 415              		.loc 2 49 1
 416 01d4 83308101 		ld	ra,24(sp)
 417              		.cfi_restore 1
 418 01d8 03340101 		ld	s0,16(sp)
 419              		.cfi_restore 8
 420              		.cfi_def_cfa 2, 32
 421 01dc 83348100 		ld	s1,8(sp)
 422              		.cfi_restore 9
 423              	.LVL28:
 424 01e0 13010102 		addi	sp,sp,32
 425              		.cfi_def_cfa_offset 0
 426 01e4 67800000 		jr	ra
 427              		.cfi_endproc
 428              	.LFE12:
 430              		.align	2
 431              		.globl	_ZN6Thread4joinEv
 433              	_ZN6Thread4joinEv:
 434              	.LFB14:
  53:src/Thread.cpp **** void Thread::join(){
 435              		.loc 2 53 20 is_stmt 1
 436              		.cfi_startproc
 437              	.LVL29:
 438 01e8 130101FF 		addi	sp,sp,-16
 439              		.cfi_def_cfa_offset 16
 440 01ec 23348100 		sd	s0,8(sp)
 441              		.cfi_offset 8, -8
 442 01f0 13040101 		addi	s0,sp,16
 443              		.cfi_def_cfa 8, 0
  54:src/Thread.cpp **** 
  55:src/Thread.cpp **** }
 444              		.loc 2 55 1 is_stmt 0
 445 01f4 03348100 		ld	s0,8(sp)
 446              		.cfi_restore 8
 447              		.cfi_def_cfa 2, 16
 448 01f8 13010101 		addi	sp,sp,16
 449              		.cfi_def_cfa_offset 0
 450 01fc 67800000 		jr	ra
 451              		.cfi_endproc
 452              	.LFE14:
 454              		.align	2
 455              		.globl	_ZN6Thread11setStackPtrEPm
 457              	_ZN6Thread11setStackPtrEPm:
 458              	.LFB15:
  56:src/Thread.cpp **** void Thread::setStackPtr(size_t* stackPtr) {
 459              		.loc 2 56 44 is_stmt 1
 460              		.cfi_startproc
 461              	.LVL30:
 462 0200 130101FF 		addi	sp,sp,-16
 463              		.cfi_def_cfa_offset 16
GAS LISTING /tmp/cch0p4o5.s 			page 11


 464 0204 23348100 		sd	s0,8(sp)
 465              		.cfi_offset 8, -8
 466 0208 13040101 		addi	s0,sp,16
 467              		.cfi_def_cfa 8, 0
  57:src/Thread.cpp ****     this->stackPtr = stackPtr;
 468              		.loc 2 57 5
 469              		.loc 2 57 20 is_stmt 0
 470 020c 2334B512 		sd	a1,296(a0)
  58:src/Thread.cpp **** }
 471              		.loc 2 58 1
 472 0210 03348100 		ld	s0,8(sp)
 473              		.cfi_restore 8
 474              		.cfi_def_cfa 2, 16
 475 0214 13010101 		addi	sp,sp,16
 476              		.cfi_def_cfa_offset 0
 477 0218 67800000 		jr	ra
 478              		.cfi_endproc
 479              	.LFE15:
 481              		.align	2
 482              		.globl	_ZN6Thread15setSupervisorSpEPm
 484              	_ZN6Thread15setSupervisorSpEPm:
 485              	.LFB16:
  59:src/Thread.cpp **** 
  60:src/Thread.cpp **** void Thread::setSupervisorSp(size_t* supervisorSp) {
 486              		.loc 2 60 52 is_stmt 1
 487              		.cfi_startproc
 488              	.LVL31:
 489 021c 130101FF 		addi	sp,sp,-16
 490              		.cfi_def_cfa_offset 16
 491 0220 23348100 		sd	s0,8(sp)
 492              		.cfi_offset 8, -8
 493 0224 13040101 		addi	s0,sp,16
 494              		.cfi_def_cfa 8, 0
  61:src/Thread.cpp ****     this->supervisorSp = supervisorSp;
 495              		.loc 2 61 5
 496              		.loc 2 61 24 is_stmt 0
 497 0228 B7870000 		li	a5,32768
 498 022c 3305F500 		add	a0,a0,a5
 499              	.LVL32:
 500 0230 2338B512 		sd	a1,304(a0)
  62:src/Thread.cpp **** }
 501              		.loc 2 62 1
 502 0234 03348100 		ld	s0,8(sp)
 503              		.cfi_restore 8
 504              		.cfi_def_cfa 2, 16
 505 0238 13010101 		addi	sp,sp,16
 506              		.cfi_def_cfa_offset 0
 507 023c 67800000 		jr	ra
 508              		.cfi_endproc
 509              	.LFE16:
 511              		.weak	_ZTV6Thread
 512              		.section	.data.rel.ro.local._ZTV6Thread,"awG",@progbits,_ZTV6Thread,comdat
 513              		.align	3
 516              	_ZTV6Thread:
 517 0000 00000000 		.dword	0
 517      00000000 
 518 0008 00000000 		.dword	0
GAS LISTING /tmp/cch0p4o5.s 			page 12


 518      00000000 
 519 0010 00000000 		.dword	_ZN6Thread4initEv
 519      00000000 
 520 0018 00000000 		.dword	_ZN6Thread3runEv
 520      00000000 
 521              		.text
 522              	.Letext0:
 523              		.file 3 "src/../lib/hw.h"
 524              		.file 4 "src/Scheduler.hpp"
 525              		.file 5 "src/../lib/console.h"
GAS LISTING /tmp/cch0p4o5.s 			page 13


DEFINED SYMBOLS
                            *ABS*:0000000000000000 Thread.cpp
     /tmp/cch0p4o5.s:10     .text._ZN6Thread16threadTrampolineEPS_:0000000000000000 _ZN6Thread16threadTrampolineEPS_
     /tmp/cch0p4o5.s:14     .text._ZN6Thread16threadTrampolineEPS_:0000000000000000 .L0 
     /tmp/cch0p4o5.s:16     .text._ZN6Thread16threadTrampolineEPS_:0000000000000000 .L0 
     /tmp/cch0p4o5.s:17     .text._ZN6Thread16threadTrampolineEPS_:0000000000000004 .L0 
     /tmp/cch0p4o5.s:20     .text._ZN6Thread16threadTrampolineEPS_:000000000000000c .L0 
     /tmp/cch0p4o5.s:21     .text._ZN6Thread16threadTrampolineEPS_:000000000000000c .L0 
     /tmp/cch0p4o5.s:23     .text._ZN6Thread16threadTrampolineEPS_:0000000000000010 .L0 
     /tmp/cch0p4o5.s:25     .text._ZN6Thread16threadTrampolineEPS_:0000000000000010 .L0 
     /tmp/cch0p4o5.s:26     .text._ZN6Thread16threadTrampolineEPS_:0000000000000010 .L0 
     /tmp/cch0p4o5.s:29     .text._ZN6Thread16threadTrampolineEPS_:0000000000000018 .L0 
     /tmp/cch0p4o5.s:32     .text._ZN6Thread16threadTrampolineEPS_:000000000000001c .L0 
     /tmp/cch0p4o5.s:33     .text._ZN6Thread16threadTrampolineEPS_:0000000000000020 .L0 
     /tmp/cch0p4o5.s:35     .text._ZN6Thread16threadTrampolineEPS_:0000000000000024 .L0 
     /tmp/cch0p4o5.s:36     .text._ZN6Thread16threadTrampolineEPS_:0000000000000024 .L0 
     /tmp/cch0p4o5.s:38     .text._ZN6Thread16threadTrampolineEPS_:0000000000000028 .L0 
     /tmp/cch0p4o5.s:40     .text._ZN6Thread16threadTrampolineEPS_:000000000000002c .L0 
     /tmp/cch0p4o5.s:47     .text:0000000000000000 _ZN6Thread4initEv
     /tmp/cch0p4o5.s:51     .text:0000000000000000 .L0 
     /tmp/cch0p4o5.s:53     .text:0000000000000000 .L0 
     /tmp/cch0p4o5.s:54     .text:0000000000000004 .L0 
     /tmp/cch0p4o5.s:56     .text:0000000000000008 .L0 
     /tmp/cch0p4o5.s:58     .text:000000000000000c .L0 
     /tmp/cch0p4o5.s:60     .text:000000000000000c .L0 
     /tmp/cch0p4o5.s:61     .text:0000000000000010 .L0 
     /tmp/cch0p4o5.s:62     .text:0000000000000010 .L0 
     /tmp/cch0p4o5.s:64     .text:0000000000000014 .L0 
     /tmp/cch0p4o5.s:66     .text:0000000000000018 .L0 
     /tmp/cch0p4o5.s:72     .text:0000000000000018 _ZN6Thread3runEv
     /tmp/cch0p4o5.s:75     .text:0000000000000018 .L0 
     /tmp/cch0p4o5.s:77     .text:0000000000000018 .L0 
     /tmp/cch0p4o5.s:78     .text:000000000000001c .L0 
     /tmp/cch0p4o5.s:81     .text:0000000000000024 .L0 
     /tmp/cch0p4o5.s:82     .text:0000000000000024 .L0 
     /tmp/cch0p4o5.s:84     .text:0000000000000028 .L0 
     /tmp/cch0p4o5.s:86     .text:0000000000000028 .L0 
     /tmp/cch0p4o5.s:87     .text:0000000000000028 .L0 
     /tmp/cch0p4o5.s:92     .text:0000000000000034 .L0 
     /tmp/cch0p4o5.s:93     .text:0000000000000038 .L0 
     /tmp/cch0p4o5.s:95     .text:000000000000003c .L0 
     /tmp/cch0p4o5.s:96     .text:000000000000003c .L0 
     /tmp/cch0p4o5.s:98     .text:0000000000000040 .L0 
     /tmp/cch0p4o5.s:100    .text:0000000000000044 .L0 
     /tmp/cch0p4o5.s:106    .text:0000000000000044 _ZN6ThreadC2Ev
     /tmp/cch0p4o5.s:109    .text:0000000000000044 .L0 
     /tmp/cch0p4o5.s:111    .text:0000000000000044 .L0 
     /tmp/cch0p4o5.s:112    .text:0000000000000048 .L0 
     /tmp/cch0p4o5.s:114    .text:000000000000004c .L0 
     /tmp/cch0p4o5.s:116    .text:0000000000000050 .L0 
     /tmp/cch0p4o5.s:516    .data.rel.ro.local._ZTV6Thread:0000000000000000 _ZTV6Thread
     /tmp/cch0p4o5.s:119    .text:0000000000000050 .L0 
     /tmp/cch0p4o5.s:123    .text:000000000000005c .L0 
     /tmp/cch0p4o5.s:124    .text:0000000000000060 .L0 
     /tmp/cch0p4o5.s:125    .text:0000000000000060 .L0 
     /tmp/cch0p4o5.s:127    .text:0000000000000064 .L0 
     /tmp/cch0p4o5.s:129    .text:0000000000000068 .L0 
GAS LISTING /tmp/cch0p4o5.s 			page 14


     /tmp/cch0p4o5.s:106    .text:0000000000000044 _ZN6ThreadC1Ev
     /tmp/cch0p4o5.s:137    .text:0000000000000068 _ZN6Thread11copyContextEPm
     /tmp/cch0p4o5.s:140    .text:0000000000000068 .L0 
     /tmp/cch0p4o5.s:142    .text:0000000000000068 .L0 
     /tmp/cch0p4o5.s:143    .text:000000000000006c .L0 
     /tmp/cch0p4o5.s:145    .text:0000000000000070 .L0 
     /tmp/cch0p4o5.s:147    .text:0000000000000074 .L0 
     /tmp/cch0p4o5.s:150    .text:0000000000000074 .L0 
     /tmp/cch0p4o5.s:152    .text:0000000000000074 .L0 
     /tmp/cch0p4o5.s:153    .text:0000000000000074 .L0 
     /tmp/cch0p4o5.s:157    .text:0000000000000078 .L0 
     /tmp/cch0p4o5.s:160    .text:0000000000000080 .L0 
     /tmp/cch0p4o5.s:161    .text:0000000000000080 .L0 
     /tmp/cch0p4o5.s:165    .text:000000000000008c .L0 
     /tmp/cch0p4o5.s:168    .text:0000000000000094 .L0 
     /tmp/cch0p4o5.s:175    .text:000000000000009c .L0 
     /tmp/cch0p4o5.s:176    .text:000000000000009c .L0 
     /tmp/cch0p4o5.s:178    .text:00000000000000a0 .L0 
     /tmp/cch0p4o5.s:180    .text:00000000000000a4 .L0 
     /tmp/cch0p4o5.s:181    .text:00000000000000a4 .L0 
     /tmp/cch0p4o5.s:183    .text:00000000000000a8 .L0 
     /tmp/cch0p4o5.s:185    .text:00000000000000ac .L0 
     /tmp/cch0p4o5.s:186    .text:00000000000000b0 .L0 
     /tmp/cch0p4o5.s:187    .text:00000000000000b0 .L0 
     /tmp/cch0p4o5.s:189    .text:00000000000000b4 .L0 
     /tmp/cch0p4o5.s:191    .text:00000000000000b8 .L0 
     /tmp/cch0p4o5.s:197    .text:00000000000000b8 _ZN6Thread10getContextEv
     /tmp/cch0p4o5.s:200    .text:00000000000000b8 .L0 
     /tmp/cch0p4o5.s:202    .text:00000000000000b8 .L0 
     /tmp/cch0p4o5.s:203    .text:00000000000000bc .L0 
     /tmp/cch0p4o5.s:205    .text:00000000000000c0 .L0 
     /tmp/cch0p4o5.s:207    .text:00000000000000c4 .L0 
     /tmp/cch0p4o5.s:209    .text:00000000000000c4 .L0 
     /tmp/cch0p4o5.s:210    .text:00000000000000c4 .L0 
     /tmp/cch0p4o5.s:213    .text:00000000000000cc .L0 
     /tmp/cch0p4o5.s:214    .text:00000000000000cc .L0 
     /tmp/cch0p4o5.s:216    .text:00000000000000d0 .L0 
     /tmp/cch0p4o5.s:218    .text:00000000000000d4 .L0 
     /tmp/cch0p4o5.s:224    .text:00000000000000d4 _ZN6Thread14getNextInQueueEv
     /tmp/cch0p4o5.s:227    .text:00000000000000d4 .L0 
     /tmp/cch0p4o5.s:229    .text:00000000000000d4 .L0 
     /tmp/cch0p4o5.s:230    .text:00000000000000d8 .L0 
     /tmp/cch0p4o5.s:232    .text:00000000000000dc .L0 
     /tmp/cch0p4o5.s:234    .text:00000000000000e0 .L0 
     /tmp/cch0p4o5.s:236    .text:00000000000000e0 .L0 
     /tmp/cch0p4o5.s:237    .text:00000000000000e0 .L0 
     /tmp/cch0p4o5.s:240    .text:00000000000000e8 .L0 
     /tmp/cch0p4o5.s:241    .text:00000000000000e8 .L0 
     /tmp/cch0p4o5.s:243    .text:00000000000000ec .L0 
     /tmp/cch0p4o5.s:245    .text:00000000000000f0 .L0 
     /tmp/cch0p4o5.s:251    .text:00000000000000f0 _ZN6Thread14getPrevInQueueEv
     /tmp/cch0p4o5.s:254    .text:00000000000000f0 .L0 
     /tmp/cch0p4o5.s:256    .text:00000000000000f0 .L0 
     /tmp/cch0p4o5.s:257    .text:00000000000000f4 .L0 
     /tmp/cch0p4o5.s:259    .text:00000000000000f8 .L0 
     /tmp/cch0p4o5.s:261    .text:00000000000000fc .L0 
     /tmp/cch0p4o5.s:263    .text:00000000000000fc .L0 
GAS LISTING /tmp/cch0p4o5.s 			page 15


     /tmp/cch0p4o5.s:264    .text:00000000000000fc .L0 
     /tmp/cch0p4o5.s:267    .text:0000000000000104 .L0 
     /tmp/cch0p4o5.s:268    .text:0000000000000104 .L0 
     /tmp/cch0p4o5.s:270    .text:0000000000000108 .L0 
     /tmp/cch0p4o5.s:272    .text:000000000000010c .L0 
     /tmp/cch0p4o5.s:278    .text:000000000000010c _ZN6Thread14setNextInQueueEPS_
     /tmp/cch0p4o5.s:281    .text:000000000000010c .L0 
     /tmp/cch0p4o5.s:283    .text:000000000000010c .L0 
     /tmp/cch0p4o5.s:284    .text:0000000000000110 .L0 
     /tmp/cch0p4o5.s:286    .text:0000000000000114 .L0 
     /tmp/cch0p4o5.s:288    .text:0000000000000118 .L0 
     /tmp/cch0p4o5.s:290    .text:0000000000000118 .L0 
     /tmp/cch0p4o5.s:291    .text:0000000000000118 .L0 
     /tmp/cch0p4o5.s:293    .text:000000000000011c .L0 
     /tmp/cch0p4o5.s:294    .text:0000000000000120 .L0 
     /tmp/cch0p4o5.s:295    .text:0000000000000120 .L0 
     /tmp/cch0p4o5.s:297    .text:0000000000000124 .L0 
     /tmp/cch0p4o5.s:299    .text:0000000000000128 .L0 
     /tmp/cch0p4o5.s:305    .text:0000000000000128 _ZN6Thread14setPrevInQueueEPS_
     /tmp/cch0p4o5.s:308    .text:0000000000000128 .L0 
     /tmp/cch0p4o5.s:310    .text:0000000000000128 .L0 
     /tmp/cch0p4o5.s:311    .text:000000000000012c .L0 
     /tmp/cch0p4o5.s:313    .text:0000000000000130 .L0 
     /tmp/cch0p4o5.s:315    .text:0000000000000134 .L0 
     /tmp/cch0p4o5.s:317    .text:0000000000000134 .L0 
     /tmp/cch0p4o5.s:318    .text:0000000000000134 .L0 
     /tmp/cch0p4o5.s:320    .text:0000000000000138 .L0 
     /tmp/cch0p4o5.s:321    .text:000000000000013c .L0 
     /tmp/cch0p4o5.s:322    .text:000000000000013c .L0 
     /tmp/cch0p4o5.s:324    .text:0000000000000140 .L0 
     /tmp/cch0p4o5.s:326    .text:0000000000000144 .L0 
     /tmp/cch0p4o5.s:332    .text:0000000000000144 _ZN6Thread21setNextAndPrevInQueueEPS_S0_
     /tmp/cch0p4o5.s:335    .text:0000000000000144 .L0 
     /tmp/cch0p4o5.s:337    .text:0000000000000144 .L0 
     /tmp/cch0p4o5.s:338    .text:0000000000000148 .L0 
     /tmp/cch0p4o5.s:343    .text:0000000000000158 .L0 
     /tmp/cch0p4o5.s:344    .text:0000000000000158 .L0 
     /tmp/cch0p4o5.s:345    .text:0000000000000158 .L0 
     /tmp/cch0p4o5.s:346    .text:0000000000000158 .L0 
     /tmp/cch0p4o5.s:348    .text:000000000000015c .L0 
     /tmp/cch0p4o5.s:352    .text:0000000000000164 .L0 
     /tmp/cch0p4o5.s:353    .text:0000000000000164 .L0 
     /tmp/cch0p4o5.s:356    .text:000000000000016c .L0 
     /tmp/cch0p4o5.s:357    .text:000000000000016c .L0 
     /tmp/cch0p4o5.s:362    .text:000000000000017c .L0 
     /tmp/cch0p4o5.s:363    .text:0000000000000180 .L0 
     /tmp/cch0p4o5.s:365    .text:0000000000000184 .L0 
     /tmp/cch0p4o5.s:366    .text:0000000000000184 .L0 
     /tmp/cch0p4o5.s:368    .text:0000000000000188 .L0 
     /tmp/cch0p4o5.s:371    .text:000000000000018c .L0 
     /tmp/cch0p4o5.s:374    .text:0000000000000190 .L0 
     /tmp/cch0p4o5.s:376    .text:0000000000000194 .L0 
     /tmp/cch0p4o5.s:382    .text:0000000000000194 _ZN6Thread5startEv
     /tmp/cch0p4o5.s:385    .text:0000000000000194 .L0 
     /tmp/cch0p4o5.s:387    .text:0000000000000194 .L0 
     /tmp/cch0p4o5.s:388    .text:0000000000000198 .L0 
     /tmp/cch0p4o5.s:392    .text:00000000000001a4 .L0 
GAS LISTING /tmp/cch0p4o5.s 			page 16


     /tmp/cch0p4o5.s:393    .text:00000000000001a4 .L0 
     /tmp/cch0p4o5.s:394    .text:00000000000001a4 .L0 
     /tmp/cch0p4o5.s:396    .text:00000000000001a8 .L0 
     /tmp/cch0p4o5.s:399    .text:00000000000001ac .L0 
     /tmp/cch0p4o5.s:400    .text:00000000000001ac .L0 
     /tmp/cch0p4o5.s:403    .text:00000000000001b4 .L0 
     /tmp/cch0p4o5.s:404    .text:00000000000001b4 .L0 
     /tmp/cch0p4o5.s:407    .text:00000000000001c0 .L0 
     /tmp/cch0p4o5.s:408    .text:00000000000001c0 .L0 
     /tmp/cch0p4o5.s:410    .text:00000000000001c4 .L0 
     /tmp/cch0p4o5.s:411    .text:00000000000001c4 .L0 
     /tmp/cch0p4o5.s:416    .text:00000000000001d4 .L0 
     /tmp/cch0p4o5.s:417    .text:00000000000001d8 .L0 
     /tmp/cch0p4o5.s:419    .text:00000000000001dc .L0 
     /tmp/cch0p4o5.s:420    .text:00000000000001dc .L0 
     /tmp/cch0p4o5.s:422    .text:00000000000001e0 .L0 
     /tmp/cch0p4o5.s:425    .text:00000000000001e4 .L0 
     /tmp/cch0p4o5.s:427    .text:00000000000001e8 .L0 
     /tmp/cch0p4o5.s:433    .text:00000000000001e8 _ZN6Thread4joinEv
     /tmp/cch0p4o5.s:436    .text:00000000000001e8 .L0 
     /tmp/cch0p4o5.s:438    .text:00000000000001e8 .L0 
     /tmp/cch0p4o5.s:439    .text:00000000000001ec .L0 
     /tmp/cch0p4o5.s:441    .text:00000000000001f0 .L0 
     /tmp/cch0p4o5.s:443    .text:00000000000001f4 .L0 
     /tmp/cch0p4o5.s:445    .text:00000000000001f4 .L0 
     /tmp/cch0p4o5.s:446    .text:00000000000001f8 .L0 
     /tmp/cch0p4o5.s:447    .text:00000000000001f8 .L0 
     /tmp/cch0p4o5.s:449    .text:00000000000001fc .L0 
     /tmp/cch0p4o5.s:451    .text:0000000000000200 .L0 
     /tmp/cch0p4o5.s:457    .text:0000000000000200 _ZN6Thread11setStackPtrEPm
     /tmp/cch0p4o5.s:460    .text:0000000000000200 .L0 
     /tmp/cch0p4o5.s:462    .text:0000000000000200 .L0 
     /tmp/cch0p4o5.s:463    .text:0000000000000204 .L0 
     /tmp/cch0p4o5.s:465    .text:0000000000000208 .L0 
     /tmp/cch0p4o5.s:467    .text:000000000000020c .L0 
     /tmp/cch0p4o5.s:469    .text:000000000000020c .L0 
     /tmp/cch0p4o5.s:470    .text:000000000000020c .L0 
     /tmp/cch0p4o5.s:472    .text:0000000000000210 .L0 
     /tmp/cch0p4o5.s:473    .text:0000000000000214 .L0 
     /tmp/cch0p4o5.s:474    .text:0000000000000214 .L0 
     /tmp/cch0p4o5.s:476    .text:0000000000000218 .L0 
     /tmp/cch0p4o5.s:478    .text:000000000000021c .L0 
     /tmp/cch0p4o5.s:484    .text:000000000000021c _ZN6Thread15setSupervisorSpEPm
     /tmp/cch0p4o5.s:487    .text:000000000000021c .L0 
     /tmp/cch0p4o5.s:489    .text:000000000000021c .L0 
     /tmp/cch0p4o5.s:490    .text:0000000000000220 .L0 
     /tmp/cch0p4o5.s:492    .text:0000000000000224 .L0 
     /tmp/cch0p4o5.s:494    .text:0000000000000228 .L0 
     /tmp/cch0p4o5.s:496    .text:0000000000000228 .L0 
     /tmp/cch0p4o5.s:497    .text:0000000000000228 .L0 
     /tmp/cch0p4o5.s:502    .text:0000000000000234 .L0 
     /tmp/cch0p4o5.s:503    .text:0000000000000238 .L0 
     /tmp/cch0p4o5.s:504    .text:0000000000000238 .L0 
     /tmp/cch0p4o5.s:506    .text:000000000000023c .L0 
     /tmp/cch0p4o5.s:508    .text:0000000000000240 .L0 
     /tmp/cch0p4o5.s:43     .text._ZN6Thread16threadTrampolineEPS_:000000000000002c .L0 
     /tmp/cch0p4o5.s:526    .text:0000000000000240 .L0 
GAS LISTING /tmp/cch0p4o5.s 			page 17


     /tmp/cch0p4o5.s:119    .text:0000000000000050 .L0 
     /tmp/cch0p4o5.s:404    .text:00000000000001b4 .L0 
     /tmp/cch0p4o5.s:172    .text:000000000000009c .L10
     /tmp/cch0p4o5.s:155    .text:0000000000000078 .L11
     /tmp/cch0p4o5.s:1521   .debug_abbrev:0000000000000000 .Ldebug_abbrev0
     /tmp/cch0p4o5.s:2849   .debug_str:000000000000055e .LASF77
     /tmp/cch0p4o5.s:2843   .debug_str:000000000000053c .LASF78
     /tmp/cch0p4o5.s:2837   .debug_str:000000000000050a .LASF79
     /tmp/cch0p4o5.s:2679   .debug_ranges:0000000000000000 .Ldebug_ranges0
     /tmp/cch0p4o5.s:2687   .debug_line:0000000000000000 .Ldebug_line0
     /tmp/cch0p4o5.s:2791   .debug_str:00000000000003c7 .LASF0
     /tmp/cch0p4o5.s:2809   .debug_str:0000000000000438 .LASF1
     /tmp/cch0p4o5.s:2779   .debug_str:0000000000000347 .LASF2
     /tmp/cch0p4o5.s:2759   .debug_str:0000000000000288 .LASF4
     /tmp/cch0p4o5.s:2801   .debug_str:0000000000000409 .LASF3
     /tmp/cch0p4o5.s:2711   .debug_str:00000000000000ba .LASF5
     /tmp/cch0p4o5.s:2735   .debug_str:0000000000000183 .LASF6
     /tmp/cch0p4o5.s:2813   .debug_str:0000000000000467 .LASF7
     /tmp/cch0p4o5.s:2789   .debug_str:00000000000003b4 .LASF8
     /tmp/cch0p4o5.s:2859   .debug_str:000000000000066e .LASF9
     /tmp/cch0p4o5.s:2753   .debug_str:000000000000024b .LASF10
     /tmp/cch0p4o5.s:2821   .debug_str:0000000000000494 .LASF11
     /tmp/cch0p4o5.s:2851   .debug_str:0000000000000622 .LASF12
     /tmp/cch0p4o5.s:2715   .debug_str:00000000000000e8 .LASF13
     /tmp/cch0p4o5.s:2695   .debug_str:0000000000000046 .LASF14
     /tmp/cch0p4o5.s:2727   .debug_str:0000000000000145 .LASF15
     /tmp/cch0p4o5.s:2831   .debug_str:00000000000004e0 .LASF16
     /tmp/cch0p4o5.s:2731   .debug_str:000000000000015d .LASF17
     /tmp/cch0p4o5.s:2699   .debug_str:000000000000005f .LASF80
     /tmp/cch0p4o5.s:2803   .debug_str:000000000000041b .LASF18
     /tmp/cch0p4o5.s:2829   .debug_str:00000000000004d8 .LASF19
     /tmp/cch0p4o5.s:2819   .debug_str:000000000000048a .LASF81
     /tmp/cch0p4o5.s:2747   .debug_str:0000000000000213 .LASF20
     /tmp/cch0p4o5.s:2739   .debug_str:00000000000001ac .LASF21
     /tmp/cch0p4o5.s:2707   .debug_str:000000000000008e .LASF22
     /tmp/cch0p4o5.s:2835   .debug_str:00000000000004fc .LASF23
     /tmp/cch0p4o5.s:2701   .debug_str:0000000000000067 .LASF24
     /tmp/cch0p4o5.s:2783   .debug_str:0000000000000374 .LASF25
     /tmp/cch0p4o5.s:2705   .debug_str:0000000000000082 .LASF82
     /tmp/cch0p4o5.s:2771   .debug_str:00000000000002f2 .LASF83
     /tmp/cch0p4o5.s:2793   .debug_str:00000000000003d4 .LASF35
     /tmp/cch0p4o5.s:2713   .debug_str:00000000000000c1 .LASF37
     /tmp/cch0p4o5.s:2733   .debug_str:0000000000000173 .LASF26
     /tmp/cch0p4o5.s:2709   .debug_str:0000000000000099 .LASF28
     /tmp/cch0p4o5.s:2823   .debug_str:00000000000004a3 .LASF27
     /tmp/cch0p4o5.s:2737   .debug_str:000000000000018a .LASF29
     /tmp/cch0p4o5.s:2817   .debug_str:000000000000047f .LASF30
     /tmp/cch0p4o5.s:2811   .debug_str:000000000000044b .LASF32
     /tmp/cch0p4o5.s:2833   .debug_str:00000000000004f6 .LASF34
     /tmp/cch0p4o5.s:2691   .debug_str:0000000000000018 .LASF43
     /tmp/cch0p4o5.s:2767   .debug_str:00000000000002cf .LASF31
     /tmp/cch0p4o5.s:2689   .debug_str:0000000000000000 .LASF33
     /tmp/cch0p4o5.s:2769   .debug_str:00000000000002d7 .LASF84
     /tmp/cch0p4o5.s:2721   .debug_str:0000000000000122 .LASF36
     /tmp/cch0p4o5.s:2745   .debug_str:00000000000001ee .LASF38
     /tmp/cch0p4o5.s:2855   .debug_str:000000000000064e .LASF39
     /tmp/cch0p4o5.s:2797   .debug_str:00000000000003f2 .LASF40
GAS LISTING /tmp/cch0p4o5.s 			page 18


     /tmp/cch0p4o5.s:2785   .debug_str:0000000000000381 .LASF41
     /tmp/cch0p4o5.s:2775   .debug_str:000000000000032a .LASF85
     /tmp/cch0p4o5.s:2723   .debug_str:000000000000012f .LASF42
     /tmp/cch0p4o5.s:2787   .debug_str:0000000000000393 .LASF44
     /tmp/cch0p4o5.s:2693   .debug_str:0000000000000038 .LASF45
     /tmp/cch0p4o5.s:2865   .debug_str:000000000000069b .LASF46
     /tmp/cch0p4o5.s:2867   .debug_str:00000000000006a0 .LASF47
     /tmp/cch0p4o5.s:2697   .debug_str:0000000000000056 .LASF48
     /tmp/cch0p4o5.s:2799   .debug_str:0000000000000403 .LASF49
     /tmp/cch0p4o5.s:2863   .debug_str:000000000000068e .LASF50
     /tmp/cch0p4o5.s:2751   .debug_str:000000000000023c .LASF52
     /tmp/cch0p4o5.s:2847   .debug_str:0000000000000552 .LASF51
     /tmp/cch0p4o5.s:2763   .debug_str:000000000000029e .LASF53
     /tmp/cch0p4o5.s:2815   .debug_str:000000000000047a .LASF72
     /tmp/cch0p4o5.s:2805   .debug_str:0000000000000420 .LASF86
     /tmp/cch0p4o5.s:2729   .debug_str:0000000000000151 .LASF54
     /tmp/cch0p4o5.s:2773   .debug_str:000000000000030f .LASF55
     /tmp/cch0p4o5.s:2777   .debug_str:0000000000000337 .LASF56
     /tmp/cch0p4o5.s:2717   .debug_str:00000000000000f8 .LASF57
     /tmp/cch0p4o5.s:2719   .debug_str:0000000000000117 .LASF58
     /tmp/cch0p4o5.s:2857   .debug_str:0000000000000655 .LASF60
     /tmp/cch0p4o5.s:2761   .debug_str:000000000000028f .LASF59
     /tmp/cch0p4o5.s:2757   .debug_str:000000000000026b .LASF61
     /tmp/cch0p4o5.s:2841   .debug_str:000000000000052d .LASF62
     /tmp/cch0p4o5.s:2853   .debug_str:0000000000000631 .LASF63
     /tmp/cch0p4o5.s:2869   .debug_str:00000000000006a5 .LASF64
     /tmp/cch0p4o5.s:2781   .debug_str:0000000000000355 .LASF65
     /tmp/cch0p4o5.s:2703   .debug_str:0000000000000073 .LASF66
     /tmp/cch0p4o5.s:2827   .debug_str:00000000000004b9 .LASF67
     /tmp/cch0p4o5.s:2765   .debug_str:00000000000002b9 .LASF68
     /tmp/cch0p4o5.s:2743   .debug_str:00000000000001c5 .LASF69
     /tmp/cch0p4o5.s:2807   .debug_str:0000000000000432 .LASF70
     /tmp/cch0p4o5.s:2749   .debug_str:0000000000000229 .LASF71
     /tmp/cch0p4o5.s:2741   .debug_str:00000000000001b4 .LASF87
     /tmp/cch0p4o5.s:2839   .debug_str:0000000000000528 .LASF73
     /tmp/cch0p4o5.s:2755   .debug_str:0000000000000259 .LASF74
     /tmp/cch0p4o5.s:2861   .debug_str:000000000000067e .LASF88
     /tmp/cch0p4o5.s:485    .text:000000000000021c .LFB16
     /tmp/cch0p4o5.s:509    .text:0000000000000240 .LFE16
     /tmp/cch0p4o5.s:2825   .debug_str:00000000000004b4 .LASF75
     /tmp/cch0p4o5.s:2498   .debug_loc:0000000000000000 .LLST10
     /tmp/cch0p4o5.s:458    .text:0000000000000200 .LFB15
     /tmp/cch0p4o5.s:479    .text:000000000000021c .LFE15
     /tmp/cch0p4o5.s:434    .text:00000000000001e8 .LFB14
     /tmp/cch0p4o5.s:452    .text:0000000000000200 .LFE14
     /tmp/cch0p4o5.s:73     .text:0000000000000018 .LFB13
     /tmp/cch0p4o5.s:101    .text:0000000000000044 .LFE13
     /tmp/cch0p4o5.s:2511   .debug_loc:000000000000003a .LLST1
     /tmp/cch0p4o5.s:90     .text:0000000000000034 .LVL5
     /tmp/cch0p4o5.s:383    .text:0000000000000194 .LFB12
     /tmp/cch0p4o5.s:428    .text:00000000000001e8 .LFE12
     /tmp/cch0p4o5.s:2525   .debug_loc:0000000000000073 .LLST9
     /tmp/cch0p4o5.s:401    .text:00000000000001b4 .LVL26
     /tmp/cch0p4o5.s:414    .text:00000000000001d4 .LVL27
     /tmp/cch0p4o5.s:333    .text:0000000000000144 .LFB11
     /tmp/cch0p4o5.s:377    .text:0000000000000194 .LFE11
     /tmp/cch0p4o5.s:2543   .debug_loc:00000000000000bf .LLST6
GAS LISTING /tmp/cch0p4o5.s 			page 19


     /tmp/cch0p4o5.s:2561   .debug_loc:000000000000010b .LLST7
     /tmp/cch0p4o5.s:2575   .debug_loc:0000000000000144 .LLST8
     /tmp/cch0p4o5.s:354    .text:000000000000016c .LVL21
     /tmp/cch0p4o5.s:360    .text:000000000000017c .LVL22
     /tmp/cch0p4o5.s:306    .text:0000000000000128 .LFB10
     /tmp/cch0p4o5.s:327    .text:0000000000000144 .LFE10
     /tmp/cch0p4o5.s:279    .text:000000000000010c .LFB9
     /tmp/cch0p4o5.s:300    .text:0000000000000128 .LFE9
     /tmp/cch0p4o5.s:252    .text:00000000000000f0 .LFB8
     /tmp/cch0p4o5.s:273    .text:000000000000010c .LFE8
     /tmp/cch0p4o5.s:2593   .debug_loc:0000000000000190 .LLST5
     /tmp/cch0p4o5.s:225    .text:00000000000000d4 .LFB7
     /tmp/cch0p4o5.s:246    .text:00000000000000f0 .LFE7
     /tmp/cch0p4o5.s:2607   .debug_loc:00000000000001c9 .LLST4
     /tmp/cch0p4o5.s:198    .text:00000000000000b8 .LFB6
     /tmp/cch0p4o5.s:219    .text:00000000000000d4 .LFE6
     /tmp/cch0p4o5.s:2621   .debug_loc:0000000000000202 .LLST3
     /tmp/cch0p4o5.s:138    .text:0000000000000068 .LFB5
     /tmp/cch0p4o5.s:192    .text:00000000000000b8 .LFE5
     /tmp/cch0p4o5.s:2725   .debug_str:0000000000000140 .LASF76
     /tmp/cch0p4o5.s:151    .text:0000000000000074 .LBB3
     /tmp/cch0p4o5.s:173    .text:000000000000009c .LBE3
     /tmp/cch0p4o5.s:2634   .debug_loc:000000000000023a .LLST2
     /tmp/cch0p4o5.s:48     .text:0000000000000000 .LFB4
     /tmp/cch0p4o5.s:67     .text:0000000000000018 .LFE4
     /tmp/cch0p4o5.s:2795   .debug_str:00000000000003e3 .LASF89
     /tmp/cch0p4o5.s:107    .text:0000000000000044 .LFB2
     /tmp/cch0p4o5.s:130    .text:0000000000000068 .LFE2
     /tmp/cch0p4o5.s:11     .text._ZN6Thread16threadTrampolineEPS_:0000000000000000 .LFB0
     /tmp/cch0p4o5.s:41     .text._ZN6Thread16threadTrampolineEPS_:000000000000002c .LFE0
     /tmp/cch0p4o5.s:2650   .debug_loc:0000000000000284 .LLST0
     /tmp/cch0p4o5.s:30     .text._ZN6Thread16threadTrampolineEPS_:000000000000001c .LVL1
     /tmp/cch0p4o5.s:2845   .debug_str:000000000000054b .LASF90
     /tmp/cch0p4o5.s:488    .text:000000000000021c .LVL31
     /tmp/cch0p4o5.s:499    .text:0000000000000230 .LVL32
     /tmp/cch0p4o5.s:76     .text:0000000000000018 .LVL3
     /tmp/cch0p4o5.s:88     .text:000000000000002c .LVL4
     /tmp/cch0p4o5.s:386    .text:0000000000000194 .LVL25
     /tmp/cch0p4o5.s:423    .text:00000000000001e0 .LVL28
     /tmp/cch0p4o5.s:336    .text:0000000000000144 .LVL20
     /tmp/cch0p4o5.s:369    .text:0000000000000188 .LVL23
     /tmp/cch0p4o5.s:372    .text:000000000000018c .LVL24
     /tmp/cch0p4o5.s:255    .text:00000000000000f0 .LVL16
     /tmp/cch0p4o5.s:265    .text:0000000000000100 .LVL17
     /tmp/cch0p4o5.s:228    .text:00000000000000d4 .LVL14
     /tmp/cch0p4o5.s:238    .text:00000000000000e4 .LVL15
     /tmp/cch0p4o5.s:201    .text:00000000000000b8 .LVL12
     /tmp/cch0p4o5.s:211    .text:00000000000000c8 .LVL13
     /tmp/cch0p4o5.s:149    .text:0000000000000074 .LVL8
     /tmp/cch0p4o5.s:154    .text:0000000000000078 .LVL9
     /tmp/cch0p4o5.s:169    .text:0000000000000098 .LVL10
     /tmp/cch0p4o5.s:171    .text:000000000000009c .LVL11
     /tmp/cch0p4o5.s:15     .text._ZN6Thread16threadTrampolineEPS_:0000000000000000 .LVL0
     /tmp/cch0p4o5.s:527    .debug_info:0000000000000000 .Ldebug_info0
     /tmp/cch0p4o5.s:5      .text:0000000000000000 .Ltext0
     /tmp/cch0p4o5.s:522    .text:0000000000000240 .Letext0

GAS LISTING /tmp/cch0p4o5.s 			page 20


UNDEFINED SYMBOLS
__putc
_ZN9Scheduler12AddNewThreadEP6Thread
_ZN9Scheduler5yieldEP6ThreadS1_
