GAS LISTING /tmp/ccqPcorm.s 			page 1


   1              		.file	"Thread.cpp"
   2              		.option pic
   3              		.option norelax
   4              		.text
   5              	.Ltext0:
   6              		.section	.text._ZN6Thread16threadTrampolineEPS_,"axG",@progbits,_ZN6Thread16threadTrampolineEPS_,c
   7              		.align	2
   8              		.weak	_ZN6Thread16threadTrampolineEPS_
  10              	_ZN6Thread16threadTrampolineEPS_:
  11              	.LFB0:
  12              		.file 1 "src/Thread.hpp"
   1:src/Thread.hpp **** //
   2:src/Thread.hpp **** // Created by os on 6/10/26.
   3:src/Thread.hpp **** //
   4:src/Thread.hpp **** 
   5:src/Thread.hpp **** #ifndef OSPROJEKAT_THREAD_H
   6:src/Thread.hpp **** #define OSPROJEKAT_THREAD_H
   7:src/Thread.hpp **** 
   8:src/Thread.hpp **** #include "../lib/hw.h"
   9:src/Thread.hpp **** struct Context {
  10:src/Thread.hpp ****     size_t x[32];    // x0-x31, offsets 0x00-0xF
  11:src/Thread.hpp ****     size_t sepc;     // offset 0x100
  12:src/Thread.hpp ****     size_t sstatus;  // offset 0x108
  13:src/Thread.hpp **** };
  14:src/Thread.hpp **** 
  15:src/Thread.hpp **** class Thread{
  16:src/Thread.hpp **** protected:
  17:src/Thread.hpp ****     static void threadTrampoline(Thread* t) {
  13              		.loc 1 17 17
  14              		.cfi_startproc
  15              	.LVL0:
  18:src/Thread.hpp ****         if (t->body)t->body();
  16              		.loc 1 18 9
  17              		.loc 1 18 16 is_stmt 0
  18 0000 83378500 		ld	a5,8(a0)
  19              		.loc 1 18 9
  20 0004 63840702 		beqz	a5,.L4
  17:src/Thread.hpp ****         if (t->body)t->body();
  21              		.loc 1 17 17 discriminator 1
  22 0008 130101FF 		addi	sp,sp,-16
  23              		.cfi_def_cfa_offset 16
  24 000c 23341100 		sd	ra,8(sp)
  25 0010 23308100 		sd	s0,0(sp)
  26              		.cfi_offset 1, -8
  27              		.cfi_offset 8, -16
  28 0014 13040101 		addi	s0,sp,16
  29              		.cfi_def_cfa 8, 0
  30              		.loc 1 18 21 is_stmt 1 discriminator 1
  31              		.loc 1 18 28 is_stmt 0 discriminator 1
  32 0018 E7800700 		jalr	a5
  33              	.LVL1:
  19:src/Thread.hpp ****     }
  34              		.loc 1 19 5 discriminator 1
  35 001c 83308100 		ld	ra,8(sp)
  36              		.cfi_restore 1
  37 0020 03340100 		ld	s0,0(sp)
  38              		.cfi_restore 8
GAS LISTING /tmp/ccqPcorm.s 			page 2


  39              		.cfi_def_cfa 2, 16
  40 0024 13010101 		addi	sp,sp,16
  41              		.cfi_def_cfa_offset 0
  42 0028 67800000 		jr	ra
  43              	.LVL2:
  44              	.L4:
  45 002c 67800000 		ret
  46              		.cfi_endproc
  47              	.LFE0:
  49              		.text
  50              		.align	2
  51              		.globl	_ZN6Thread4initEv
  53              	_ZN6Thread4initEv:
  54              	.LFB5:
  55              		.file 2 "src/Thread.cpp"
   1:src/Thread.cpp **** //
   2:src/Thread.cpp **** // Created by os on 6/10/26.
   3:src/Thread.cpp **** //
   4:src/Thread.cpp **** 
   5:src/Thread.cpp **** #include "Thread.hpp"
   6:src/Thread.cpp **** #include "Scheduler.hpp"
   7:src/Thread.cpp **** 
   8:src/Thread.cpp **** #include "../lib/console.h"
   9:src/Thread.cpp **** 
  10:src/Thread.cpp **** Thread::Thread() {
  11:src/Thread.cpp ****     body = nullptr;
  12:src/Thread.cpp **** }
  13:src/Thread.cpp **** 
  14:src/Thread.cpp **** void Thread::init() {
  56              		.loc 2 14 21 is_stmt 1
  57              		.cfi_startproc
  58              	.LVL3:
  59 0000 130101FF 		addi	sp,sp,-16
  60              		.cfi_def_cfa_offset 16
  61 0004 23348100 		sd	s0,8(sp)
  62              		.cfi_offset 8, -8
  63 0008 13040101 		addi	s0,sp,16
  64              		.cfi_def_cfa 8, 0
  15:src/Thread.cpp **** 
  16:src/Thread.cpp **** }
  65              		.loc 2 16 1 is_stmt 0
  66 000c 03348100 		ld	s0,8(sp)
  67              		.cfi_restore 8
  68              		.cfi_def_cfa 2, 16
  69 0010 13010101 		addi	sp,sp,16
  70              		.cfi_def_cfa_offset 0
  71 0014 67800000 		jr	ra
  72              		.cfi_endproc
  73              	.LFE5:
  75              		.align	2
  76              		.globl	_ZN6ThreadC2Ev
  78              	_ZN6ThreadC2Ev:
  79              	.LFB3:
  10:src/Thread.cpp ****     body = nullptr;
  80              		.loc 2 10 1 is_stmt 1
  81              		.cfi_startproc
  82              	.LVL4:
GAS LISTING /tmp/ccqPcorm.s 			page 3


  83 0018 130101FF 		addi	sp,sp,-16
  84              		.cfi_def_cfa_offset 16
  85 001c 23348100 		sd	s0,8(sp)
  86              		.cfi_offset 8, -8
  87 0020 13040101 		addi	s0,sp,16
  88              		.cfi_def_cfa 8, 0
  89              	.LBB2:
  10:src/Thread.cpp ****     body = nullptr;
  90              		.loc 2 10 16 is_stmt 0
  91 0024 97070000 		lla	a5,_ZTV6Thread+16
  91      93870700 
  92 002c 2330F500 		sd	a5,0(a0)
  11:src/Thread.cpp **** }
  93              		.loc 2 11 5 is_stmt 1
  11:src/Thread.cpp **** }
  94              		.loc 2 11 10 is_stmt 0
  95 0030 23340500 		sd	zero,8(a0)
  96              	.LBE2:
  12:src/Thread.cpp **** 
  97              		.loc 2 12 1
  98 0034 03348100 		ld	s0,8(sp)
  99              		.cfi_restore 8
 100              		.cfi_def_cfa 2, 16
 101 0038 13010101 		addi	sp,sp,16
 102              		.cfi_def_cfa_offset 0
 103 003c 67800000 		jr	ra
 104              		.cfi_endproc
 105              	.LFE3:
 107              		.globl	_ZN6ThreadC1Ev
 108              		.set	_ZN6ThreadC1Ev,_ZN6ThreadC2Ev
 109              		.align	2
 110              		.globl	_ZN6Thread11copyContextEPm
 112              	_ZN6Thread11copyContextEPm:
 113              	.LFB6:
  17:src/Thread.cpp **** void Thread::copyContext(size_t* ctx) {
 114              		.loc 2 17 39 is_stmt 1
 115              		.cfi_startproc
 116              	.LVL5:
 117 0040 130101FF 		addi	sp,sp,-16
 118              		.cfi_def_cfa_offset 16
 119 0044 23348100 		sd	s0,8(sp)
 120              		.cfi_offset 8, -8
 121 0048 13040101 		addi	s0,sp,16
 122              		.cfi_def_cfa 8, 0
  18:src/Thread.cpp ****     Context* cont = reinterpret_cast<Context*>(ctx);
 123              		.loc 2 18 5
 124              	.LVL6:
  19:src/Thread.cpp ****     for (int i = 0;i<32;i++) {
 125              		.loc 2 19 5
 126              	.LBB3:
 127              		.loc 2 19 14 is_stmt 0
 128 004c 13070000 		li	a4,0
 129              	.LVL7:
 130              	.L13:
 131              		.loc 2 19 21 is_stmt 1 discriminator 3
 132 0050 9307F001 		li	a5,31
 133 0054 63C8E702 		bgt	a4,a5,.L12
GAS LISTING /tmp/ccqPcorm.s 			page 4


  20:src/Thread.cpp ****         threadContext.x[i] = cont->x[i];
 134              		.loc 2 20 9 discriminator 2
 135              		.loc 2 20 39 is_stmt 0 discriminator 2
 136 0058 93173700 		slli	a5,a4,3
 137 005c B387F500 		add	a5,a1,a5
 138 0060 83B60700 		ld	a3,0(a5)
 139              		.loc 2 20 28 discriminator 2
 140 0064 B7170000 		li	a5,4096
 141 0068 93876700 		addi	a5,a5,6
 142 006c B307F700 		add	a5,a4,a5
 143 0070 93973700 		slli	a5,a5,3
 144 0074 B307F500 		add	a5,a0,a5
 145 0078 23B0D700 		sd	a3,0(a5)
  19:src/Thread.cpp ****     for (int i = 0;i<32;i++) {
 146              		.loc 2 19 5 is_stmt 1 discriminator 2
 147 007c 1B071700 		addiw	a4,a4,1
 148              	.LVL8:
 149 0080 6FF01FFD 		j	.L13
 150              	.LVL9:
 151              	.L12:
 152              	.LBE3:
  21:src/Thread.cpp ****     }
  22:src/Thread.cpp ****     threadContext.x[2] = reinterpret_cast<size_t>(this->stackPtr);
 153              		.loc 2 22 5
 154              		.loc 2 22 57 is_stmt 0
 155 0084 83370502 		ld	a5,32(a0)
 156              		.loc 2 22 24
 157 0088 37870000 		li	a4,32768
 158              	.LVL10:
 159 008c 3305E500 		add	a0,a0,a4
 160              	.LVL11:
 161 0090 2330F504 		sd	a5,64(a0)
  23:src/Thread.cpp ****     threadContext.sepc = cont->sepc;
 162              		.loc 2 23 5 is_stmt 1
 163              		.loc 2 23 32 is_stmt 0
 164 0094 83B70510 		ld	a5,256(a1)
 165              		.loc 2 23 24
 166 0098 2338F512 		sd	a5,304(a0)
  24:src/Thread.cpp ****     threadContext.sstatus =cont->sstatus;
 167              		.loc 2 24 5 is_stmt 1
 168              		.loc 2 24 34 is_stmt 0
 169 009c 83B78510 		ld	a5,264(a1)
 170              		.loc 2 24 27
 171 00a0 233CF512 		sd	a5,312(a0)
  25:src/Thread.cpp **** }
 172              		.loc 2 25 1
 173 00a4 03348100 		ld	s0,8(sp)
 174              		.cfi_restore 8
 175              		.cfi_def_cfa 2, 16
 176 00a8 13010101 		addi	sp,sp,16
 177              		.cfi_def_cfa_offset 0
 178 00ac 67800000 		jr	ra
 179              		.cfi_endproc
 180              	.LFE6:
 182              		.align	2
 183              		.globl	_ZN6Thread10getContextEv
 185              	_ZN6Thread10getContextEv:
GAS LISTING /tmp/ccqPcorm.s 			page 5


 186              	.LFB7:
  26:src/Thread.cpp **** 
  27:src/Thread.cpp **** size_t* Thread::getContext() {
 187              		.loc 2 27 30 is_stmt 1
 188              		.cfi_startproc
 189              	.LVL12:
 190 00b0 130101FF 		addi	sp,sp,-16
 191              		.cfi_def_cfa_offset 16
 192 00b4 23348100 		sd	s0,8(sp)
 193              		.cfi_offset 8, -8
 194 00b8 13040101 		addi	s0,sp,16
 195              		.cfi_def_cfa 8, 0
  28:src/Thread.cpp ****     return reinterpret_cast<size_t*>(&threadContext);
 196              		.loc 2 28 5
  29:src/Thread.cpp **** }
 197              		.loc 2 29 1 is_stmt 0
 198 00bc B7870000 		li	a5,32768
 199 00c0 93870703 		addi	a5,a5,48
 200 00c4 3305F500 		add	a0,a0,a5
 201              	.LVL13:
 202 00c8 03348100 		ld	s0,8(sp)
 203              		.cfi_restore 8
 204              		.cfi_def_cfa 2, 16
 205 00cc 13010101 		addi	sp,sp,16
 206              		.cfi_def_cfa_offset 0
 207 00d0 67800000 		jr	ra
 208              		.cfi_endproc
 209              	.LFE7:
 211              		.align	2
 212              		.globl	_ZN6Thread14getNextInQueueEv
 214              	_ZN6Thread14getNextInQueueEv:
 215              	.LFB8:
  30:src/Thread.cpp **** Thread* Thread::getNextInQueue(){
 216              		.loc 2 30 33 is_stmt 1
 217              		.cfi_startproc
 218              	.LVL14:
 219 00d4 130101FF 		addi	sp,sp,-16
 220              		.cfi_def_cfa_offset 16
 221 00d8 23348100 		sd	s0,8(sp)
 222              		.cfi_offset 8, -8
 223 00dc 13040101 		addi	s0,sp,16
 224              		.cfi_def_cfa 8, 0
  31:src/Thread.cpp ****     return next;
 225              		.loc 2 31 5
  32:src/Thread.cpp **** }
 226              		.loc 2 32 1 is_stmt 0
 227 00e0 03358501 		ld	a0,24(a0)
 228              	.LVL15:
 229 00e4 03348100 		ld	s0,8(sp)
 230              		.cfi_restore 8
 231              		.cfi_def_cfa 2, 16
 232 00e8 13010101 		addi	sp,sp,16
 233              		.cfi_def_cfa_offset 0
 234 00ec 67800000 		jr	ra
 235              		.cfi_endproc
 236              	.LFE8:
 238              		.align	2
GAS LISTING /tmp/ccqPcorm.s 			page 6


 239              		.globl	_ZN6Thread14getPrevInQueueEv
 241              	_ZN6Thread14getPrevInQueueEv:
 242              	.LFB9:
  33:src/Thread.cpp **** Thread* Thread::getPrevInQueue(){
 243              		.loc 2 33 33 is_stmt 1
 244              		.cfi_startproc
 245              	.LVL16:
 246 00f0 130101FF 		addi	sp,sp,-16
 247              		.cfi_def_cfa_offset 16
 248 00f4 23348100 		sd	s0,8(sp)
 249              		.cfi_offset 8, -8
 250 00f8 13040101 		addi	s0,sp,16
 251              		.cfi_def_cfa 8, 0
  34:src/Thread.cpp ****     return prev;
 252              		.loc 2 34 5
  35:src/Thread.cpp **** }
 253              		.loc 2 35 1 is_stmt 0
 254 00fc 03350501 		ld	a0,16(a0)
 255              	.LVL17:
 256 0100 03348100 		ld	s0,8(sp)
 257              		.cfi_restore 8
 258              		.cfi_def_cfa 2, 16
 259 0104 13010101 		addi	sp,sp,16
 260              		.cfi_def_cfa_offset 0
 261 0108 67800000 		jr	ra
 262              		.cfi_endproc
 263              	.LFE9:
 265              		.align	2
 266              		.globl	_ZN6Thread14setNextInQueueEPS_
 268              	_ZN6Thread14setNextInQueueEPS_:
 269              	.LFB10:
  36:src/Thread.cpp **** void Thread::setNextInQueue(Thread* next){
 270              		.loc 2 36 42 is_stmt 1
 271              		.cfi_startproc
 272              	.LVL18:
 273 010c 130101FF 		addi	sp,sp,-16
 274              		.cfi_def_cfa_offset 16
 275 0110 23348100 		sd	s0,8(sp)
 276              		.cfi_offset 8, -8
 277 0114 13040101 		addi	s0,sp,16
 278              		.cfi_def_cfa 8, 0
  37:src/Thread.cpp ****     this->next = next;
 279              		.loc 2 37 5
 280              		.loc 2 37 16 is_stmt 0
 281 0118 233CB500 		sd	a1,24(a0)
  38:src/Thread.cpp **** }
 282              		.loc 2 38 1
 283 011c 03348100 		ld	s0,8(sp)
 284              		.cfi_restore 8
 285              		.cfi_def_cfa 2, 16
 286 0120 13010101 		addi	sp,sp,16
 287              		.cfi_def_cfa_offset 0
 288 0124 67800000 		jr	ra
 289              		.cfi_endproc
 290              	.LFE10:
 292              		.align	2
 293              		.globl	_ZN6Thread14setPrevInQueueEPS_
GAS LISTING /tmp/ccqPcorm.s 			page 7


 295              	_ZN6Thread14setPrevInQueueEPS_:
 296              	.LFB11:
  39:src/Thread.cpp **** void Thread::setPrevInQueue(Thread* prev){
 297              		.loc 2 39 42 is_stmt 1
 298              		.cfi_startproc
 299              	.LVL19:
 300 0128 130101FF 		addi	sp,sp,-16
 301              		.cfi_def_cfa_offset 16
 302 012c 23348100 		sd	s0,8(sp)
 303              		.cfi_offset 8, -8
 304 0130 13040101 		addi	s0,sp,16
 305              		.cfi_def_cfa 8, 0
  40:src/Thread.cpp ****     this->prev = prev;
 306              		.loc 2 40 5
 307              		.loc 2 40 16 is_stmt 0
 308 0134 2338B500 		sd	a1,16(a0)
  41:src/Thread.cpp **** }
 309              		.loc 2 41 1
 310 0138 03348100 		ld	s0,8(sp)
 311              		.cfi_restore 8
 312              		.cfi_def_cfa 2, 16
 313 013c 13010101 		addi	sp,sp,16
 314              		.cfi_def_cfa_offset 0
 315 0140 67800000 		jr	ra
 316              		.cfi_endproc
 317              	.LFE11:
 319              		.align	2
 320              		.globl	_ZN6Thread21setNextAndPrevInQueueEPS_S0_
 322              	_ZN6Thread21setNextAndPrevInQueueEPS_S0_:
 323              	.LFB12:
  42:src/Thread.cpp **** void Thread::setNextAndPrevInQueue(Thread* next, Thread* prev){
 324              		.loc 2 42 63 is_stmt 1
 325              		.cfi_startproc
 326              	.LVL20:
 327 0144 130101FE 		addi	sp,sp,-32
 328              		.cfi_def_cfa_offset 32
 329 0148 233C1100 		sd	ra,24(sp)
 330 014c 23388100 		sd	s0,16(sp)
 331 0150 23349100 		sd	s1,8(sp)
 332 0154 23302101 		sd	s2,0(sp)
 333              		.cfi_offset 1, -8
 334              		.cfi_offset 8, -16
 335              		.cfi_offset 9, -24
 336              		.cfi_offset 18, -32
 337 0158 13040102 		addi	s0,sp,32
 338              		.cfi_def_cfa 8, 0
 339 015c 93040500 		mv	s1,a0
 340 0160 13090600 		mv	s2,a2
  43:src/Thread.cpp ****     setNextInQueue(next);
 341              		.loc 2 43 5
 342              		.loc 2 43 19 is_stmt 0
 343 0164 97000000 		call	_ZN6Thread14setNextInQueueEPS_
 343      E7800000 
 344              	.LVL21:
  44:src/Thread.cpp ****     setPrevInQueue(prev);
 345              		.loc 2 44 5 is_stmt 1
 346              		.loc 2 44 19 is_stmt 0
GAS LISTING /tmp/ccqPcorm.s 			page 8


 347 016c 93050900 		mv	a1,s2
 348 0170 13850400 		mv	a0,s1
 349 0174 97000000 		call	_ZN6Thread14setPrevInQueueEPS_
 349      E7800000 
 350              	.LVL22:
  45:src/Thread.cpp **** }
 351              		.loc 2 45 1
 352 017c 83308101 		ld	ra,24(sp)
 353              		.cfi_restore 1
 354 0180 03340101 		ld	s0,16(sp)
 355              		.cfi_restore 8
 356              		.cfi_def_cfa 2, 32
 357 0184 83348100 		ld	s1,8(sp)
 358              		.cfi_restore 9
 359              	.LVL23:
 360 0188 03390100 		ld	s2,0(sp)
 361              		.cfi_restore 18
 362              	.LVL24:
 363 018c 13010102 		addi	sp,sp,32
 364              		.cfi_def_cfa_offset 0
 365 0190 67800000 		jr	ra
 366              		.cfi_endproc
 367              	.LFE12:
 369              		.align	2
 370              		.globl	_ZN6Thread5startEv
 372              	_ZN6Thread5startEv:
 373              	.LFB13:
  46:src/Thread.cpp **** void Thread::start(){
 374              		.loc 2 46 21 is_stmt 1
 375              		.cfi_startproc
 376              	.LVL25:
 377 0194 130101FE 		addi	sp,sp,-32
 378              		.cfi_def_cfa_offset 32
 379 0198 233C1100 		sd	ra,24(sp)
 380 019c 23388100 		sd	s0,16(sp)
 381 01a0 23349100 		sd	s1,8(sp)
 382              		.cfi_offset 1, -8
 383              		.cfi_offset 8, -16
 384              		.cfi_offset 9, -24
 385 01a4 13040102 		addi	s0,sp,32
 386              		.cfi_def_cfa 8, 0
 387 01a8 93040500 		mv	s1,a0
  47:src/Thread.cpp ****     Scheduler::AddNewThread(this);
 388              		.loc 2 47 5
 389              		.loc 2 47 28 is_stmt 0
 390 01ac 97000000 		call	_ZN9Scheduler12AddNewThreadEP6Thread@plt
 390      E7800000 
 391              	.LVL26:
  48:src/Thread.cpp ****     this->threadContext.sepc = reinterpret_cast<size_t>(&Thread::threadTrampoline);
 392              		.loc 2 48 5 is_stmt 1
 393              		.loc 2 48 30 is_stmt 0
 394 01b4 B7870000 		li	a5,32768
 395 01b8 B387F400 		add	a5,s1,a5
 396 01bc 17070000 		lla	a4,_ZN6Thread16threadTrampolineEPS_
 396      13070700 
 397 01c4 23B8E712 		sd	a4,304(a5)
  49:src/Thread.cpp ****     this->threadContext.x[10] = reinterpret_cast<size_t>(this);
GAS LISTING /tmp/ccqPcorm.s 			page 9


 398              		.loc 2 49 5 is_stmt 1
 399              		.loc 2 49 31 is_stmt 0
 400 01c8 23B09708 		sd	s1,128(a5)
  50:src/Thread.cpp ****     Scheduler::yield(Scheduler::GetRunning(),this);
 401              		.loc 2 50 5 is_stmt 1
 402              		.loc 2 50 21 is_stmt 0
 403 01cc 97000000 		call	_ZN9Scheduler10GetRunningEv@plt
 403      E7800000 
 404              	.LVL27:
 405 01d4 93850400 		mv	a1,s1
 406 01d8 97000000 		call	_ZN9Scheduler5yieldEP6ThreadS1_@plt
 406      E7800000 
 407              	.LVL28:
  51:src/Thread.cpp **** }
 408              		.loc 2 51 1
 409 01e0 83308101 		ld	ra,24(sp)
 410              		.cfi_restore 1
 411 01e4 03340101 		ld	s0,16(sp)
 412              		.cfi_restore 8
 413              		.cfi_def_cfa 2, 32
 414 01e8 83348100 		ld	s1,8(sp)
 415              		.cfi_restore 9
 416              	.LVL29:
 417 01ec 13010102 		addi	sp,sp,32
 418              		.cfi_def_cfa_offset 0
 419 01f0 67800000 		jr	ra
 420              		.cfi_endproc
 421              	.LFE13:
 423              		.align	2
 424              		.globl	_ZN6Thread4joinEv
 426              	_ZN6Thread4joinEv:
 427              	.LFB14:
  52:src/Thread.cpp **** void Thread::join(){
 428              		.loc 2 52 20 is_stmt 1
 429              		.cfi_startproc
 430              	.LVL30:
 431 01f4 130101FF 		addi	sp,sp,-16
 432              		.cfi_def_cfa_offset 16
 433 01f8 23348100 		sd	s0,8(sp)
 434              		.cfi_offset 8, -8
 435 01fc 13040101 		addi	s0,sp,16
 436              		.cfi_def_cfa 8, 0
  53:src/Thread.cpp **** 
  54:src/Thread.cpp **** }
 437              		.loc 2 54 1 is_stmt 0
 438 0200 03348100 		ld	s0,8(sp)
 439              		.cfi_restore 8
 440              		.cfi_def_cfa 2, 16
 441 0204 13010101 		addi	sp,sp,16
 442              		.cfi_def_cfa_offset 0
 443 0208 67800000 		jr	ra
 444              		.cfi_endproc
 445              	.LFE14:
 447              		.align	2
 448              		.globl	_ZN6Thread11setStackPtrEPm
 450              	_ZN6Thread11setStackPtrEPm:
 451              	.LFB15:
GAS LISTING /tmp/ccqPcorm.s 			page 10


  55:src/Thread.cpp **** void Thread::setStackPtr(size_t* stackPtr) {
 452              		.loc 2 55 44 is_stmt 1
 453              		.cfi_startproc
 454              	.LVL31:
 455 020c 130101FF 		addi	sp,sp,-16
 456              		.cfi_def_cfa_offset 16
 457 0210 23348100 		sd	s0,8(sp)
 458              		.cfi_offset 8, -8
 459 0214 13040101 		addi	s0,sp,16
 460              		.cfi_def_cfa 8, 0
  56:src/Thread.cpp ****     this->stackPtr = stackPtr;
 461              		.loc 2 56 5
 462              		.loc 2 56 20 is_stmt 0
 463 0218 2330B502 		sd	a1,32(a0)
  57:src/Thread.cpp **** }
 464              		.loc 2 57 1
 465 021c 03348100 		ld	s0,8(sp)
 466              		.cfi_restore 8
 467              		.cfi_def_cfa 2, 16
 468 0220 13010101 		addi	sp,sp,16
 469              		.cfi_def_cfa_offset 0
 470 0224 67800000 		jr	ra
 471              		.cfi_endproc
 472              	.LFE15:
 474              		.align	2
 475              		.globl	_ZN6Thread15setSupervisorSpEPm
 477              	_ZN6Thread15setSupervisorSpEPm:
 478              	.LFB16:
  58:src/Thread.cpp **** 
  59:src/Thread.cpp **** void Thread::setSupervisorSp(size_t* supervisorSp) {
 479              		.loc 2 59 52 is_stmt 1
 480              		.cfi_startproc
 481              	.LVL32:
 482 0228 130101FF 		addi	sp,sp,-16
 483              		.cfi_def_cfa_offset 16
 484 022c 23348100 		sd	s0,8(sp)
 485              		.cfi_offset 8, -8
 486 0230 13040101 		addi	s0,sp,16
 487              		.cfi_def_cfa 8, 0
  60:src/Thread.cpp ****     this->supervisorSp = supervisorSp;
 488              		.loc 2 60 5
 489              		.loc 2 60 24 is_stmt 0
 490 0234 B7870000 		li	a5,32768
 491 0238 3305F500 		add	a0,a0,a5
 492              	.LVL33:
 493 023c 2334B502 		sd	a1,40(a0)
  61:src/Thread.cpp **** }
 494              		.loc 2 61 1
 495 0240 03348100 		ld	s0,8(sp)
 496              		.cfi_restore 8
 497              		.cfi_def_cfa 2, 16
 498 0244 13010101 		addi	sp,sp,16
 499              		.cfi_def_cfa_offset 0
 500 0248 67800000 		jr	ra
 501              		.cfi_endproc
 502              	.LFE16:
 504              		.weak	_ZTV6Thread
GAS LISTING /tmp/ccqPcorm.s 			page 11


 505              		.section	.data.rel.ro.local._ZTV6Thread,"awG",@progbits,_ZTV6Thread,comdat
 506              		.align	3
 509              	_ZTV6Thread:
 510 0000 00000000 		.dword	0
 510      00000000 
 511 0008 00000000 		.dword	0
 511      00000000 
 512 0010 00000000 		.dword	_ZN6Thread4initEv
 512      00000000 
 513              		.text
 514              	.Letext0:
 515              		.file 3 "src/../lib/hw.h"
 516              		.file 4 "src/Scheduler.hpp"
GAS LISTING /tmp/ccqPcorm.s 			page 12

