GAS LISTING /tmp/ccZjjmmg.s 			page 1


   1              		.file	"Thread.cpp"
   2              		.option pic
   3              		.option norelax
   4              		.text
   5              	.Ltext0:
   6              		.align	2
   7              		.globl	_ZN7KThread16threadTrampolineEPS_
   9              	_ZN7KThread16threadTrampolineEPS_:
  10              	.LFB15:
  11              		.file 1 "src/Thread.cpp"
   1:src/Thread.cpp **** //
   2:src/Thread.cpp **** // Created by os on 6/10/26.
   3:src/Thread.cpp **** //
   4:src/Thread.cpp **** 
   5:src/Thread.cpp **** #include "Thread.hpp"
   6:src/Thread.cpp **** #include "Scheduler.hpp"
   7:src/Thread.cpp **** 
   8:src/Thread.cpp **** #include "../lib/console.h"
   9:src/Thread.cpp **** 
  10:src/Thread.cpp **** KThread::KThread() {
  11:src/Thread.cpp **** }
  12:src/Thread.cpp **** 
  13:src/Thread.cpp **** void KThread::init() {
  14:src/Thread.cpp ****     body = nullptr;
  15:src/Thread.cpp ****     arg = nullptr;
  16:src/Thread.cpp ****     parent = nullptr;
  17:src/Thread.cpp ****     prev = nullptr;
  18:src/Thread.cpp ****     next = nullptr;
  19:src/Thread.cpp ****     stackPtr = nullptr;
  20:src/Thread.cpp ****     supervisorSp = nullptr;
  21:src/Thread.cpp ****     sleepDelta = 0;
  22:src/Thread.cpp ****     for (int i = 0; i < 32; i++) threadContext.x[i] = 0;
  23:src/Thread.cpp ****     threadContext.sepc = 0;
  24:src/Thread.cpp ****     threadContext.sstatus = 0;
  25:src/Thread.cpp ****     threadContext.pc = 0;
  26:src/Thread.cpp **** }
  27:src/Thread.cpp **** 
  28:src/Thread.cpp **** void KThread::copyContext(size_t* ctx) {
  29:src/Thread.cpp ****     Context* cont = reinterpret_cast<Context*>(ctx);
  30:src/Thread.cpp ****     for (int i = 0;i<32;i++) {
  31:src/Thread.cpp ****         threadContext.x[i] = cont->x[i];
  32:src/Thread.cpp ****     }
  33:src/Thread.cpp ****     threadContext.x[2] = reinterpret_cast<size_t>(this->stackPtr);
  34:src/Thread.cpp ****     threadContext.sepc = cont->sepc;
  35:src/Thread.cpp ****     threadContext.sstatus =cont->sstatus;
  36:src/Thread.cpp **** }
  37:src/Thread.cpp **** 
  38:src/Thread.cpp **** size_t* KThread::getContext() {
  39:src/Thread.cpp ****     return reinterpret_cast<size_t*>(&threadContext);
  40:src/Thread.cpp **** }
  41:src/Thread.cpp **** KThread* KThread::getNextInQueue(){
  42:src/Thread.cpp ****     return next;
  43:src/Thread.cpp **** }
  44:src/Thread.cpp **** KThread* KThread::getPrevInQueue(){
  45:src/Thread.cpp ****     return prev;
  46:src/Thread.cpp **** }
  47:src/Thread.cpp **** void KThread::setNextInQueue(KThread* next){
GAS LISTING /tmp/ccZjjmmg.s 			page 2


  48:src/Thread.cpp ****     this->next = next;
  49:src/Thread.cpp **** }
  50:src/Thread.cpp **** void KThread::setPrevInQueue(KThread* prev){
  51:src/Thread.cpp ****     this->prev = prev;
  52:src/Thread.cpp **** }
  53:src/Thread.cpp **** void KThread::setNextAndPrevInQueue(KThread* next, KThread* prev){
  54:src/Thread.cpp ****     setNextInQueue(next);
  55:src/Thread.cpp ****     setPrevInQueue(prev);
  56:src/Thread.cpp **** }
  57:src/Thread.cpp **** 
  58:src/Thread.cpp **** void KThread::setup(KThread* parentThread, size_t* stack_top) {
  59:src/Thread.cpp ****     parent = parentThread;
  60:src/Thread.cpp ****     stackPtr = stack_top;
  61:src/Thread.cpp ****     threadContext.x[2] = reinterpret_cast<size_t>(stack_top);
  62:src/Thread.cpp ****     threadContext.sepc  = reinterpret_cast<size_t>(&threadTrampoline);
  63:src/Thread.cpp ****     threadContext.x[10] = reinterpret_cast<size_t>(this);
  64:src/Thread.cpp **** 
  65:src/Thread.cpp ****     size_t gp_val;
  66:src/Thread.cpp ****     __asm__ volatile("mv %0, gp" : "=r"(gp_val));
  67:src/Thread.cpp ****     threadContext.x[3] = gp_val;
  68:src/Thread.cpp **** 
  69:src/Thread.cpp ****     size_t sstatus_val;
  70:src/Thread.cpp ****     __asm__ volatile("csrr %0, sstatus" : "=r"(sstatus_val));
  71:src/Thread.cpp ****     sstatus_val |= (1UL << 8); // SPP=1
  72:src/Thread.cpp ****     sstatus_val |= (1UL << 5); // SPIE=1
  73:src/Thread.cpp ****     threadContext.sstatus = sstatus_val;
  74:src/Thread.cpp **** }
  75:src/Thread.cpp **** 
  76:src/Thread.cpp **** void KThread::threadTrampoline(KThread* t) {
  12              		.loc 1 76 44
  13              		.cfi_startproc
  14              	.LVL0:
  15 0000 130101FE 		addi	sp,sp,-32
  16              		.cfi_def_cfa_offset 32
  17 0004 233C1100 		sd	ra,24(sp)
  18 0008 23388100 		sd	s0,16(sp)
  19 000c 23349100 		sd	s1,8(sp)
  20              		.cfi_offset 1, -8
  21              		.cfi_offset 8, -16
  22              		.cfi_offset 9, -24
  23 0010 13040102 		addi	s0,sp,32
  24              		.cfi_def_cfa 8, 0
  25 0014 93040500 		mv	s1,a0
  77:src/Thread.cpp ****     if (t->body) t->body(t->arg);
  26              		.loc 1 77 5
  27              		.loc 1 77 12 is_stmt 0
  28 0018 83370500 		ld	a5,0(a0)
  29              		.loc 1 77 5
  30 001c 63860700 		beqz	a5,.L2
  31              		.loc 1 77 18 is_stmt 1 discriminator 1
  32              		.loc 1 77 25 is_stmt 0 discriminator 1
  33 0020 03358500 		ld	a0,8(a0)
  34              	.LVL1:
  35 0024 E7800700 		jalr	a5
  36              	.LVL2:
  37              	.L2:
  78:src/Thread.cpp ****     Scheduler::ThreadExit(t);
GAS LISTING /tmp/ccZjjmmg.s 			page 3


  38              		.loc 1 78 5 is_stmt 1
  39              		.loc 1 78 26 is_stmt 0
  40 0028 13850400 		mv	a0,s1
  41 002c 97000000 		call	_ZN9Scheduler10ThreadExitEP7KThread@plt
  41      E7800000 
  42              	.LVL3:
  79:src/Thread.cpp **** }...
  43              		.loc 1 79 1
  44 0034 83308101 		ld	ra,24(sp)
  45              		.cfi_restore 1
  46 0038 03340101 		ld	s0,16(sp)
  47              		.cfi_restore 8
  48              		.cfi_def_cfa 2, 32
  49 003c 83348100 		ld	s1,8(sp)
  50              		.cfi_restore 9
  51              	.LVL4:
  52 0040 13010102 		addi	sp,sp,32
  53              		.cfi_def_cfa_offset 0
  54 0044 67800000 		jr	ra
  55              		.cfi_endproc
  56              	.LFE15:
  58              		.align	2
  59              		.globl	_ZN7KThreadC2Ev
  61              	_ZN7KThreadC2Ev:
  62              	.LFB4:
  10:src/Thread.cpp **** KThread::KThread() {
  63              		.loc 1 10 1 is_stmt 1
  64              		.cfi_startproc
  65              	.LVL5:
  66 0048 130101FF 		addi	sp,sp,-16
  67              		.cfi_def_cfa_offset 16
  68 004c 23348100 		sd	s0,8(sp)
  69              		.cfi_offset 8, -8
  70 0050 13040101 		addi	s0,sp,16
  71              		.cfi_def_cfa 8, 0
  11:src/Thread.cpp **** }
  72              		.loc 1 11 1 is_stmt 0
  73 0054 03348100 		ld	s0,8(sp)
  74              		.cfi_restore 8
  75              		.cfi_def_cfa 2, 16
  76 0058 13010101 		addi	sp,sp,16
  77              		.cfi_def_cfa_offset 0
  78 005c 67800000 		jr	ra
  79              		.cfi_endproc
  80              	.LFE4:
  82              		.globl	_ZN7KThreadC1Ev
  83              		.set	_ZN7KThreadC1Ev,_ZN7KThreadC2Ev
  84              		.align	2
  85              		.globl	_ZN7KThread4initEv
  87              	_ZN7KThread4initEv:
  88              	.LFB6:
  13:src/Thread.cpp **** void KThread::init() {
  89              		.loc 1 13 22 is_stmt 1
  90              		.cfi_startproc
  91              	.LVL6:
  92 0060 130101FF 		addi	sp,sp,-16
  93              		.cfi_def_cfa_offset 16
GAS LISTING /tmp/ccZjjmmg.s 			page 4


  94 0064 23348100 		sd	s0,8(sp)
  95              		.cfi_offset 8, -8
  96 0068 13040101 		addi	s0,sp,16
  97              		.cfi_def_cfa 8, 0
  14:src/Thread.cpp ****     body = nullptr;
  98              		.loc 1 14 5
  14:src/Thread.cpp ****     body = nullptr;
  99              		.loc 1 14 10 is_stmt 0
 100 006c 23300500 		sd	zero,0(a0)
  15:src/Thread.cpp ****     arg = nullptr;
 101              		.loc 1 15 5 is_stmt 1
  15:src/Thread.cpp ****     arg = nullptr;
 102              		.loc 1 15 9 is_stmt 0
 103 0070 23340500 		sd	zero,8(a0)
  16:src/Thread.cpp ****     parent = nullptr;
 104              		.loc 1 16 5 is_stmt 1
  16:src/Thread.cpp ****     parent = nullptr;
 105              		.loc 1 16 12 is_stmt 0
 106 0074 23380500 		sd	zero,16(a0)
  17:src/Thread.cpp ****     prev = nullptr;
 107              		.loc 1 17 5 is_stmt 1
  17:src/Thread.cpp ****     prev = nullptr;
 108              		.loc 1 17 10 is_stmt 0
 109 0078 233C0500 		sd	zero,24(a0)
  18:src/Thread.cpp ****     next = nullptr;
 110              		.loc 1 18 5 is_stmt 1
  18:src/Thread.cpp ****     next = nullptr;
 111              		.loc 1 18 10 is_stmt 0
 112 007c 23300502 		sd	zero,32(a0)
  19:src/Thread.cpp ****     stackPtr = nullptr;
 113              		.loc 1 19 5 is_stmt 1
  19:src/Thread.cpp ****     stackPtr = nullptr;
 114              		.loc 1 19 14 is_stmt 0
 115 0080 23340502 		sd	zero,40(a0)
  20:src/Thread.cpp ****     supervisorSp = nullptr;
 116              		.loc 1 20 5 is_stmt 1
  20:src/Thread.cpp ****     supervisorSp = nullptr;
 117              		.loc 1 20 18 is_stmt 0
 118 0084 23380502 		sd	zero,48(a0)
  21:src/Thread.cpp ****     sleepDelta = 0;
 119              		.loc 1 21 5 is_stmt 1
  21:src/Thread.cpp ****     sleepDelta = 0;
 120              		.loc 1 21 16 is_stmt 0
 121 0088 233C0502 		sd	zero,56(a0)
  22:src/Thread.cpp ****     for (int i = 0; i < 32; i++) threadContext.x[i] = 0;
 122              		.loc 1 22 5 is_stmt 1
 123              	.LVL7:
 124              	.LBB2:
  22:src/Thread.cpp ****     for (int i = 0; i < 32; i++) threadContext.x[i] = 0;
 125              		.loc 1 22 14 is_stmt 0
 126 008c 13070000 		li	a4,0
 127              	.LVL8:
 128              	.L8:
  22:src/Thread.cpp ****     for (int i = 0; i < 32; i++) threadContext.x[i] = 0;
 129              		.loc 1 22 23 is_stmt 1 discriminator 3
 130 0090 9307F001 		li	a5,31
 131 0094 63CEE700 		bgt	a4,a5,.L7
GAS LISTING /tmp/ccZjjmmg.s 			page 5


  22:src/Thread.cpp ****     for (int i = 0; i < 32; i++) threadContext.x[i] = 0;
 132              		.loc 1 22 34 discriminator 2
  22:src/Thread.cpp ****     for (int i = 0; i < 32; i++) threadContext.x[i] = 0;
 133              		.loc 1 22 53 is_stmt 0 discriminator 2
 134 0098 93078700 		addi	a5,a4,8
 135 009c 93973700 		slli	a5,a5,3
 136 00a0 B307F500 		add	a5,a0,a5
 137 00a4 23B00700 		sd	zero,0(a5)
  22:src/Thread.cpp ****     for (int i = 0; i < 32; i++) threadContext.x[i] = 0;
 138              		.loc 1 22 5 is_stmt 1 discriminator 2
 139 00a8 1B071700 		addiw	a4,a4,1
 140              	.LVL9:
 141 00ac 6FF05FFE 		j	.L8
 142              	.LVL10:
 143              	.L7:
 144              	.LBE2:
  23:src/Thread.cpp ****     threadContext.sepc = 0;
 145              		.loc 1 23 5
  23:src/Thread.cpp ****     threadContext.sepc = 0;
 146              		.loc 1 23 24 is_stmt 0
 147 00b0 23300514 		sd	zero,320(a0)
  24:src/Thread.cpp ****     threadContext.sstatus = 0;
 148              		.loc 1 24 5 is_stmt 1
  24:src/Thread.cpp ****     threadContext.sstatus = 0;
 149              		.loc 1 24 27 is_stmt 0
 150 00b4 23340514 		sd	zero,328(a0)
  25:src/Thread.cpp ****     threadContext.pc = 0;
 151              		.loc 1 25 5 is_stmt 1
  25:src/Thread.cpp ****     threadContext.pc = 0;
 152              		.loc 1 25 22 is_stmt 0
 153 00b8 23380514 		sd	zero,336(a0)
  26:src/Thread.cpp **** }
 154              		.loc 1 26 1
 155 00bc 03348100 		ld	s0,8(sp)
 156              		.cfi_restore 8
 157              		.cfi_def_cfa 2, 16
 158 00c0 13010101 		addi	sp,sp,16
 159              		.cfi_def_cfa_offset 0
 160 00c4 67800000 		jr	ra
 161              		.cfi_endproc
 162              	.LFE6:
 164              		.align	2
 165              		.globl	_ZN7KThread11copyContextEPm
 167              	_ZN7KThread11copyContextEPm:
 168              	.LFB7:
  28:src/Thread.cpp **** void KThread::copyContext(size_t* ctx) {
 169              		.loc 1 28 40 is_stmt 1
 170              		.cfi_startproc
 171              	.LVL11:
 172 00c8 130101FF 		addi	sp,sp,-16
 173              		.cfi_def_cfa_offset 16
 174 00cc 23348100 		sd	s0,8(sp)
 175              		.cfi_offset 8, -8
 176 00d0 13040101 		addi	s0,sp,16
 177              		.cfi_def_cfa 8, 0
  29:src/Thread.cpp ****     Context* cont = reinterpret_cast<Context*>(ctx);
 178              		.loc 1 29 5
GAS LISTING /tmp/ccZjjmmg.s 			page 6


 179              	.LVL12:
  30:src/Thread.cpp ****     for (int i = 0;i<32;i++) {
 180              		.loc 1 30 5
 181              	.LBB3:
  30:src/Thread.cpp ****     for (int i = 0;i<32;i++) {
 182              		.loc 1 30 14 is_stmt 0
 183 00d4 13070000 		li	a4,0
 184              	.LVL13:
 185              	.L12:
  30:src/Thread.cpp ****     for (int i = 0;i<32;i++) {
 186              		.loc 1 30 21 is_stmt 1 discriminator 3
 187 00d8 9307F001 		li	a5,31
 188 00dc 63C4E702 		bgt	a4,a5,.L11
  31:src/Thread.cpp ****         threadContext.x[i] = cont->x[i];
 189              		.loc 1 31 9 discriminator 2
  31:src/Thread.cpp ****         threadContext.x[i] = cont->x[i];
 190              		.loc 1 31 39 is_stmt 0 discriminator 2
 191 00e0 93173700 		slli	a5,a4,3
 192 00e4 B387F500 		add	a5,a1,a5
 193 00e8 83B60700 		ld	a3,0(a5)
  31:src/Thread.cpp ****         threadContext.x[i] = cont->x[i];
 194              		.loc 1 31 28 discriminator 2
 195 00ec 93078700 		addi	a5,a4,8
 196 00f0 93973700 		slli	a5,a5,3
 197 00f4 B307F500 		add	a5,a0,a5
 198 00f8 23B0D700 		sd	a3,0(a5)
  30:src/Thread.cpp ****     for (int i = 0;i<32;i++) {
 199              		.loc 1 30 5 is_stmt 1 discriminator 2
 200 00fc 1B071700 		addiw	a4,a4,1
 201              	.LVL14:
 202 0100 6FF09FFD 		j	.L12
 203              	.LVL15:
 204              	.L11:
 205              	.LBE3:
  33:src/Thread.cpp ****     threadContext.x[2] = reinterpret_cast<size_t>(this->stackPtr);
 206              		.loc 1 33 5
  33:src/Thread.cpp ****     threadContext.x[2] = reinterpret_cast<size_t>(this->stackPtr);
 207              		.loc 1 33 57 is_stmt 0
 208 0104 83378502 		ld	a5,40(a0)
  33:src/Thread.cpp ****     threadContext.x[2] = reinterpret_cast<size_t>(this->stackPtr);
 209              		.loc 1 33 24
 210 0108 2338F504 		sd	a5,80(a0)
  34:src/Thread.cpp ****     threadContext.sepc = cont->sepc;
 211              		.loc 1 34 5 is_stmt 1
  34:src/Thread.cpp ****     threadContext.sepc = cont->sepc;
 212              		.loc 1 34 32 is_stmt 0
 213 010c 83B70510 		ld	a5,256(a1)
  34:src/Thread.cpp ****     threadContext.sepc = cont->sepc;
 214              		.loc 1 34 24
 215 0110 2330F514 		sd	a5,320(a0)
  35:src/Thread.cpp ****     threadContext.sstatus =cont->sstatus;
 216              		.loc 1 35 5 is_stmt 1
  35:src/Thread.cpp ****     threadContext.sstatus =cont->sstatus;
 217              		.loc 1 35 34 is_stmt 0
 218 0114 83B78510 		ld	a5,264(a1)
  35:src/Thread.cpp ****     threadContext.sstatus =cont->sstatus;
 219              		.loc 1 35 27
GAS LISTING /tmp/ccZjjmmg.s 			page 7


 220 0118 2334F514 		sd	a5,328(a0)
  36:src/Thread.cpp **** }
 221              		.loc 1 36 1
 222 011c 03348100 		ld	s0,8(sp)
 223              		.cfi_restore 8
 224              		.cfi_def_cfa 2, 16
 225 0120 13010101 		addi	sp,sp,16
 226              		.cfi_def_cfa_offset 0
 227 0124 67800000 		jr	ra
 228              		.cfi_endproc
 229              	.LFE7:
 231              		.align	2
 232              		.globl	_ZN7KThread10getContextEv
 234              	_ZN7KThread10getContextEv:
 235              	.LFB8:
  38:src/Thread.cpp **** size_t* KThread::getContext() {
 236              		.loc 1 38 31 is_stmt 1
 237              		.cfi_startproc
 238              	.LVL16:
 239 0128 130101FF 		addi	sp,sp,-16
 240              		.cfi_def_cfa_offset 16
 241 012c 23348100 		sd	s0,8(sp)
 242              		.cfi_offset 8, -8
 243 0130 13040101 		addi	s0,sp,16
 244              		.cfi_def_cfa 8, 0
  39:src/Thread.cpp ****     return reinterpret_cast<size_t*>(&threadContext);
 245              		.loc 1 39 5
  40:src/Thread.cpp **** }
 246              		.loc 1 40 1 is_stmt 0
 247 0134 13050504 		addi	a0,a0,64
 248              	.LVL17:
 249 0138 03348100 		ld	s0,8(sp)
 250              		.cfi_restore 8
 251              		.cfi_def_cfa 2, 16
 252 013c 13010101 		addi	sp,sp,16
 253              		.cfi_def_cfa_offset 0
 254 0140 67800000 		jr	ra
 255              		.cfi_endproc
 256              	.LFE8:
 258              		.align	2
 259              		.globl	_ZN7KThread14getNextInQueueEv
 261              	_ZN7KThread14getNextInQueueEv:
 262              	.LFB9:
  41:src/Thread.cpp **** KThread* KThread::getNextInQueue(){
 263              		.loc 1 41 35 is_stmt 1
 264              		.cfi_startproc
 265              	.LVL18:
 266 0144 130101FF 		addi	sp,sp,-16
 267              		.cfi_def_cfa_offset 16
 268 0148 23348100 		sd	s0,8(sp)
 269              		.cfi_offset 8, -8
 270 014c 13040101 		addi	s0,sp,16
 271              		.cfi_def_cfa 8, 0
  42:src/Thread.cpp ****     return next;
 272              		.loc 1 42 5
  43:src/Thread.cpp **** }
 273              		.loc 1 43 1 is_stmt 0
GAS LISTING /tmp/ccZjjmmg.s 			page 8


 274 0150 03350502 		ld	a0,32(a0)
 275              	.LVL19:
 276 0154 03348100 		ld	s0,8(sp)
 277              		.cfi_restore 8
 278              		.cfi_def_cfa 2, 16
 279 0158 13010101 		addi	sp,sp,16
 280              		.cfi_def_cfa_offset 0
 281 015c 67800000 		jr	ra
 282              		.cfi_endproc
 283              	.LFE9:
 285              		.align	2
 286              		.globl	_ZN7KThread14getPrevInQueueEv
 288              	_ZN7KThread14getPrevInQueueEv:
 289              	.LFB10:
  44:src/Thread.cpp **** KThread* KThread::getPrevInQueue(){
 290              		.loc 1 44 35 is_stmt 1
 291              		.cfi_startproc
 292              	.LVL20:
 293 0160 130101FF 		addi	sp,sp,-16
 294              		.cfi_def_cfa_offset 16
 295 0164 23348100 		sd	s0,8(sp)
 296              		.cfi_offset 8, -8
 297 0168 13040101 		addi	s0,sp,16
 298              		.cfi_def_cfa 8, 0
  45:src/Thread.cpp ****     return prev;
 299              		.loc 1 45 5
  46:src/Thread.cpp **** }
 300              		.loc 1 46 1 is_stmt 0
 301 016c 03358501 		ld	a0,24(a0)
 302              	.LVL21:
 303 0170 03348100 		ld	s0,8(sp)
 304              		.cfi_restore 8
 305              		.cfi_def_cfa 2, 16
 306 0174 13010101 		addi	sp,sp,16
 307              		.cfi_def_cfa_offset 0
 308 0178 67800000 		jr	ra
 309              		.cfi_endproc
 310              	.LFE10:
 312              		.align	2
 313              		.globl	_ZN7KThread14setNextInQueueEPS_
 315              	_ZN7KThread14setNextInQueueEPS_:
 316              	.LFB11:
  47:src/Thread.cpp **** void KThread::setNextInQueue(KThread* next){
 317              		.loc 1 47 44 is_stmt 1
 318              		.cfi_startproc
 319              	.LVL22:
 320 017c 130101FF 		addi	sp,sp,-16
 321              		.cfi_def_cfa_offset 16
 322 0180 23348100 		sd	s0,8(sp)
 323              		.cfi_offset 8, -8
 324 0184 13040101 		addi	s0,sp,16
 325              		.cfi_def_cfa 8, 0
  48:src/Thread.cpp ****     this->next = next;
 326              		.loc 1 48 5
  48:src/Thread.cpp ****     this->next = next;
 327              		.loc 1 48 16 is_stmt 0
 328 0188 2330B502 		sd	a1,32(a0)
GAS LISTING /tmp/ccZjjmmg.s 			page 9


  49:src/Thread.cpp **** }
 329              		.loc 1 49 1
 330 018c 03348100 		ld	s0,8(sp)
 331              		.cfi_restore 8
 332              		.cfi_def_cfa 2, 16
 333 0190 13010101 		addi	sp,sp,16
 334              		.cfi_def_cfa_offset 0
 335 0194 67800000 		jr	ra
 336              		.cfi_endproc
 337              	.LFE11:
 339              		.align	2
 340              		.globl	_ZN7KThread14setPrevInQueueEPS_
 342              	_ZN7KThread14setPrevInQueueEPS_:
 343              	.LFB12:
  50:src/Thread.cpp **** void KThread::setPrevInQueue(KThread* prev){
 344              		.loc 1 50 44 is_stmt 1
 345              		.cfi_startproc
 346              	.LVL23:
 347 0198 130101FF 		addi	sp,sp,-16
 348              		.cfi_def_cfa_offset 16
 349 019c 23348100 		sd	s0,8(sp)
 350              		.cfi_offset 8, -8
 351 01a0 13040101 		addi	s0,sp,16
 352              		.cfi_def_cfa 8, 0
  51:src/Thread.cpp ****     this->prev = prev;
 353              		.loc 1 51 5
  51:src/Thread.cpp ****     this->prev = prev;
 354              		.loc 1 51 16 is_stmt 0
 355 01a4 233CB500 		sd	a1,24(a0)
  52:src/Thread.cpp **** }
 356              		.loc 1 52 1
 357 01a8 03348100 		ld	s0,8(sp)
 358              		.cfi_restore 8
 359              		.cfi_def_cfa 2, 16
 360 01ac 13010101 		addi	sp,sp,16
 361              		.cfi_def_cfa_offset 0
 362 01b0 67800000 		jr	ra
 363              		.cfi_endproc
 364              	.LFE12:
 366              		.align	2
 367              		.globl	_ZN7KThread21setNextAndPrevInQueueEPS_S0_
 369              	_ZN7KThread21setNextAndPrevInQueueEPS_S0_:
 370              	.LFB13:
  53:src/Thread.cpp **** void KThread::setNextAndPrevInQueue(KThread* next, KThread* prev){
 371              		.loc 1 53 66 is_stmt 1
 372              		.cfi_startproc
 373              	.LVL24:
 374 01b4 130101FE 		addi	sp,sp,-32
 375              		.cfi_def_cfa_offset 32
 376 01b8 233C1100 		sd	ra,24(sp)
 377 01bc 23388100 		sd	s0,16(sp)
 378 01c0 23349100 		sd	s1,8(sp)
 379 01c4 23302101 		sd	s2,0(sp)
 380              		.cfi_offset 1, -8
 381              		.cfi_offset 8, -16
 382              		.cfi_offset 9, -24
 383              		.cfi_offset 18, -32
GAS LISTING /tmp/ccZjjmmg.s 			page 10


 384 01c8 13040102 		addi	s0,sp,32
 385              		.cfi_def_cfa 8, 0
 386 01cc 93040500 		mv	s1,a0
 387 01d0 13090600 		mv	s2,a2
  54:src/Thread.cpp ****     setNextInQueue(next);
 388              		.loc 1 54 5
  54:src/Thread.cpp ****     setNextInQueue(next);
 389              		.loc 1 54 19 is_stmt 0
 390 01d4 97000000 		call	_ZN7KThread14setNextInQueueEPS_
 390      E7800000 
 391              	.LVL25:
  55:src/Thread.cpp ****     setPrevInQueue(prev);
 392              		.loc 1 55 5 is_stmt 1
  55:src/Thread.cpp ****     setPrevInQueue(prev);
 393              		.loc 1 55 19 is_stmt 0
 394 01dc 93050900 		mv	a1,s2
 395 01e0 13850400 		mv	a0,s1
 396 01e4 97000000 		call	_ZN7KThread14setPrevInQueueEPS_
 396      E7800000 
 397              	.LVL26:
  56:src/Thread.cpp **** }
 398              		.loc 1 56 1
 399 01ec 83308101 		ld	ra,24(sp)
 400              		.cfi_restore 1
 401 01f0 03340101 		ld	s0,16(sp)
 402              		.cfi_restore 8
 403              		.cfi_def_cfa 2, 32
 404 01f4 83348100 		ld	s1,8(sp)
 405              		.cfi_restore 9
 406              	.LVL27:
 407 01f8 03390100 		ld	s2,0(sp)
 408              		.cfi_restore 18
 409              	.LVL28:
 410 01fc 13010102 		addi	sp,sp,32
 411              		.cfi_def_cfa_offset 0
 412 0200 67800000 		jr	ra
 413              		.cfi_endproc
 414              	.LFE13:
 416              		.align	2
 417              		.globl	_ZN7KThread5setupEPS_Pm
 419              	_ZN7KThread5setupEPS_Pm:
 420              	.LFB14:
  58:src/Thread.cpp **** void KThread::setup(KThread* parentThread, size_t* stack_top) {
 421              		.loc 1 58 63 is_stmt 1
 422              		.cfi_startproc
 423              	.LVL29:
 424 0204 130101FF 		addi	sp,sp,-16
 425              		.cfi_def_cfa_offset 16
 426 0208 23348100 		sd	s0,8(sp)
 427              		.cfi_offset 8, -8
 428 020c 13040101 		addi	s0,sp,16
 429              		.cfi_def_cfa 8, 0
  59:src/Thread.cpp ****     parent = parentThread;
 430              		.loc 1 59 5
  59:src/Thread.cpp ****     parent = parentThread;
 431              		.loc 1 59 12 is_stmt 0
 432 0210 2338B500 		sd	a1,16(a0)
GAS LISTING /tmp/ccZjjmmg.s 			page 11


  60:src/Thread.cpp ****     stackPtr = stack_top;
 433              		.loc 1 60 5 is_stmt 1
  60:src/Thread.cpp ****     stackPtr = stack_top;
 434              		.loc 1 60 14 is_stmt 0
 435 0214 2334C502 		sd	a2,40(a0)
  61:src/Thread.cpp ****     threadContext.x[2] = reinterpret_cast<size_t>(stack_top);
 436              		.loc 1 61 5 is_stmt 1
  61:src/Thread.cpp ****     threadContext.x[2] = reinterpret_cast<size_t>(stack_top);
 437              		.loc 1 61 24 is_stmt 0
 438 0218 2338C504 		sd	a2,80(a0)
  62:src/Thread.cpp ****     threadContext.sepc  = reinterpret_cast<size_t>(&threadTrampoline);
 439              		.loc 1 62 5 is_stmt 1
  62:src/Thread.cpp ****     threadContext.sepc  = reinterpret_cast<size_t>(&threadTrampoline);
 440              		.loc 1 62 25 is_stmt 0
 441 021c 97070000 		lla	a5,_ZN7KThread16threadTrampolineEPS_
 441      93870700 
 442 0224 2330F514 		sd	a5,320(a0)
  63:src/Thread.cpp ****     threadContext.x[10] = reinterpret_cast<size_t>(this);
 443              		.loc 1 63 5 is_stmt 1
  63:src/Thread.cpp ****     threadContext.x[10] = reinterpret_cast<size_t>(this);
 444              		.loc 1 63 25 is_stmt 0
 445 0228 2338A508 		sd	a0,144(a0)
  65:src/Thread.cpp ****     size_t gp_val;
 446              		.loc 1 65 5 is_stmt 1
  66:src/Thread.cpp ****     __asm__ volatile("mv %0, gp" : "=r"(gp_val));
 447              		.loc 1 66 5
  66:src/Thread.cpp ****     __asm__ volatile("mv %0, gp" : "=r"(gp_val));
 448              		.loc 1 66 49 is_stmt 0
 449              	#APP
 450              	# 66 "src/Thread.cpp" 1
 451              		mv a5, gp
 452              	# 0 "" 2
 453              	.LVL30:
  67:src/Thread.cpp ****     threadContext.x[3] = gp_val;
 454              		.loc 1 67 5 is_stmt 1
  67:src/Thread.cpp ****     threadContext.x[3] = gp_val;
 455              		.loc 1 67 24 is_stmt 0
 456              	#NO_APP
 457 0230 233CF504 		sd	a5,88(a0)
  69:src/Thread.cpp ****     size_t sstatus_val;
 458              		.loc 1 69 5 is_stmt 1
  70:src/Thread.cpp ****     __asm__ volatile("csrr %0, sstatus" : "=r"(sstatus_val));
 459              		.loc 1 70 5
  70:src/Thread.cpp ****     __asm__ volatile("csrr %0, sstatus" : "=r"(sstatus_val));
 460              		.loc 1 70 61 is_stmt 0
 461              	#APP
 462              	# 70 "src/Thread.cpp" 1
 463              		csrr a5, sstatus
 464              	# 0 "" 2
 465              	.LVL31:
  71:src/Thread.cpp ****     sstatus_val |= (1UL << 8); // SPP=1
 466              		.loc 1 71 5 is_stmt 1
  72:src/Thread.cpp ****     sstatus_val |= (1UL << 5); // SPIE=1
 467              		.loc 1 72 5
  72:src/Thread.cpp ****     sstatus_val |= (1UL << 5); // SPIE=1
 468              		.loc 1 72 17 is_stmt 0
 469              	#NO_APP
GAS LISTING /tmp/ccZjjmmg.s 			page 12


 470 0238 93E70712 		ori	a5,a5,288
 471              	.LVL32:
  73:src/Thread.cpp ****     threadContext.sstatus = sstatus_val;
 472              		.loc 1 73 5 is_stmt 1
  73:src/Thread.cpp ****     threadContext.sstatus = sstatus_val;
 473              		.loc 1 73 27 is_stmt 0
 474 023c 2334F514 		sd	a5,328(a0)
  74:src/Thread.cpp **** }
 475              		.loc 1 74 1
 476 0240 03348100 		ld	s0,8(sp)
 477              		.cfi_restore 8
 478              		.cfi_def_cfa 2, 16
 479 0244 13010101 		addi	sp,sp,16
 480              		.cfi_def_cfa_offset 0
 481 0248 67800000 		jr	ra
 482              		.cfi_endproc
 483              	.LFE14:
 485              	.Letext0:
 486              		.file 2 "src/../lib/hw.h"
 487              		.file 3 "src/Thread.hpp"
 488              		.file 4 "src/Scheduler.hpp"
GAS LISTING /tmp/ccZjjmmg.s 			page 13


DEFINED SYMBOLS
                            *ABS*:0000000000000000 Thread.cpp
     /tmp/ccZjjmmg.s:9      .text:0000000000000000 _ZN7KThread16threadTrampolineEPS_
     /tmp/ccZjjmmg.s:13     .text:0000000000000000 .L0 
     /tmp/ccZjjmmg.s:15     .text:0000000000000000 .L0 
     /tmp/ccZjjmmg.s:16     .text:0000000000000004 .L0 
     /tmp/ccZjjmmg.s:20     .text:0000000000000010 .L0 
     /tmp/ccZjjmmg.s:21     .text:0000000000000010 .L0 
     /tmp/ccZjjmmg.s:22     .text:0000000000000010 .L0 
     /tmp/ccZjjmmg.s:24     .text:0000000000000014 .L0 
     /tmp/ccZjjmmg.s:27     .text:0000000000000018 .L0 
     /tmp/ccZjjmmg.s:28     .text:0000000000000018 .L0 
     /tmp/ccZjjmmg.s:30     .text:000000000000001c .L0 
     /tmp/ccZjjmmg.s:32     .text:0000000000000020 .L0 
     /tmp/ccZjjmmg.s:33     .text:0000000000000020 .L0 
     /tmp/ccZjjmmg.s:39     .text:0000000000000028 .L0 
     /tmp/ccZjjmmg.s:40     .text:0000000000000028 .L0 
     /tmp/ccZjjmmg.s:44     .text:0000000000000034 .L0 
     /tmp/ccZjjmmg.s:45     .text:0000000000000038 .L0 
     /tmp/ccZjjmmg.s:47     .text:000000000000003c .L0 
     /tmp/ccZjjmmg.s:48     .text:000000000000003c .L0 
     /tmp/ccZjjmmg.s:50     .text:0000000000000040 .L0 
     /tmp/ccZjjmmg.s:53     .text:0000000000000044 .L0 
     /tmp/ccZjjmmg.s:55     .text:0000000000000048 .L0 
     /tmp/ccZjjmmg.s:61     .text:0000000000000048 _ZN7KThreadC2Ev
     /tmp/ccZjjmmg.s:64     .text:0000000000000048 .L0 
     /tmp/ccZjjmmg.s:66     .text:0000000000000048 .L0 
     /tmp/ccZjjmmg.s:67     .text:000000000000004c .L0 
     /tmp/ccZjjmmg.s:69     .text:0000000000000050 .L0 
     /tmp/ccZjjmmg.s:71     .text:0000000000000054 .L0 
     /tmp/ccZjjmmg.s:73     .text:0000000000000054 .L0 
     /tmp/ccZjjmmg.s:74     .text:0000000000000058 .L0 
     /tmp/ccZjjmmg.s:75     .text:0000000000000058 .L0 
     /tmp/ccZjjmmg.s:77     .text:000000000000005c .L0 
     /tmp/ccZjjmmg.s:79     .text:0000000000000060 .L0 
     /tmp/ccZjjmmg.s:61     .text:0000000000000048 _ZN7KThreadC1Ev
     /tmp/ccZjjmmg.s:87     .text:0000000000000060 _ZN7KThread4initEv
     /tmp/ccZjjmmg.s:90     .text:0000000000000060 .L0 
     /tmp/ccZjjmmg.s:92     .text:0000000000000060 .L0 
     /tmp/ccZjjmmg.s:93     .text:0000000000000064 .L0 
     /tmp/ccZjjmmg.s:95     .text:0000000000000068 .L0 
     /tmp/ccZjjmmg.s:97     .text:000000000000006c .L0 
     /tmp/ccZjjmmg.s:99     .text:000000000000006c .L0 
     /tmp/ccZjjmmg.s:100    .text:000000000000006c .L0 
     /tmp/ccZjjmmg.s:102    .text:0000000000000070 .L0 
     /tmp/ccZjjmmg.s:103    .text:0000000000000070 .L0 
     /tmp/ccZjjmmg.s:105    .text:0000000000000074 .L0 
     /tmp/ccZjjmmg.s:106    .text:0000000000000074 .L0 
     /tmp/ccZjjmmg.s:108    .text:0000000000000078 .L0 
     /tmp/ccZjjmmg.s:109    .text:0000000000000078 .L0 
     /tmp/ccZjjmmg.s:111    .text:000000000000007c .L0 
     /tmp/ccZjjmmg.s:112    .text:000000000000007c .L0 
     /tmp/ccZjjmmg.s:114    .text:0000000000000080 .L0 
     /tmp/ccZjjmmg.s:115    .text:0000000000000080 .L0 
     /tmp/ccZjjmmg.s:117    .text:0000000000000084 .L0 
     /tmp/ccZjjmmg.s:118    .text:0000000000000084 .L0 
     /tmp/ccZjjmmg.s:120    .text:0000000000000088 .L0 
GAS LISTING /tmp/ccZjjmmg.s 			page 14


     /tmp/ccZjjmmg.s:121    .text:0000000000000088 .L0 
     /tmp/ccZjjmmg.s:125    .text:000000000000008c .L0 
     /tmp/ccZjjmmg.s:126    .text:000000000000008c .L0 
     /tmp/ccZjjmmg.s:130    .text:0000000000000090 .L0 
     /tmp/ccZjjmmg.s:133    .text:0000000000000098 .L0 
     /tmp/ccZjjmmg.s:134    .text:0000000000000098 .L0 
     /tmp/ccZjjmmg.s:139    .text:00000000000000a8 .L0 
     /tmp/ccZjjmmg.s:146    .text:00000000000000b0 .L0 
     /tmp/ccZjjmmg.s:147    .text:00000000000000b0 .L0 
     /tmp/ccZjjmmg.s:149    .text:00000000000000b4 .L0 
     /tmp/ccZjjmmg.s:150    .text:00000000000000b4 .L0 
     /tmp/ccZjjmmg.s:152    .text:00000000000000b8 .L0 
     /tmp/ccZjjmmg.s:153    .text:00000000000000b8 .L0 
     /tmp/ccZjjmmg.s:155    .text:00000000000000bc .L0 
     /tmp/ccZjjmmg.s:156    .text:00000000000000c0 .L0 
     /tmp/ccZjjmmg.s:157    .text:00000000000000c0 .L0 
     /tmp/ccZjjmmg.s:159    .text:00000000000000c4 .L0 
     /tmp/ccZjjmmg.s:161    .text:00000000000000c8 .L0 
     /tmp/ccZjjmmg.s:167    .text:00000000000000c8 _ZN7KThread11copyContextEPm
     /tmp/ccZjjmmg.s:170    .text:00000000000000c8 .L0 
     /tmp/ccZjjmmg.s:172    .text:00000000000000c8 .L0 
     /tmp/ccZjjmmg.s:173    .text:00000000000000cc .L0 
     /tmp/ccZjjmmg.s:175    .text:00000000000000d0 .L0 
     /tmp/ccZjjmmg.s:177    .text:00000000000000d4 .L0 
     /tmp/ccZjjmmg.s:180    .text:00000000000000d4 .L0 
     /tmp/ccZjjmmg.s:182    .text:00000000000000d4 .L0 
     /tmp/ccZjjmmg.s:183    .text:00000000000000d4 .L0 
     /tmp/ccZjjmmg.s:187    .text:00000000000000d8 .L0 
     /tmp/ccZjjmmg.s:190    .text:00000000000000e0 .L0 
     /tmp/ccZjjmmg.s:191    .text:00000000000000e0 .L0 
     /tmp/ccZjjmmg.s:195    .text:00000000000000ec .L0 
     /tmp/ccZjjmmg.s:200    .text:00000000000000fc .L0 
     /tmp/ccZjjmmg.s:207    .text:0000000000000104 .L0 
     /tmp/ccZjjmmg.s:208    .text:0000000000000104 .L0 
     /tmp/ccZjjmmg.s:210    .text:0000000000000108 .L0 
     /tmp/ccZjjmmg.s:212    .text:000000000000010c .L0 
     /tmp/ccZjjmmg.s:213    .text:000000000000010c .L0 
     /tmp/ccZjjmmg.s:215    .text:0000000000000110 .L0 
     /tmp/ccZjjmmg.s:217    .text:0000000000000114 .L0 
     /tmp/ccZjjmmg.s:218    .text:0000000000000114 .L0 
     /tmp/ccZjjmmg.s:220    .text:0000000000000118 .L0 
     /tmp/ccZjjmmg.s:222    .text:000000000000011c .L0 
     /tmp/ccZjjmmg.s:223    .text:0000000000000120 .L0 
     /tmp/ccZjjmmg.s:224    .text:0000000000000120 .L0 
     /tmp/ccZjjmmg.s:226    .text:0000000000000124 .L0 
     /tmp/ccZjjmmg.s:228    .text:0000000000000128 .L0 
     /tmp/ccZjjmmg.s:234    .text:0000000000000128 _ZN7KThread10getContextEv
     /tmp/ccZjjmmg.s:237    .text:0000000000000128 .L0 
     /tmp/ccZjjmmg.s:239    .text:0000000000000128 .L0 
     /tmp/ccZjjmmg.s:240    .text:000000000000012c .L0 
     /tmp/ccZjjmmg.s:242    .text:0000000000000130 .L0 
     /tmp/ccZjjmmg.s:244    .text:0000000000000134 .L0 
     /tmp/ccZjjmmg.s:246    .text:0000000000000134 .L0 
     /tmp/ccZjjmmg.s:247    .text:0000000000000134 .L0 
     /tmp/ccZjjmmg.s:250    .text:000000000000013c .L0 
     /tmp/ccZjjmmg.s:251    .text:000000000000013c .L0 
     /tmp/ccZjjmmg.s:253    .text:0000000000000140 .L0 
GAS LISTING /tmp/ccZjjmmg.s 			page 15


     /tmp/ccZjjmmg.s:255    .text:0000000000000144 .L0 
     /tmp/ccZjjmmg.s:261    .text:0000000000000144 _ZN7KThread14getNextInQueueEv
     /tmp/ccZjjmmg.s:264    .text:0000000000000144 .L0 
     /tmp/ccZjjmmg.s:266    .text:0000000000000144 .L0 
     /tmp/ccZjjmmg.s:267    .text:0000000000000148 .L0 
     /tmp/ccZjjmmg.s:269    .text:000000000000014c .L0 
     /tmp/ccZjjmmg.s:271    .text:0000000000000150 .L0 
     /tmp/ccZjjmmg.s:273    .text:0000000000000150 .L0 
     /tmp/ccZjjmmg.s:274    .text:0000000000000150 .L0 
     /tmp/ccZjjmmg.s:277    .text:0000000000000158 .L0 
     /tmp/ccZjjmmg.s:278    .text:0000000000000158 .L0 
     /tmp/ccZjjmmg.s:280    .text:000000000000015c .L0 
     /tmp/ccZjjmmg.s:282    .text:0000000000000160 .L0 
     /tmp/ccZjjmmg.s:288    .text:0000000000000160 _ZN7KThread14getPrevInQueueEv
     /tmp/ccZjjmmg.s:291    .text:0000000000000160 .L0 
     /tmp/ccZjjmmg.s:293    .text:0000000000000160 .L0 
     /tmp/ccZjjmmg.s:294    .text:0000000000000164 .L0 
     /tmp/ccZjjmmg.s:296    .text:0000000000000168 .L0 
     /tmp/ccZjjmmg.s:298    .text:000000000000016c .L0 
     /tmp/ccZjjmmg.s:300    .text:000000000000016c .L0 
     /tmp/ccZjjmmg.s:301    .text:000000000000016c .L0 
     /tmp/ccZjjmmg.s:304    .text:0000000000000174 .L0 
     /tmp/ccZjjmmg.s:305    .text:0000000000000174 .L0 
     /tmp/ccZjjmmg.s:307    .text:0000000000000178 .L0 
     /tmp/ccZjjmmg.s:309    .text:000000000000017c .L0 
     /tmp/ccZjjmmg.s:315    .text:000000000000017c _ZN7KThread14setNextInQueueEPS_
     /tmp/ccZjjmmg.s:318    .text:000000000000017c .L0 
     /tmp/ccZjjmmg.s:320    .text:000000000000017c .L0 
     /tmp/ccZjjmmg.s:321    .text:0000000000000180 .L0 
     /tmp/ccZjjmmg.s:323    .text:0000000000000184 .L0 
     /tmp/ccZjjmmg.s:325    .text:0000000000000188 .L0 
     /tmp/ccZjjmmg.s:327    .text:0000000000000188 .L0 
     /tmp/ccZjjmmg.s:328    .text:0000000000000188 .L0 
     /tmp/ccZjjmmg.s:330    .text:000000000000018c .L0 
     /tmp/ccZjjmmg.s:331    .text:0000000000000190 .L0 
     /tmp/ccZjjmmg.s:332    .text:0000000000000190 .L0 
     /tmp/ccZjjmmg.s:334    .text:0000000000000194 .L0 
     /tmp/ccZjjmmg.s:336    .text:0000000000000198 .L0 
     /tmp/ccZjjmmg.s:342    .text:0000000000000198 _ZN7KThread14setPrevInQueueEPS_
     /tmp/ccZjjmmg.s:345    .text:0000000000000198 .L0 
     /tmp/ccZjjmmg.s:347    .text:0000000000000198 .L0 
     /tmp/ccZjjmmg.s:348    .text:000000000000019c .L0 
     /tmp/ccZjjmmg.s:350    .text:00000000000001a0 .L0 
     /tmp/ccZjjmmg.s:352    .text:00000000000001a4 .L0 
     /tmp/ccZjjmmg.s:354    .text:00000000000001a4 .L0 
     /tmp/ccZjjmmg.s:355    .text:00000000000001a4 .L0 
     /tmp/ccZjjmmg.s:357    .text:00000000000001a8 .L0 
     /tmp/ccZjjmmg.s:358    .text:00000000000001ac .L0 
     /tmp/ccZjjmmg.s:359    .text:00000000000001ac .L0 
     /tmp/ccZjjmmg.s:361    .text:00000000000001b0 .L0 
     /tmp/ccZjjmmg.s:363    .text:00000000000001b4 .L0 
     /tmp/ccZjjmmg.s:369    .text:00000000000001b4 _ZN7KThread21setNextAndPrevInQueueEPS_S0_
     /tmp/ccZjjmmg.s:372    .text:00000000000001b4 .L0 
     /tmp/ccZjjmmg.s:374    .text:00000000000001b4 .L0 
     /tmp/ccZjjmmg.s:375    .text:00000000000001b8 .L0 
     /tmp/ccZjjmmg.s:380    .text:00000000000001c8 .L0 
     /tmp/ccZjjmmg.s:381    .text:00000000000001c8 .L0 
GAS LISTING /tmp/ccZjjmmg.s 			page 16


     /tmp/ccZjjmmg.s:382    .text:00000000000001c8 .L0 
     /tmp/ccZjjmmg.s:383    .text:00000000000001c8 .L0 
     /tmp/ccZjjmmg.s:385    .text:00000000000001cc .L0 
     /tmp/ccZjjmmg.s:389    .text:00000000000001d4 .L0 
     /tmp/ccZjjmmg.s:390    .text:00000000000001d4 .L0 
     /tmp/ccZjjmmg.s:393    .text:00000000000001dc .L0 
     /tmp/ccZjjmmg.s:394    .text:00000000000001dc .L0 
     /tmp/ccZjjmmg.s:399    .text:00000000000001ec .L0 
     /tmp/ccZjjmmg.s:400    .text:00000000000001f0 .L0 
     /tmp/ccZjjmmg.s:402    .text:00000000000001f4 .L0 
     /tmp/ccZjjmmg.s:403    .text:00000000000001f4 .L0 
     /tmp/ccZjjmmg.s:405    .text:00000000000001f8 .L0 
     /tmp/ccZjjmmg.s:408    .text:00000000000001fc .L0 
     /tmp/ccZjjmmg.s:411    .text:0000000000000200 .L0 
     /tmp/ccZjjmmg.s:413    .text:0000000000000204 .L0 
     /tmp/ccZjjmmg.s:419    .text:0000000000000204 _ZN7KThread5setupEPS_Pm
     /tmp/ccZjjmmg.s:422    .text:0000000000000204 .L0 
     /tmp/ccZjjmmg.s:424    .text:0000000000000204 .L0 
     /tmp/ccZjjmmg.s:425    .text:0000000000000208 .L0 
     /tmp/ccZjjmmg.s:427    .text:000000000000020c .L0 
     /tmp/ccZjjmmg.s:429    .text:0000000000000210 .L0 
     /tmp/ccZjjmmg.s:431    .text:0000000000000210 .L0 
     /tmp/ccZjjmmg.s:432    .text:0000000000000210 .L0 
     /tmp/ccZjjmmg.s:434    .text:0000000000000214 .L0 
     /tmp/ccZjjmmg.s:435    .text:0000000000000214 .L0 
     /tmp/ccZjjmmg.s:437    .text:0000000000000218 .L0 
     /tmp/ccZjjmmg.s:438    .text:0000000000000218 .L0 
     /tmp/ccZjjmmg.s:440    .text:000000000000021c .L0 
     /tmp/ccZjjmmg.s:441    .text:000000000000021c .L0 
     /tmp/ccZjjmmg.s:444    .text:0000000000000228 .L0 
     /tmp/ccZjjmmg.s:445    .text:0000000000000228 .L0 
     /tmp/ccZjjmmg.s:447    .text:000000000000022c .L0 
     /tmp/ccZjjmmg.s:448    .text:000000000000022c .L0 
      src/Thread.cpp:66     .text:000000000000022c .L0 
     /tmp/ccZjjmmg.s:455    .text:0000000000000230 .L0 
     /tmp/ccZjjmmg.s:457    .text:0000000000000230 .L0 
     /tmp/ccZjjmmg.s:459    .text:0000000000000234 .L0 
     /tmp/ccZjjmmg.s:460    .text:0000000000000234 .L0 
      src/Thread.cpp:70     .text:0000000000000234 .L0 
     /tmp/ccZjjmmg.s:467    .text:0000000000000238 .L0 
     /tmp/ccZjjmmg.s:468    .text:0000000000000238 .L0 
     /tmp/ccZjjmmg.s:470    .text:0000000000000238 .L0 
     /tmp/ccZjjmmg.s:473    .text:000000000000023c .L0 
     /tmp/ccZjjmmg.s:474    .text:000000000000023c .L0 
     /tmp/ccZjjmmg.s:476    .text:0000000000000240 .L0 
     /tmp/ccZjjmmg.s:477    .text:0000000000000244 .L0 
     /tmp/ccZjjmmg.s:478    .text:0000000000000244 .L0 
     /tmp/ccZjjmmg.s:480    .text:0000000000000248 .L0 
     /tmp/ccZjjmmg.s:482    .text:000000000000024c .L0 
     /tmp/ccZjjmmg.s:489    .text:000000000000024c .L0 
     /tmp/ccZjjmmg.s:441    .text:000000000000021c .L0 
     /tmp/ccZjjmmg.s:37     .text:0000000000000028 .L2
     /tmp/ccZjjmmg.s:143    .text:00000000000000b0 .L7
     /tmp/ccZjjmmg.s:128    .text:0000000000000090 .L8
     /tmp/ccZjjmmg.s:204    .text:0000000000000104 .L11
     /tmp/ccZjjmmg.s:185    .text:00000000000000d8 .L12
     /tmp/ccZjjmmg.s:1455   .debug_abbrev:0000000000000000 .Ldebug_abbrev0
GAS LISTING /tmp/ccZjjmmg.s 			page 17


     /tmp/ccZjjmmg.s:2667   .debug_str:00000000000005c9 .LASF90
     /tmp/ccZjjmmg.s:2661   .debug_str:00000000000005a2 .LASF91
     /tmp/ccZjjmmg.s:2653   .debug_str:0000000000000549 .LASF92
     /tmp/ccZjjmmg.s:5      .text:0000000000000000 .Ltext0
     /tmp/ccZjjmmg.s:485    .text:000000000000024c .Letext0
     /tmp/ccZjjmmg.s:2493   .debug_line:0000000000000000 .Ldebug_line0
     /tmp/ccZjjmmg.s:2607   .debug_str:00000000000003c5 .LASF0
     /tmp/ccZjjmmg.s:2621   .debug_str:0000000000000428 .LASF1
     /tmp/ccZjjmmg.s:2597   .debug_str:0000000000000383 .LASF2
     /tmp/ccZjjmmg.s:2575   .debug_str:00000000000002ae .LASF4
     /tmp/ccZjjmmg.s:2613   .debug_str:00000000000003ec .LASF3
     /tmp/ccZjjmmg.s:2519   .debug_str:00000000000000d2 .LASF5
     /tmp/ccZjjmmg.s:2549   .debug_str:00000000000001dc .LASF6
     /tmp/ccZjjmmg.s:2625   .debug_str:0000000000000457 .LASF7
     /tmp/ccZjjmmg.s:2605   .debug_str:00000000000003b2 .LASF8
     /tmp/ccZjjmmg.s:2677   .debug_str:00000000000006d6 .LASF9
     /tmp/ccZjjmmg.s:2571   .debug_str:0000000000000280 .LASF10
     /tmp/ccZjjmmg.s:2633   .debug_str:0000000000000497 .LASF11
     /tmp/ccZjjmmg.s:2669   .debug_str:000000000000068d .LASF12
     /tmp/ccZjjmmg.s:2523   .debug_str:00000000000000e3 .LASF13
     /tmp/ccZjjmmg.s:2499   .debug_str:0000000000000025 .LASF14
     /tmp/ccZjjmmg.s:2535   .debug_str:000000000000014e .LASF15
     /tmp/ccZjjmmg.s:2645   .debug_str:000000000000050c .LASF16
     /tmp/ccZjjmmg.s:2543   .debug_str:00000000000001ab .LASF17
     /tmp/ccZjjmmg.s:2503   .debug_str:0000000000000053 .LASF93
     /tmp/ccZjjmmg.s:2615   .debug_str:00000000000003fe .LASF18
     /tmp/ccZjjmmg.s:2643   .debug_str:0000000000000504 .LASF19
     /tmp/ccZjjmmg.s:2555   .debug_str:0000000000000218 .LASF28
     /tmp/ccZjjmmg.s:2533   .debug_str:000000000000013d .LASF52
     /tmp/ccZjjmmg.s:2659   .debug_str:0000000000000580 .LASF54
     /tmp/ccZjjmmg.s:2579   .debug_str:00000000000002d9 .LASF20
     /tmp/ccZjjmmg.s:2567   .debug_str:000000000000026a .LASF21
     /tmp/ccZjjmmg.s:2679   .debug_str:00000000000006e6 .LASF22
     /tmp/ccZjjmmg.s:2687   .debug_str:0000000000000725 .LASF23
     /tmp/ccZjjmmg.s:2509   .debug_str:0000000000000076 .LASF24
     /tmp/ccZjjmmg.s:2497   .debug_str:0000000000000018 .LASF25
     /tmp/ccZjjmmg.s:2583   .debug_str:0000000000000300 .LASF26
     /tmp/ccZjjmmg.s:2515   .debug_str:00000000000000a8 .LASF27
     /tmp/ccZjjmmg.s:2591   .debug_str:0000000000000336 .LASF30
     /tmp/ccZjjmmg.s:2665   .debug_str:00000000000005bd .LASF29
     /tmp/ccZjjmmg.s:2641   .debug_str:00000000000004e8 .LASF31
     /tmp/ccZjjmmg.s:2627   .debug_str:000000000000046a .LASF32
     /tmp/ccZjjmmg.s:2651   .debug_str:0000000000000536 .LASF33
     /tmp/ccZjjmmg.s:2603   .debug_str:00000000000003a6 .LASF34
     /tmp/ccZjjmmg.s:2553   .debug_str:00000000000001fd .LASF36
     /tmp/ccZjjmmg.s:2529   .debug_str:0000000000000125 .LASF35
     /tmp/ccZjjmmg.s:2551   .debug_str:00000000000001e3 .LASF37
     /tmp/ccZjjmmg.s:2521   .debug_str:00000000000000d9 .LASF38
     /tmp/ccZjjmmg.s:2671   .debug_str:000000000000069c .LASF39
     /tmp/ccZjjmmg.s:2569   .debug_str:0000000000000271 .LASF40
     /tmp/ccZjjmmg.s:2501   .debug_str:0000000000000035 .LASF41
     /tmp/ccZjjmmg.s:2655   .debug_str:0000000000000567 .LASF42
     /tmp/ccZjjmmg.s:2629   .debug_str:000000000000046f .LASF43
     /tmp/ccZjjmmg.s:2689   .debug_str:000000000000072a .LASF44
     /tmp/ccZjjmmg.s:2573   .debug_str:000000000000028e .LASF45
     /tmp/ccZjjmmg.s:2507   .debug_str:0000000000000067 .LASF46
     /tmp/ccZjjmmg.s:2595   .debug_str:0000000000000363 .LASF47
GAS LISTING /tmp/ccZjjmmg.s 			page 18


     /tmp/ccZjjmmg.s:2587   .debug_str:0000000000000318 .LASF48
     /tmp/ccZjjmmg.s:2683   .debug_str:00000000000006f0 .LASF49
     /tmp/ccZjjmmg.s:2557   .debug_str:0000000000000220 .LASF50
     /tmp/ccZjjmmg.s:2675   .debug_str:00000000000006be .LASF51
     /tmp/ccZjjmmg.s:2599   .debug_str:0000000000000391 .LASF53
     /tmp/ccZjjmmg.s:2511   .debug_str:000000000000007f .LASF55
     /tmp/ccZjjmmg.s:2631   .debug_str:000000000000048d .LASF56
     /tmp/ccZjjmmg.s:2559   .debug_str:0000000000000226 .LASF57
     /tmp/ccZjjmmg.s:2561   .debug_str:000000000000023c .LASF58
     /tmp/ccZjjmmg.s:2611   .debug_str:00000000000003e1 .LASF59
     /tmp/ccZjjmmg.s:2649   .debug_str:0000000000000528 .LASF60
     /tmp/ccZjjmmg.s:2547   .debug_str:00000000000001d1 .LASF61
     /tmp/ccZjjmmg.s:2505   .debug_str:000000000000005b .LASF62
     /tmp/ccZjjmmg.s:2601   .debug_str:0000000000000399 .LASF63
     /tmp/ccZjjmmg.s:2527   .debug_str:0000000000000119 .LASF94
     /tmp/ccZjjmmg.s:2593   .debug_str:0000000000000346 .LASF95
     /tmp/ccZjjmmg.s:2609   .debug_str:00000000000003d2 .LASF80
     /tmp/ccZjjmmg.s:2541   .debug_str:0000000000000183 .LASF82
     /tmp/ccZjjmmg.s:2545   .debug_str:00000000000001c1 .LASF64
     /tmp/ccZjjmmg.s:2639   .debug_str:00000000000004c7 .LASF66
     /tmp/ccZjjmmg.s:2635   .debug_str:00000000000004a6 .LASF65
     /tmp/ccZjjmmg.s:2537   .debug_str:000000000000015a .LASF67
     /tmp/ccZjjmmg.s:2685   .debug_str:000000000000071a .LASF72
     /tmp/ccZjjmmg.s:2623   .debug_str:000000000000043b .LASF74
     /tmp/ccZjjmmg.s:2647   .debug_str:0000000000000522 .LASF68
     /tmp/ccZjjmmg.s:2563   .debug_str:0000000000000244 .LASF69
     /tmp/ccZjjmmg.s:2513   .debug_str:000000000000009d .LASF70
     /tmp/ccZjjmmg.s:2577   .debug_str:00000000000002b5 .LASF71
     /tmp/ccZjjmmg.s:2589   .debug_str:000000000000032e .LASF73
     /tmp/ccZjjmmg.s:2495   .debug_str:0000000000000000 .LASF75
     /tmp/ccZjjmmg.s:2517   .debug_str:00000000000000b6 .LASF96
     /tmp/ccZjjmmg.s:2531   .debug_str:0000000000000130 .LASF76
     /tmp/ccZjjmmg.s:2525   .debug_str:00000000000000f3 .LASF77
     /tmp/ccZjjmmg.s:2657   .debug_str:0000000000000576 .LASF78
     /tmp/ccZjjmmg.s:2581   .debug_str:00000000000002de .LASF79
     /tmp/ccZjjmmg.s:2617   .debug_str:0000000000000403 .LASF81
     /tmp/ccZjjmmg.s:2619   .debug_str:0000000000000409 .LASF83
     /tmp/ccZjjmmg.s:10     .text:0000000000000000 .LFB15
     /tmp/ccZjjmmg.s:56     .text:0000000000000048 .LFE15
     /tmp/ccZjjmmg.s:2311   .debug_loc:0000000000000000 .LLST0
     /tmp/ccZjjmmg.s:42     .text:0000000000000034 .LVL3
     /tmp/ccZjjmmg.s:420    .text:0000000000000204 .LFB14
     /tmp/ccZjjmmg.s:483    .text:000000000000024c .LFE14
     /tmp/ccZjjmmg.s:2681   .debug_str:00000000000006eb .LASF88
     /tmp/ccZjjmmg.s:2585   .debug_str:000000000000030b .LASF84
     /tmp/ccZjjmmg.s:2673   .debug_str:00000000000006b4 .LASF85
     /tmp/ccZjjmmg.s:2539   .debug_str:000000000000017c .LASF86
     /tmp/ccZjjmmg.s:2329   .debug_loc:000000000000004c .LLST9
     /tmp/ccZjjmmg.s:2663   .debug_str:00000000000005b1 .LASF87
     /tmp/ccZjjmmg.s:2341   .debug_loc:0000000000000084 .LLST10
     /tmp/ccZjjmmg.s:370    .text:00000000000001b4 .LFB13
     /tmp/ccZjjmmg.s:414    .text:0000000000000204 .LFE13
     /tmp/ccZjjmmg.s:2357   .debug_loc:00000000000000c0 .LLST6
     /tmp/ccZjjmmg.s:2375   .debug_loc:000000000000010c .LLST7
     /tmp/ccZjjmmg.s:2389   .debug_loc:0000000000000145 .LLST8
     /tmp/ccZjjmmg.s:391    .text:00000000000001dc .LVL25
     /tmp/ccZjjmmg.s:397    .text:00000000000001ec .LVL26
GAS LISTING /tmp/ccZjjmmg.s 			page 19


     /tmp/ccZjjmmg.s:343    .text:0000000000000198 .LFB12
     /tmp/ccZjjmmg.s:364    .text:00000000000001b4 .LFE12
     /tmp/ccZjjmmg.s:316    .text:000000000000017c .LFB11
     /tmp/ccZjjmmg.s:337    .text:0000000000000198 .LFE11
     /tmp/ccZjjmmg.s:289    .text:0000000000000160 .LFB10
     /tmp/ccZjjmmg.s:310    .text:000000000000017c .LFE10
     /tmp/ccZjjmmg.s:2407   .debug_loc:0000000000000191 .LLST5
     /tmp/ccZjjmmg.s:262    .text:0000000000000144 .LFB9
     /tmp/ccZjjmmg.s:283    .text:0000000000000160 .LFE9
     /tmp/ccZjjmmg.s:2421   .debug_loc:00000000000001ca .LLST4
     /tmp/ccZjjmmg.s:235    .text:0000000000000128 .LFB8
     /tmp/ccZjjmmg.s:256    .text:0000000000000144 .LFE8
     /tmp/ccZjjmmg.s:2435   .debug_loc:0000000000000203 .LLST3
     /tmp/ccZjjmmg.s:168    .text:00000000000000c8 .LFB7
     /tmp/ccZjjmmg.s:229    .text:0000000000000128 .LFE7
     /tmp/ccZjjmmg.s:2565   .debug_str:0000000000000265 .LASF89
     /tmp/ccZjjmmg.s:181    .text:00000000000000d4 .LBB3
     /tmp/ccZjjmmg.s:205    .text:0000000000000104 .LBE3
     /tmp/ccZjjmmg.s:2448   .debug_loc:000000000000023b .LLST2
     /tmp/ccZjjmmg.s:88     .text:0000000000000060 .LFB6
     /tmp/ccZjjmmg.s:162    .text:00000000000000c8 .LFE6
     /tmp/ccZjjmmg.s:124    .text:000000000000008c .LBB2
     /tmp/ccZjjmmg.s:144    .text:00000000000000b0 .LBE2
     /tmp/ccZjjmmg.s:2464   .debug_loc:0000000000000285 .LLST1
     /tmp/ccZjjmmg.s:2637   .debug_str:00000000000004b7 .LASF97
     /tmp/ccZjjmmg.s:62     .text:0000000000000048 .LFB4
     /tmp/ccZjjmmg.s:80     .text:0000000000000060 .LFE4
     /tmp/ccZjjmmg.s:14     .text:0000000000000000 .LVL0
     /tmp/ccZjjmmg.s:34     .text:0000000000000024 .LVL1
     /tmp/ccZjjmmg.s:51     .text:0000000000000040 .LVL4
     /tmp/ccZjjmmg.s:453    .text:0000000000000230 .LVL30
     /tmp/ccZjjmmg.s:465    .text:0000000000000238 .LVL31
     /tmp/ccZjjmmg.s:471    .text:000000000000023c .LVL32
     /tmp/ccZjjmmg.s:373    .text:00000000000001b4 .LVL24
     /tmp/ccZjjmmg.s:406    .text:00000000000001f8 .LVL27
     /tmp/ccZjjmmg.s:409    .text:00000000000001fc .LVL28
     /tmp/ccZjjmmg.s:292    .text:0000000000000160 .LVL20
     /tmp/ccZjjmmg.s:302    .text:0000000000000170 .LVL21
     /tmp/ccZjjmmg.s:265    .text:0000000000000144 .LVL18
     /tmp/ccZjjmmg.s:275    .text:0000000000000154 .LVL19
     /tmp/ccZjjmmg.s:238    .text:0000000000000128 .LVL16
     /tmp/ccZjjmmg.s:248    .text:0000000000000138 .LVL17
     /tmp/ccZjjmmg.s:179    .text:00000000000000d4 .LVL12
     /tmp/ccZjjmmg.s:184    .text:00000000000000d8 .LVL13
     /tmp/ccZjjmmg.s:201    .text:0000000000000100 .LVL14
     /tmp/ccZjjmmg.s:203    .text:0000000000000104 .LVL15
     /tmp/ccZjjmmg.s:123    .text:000000000000008c .LVL7
     /tmp/ccZjjmmg.s:127    .text:0000000000000090 .LVL8
     /tmp/ccZjjmmg.s:140    .text:00000000000000ac .LVL9
     /tmp/ccZjjmmg.s:142    .text:00000000000000b0 .LVL10
     /tmp/ccZjjmmg.s:490    .debug_info:0000000000000000 .Ldebug_info0

UNDEFINED SYMBOLS
_ZN9Scheduler10ThreadExitEP7KThread
