GAS LISTING /tmp/ccFINnkF.s 			page 1


   1              		.file	"Thread.cpp"
   2              		.option pic
   3              		.option norelax
   4              		.text
   5              	.Ltext0:
   6              		.align	2
   7              		.globl	_ZN6Thread16threadTrampolineEPS_
   9              	_ZN6Thread16threadTrampolineEPS_:
  10              	.LFB13:
  11              		.file 1 "src/Thread.cpp"
   1:src/Thread.cpp **** //
   2:src/Thread.cpp **** // Created by os on 6/10/26.
   3:src/Thread.cpp **** //
   4:src/Thread.cpp **** 
   5:src/Thread.cpp **** #include "Thread.hpp"
   6:src/Thread.cpp **** #include "Scheduler.hpp"
   7:src/Thread.cpp **** 
   8:src/Thread.cpp **** #include "../lib/console.h"
   9:src/Thread.cpp **** 
  10:src/Thread.cpp **** Thread::Thread() {
  11:src/Thread.cpp **** }
  12:src/Thread.cpp **** 
  13:src/Thread.cpp **** void Thread::init() {
  14:src/Thread.cpp **** }
  15:src/Thread.cpp **** void Thread::copyContext(size_t* ctx) {
  16:src/Thread.cpp ****     Context* cont = reinterpret_cast<Context*>(ctx);
  17:src/Thread.cpp ****     for (int i = 0;i<32;i++) {
  18:src/Thread.cpp ****         threadContext.x[i] = cont->x[i];
  19:src/Thread.cpp ****     }
  20:src/Thread.cpp ****     threadContext.x[2] = reinterpret_cast<size_t>(this->stackPtr);
  21:src/Thread.cpp ****     threadContext.sepc = cont->sepc;
  22:src/Thread.cpp ****     threadContext.sstatus =cont->sstatus;
  23:src/Thread.cpp **** }
  24:src/Thread.cpp **** 
  25:src/Thread.cpp **** size_t* Thread::getContext() {
  26:src/Thread.cpp ****     return reinterpret_cast<size_t*>(&threadContext);
  27:src/Thread.cpp **** }
  28:src/Thread.cpp **** Thread* Thread::getNextInQueue(){
  29:src/Thread.cpp ****     return next;
  30:src/Thread.cpp **** }
  31:src/Thread.cpp **** Thread* Thread::getPrevInQueue(){
  32:src/Thread.cpp ****     return prev;
  33:src/Thread.cpp **** }
  34:src/Thread.cpp **** void Thread::setNextInQueue(Thread* next){
  35:src/Thread.cpp ****     this->next = next;
  36:src/Thread.cpp **** }
  37:src/Thread.cpp **** void Thread::setPrevInQueue(Thread* prev){
  38:src/Thread.cpp ****     this->prev = prev;
  39:src/Thread.cpp **** }
  40:src/Thread.cpp **** void Thread::setNextAndPrevInQueue(Thread* next, Thread* prev){
  41:src/Thread.cpp ****     setNextInQueue(next);
  42:src/Thread.cpp ****     setPrevInQueue(prev);
  43:src/Thread.cpp **** }
  44:src/Thread.cpp **** void Thread::threadTrampoline(Thread* t) {
  12              		.loc 1 44 42
  13              		.cfi_startproc
  14              	.LVL0:
GAS LISTING /tmp/ccFINnkF.s 			page 2


  15 0000 130101FE 		addi	sp,sp,-32
  16              		.cfi_def_cfa_offset 32
  17 0004 233C1100 		sd	ra,24(sp)
  18 0008 23388100 		sd	s0,16(sp)
  19 000c 23349100 		sd	s1,8(sp)
  20              		.cfi_offset 1, -8
  21              		.cfi_offset 8, -16
  22              		.cfi_offset 9, -24
  23 0010 13040102 		addi	s0,sp,32
  24              		.cfi_def_cfa 8, 0
  25 0014 93040500 		mv	s1,a0
  45:src/Thread.cpp ****     if (t->body)t->body();
  26              		.loc 1 45 5
  27              		.loc 1 45 12 is_stmt 0
  28 0018 83370500 		ld	a5,0(a0)
  29              		.loc 1 45 5
  30 001c 63840700 		beqz	a5,.L2
  31              		.loc 1 45 17 is_stmt 1 discriminator 1
  32              		.loc 1 45 24 is_stmt 0 discriminator 1
  33 0020 E7800700 		jalr	a5
  34              	.LVL1:
  35              	.L2:
  46:src/Thread.cpp ****     Scheduler::yield(t,Scheduler::GetRunning());
  36              		.loc 1 46 5 is_stmt 1
  37              		.loc 1 46 21 is_stmt 0
  38 0024 97000000 		call	_ZN9Scheduler10GetRunningEv@plt
  38      E7800000 
  39              	.LVL2:
  40 002c 93050500 		mv	a1,a0
  41 0030 13850400 		mv	a0,s1
  42 0034 97000000 		call	_ZN9Scheduler5yieldEP6ThreadS1_@plt
  42      E7800000 
  43              	.LVL3:
  47:src/Thread.cpp ****     //while (true) {}//TODO: Namesti dobar return iz threada
  48:src/Thread.cpp **** }
  44              		.loc 1 48 1
  45 003c 83308101 		ld	ra,24(sp)
  46              		.cfi_restore 1
  47 0040 03340101 		ld	s0,16(sp)
  48              		.cfi_restore 8
  49              		.cfi_def_cfa 2, 32
  50 0044 83348100 		ld	s1,8(sp)
  51              		.cfi_restore 9
  52              	.LVL4:
  53 0048 13010102 		addi	sp,sp,32
  54              		.cfi_def_cfa_offset 0
  55 004c 67800000 		jr	ra
  56              		.cfi_endproc
  57              	.LFE13:
  59              		.align	2
  60              		.globl	_ZN6ThreadC2Ev
  62              	_ZN6ThreadC2Ev:
  63              	.LFB3:
  10:src/Thread.cpp **** }
  64              		.loc 1 10 1 is_stmt 1
  65              		.cfi_startproc
  66              	.LVL5:
GAS LISTING /tmp/ccFINnkF.s 			page 3


  67 0050 130101FF 		addi	sp,sp,-16
  68              		.cfi_def_cfa_offset 16
  69 0054 23348100 		sd	s0,8(sp)
  70              		.cfi_offset 8, -8
  71 0058 13040101 		addi	s0,sp,16
  72              		.cfi_def_cfa 8, 0
  11:src/Thread.cpp **** 
  73              		.loc 1 11 1 is_stmt 0
  74 005c 03348100 		ld	s0,8(sp)
  75              		.cfi_restore 8
  76              		.cfi_def_cfa 2, 16
  77 0060 13010101 		addi	sp,sp,16
  78              		.cfi_def_cfa_offset 0
  79 0064 67800000 		jr	ra
  80              		.cfi_endproc
  81              	.LFE3:
  83              		.globl	_ZN6ThreadC1Ev
  84              		.set	_ZN6ThreadC1Ev,_ZN6ThreadC2Ev
  85              		.align	2
  86              		.globl	_ZN6Thread4initEv
  88              	_ZN6Thread4initEv:
  89              	.LFB5:
  13:src/Thread.cpp **** }
  90              		.loc 1 13 21 is_stmt 1
  91              		.cfi_startproc
  92              	.LVL6:
  93 0068 130101FF 		addi	sp,sp,-16
  94              		.cfi_def_cfa_offset 16
  95 006c 23348100 		sd	s0,8(sp)
  96              		.cfi_offset 8, -8
  97 0070 13040101 		addi	s0,sp,16
  98              		.cfi_def_cfa 8, 0
  14:src/Thread.cpp **** void Thread::copyContext(size_t* ctx) {
  99              		.loc 1 14 1 is_stmt 0
 100 0074 03348100 		ld	s0,8(sp)
 101              		.cfi_restore 8
 102              		.cfi_def_cfa 2, 16
 103 0078 13010101 		addi	sp,sp,16
 104              		.cfi_def_cfa_offset 0
 105 007c 67800000 		jr	ra
 106              		.cfi_endproc
 107              	.LFE5:
 109              		.align	2
 110              		.globl	_ZN6Thread11copyContextEPm
 112              	_ZN6Thread11copyContextEPm:
 113              	.LFB6:
  15:src/Thread.cpp ****     Context* cont = reinterpret_cast<Context*>(ctx);
 114              		.loc 1 15 39 is_stmt 1
 115              		.cfi_startproc
 116              	.LVL7:
 117 0080 130101FF 		addi	sp,sp,-16
 118              		.cfi_def_cfa_offset 16
 119 0084 23348100 		sd	s0,8(sp)
 120              		.cfi_offset 8, -8
 121 0088 13040101 		addi	s0,sp,16
 122              		.cfi_def_cfa 8, 0
  16:src/Thread.cpp ****     for (int i = 0;i<32;i++) {
GAS LISTING /tmp/ccFINnkF.s 			page 4


 123              		.loc 1 16 5
 124              	.LVL8:
  17:src/Thread.cpp ****         threadContext.x[i] = cont->x[i];
 125              		.loc 1 17 5
 126              	.LBB2:
  17:src/Thread.cpp ****         threadContext.x[i] = cont->x[i];
 127              		.loc 1 17 14 is_stmt 0
 128 008c 13070000 		li	a4,0
 129              	.LVL9:
 130              	.L10:
  17:src/Thread.cpp ****         threadContext.x[i] = cont->x[i];
 131              		.loc 1 17 21 is_stmt 1 discriminator 3
 132 0090 9307F001 		li	a5,31
 133 0094 63C8E702 		bgt	a4,a5,.L9
  18:src/Thread.cpp ****     }
 134              		.loc 1 18 9 discriminator 2
  18:src/Thread.cpp ****     }
 135              		.loc 1 18 39 is_stmt 0 discriminator 2
 136 0098 93173700 		slli	a5,a4,3
 137 009c B387F500 		add	a5,a1,a5
 138 00a0 83B60700 		ld	a3,0(a5)
  18:src/Thread.cpp ****     }
 139              		.loc 1 18 28 discriminator 2
 140 00a4 B7170000 		li	a5,4096
 141 00a8 93874700 		addi	a5,a5,4
 142 00ac B307F700 		add	a5,a4,a5
 143 00b0 93973700 		slli	a5,a5,3
 144 00b4 B307F500 		add	a5,a0,a5
 145 00b8 23B4D700 		sd	a3,8(a5)
  17:src/Thread.cpp ****         threadContext.x[i] = cont->x[i];
 146              		.loc 1 17 5 is_stmt 1 discriminator 2
 147 00bc 1B071700 		addiw	a4,a4,1
 148              	.LVL10:
 149 00c0 6FF01FFD 		j	.L10
 150              	.LVL11:
 151              	.L9:
 152              	.LBE2:
  20:src/Thread.cpp ****     threadContext.sepc = cont->sepc;
 153              		.loc 1 20 5
  20:src/Thread.cpp ****     threadContext.sepc = cont->sepc;
 154              		.loc 1 20 57 is_stmt 0
 155 00c4 83378501 		ld	a5,24(a0)
  20:src/Thread.cpp ****     threadContext.sepc = cont->sepc;
 156              		.loc 1 20 24
 157 00c8 37870000 		li	a4,32768
 158              	.LVL12:
 159 00cc 3305E500 		add	a0,a0,a4
 160              	.LVL13:
 161 00d0 233CF502 		sd	a5,56(a0)
  21:src/Thread.cpp ****     threadContext.sstatus =cont->sstatus;
 162              		.loc 1 21 5 is_stmt 1
  21:src/Thread.cpp ****     threadContext.sstatus =cont->sstatus;
 163              		.loc 1 21 32 is_stmt 0
 164 00d4 83B70510 		ld	a5,256(a1)
  21:src/Thread.cpp ****     threadContext.sstatus =cont->sstatus;
 165              		.loc 1 21 24
 166 00d8 2334F512 		sd	a5,296(a0)
GAS LISTING /tmp/ccFINnkF.s 			page 5


  22:src/Thread.cpp **** }
 167              		.loc 1 22 5 is_stmt 1
  22:src/Thread.cpp **** }
 168              		.loc 1 22 34 is_stmt 0
 169 00dc 83B78510 		ld	a5,264(a1)
  22:src/Thread.cpp **** }
 170              		.loc 1 22 27
 171 00e0 2338F512 		sd	a5,304(a0)
  23:src/Thread.cpp **** 
 172              		.loc 1 23 1
 173 00e4 03348100 		ld	s0,8(sp)
 174              		.cfi_restore 8
 175              		.cfi_def_cfa 2, 16
 176 00e8 13010101 		addi	sp,sp,16
 177              		.cfi_def_cfa_offset 0
 178 00ec 67800000 		jr	ra
 179              		.cfi_endproc
 180              	.LFE6:
 182              		.align	2
 183              		.globl	_ZN6Thread10getContextEv
 185              	_ZN6Thread10getContextEv:
 186              	.LFB7:
  25:src/Thread.cpp ****     return reinterpret_cast<size_t*>(&threadContext);
 187              		.loc 1 25 30 is_stmt 1
 188              		.cfi_startproc
 189              	.LVL14:
 190 00f0 130101FF 		addi	sp,sp,-16
 191              		.cfi_def_cfa_offset 16
 192 00f4 23348100 		sd	s0,8(sp)
 193              		.cfi_offset 8, -8
 194 00f8 13040101 		addi	s0,sp,16
 195              		.cfi_def_cfa 8, 0
  26:src/Thread.cpp **** }
 196              		.loc 1 26 5
  27:src/Thread.cpp **** Thread* Thread::getNextInQueue(){
 197              		.loc 1 27 1 is_stmt 0
 198 00fc B7870000 		li	a5,32768
 199 0100 93878702 		addi	a5,a5,40
 200 0104 3305F500 		add	a0,a0,a5
 201              	.LVL15:
 202 0108 03348100 		ld	s0,8(sp)
 203              		.cfi_restore 8
 204              		.cfi_def_cfa 2, 16
 205 010c 13010101 		addi	sp,sp,16
 206              		.cfi_def_cfa_offset 0
 207 0110 67800000 		jr	ra
 208              		.cfi_endproc
 209              	.LFE7:
 211              		.align	2
 212              		.globl	_ZN6Thread14getNextInQueueEv
 214              	_ZN6Thread14getNextInQueueEv:
 215              	.LFB8:
  28:src/Thread.cpp ****     return next;
 216              		.loc 1 28 33 is_stmt 1
 217              		.cfi_startproc
 218              	.LVL16:
 219 0114 130101FF 		addi	sp,sp,-16
GAS LISTING /tmp/ccFINnkF.s 			page 6


 220              		.cfi_def_cfa_offset 16
 221 0118 23348100 		sd	s0,8(sp)
 222              		.cfi_offset 8, -8
 223 011c 13040101 		addi	s0,sp,16
 224              		.cfi_def_cfa 8, 0
  29:src/Thread.cpp **** }
 225              		.loc 1 29 5
  30:src/Thread.cpp **** Thread* Thread::getPrevInQueue(){
 226              		.loc 1 30 1 is_stmt 0
 227 0120 03350501 		ld	a0,16(a0)
 228              	.LVL17:
 229 0124 03348100 		ld	s0,8(sp)
 230              		.cfi_restore 8
 231              		.cfi_def_cfa 2, 16
 232 0128 13010101 		addi	sp,sp,16
 233              		.cfi_def_cfa_offset 0
 234 012c 67800000 		jr	ra
 235              		.cfi_endproc
 236              	.LFE8:
 238              		.align	2
 239              		.globl	_ZN6Thread14getPrevInQueueEv
 241              	_ZN6Thread14getPrevInQueueEv:
 242              	.LFB9:
  31:src/Thread.cpp ****     return prev;
 243              		.loc 1 31 33 is_stmt 1
 244              		.cfi_startproc
 245              	.LVL18:
 246 0130 130101FF 		addi	sp,sp,-16
 247              		.cfi_def_cfa_offset 16
 248 0134 23348100 		sd	s0,8(sp)
 249              		.cfi_offset 8, -8
 250 0138 13040101 		addi	s0,sp,16
 251              		.cfi_def_cfa 8, 0
  32:src/Thread.cpp **** }
 252              		.loc 1 32 5
  33:src/Thread.cpp **** void Thread::setNextInQueue(Thread* next){
 253              		.loc 1 33 1 is_stmt 0
 254 013c 03358500 		ld	a0,8(a0)
 255              	.LVL19:
 256 0140 03348100 		ld	s0,8(sp)
 257              		.cfi_restore 8
 258              		.cfi_def_cfa 2, 16
 259 0144 13010101 		addi	sp,sp,16
 260              		.cfi_def_cfa_offset 0
 261 0148 67800000 		jr	ra
 262              		.cfi_endproc
 263              	.LFE9:
 265              		.align	2
 266              		.globl	_ZN6Thread14setNextInQueueEPS_
 268              	_ZN6Thread14setNextInQueueEPS_:
 269              	.LFB10:
  34:src/Thread.cpp ****     this->next = next;
 270              		.loc 1 34 42 is_stmt 1
 271              		.cfi_startproc
 272              	.LVL20:
 273 014c 130101FF 		addi	sp,sp,-16
 274              		.cfi_def_cfa_offset 16
GAS LISTING /tmp/ccFINnkF.s 			page 7


 275 0150 23348100 		sd	s0,8(sp)
 276              		.cfi_offset 8, -8
 277 0154 13040101 		addi	s0,sp,16
 278              		.cfi_def_cfa 8, 0
  35:src/Thread.cpp **** }
 279              		.loc 1 35 5
  35:src/Thread.cpp **** }
 280              		.loc 1 35 16 is_stmt 0
 281 0158 2338B500 		sd	a1,16(a0)
  36:src/Thread.cpp **** void Thread::setPrevInQueue(Thread* prev){
 282              		.loc 1 36 1
 283 015c 03348100 		ld	s0,8(sp)
 284              		.cfi_restore 8
 285              		.cfi_def_cfa 2, 16
 286 0160 13010101 		addi	sp,sp,16
 287              		.cfi_def_cfa_offset 0
 288 0164 67800000 		jr	ra
 289              		.cfi_endproc
 290              	.LFE10:
 292              		.align	2
 293              		.globl	_ZN6Thread14setPrevInQueueEPS_
 295              	_ZN6Thread14setPrevInQueueEPS_:
 296              	.LFB11:
  37:src/Thread.cpp ****     this->prev = prev;
 297              		.loc 1 37 42 is_stmt 1
 298              		.cfi_startproc
 299              	.LVL21:
 300 0168 130101FF 		addi	sp,sp,-16
 301              		.cfi_def_cfa_offset 16
 302 016c 23348100 		sd	s0,8(sp)
 303              		.cfi_offset 8, -8
 304 0170 13040101 		addi	s0,sp,16
 305              		.cfi_def_cfa 8, 0
  38:src/Thread.cpp **** }
 306              		.loc 1 38 5
  38:src/Thread.cpp **** }
 307              		.loc 1 38 16 is_stmt 0
 308 0174 2334B500 		sd	a1,8(a0)
  39:src/Thread.cpp **** void Thread::setNextAndPrevInQueue(Thread* next, Thread* prev){
 309              		.loc 1 39 1
 310 0178 03348100 		ld	s0,8(sp)
 311              		.cfi_restore 8
 312              		.cfi_def_cfa 2, 16
 313 017c 13010101 		addi	sp,sp,16
 314              		.cfi_def_cfa_offset 0
 315 0180 67800000 		jr	ra
 316              		.cfi_endproc
 317              	.LFE11:
 319              		.align	2
 320              		.globl	_ZN6Thread21setNextAndPrevInQueueEPS_S0_
 322              	_ZN6Thread21setNextAndPrevInQueueEPS_S0_:
 323              	.LFB12:
  40:src/Thread.cpp ****     setNextInQueue(next);
 324              		.loc 1 40 63 is_stmt 1
 325              		.cfi_startproc
 326              	.LVL22:
 327 0184 130101FE 		addi	sp,sp,-32
GAS LISTING /tmp/ccFINnkF.s 			page 8


 328              		.cfi_def_cfa_offset 32
 329 0188 233C1100 		sd	ra,24(sp)
 330 018c 23388100 		sd	s0,16(sp)
 331 0190 23349100 		sd	s1,8(sp)
 332 0194 23302101 		sd	s2,0(sp)
 333              		.cfi_offset 1, -8
 334              		.cfi_offset 8, -16
 335              		.cfi_offset 9, -24
 336              		.cfi_offset 18, -32
 337 0198 13040102 		addi	s0,sp,32
 338              		.cfi_def_cfa 8, 0
 339 019c 93040500 		mv	s1,a0
 340 01a0 13090600 		mv	s2,a2
  41:src/Thread.cpp ****     setPrevInQueue(prev);
 341              		.loc 1 41 5
  41:src/Thread.cpp ****     setPrevInQueue(prev);
 342              		.loc 1 41 19 is_stmt 0
 343 01a4 97000000 		call	_ZN6Thread14setNextInQueueEPS_
 343      E7800000 
 344              	.LVL23:
  42:src/Thread.cpp **** }
 345              		.loc 1 42 5 is_stmt 1
  42:src/Thread.cpp **** }
 346              		.loc 1 42 19 is_stmt 0
 347 01ac 93050900 		mv	a1,s2
 348 01b0 13850400 		mv	a0,s1
 349 01b4 97000000 		call	_ZN6Thread14setPrevInQueueEPS_
 349      E7800000 
 350              	.LVL24:
  43:src/Thread.cpp **** void Thread::threadTrampoline(Thread* t) {
 351              		.loc 1 43 1
 352 01bc 83308101 		ld	ra,24(sp)
 353              		.cfi_restore 1
 354 01c0 03340101 		ld	s0,16(sp)
 355              		.cfi_restore 8
 356              		.cfi_def_cfa 2, 32
 357 01c4 83348100 		ld	s1,8(sp)
 358              		.cfi_restore 9
 359              	.LVL25:
 360 01c8 03390100 		ld	s2,0(sp)
 361              		.cfi_restore 18
 362              	.LVL26:
 363 01cc 13010102 		addi	sp,sp,32
 364              		.cfi_def_cfa_offset 0
 365 01d0 67800000 		jr	ra
 366              		.cfi_endproc
 367              	.LFE12:
 369              		.align	2
 370              		.globl	_ZN6Thread5startEv
 372              	_ZN6Thread5startEv:
 373              	.LFB14:
  49:src/Thread.cpp **** void Thread::start(){
 374              		.loc 1 49 21 is_stmt 1
 375              		.cfi_startproc
 376              	.LVL27:
 377 01d4 130101FE 		addi	sp,sp,-32
 378              		.cfi_def_cfa_offset 32
GAS LISTING /tmp/ccFINnkF.s 			page 9


 379 01d8 233C1100 		sd	ra,24(sp)
 380 01dc 23388100 		sd	s0,16(sp)
 381 01e0 23349100 		sd	s1,8(sp)
 382              		.cfi_offset 1, -8
 383              		.cfi_offset 8, -16
 384              		.cfi_offset 9, -24
 385 01e4 13040102 		addi	s0,sp,32
 386              		.cfi_def_cfa 8, 0
 387 01e8 93040500 		mv	s1,a0
  50:src/Thread.cpp ****     Scheduler::AddNewThread(this);
 388              		.loc 1 50 5
 389              		.loc 1 50 28 is_stmt 0
 390 01ec 97000000 		call	_ZN9Scheduler12AddNewThreadEP6Thread@plt
 390      E7800000 
 391              	.LVL28:
  51:src/Thread.cpp ****     this->threadContext.sepc = reinterpret_cast<size_t>(&Thread::threadTrampoline);
 392              		.loc 1 51 5 is_stmt 1
 393              		.loc 1 51 30 is_stmt 0
 394 01f4 B7870000 		li	a5,32768
 395 01f8 B387F400 		add	a5,s1,a5
 396 01fc 17070000 		lla	a4,_ZN6Thread16threadTrampolineEPS_
 396      13070700 
 397 0204 23B4E712 		sd	a4,296(a5)
  52:src/Thread.cpp ****     this->threadContext.x[10] = reinterpret_cast<size_t>(this);
 398              		.loc 1 52 5 is_stmt 1
 399              		.loc 1 52 31 is_stmt 0
 400 0208 23BC9706 		sd	s1,120(a5)
  53:src/Thread.cpp ****     // size_t gp_val;
  54:src/Thread.cpp ****     // __asm__ volatile("mv %0, gp" : "=r"(gp_val));
  55:src/Thread.cpp ****     // this->threadContext.x[3] = gp_val;
  56:src/Thread.cpp ****     // size_t sstatus_val;
  57:src/Thread.cpp ****     // __asm__ volatile("csrr %0, sstatus" : "=r"(sstatus_val));
  58:src/Thread.cpp ****     // sstatus_val |= (1UL << 8);
  59:src/Thread.cpp ****     // sstatus_val |= (1UL << 5);
  60:src/Thread.cpp ****     // this->threadContext.sstatus = sstatus_val;
  61:src/Thread.cpp ****     Scheduler::yield(Scheduler::GetRunning(), this);
 401              		.loc 1 61 5 is_stmt 1
 402              		.loc 1 61 21 is_stmt 0
 403 020c 97000000 		call	_ZN9Scheduler10GetRunningEv@plt
 403      E7800000 
 404              	.LVL29:
 405 0214 93850400 		mv	a1,s1
 406 0218 97000000 		call	_ZN9Scheduler5yieldEP6ThreadS1_@plt
 406      E7800000 
 407              	.LVL30:
  62:src/Thread.cpp **** }
 408              		.loc 1 62 1
 409 0220 83308101 		ld	ra,24(sp)
 410              		.cfi_restore 1
 411 0224 03340101 		ld	s0,16(sp)
 412              		.cfi_restore 8
 413              		.cfi_def_cfa 2, 32
 414 0228 83348100 		ld	s1,8(sp)
 415              		.cfi_restore 9
 416              	.LVL31:
 417 022c 13010102 		addi	sp,sp,32
 418              		.cfi_def_cfa_offset 0
GAS LISTING /tmp/ccFINnkF.s 			page 10


 419 0230 67800000 		jr	ra
 420              		.cfi_endproc
 421              	.LFE14:
 423              		.align	2
 424              		.globl	_ZN6Thread4joinEv
 426              	_ZN6Thread4joinEv:
 427              	.LFB15:
  63:src/Thread.cpp **** void Thread::join(){
 428              		.loc 1 63 20 is_stmt 1
 429              		.cfi_startproc
 430              	.LVL32:
 431 0234 130101FF 		addi	sp,sp,-16
 432              		.cfi_def_cfa_offset 16
 433 0238 23348100 		sd	s0,8(sp)
 434              		.cfi_offset 8, -8
 435 023c 13040101 		addi	s0,sp,16
 436              		.cfi_def_cfa 8, 0
  64:src/Thread.cpp **** 
  65:src/Thread.cpp **** }
 437              		.loc 1 65 1 is_stmt 0
 438 0240 03348100 		ld	s0,8(sp)
 439              		.cfi_restore 8
 440              		.cfi_def_cfa 2, 16
 441 0244 13010101 		addi	sp,sp,16
 442              		.cfi_def_cfa_offset 0
 443 0248 67800000 		jr	ra
 444              		.cfi_endproc
 445              	.LFE15:
 447              		.align	2
 448              		.globl	_ZN6Thread11setStackPtrEPm
 450              	_ZN6Thread11setStackPtrEPm:
 451              	.LFB16:
  66:src/Thread.cpp **** void Thread::setStackPtr(size_t* stackPtr) {
 452              		.loc 1 66 44 is_stmt 1
 453              		.cfi_startproc
 454              	.LVL33:
 455 024c 130101FF 		addi	sp,sp,-16
 456              		.cfi_def_cfa_offset 16
 457 0250 23348100 		sd	s0,8(sp)
 458              		.cfi_offset 8, -8
 459 0254 13040101 		addi	s0,sp,16
 460              		.cfi_def_cfa 8, 0
  67:src/Thread.cpp ****     this->stackPtr = stackPtr;
 461              		.loc 1 67 5
 462              		.loc 1 67 20 is_stmt 0
 463 0258 233CB500 		sd	a1,24(a0)
  68:src/Thread.cpp **** }
 464              		.loc 1 68 1
 465 025c 03348100 		ld	s0,8(sp)
 466              		.cfi_restore 8
 467              		.cfi_def_cfa 2, 16
 468 0260 13010101 		addi	sp,sp,16
 469              		.cfi_def_cfa_offset 0
 470 0264 67800000 		jr	ra
 471              		.cfi_endproc
 472              	.LFE16:
 474              		.align	2
GAS LISTING /tmp/ccFINnkF.s 			page 11


 475              		.globl	_ZN6Thread15setSupervisorSpEPm
 477              	_ZN6Thread15setSupervisorSpEPm:
 478              	.LFB17:
  69:src/Thread.cpp **** 
  70:src/Thread.cpp **** void Thread::setSupervisorSp(size_t* supervisorSp) {
 479              		.loc 1 70 52 is_stmt 1
 480              		.cfi_startproc
 481              	.LVL34:
 482 0268 130101FF 		addi	sp,sp,-16
 483              		.cfi_def_cfa_offset 16
 484 026c 23348100 		sd	s0,8(sp)
 485              		.cfi_offset 8, -8
 486 0270 13040101 		addi	s0,sp,16
 487              		.cfi_def_cfa 8, 0
  71:src/Thread.cpp ****     this->supervisorSp = supervisorSp;
 488              		.loc 1 71 5
 489              		.loc 1 71 24 is_stmt 0
 490 0274 B7870000 		li	a5,32768
 491 0278 3305F500 		add	a0,a0,a5
 492              	.LVL35:
 493 027c 2330B502 		sd	a1,32(a0)
  72:src/Thread.cpp **** }
 494              		.loc 1 72 1
 495 0280 03348100 		ld	s0,8(sp)
 496              		.cfi_restore 8
 497              		.cfi_def_cfa 2, 16
 498 0284 13010101 		addi	sp,sp,16
 499              		.cfi_def_cfa_offset 0
 500 0288 67800000 		jr	ra
 501              		.cfi_endproc
 502              	.LFE17:
 504              	.Letext0:
 505              		.file 2 "src/../lib/hw.h"
 506              		.file 3 "src/Thread.hpp"
 507              		.file 4 "src/Scheduler.hpp"
GAS LISTING /tmp/ccFINnkF.s 			page 12


DEFINED SYMBOLS
                            *ABS*:0000000000000000 Thread.cpp
     /tmp/ccFINnkF.s:9      .text:0000000000000000 _ZN6Thread16threadTrampolineEPS_
     /tmp/ccFINnkF.s:13     .text:0000000000000000 .L0 
     /tmp/ccFINnkF.s:15     .text:0000000000000000 .L0 
     /tmp/ccFINnkF.s:16     .text:0000000000000004 .L0 
     /tmp/ccFINnkF.s:20     .text:0000000000000010 .L0 
     /tmp/ccFINnkF.s:21     .text:0000000000000010 .L0 
     /tmp/ccFINnkF.s:22     .text:0000000000000010 .L0 
     /tmp/ccFINnkF.s:24     .text:0000000000000014 .L0 
     /tmp/ccFINnkF.s:27     .text:0000000000000018 .L0 
     /tmp/ccFINnkF.s:28     .text:0000000000000018 .L0 
     /tmp/ccFINnkF.s:30     .text:000000000000001c .L0 
     /tmp/ccFINnkF.s:32     .text:0000000000000020 .L0 
     /tmp/ccFINnkF.s:33     .text:0000000000000020 .L0 
     /tmp/ccFINnkF.s:37     .text:0000000000000024 .L0 
     /tmp/ccFINnkF.s:38     .text:0000000000000024 .L0 
     /tmp/ccFINnkF.s:45     .text:000000000000003c .L0 
     /tmp/ccFINnkF.s:46     .text:0000000000000040 .L0 
     /tmp/ccFINnkF.s:48     .text:0000000000000044 .L0 
     /tmp/ccFINnkF.s:49     .text:0000000000000044 .L0 
     /tmp/ccFINnkF.s:51     .text:0000000000000048 .L0 
     /tmp/ccFINnkF.s:54     .text:000000000000004c .L0 
     /tmp/ccFINnkF.s:56     .text:0000000000000050 .L0 
     /tmp/ccFINnkF.s:62     .text:0000000000000050 _ZN6ThreadC2Ev
     /tmp/ccFINnkF.s:65     .text:0000000000000050 .L0 
     /tmp/ccFINnkF.s:67     .text:0000000000000050 .L0 
     /tmp/ccFINnkF.s:68     .text:0000000000000054 .L0 
     /tmp/ccFINnkF.s:70     .text:0000000000000058 .L0 
     /tmp/ccFINnkF.s:72     .text:000000000000005c .L0 
     /tmp/ccFINnkF.s:74     .text:000000000000005c .L0 
     /tmp/ccFINnkF.s:75     .text:0000000000000060 .L0 
     /tmp/ccFINnkF.s:76     .text:0000000000000060 .L0 
     /tmp/ccFINnkF.s:78     .text:0000000000000064 .L0 
     /tmp/ccFINnkF.s:80     .text:0000000000000068 .L0 
     /tmp/ccFINnkF.s:62     .text:0000000000000050 _ZN6ThreadC1Ev
     /tmp/ccFINnkF.s:88     .text:0000000000000068 _ZN6Thread4initEv
     /tmp/ccFINnkF.s:91     .text:0000000000000068 .L0 
     /tmp/ccFINnkF.s:93     .text:0000000000000068 .L0 
     /tmp/ccFINnkF.s:94     .text:000000000000006c .L0 
     /tmp/ccFINnkF.s:96     .text:0000000000000070 .L0 
     /tmp/ccFINnkF.s:98     .text:0000000000000074 .L0 
     /tmp/ccFINnkF.s:100    .text:0000000000000074 .L0 
     /tmp/ccFINnkF.s:101    .text:0000000000000078 .L0 
     /tmp/ccFINnkF.s:102    .text:0000000000000078 .L0 
     /tmp/ccFINnkF.s:104    .text:000000000000007c .L0 
     /tmp/ccFINnkF.s:106    .text:0000000000000080 .L0 
     /tmp/ccFINnkF.s:112    .text:0000000000000080 _ZN6Thread11copyContextEPm
     /tmp/ccFINnkF.s:115    .text:0000000000000080 .L0 
     /tmp/ccFINnkF.s:117    .text:0000000000000080 .L0 
     /tmp/ccFINnkF.s:118    .text:0000000000000084 .L0 
     /tmp/ccFINnkF.s:120    .text:0000000000000088 .L0 
     /tmp/ccFINnkF.s:122    .text:000000000000008c .L0 
     /tmp/ccFINnkF.s:125    .text:000000000000008c .L0 
     /tmp/ccFINnkF.s:127    .text:000000000000008c .L0 
     /tmp/ccFINnkF.s:128    .text:000000000000008c .L0 
     /tmp/ccFINnkF.s:132    .text:0000000000000090 .L0 
GAS LISTING /tmp/ccFINnkF.s 			page 13


     /tmp/ccFINnkF.s:135    .text:0000000000000098 .L0 
     /tmp/ccFINnkF.s:136    .text:0000000000000098 .L0 
     /tmp/ccFINnkF.s:140    .text:00000000000000a4 .L0 
     /tmp/ccFINnkF.s:147    .text:00000000000000bc .L0 
     /tmp/ccFINnkF.s:154    .text:00000000000000c4 .L0 
     /tmp/ccFINnkF.s:155    .text:00000000000000c4 .L0 
     /tmp/ccFINnkF.s:157    .text:00000000000000c8 .L0 
     /tmp/ccFINnkF.s:163    .text:00000000000000d4 .L0 
     /tmp/ccFINnkF.s:164    .text:00000000000000d4 .L0 
     /tmp/ccFINnkF.s:166    .text:00000000000000d8 .L0 
     /tmp/ccFINnkF.s:168    .text:00000000000000dc .L0 
     /tmp/ccFINnkF.s:169    .text:00000000000000dc .L0 
     /tmp/ccFINnkF.s:171    .text:00000000000000e0 .L0 
     /tmp/ccFINnkF.s:173    .text:00000000000000e4 .L0 
     /tmp/ccFINnkF.s:174    .text:00000000000000e8 .L0 
     /tmp/ccFINnkF.s:175    .text:00000000000000e8 .L0 
     /tmp/ccFINnkF.s:177    .text:00000000000000ec .L0 
     /tmp/ccFINnkF.s:179    .text:00000000000000f0 .L0 
     /tmp/ccFINnkF.s:185    .text:00000000000000f0 _ZN6Thread10getContextEv
     /tmp/ccFINnkF.s:188    .text:00000000000000f0 .L0 
     /tmp/ccFINnkF.s:190    .text:00000000000000f0 .L0 
     /tmp/ccFINnkF.s:191    .text:00000000000000f4 .L0 
     /tmp/ccFINnkF.s:193    .text:00000000000000f8 .L0 
     /tmp/ccFINnkF.s:195    .text:00000000000000fc .L0 
     /tmp/ccFINnkF.s:197    .text:00000000000000fc .L0 
     /tmp/ccFINnkF.s:198    .text:00000000000000fc .L0 
     /tmp/ccFINnkF.s:203    .text:000000000000010c .L0 
     /tmp/ccFINnkF.s:204    .text:000000000000010c .L0 
     /tmp/ccFINnkF.s:206    .text:0000000000000110 .L0 
     /tmp/ccFINnkF.s:208    .text:0000000000000114 .L0 
     /tmp/ccFINnkF.s:214    .text:0000000000000114 _ZN6Thread14getNextInQueueEv
     /tmp/ccFINnkF.s:217    .text:0000000000000114 .L0 
     /tmp/ccFINnkF.s:219    .text:0000000000000114 .L0 
     /tmp/ccFINnkF.s:220    .text:0000000000000118 .L0 
     /tmp/ccFINnkF.s:222    .text:000000000000011c .L0 
     /tmp/ccFINnkF.s:224    .text:0000000000000120 .L0 
     /tmp/ccFINnkF.s:226    .text:0000000000000120 .L0 
     /tmp/ccFINnkF.s:227    .text:0000000000000120 .L0 
     /tmp/ccFINnkF.s:230    .text:0000000000000128 .L0 
     /tmp/ccFINnkF.s:231    .text:0000000000000128 .L0 
     /tmp/ccFINnkF.s:233    .text:000000000000012c .L0 
     /tmp/ccFINnkF.s:235    .text:0000000000000130 .L0 
     /tmp/ccFINnkF.s:241    .text:0000000000000130 _ZN6Thread14getPrevInQueueEv
     /tmp/ccFINnkF.s:244    .text:0000000000000130 .L0 
     /tmp/ccFINnkF.s:246    .text:0000000000000130 .L0 
     /tmp/ccFINnkF.s:247    .text:0000000000000134 .L0 
     /tmp/ccFINnkF.s:249    .text:0000000000000138 .L0 
     /tmp/ccFINnkF.s:251    .text:000000000000013c .L0 
     /tmp/ccFINnkF.s:253    .text:000000000000013c .L0 
     /tmp/ccFINnkF.s:254    .text:000000000000013c .L0 
     /tmp/ccFINnkF.s:257    .text:0000000000000144 .L0 
     /tmp/ccFINnkF.s:258    .text:0000000000000144 .L0 
     /tmp/ccFINnkF.s:260    .text:0000000000000148 .L0 
     /tmp/ccFINnkF.s:262    .text:000000000000014c .L0 
     /tmp/ccFINnkF.s:268    .text:000000000000014c _ZN6Thread14setNextInQueueEPS_
     /tmp/ccFINnkF.s:271    .text:000000000000014c .L0 
     /tmp/ccFINnkF.s:273    .text:000000000000014c .L0 
GAS LISTING /tmp/ccFINnkF.s 			page 14


     /tmp/ccFINnkF.s:274    .text:0000000000000150 .L0 
     /tmp/ccFINnkF.s:276    .text:0000000000000154 .L0 
     /tmp/ccFINnkF.s:278    .text:0000000000000158 .L0 
     /tmp/ccFINnkF.s:280    .text:0000000000000158 .L0 
     /tmp/ccFINnkF.s:281    .text:0000000000000158 .L0 
     /tmp/ccFINnkF.s:283    .text:000000000000015c .L0 
     /tmp/ccFINnkF.s:284    .text:0000000000000160 .L0 
     /tmp/ccFINnkF.s:285    .text:0000000000000160 .L0 
     /tmp/ccFINnkF.s:287    .text:0000000000000164 .L0 
     /tmp/ccFINnkF.s:289    .text:0000000000000168 .L0 
     /tmp/ccFINnkF.s:295    .text:0000000000000168 _ZN6Thread14setPrevInQueueEPS_
     /tmp/ccFINnkF.s:298    .text:0000000000000168 .L0 
     /tmp/ccFINnkF.s:300    .text:0000000000000168 .L0 
     /tmp/ccFINnkF.s:301    .text:000000000000016c .L0 
     /tmp/ccFINnkF.s:303    .text:0000000000000170 .L0 
     /tmp/ccFINnkF.s:305    .text:0000000000000174 .L0 
     /tmp/ccFINnkF.s:307    .text:0000000000000174 .L0 
     /tmp/ccFINnkF.s:308    .text:0000000000000174 .L0 
     /tmp/ccFINnkF.s:310    .text:0000000000000178 .L0 
     /tmp/ccFINnkF.s:311    .text:000000000000017c .L0 
     /tmp/ccFINnkF.s:312    .text:000000000000017c .L0 
     /tmp/ccFINnkF.s:314    .text:0000000000000180 .L0 
     /tmp/ccFINnkF.s:316    .text:0000000000000184 .L0 
     /tmp/ccFINnkF.s:322    .text:0000000000000184 _ZN6Thread21setNextAndPrevInQueueEPS_S0_
     /tmp/ccFINnkF.s:325    .text:0000000000000184 .L0 
     /tmp/ccFINnkF.s:327    .text:0000000000000184 .L0 
     /tmp/ccFINnkF.s:328    .text:0000000000000188 .L0 
     /tmp/ccFINnkF.s:333    .text:0000000000000198 .L0 
     /tmp/ccFINnkF.s:334    .text:0000000000000198 .L0 
     /tmp/ccFINnkF.s:335    .text:0000000000000198 .L0 
     /tmp/ccFINnkF.s:336    .text:0000000000000198 .L0 
     /tmp/ccFINnkF.s:338    .text:000000000000019c .L0 
     /tmp/ccFINnkF.s:342    .text:00000000000001a4 .L0 
     /tmp/ccFINnkF.s:343    .text:00000000000001a4 .L0 
     /tmp/ccFINnkF.s:346    .text:00000000000001ac .L0 
     /tmp/ccFINnkF.s:347    .text:00000000000001ac .L0 
     /tmp/ccFINnkF.s:352    .text:00000000000001bc .L0 
     /tmp/ccFINnkF.s:353    .text:00000000000001c0 .L0 
     /tmp/ccFINnkF.s:355    .text:00000000000001c4 .L0 
     /tmp/ccFINnkF.s:356    .text:00000000000001c4 .L0 
     /tmp/ccFINnkF.s:358    .text:00000000000001c8 .L0 
     /tmp/ccFINnkF.s:361    .text:00000000000001cc .L0 
     /tmp/ccFINnkF.s:364    .text:00000000000001d0 .L0 
     /tmp/ccFINnkF.s:366    .text:00000000000001d4 .L0 
     /tmp/ccFINnkF.s:372    .text:00000000000001d4 _ZN6Thread5startEv
     /tmp/ccFINnkF.s:375    .text:00000000000001d4 .L0 
     /tmp/ccFINnkF.s:377    .text:00000000000001d4 .L0 
     /tmp/ccFINnkF.s:378    .text:00000000000001d8 .L0 
     /tmp/ccFINnkF.s:382    .text:00000000000001e4 .L0 
     /tmp/ccFINnkF.s:383    .text:00000000000001e4 .L0 
     /tmp/ccFINnkF.s:384    .text:00000000000001e4 .L0 
     /tmp/ccFINnkF.s:386    .text:00000000000001e8 .L0 
     /tmp/ccFINnkF.s:389    .text:00000000000001ec .L0 
     /tmp/ccFINnkF.s:390    .text:00000000000001ec .L0 
     /tmp/ccFINnkF.s:393    .text:00000000000001f4 .L0 
     /tmp/ccFINnkF.s:394    .text:00000000000001f4 .L0 
     /tmp/ccFINnkF.s:399    .text:0000000000000208 .L0 
GAS LISTING /tmp/ccFINnkF.s 			page 15


     /tmp/ccFINnkF.s:400    .text:0000000000000208 .L0 
     /tmp/ccFINnkF.s:402    .text:000000000000020c .L0 
     /tmp/ccFINnkF.s:403    .text:000000000000020c .L0 
     /tmp/ccFINnkF.s:409    .text:0000000000000220 .L0 
     /tmp/ccFINnkF.s:410    .text:0000000000000224 .L0 
     /tmp/ccFINnkF.s:412    .text:0000000000000228 .L0 
     /tmp/ccFINnkF.s:413    .text:0000000000000228 .L0 
     /tmp/ccFINnkF.s:415    .text:000000000000022c .L0 
     /tmp/ccFINnkF.s:418    .text:0000000000000230 .L0 
     /tmp/ccFINnkF.s:420    .text:0000000000000234 .L0 
     /tmp/ccFINnkF.s:426    .text:0000000000000234 _ZN6Thread4joinEv
     /tmp/ccFINnkF.s:429    .text:0000000000000234 .L0 
     /tmp/ccFINnkF.s:431    .text:0000000000000234 .L0 
     /tmp/ccFINnkF.s:432    .text:0000000000000238 .L0 
     /tmp/ccFINnkF.s:434    .text:000000000000023c .L0 
     /tmp/ccFINnkF.s:436    .text:0000000000000240 .L0 
     /tmp/ccFINnkF.s:438    .text:0000000000000240 .L0 
     /tmp/ccFINnkF.s:439    .text:0000000000000244 .L0 
     /tmp/ccFINnkF.s:440    .text:0000000000000244 .L0 
     /tmp/ccFINnkF.s:442    .text:0000000000000248 .L0 
     /tmp/ccFINnkF.s:444    .text:000000000000024c .L0 
     /tmp/ccFINnkF.s:450    .text:000000000000024c _ZN6Thread11setStackPtrEPm
     /tmp/ccFINnkF.s:453    .text:000000000000024c .L0 
     /tmp/ccFINnkF.s:455    .text:000000000000024c .L0 
     /tmp/ccFINnkF.s:456    .text:0000000000000250 .L0 
     /tmp/ccFINnkF.s:458    .text:0000000000000254 .L0 
     /tmp/ccFINnkF.s:460    .text:0000000000000258 .L0 
     /tmp/ccFINnkF.s:462    .text:0000000000000258 .L0 
     /tmp/ccFINnkF.s:463    .text:0000000000000258 .L0 
     /tmp/ccFINnkF.s:465    .text:000000000000025c .L0 
     /tmp/ccFINnkF.s:466    .text:0000000000000260 .L0 
     /tmp/ccFINnkF.s:467    .text:0000000000000260 .L0 
     /tmp/ccFINnkF.s:469    .text:0000000000000264 .L0 
     /tmp/ccFINnkF.s:471    .text:0000000000000268 .L0 
     /tmp/ccFINnkF.s:477    .text:0000000000000268 _ZN6Thread15setSupervisorSpEPm
     /tmp/ccFINnkF.s:480    .text:0000000000000268 .L0 
     /tmp/ccFINnkF.s:482    .text:0000000000000268 .L0 
     /tmp/ccFINnkF.s:483    .text:000000000000026c .L0 
     /tmp/ccFINnkF.s:485    .text:0000000000000270 .L0 
     /tmp/ccFINnkF.s:487    .text:0000000000000274 .L0 
     /tmp/ccFINnkF.s:489    .text:0000000000000274 .L0 
     /tmp/ccFINnkF.s:490    .text:0000000000000274 .L0 
     /tmp/ccFINnkF.s:495    .text:0000000000000280 .L0 
     /tmp/ccFINnkF.s:496    .text:0000000000000284 .L0 
     /tmp/ccFINnkF.s:497    .text:0000000000000284 .L0 
     /tmp/ccFINnkF.s:499    .text:0000000000000288 .L0 
     /tmp/ccFINnkF.s:501    .text:000000000000028c .L0 
     /tmp/ccFINnkF.s:508    .text:000000000000028c .L0 
     /tmp/ccFINnkF.s:396    .text:00000000000001fc .L0 
     /tmp/ccFINnkF.s:35     .text:0000000000000024 .L2
     /tmp/ccFINnkF.s:151    .text:00000000000000c4 .L9
     /tmp/ccFINnkF.s:130    .text:0000000000000090 .L10
     /tmp/ccFINnkF.s:1491   .debug_abbrev:0000000000000000 .Ldebug_abbrev0
     /tmp/ccFINnkF.s:2684   .debug_str:0000000000000520 .LASF82
     /tmp/ccFINnkF.s:2680   .debug_str:0000000000000505 .LASF83
     /tmp/ccFINnkF.s:2674   .debug_str:00000000000004d3 .LASF84
     /tmp/ccFINnkF.s:5      .text:0000000000000000 .Ltext0
GAS LISTING /tmp/ccFINnkF.s 			page 16


     /tmp/ccFINnkF.s:504    .text:000000000000028c .Letext0
     /tmp/ccFINnkF.s:2528   .debug_line:0000000000000000 .Ldebug_line0
     /tmp/ccFINnkF.s:2630   .debug_str:000000000000037c .LASF0
     /tmp/ccFINnkF.s:2646   .debug_str:00000000000003dc .LASF1
     /tmp/ccFINnkF.s:2618   .debug_str:0000000000000302 .LASF2
     /tmp/ccFINnkF.s:2600   .debug_str:000000000000025a .LASF4
     /tmp/ccFINnkF.s:2638   .debug_str:00000000000003ad .LASF3
     /tmp/ccFINnkF.s:2548   .debug_str:000000000000007a .LASF5
     /tmp/ccFINnkF.s:2576   .debug_str:0000000000000168 .LASF6
     /tmp/ccFINnkF.s:2650   .debug_str:000000000000040b .LASF7
     /tmp/ccFINnkF.s:2628   .debug_str:0000000000000369 .LASF8
     /tmp/ccFINnkF.s:2696   .debug_str:0000000000000638 .LASF9
     /tmp/ccFINnkF.s:2594   .debug_str:000000000000021d .LASF10
     /tmp/ccFINnkF.s:2658   .debug_str:0000000000000438 .LASF11
     /tmp/ccFINnkF.s:2686   .debug_str:00000000000005e4 .LASF12
     /tmp/ccFINnkF.s:2552   .debug_str:00000000000000a8 .LASF13
     /tmp/ccFINnkF.s:2534   .debug_str:0000000000000025 .LASF14
     /tmp/ccFINnkF.s:2566   .debug_str:0000000000000111 .LASF15
     /tmp/ccFINnkF.s:2668   .debug_str:00000000000004a9 .LASF16
     /tmp/ccFINnkF.s:2572   .debug_str:0000000000000142 .LASF17
     /tmp/ccFINnkF.s:2536   .debug_str:0000000000000035 .LASF85
     /tmp/ccFINnkF.s:2640   .debug_str:00000000000003bf .LASF18
     /tmp/ccFINnkF.s:2666   .debug_str:00000000000004a1 .LASF19
     /tmp/ccFINnkF.s:2692   .debug_str:0000000000000618 .LASF27
     /tmp/ccFINnkF.s:2562   .debug_str:00000000000000fb .LASF55
     /tmp/ccFINnkF.s:2626   .debug_str:0000000000000348 .LASF57
     /tmp/ccFINnkF.s:2602   .debug_str:0000000000000261 .LASF20
     /tmp/ccFINnkF.s:2698   .debug_str:0000000000000648 .LASF21
     /tmp/ccFINnkF.s:2706   .debug_str:0000000000000694 .LASF22
     /tmp/ccFINnkF.s:2542   .debug_str:0000000000000058 .LASF23
     /tmp/ccFINnkF.s:2636   .debug_str:00000000000003a7 .LASF24
     /tmp/ccFINnkF.s:2532   .debug_str:0000000000000018 .LASF25
     /tmp/ccFINnkF.s:2546   .debug_str:000000000000006c .LASF26
     /tmp/ccFINnkF.s:2592   .debug_str:000000000000020e .LASF29
     /tmp/ccFINnkF.s:2682   .debug_str:0000000000000514 .LASF28
     /tmp/ccFINnkF.s:2604   .debug_str:0000000000000266 .LASF30
     /tmp/ccFINnkF.s:2652   .debug_str:000000000000041e .LASF31
     /tmp/ccFINnkF.s:2642   .debug_str:00000000000003c4 .LASF32
     /tmp/ccFINnkF.s:2568   .debug_str:000000000000011d .LASF33
     /tmp/ccFINnkF.s:2614   .debug_str:00000000000002d7 .LASF34
     /tmp/ccFINnkF.s:2624   .debug_str:000000000000033c .LASF37
     /tmp/ccFINnkF.s:2660   .debug_str:0000000000000447 .LASF39
     /tmp/ccFINnkF.s:2616   .debug_str:00000000000002f2 .LASF35
     /tmp/ccFINnkF.s:2554   .debug_str:00000000000000b8 .LASF36
     /tmp/ccFINnkF.s:2558   .debug_str:00000000000000e3 .LASF38
     /tmp/ccFINnkF.s:2694   .debug_str:000000000000061f .LASF40
     /tmp/ccFINnkF.s:2578   .debug_str:000000000000016f .LASF41
     /tmp/ccFINnkF.s:2598   .debug_str:000000000000023d .LASF42
     /tmp/ccFINnkF.s:2678   .debug_str:00000000000004f6 .LASF43
     /tmp/ccFINnkF.s:2690   .debug_str:00000000000005fb .LASF44
     /tmp/ccFINnkF.s:2708   .debug_str:0000000000000699 .LASF45
     /tmp/ccFINnkF.s:2620   .debug_str:0000000000000310 .LASF46
     /tmp/ccFINnkF.s:2540   .debug_str:0000000000000049 .LASF47
     /tmp/ccFINnkF.s:2664   .debug_str:0000000000000482 .LASF48
     /tmp/ccFINnkF.s:2606   .debug_str:0000000000000281 .LASF49
     /tmp/ccFINnkF.s:2584   .debug_str:0000000000000197 .LASF50
     /tmp/ccFINnkF.s:2644   .debug_str:00000000000003d6 .LASF51
GAS LISTING /tmp/ccFINnkF.s 			page 17


     /tmp/ccFINnkF.s:2590   .debug_str:00000000000001fb .LASF52
     /tmp/ccFINnkF.s:2688   .debug_str:00000000000005f3 .LASF53
     /tmp/ccFINnkF.s:2570   .debug_str:0000000000000129 .LASF54
     /tmp/ccFINnkF.s:2676   .debug_str:00000000000004f1 .LASF56
     /tmp/ccFINnkF.s:2596   .debug_str:000000000000022b .LASF58
     /tmp/ccFINnkF.s:2656   .debug_str:000000000000042e .LASF59
     /tmp/ccFINnkF.s:2588   .debug_str:00000000000001e5 .LASF60
     /tmp/ccFINnkF.s:2580   .debug_str:000000000000017e .LASF61
     /tmp/ccFINnkF.s:2544   .debug_str:0000000000000061 .LASF62
     /tmp/ccFINnkF.s:2672   .debug_str:00000000000004c5 .LASF63
     /tmp/ccFINnkF.s:2538   .debug_str:000000000000003d .LASF64
     /tmp/ccFINnkF.s:2622   .debug_str:000000000000032f .LASF65
     /tmp/ccFINnkF.s:2556   .debug_str:00000000000000d7 .LASF86
     /tmp/ccFINnkF.s:2612   .debug_str:00000000000002ba .LASF87
     /tmp/ccFINnkF.s:2632   .debug_str:0000000000000389 .LASF76
     /tmp/ccFINnkF.s:2550   .debug_str:0000000000000081 .LASF78
     /tmp/ccFINnkF.s:2574   .debug_str:0000000000000158 .LASF66
     /tmp/ccFINnkF.s:2662   .debug_str:0000000000000461 .LASF68
     /tmp/ccFINnkF.s:2582   .debug_str:0000000000000186 .LASF67
     /tmp/ccFINnkF.s:2704   .debug_str:0000000000000672 .LASF69
     /tmp/ccFINnkF.s:2654   .debug_str:0000000000000423 .LASF72
     /tmp/ccFINnkF.s:2648   .debug_str:00000000000003ef .LASF74
     /tmp/ccFINnkF.s:2670   .debug_str:00000000000004bf .LASF70
     /tmp/ccFINnkF.s:2702   .debug_str:0000000000000652 .LASF71
     /tmp/ccFINnkF.s:2608   .debug_str:0000000000000297 .LASF73
     /tmp/ccFINnkF.s:2530   .debug_str:0000000000000000 .LASF75
     /tmp/ccFINnkF.s:2610   .debug_str:000000000000029f .LASF88
     /tmp/ccFINnkF.s:2560   .debug_str:00000000000000ee .LASF77
     /tmp/ccFINnkF.s:2586   .debug_str:00000000000001c0 .LASF79
     /tmp/ccFINnkF.s:478    .text:0000000000000268 .LFB17
     /tmp/ccFINnkF.s:502    .text:000000000000028c .LFE17
     /tmp/ccFINnkF.s:2700   .debug_str:000000000000064d .LASF80
     /tmp/ccFINnkF.s:2346   .debug_loc:0000000000000000 .LLST10
     /tmp/ccFINnkF.s:451    .text:000000000000024c .LFB16
     /tmp/ccFINnkF.s:472    .text:0000000000000268 .LFE16
     /tmp/ccFINnkF.s:427    .text:0000000000000234 .LFB15
     /tmp/ccFINnkF.s:445    .text:000000000000024c .LFE15
     /tmp/ccFINnkF.s:373    .text:00000000000001d4 .LFB14
     /tmp/ccFINnkF.s:421    .text:0000000000000234 .LFE14
     /tmp/ccFINnkF.s:2359   .debug_loc:000000000000003a .LLST9
     /tmp/ccFINnkF.s:391    .text:00000000000001f4 .LVL28
     /tmp/ccFINnkF.s:404    .text:0000000000000214 .LVL29
     /tmp/ccFINnkF.s:407    .text:0000000000000220 .LVL30
     /tmp/ccFINnkF.s:10     .text:0000000000000000 .LFB13
     /tmp/ccFINnkF.s:57     .text:0000000000000050 .LFE13
     /tmp/ccFINnkF.s:2377   .debug_loc:0000000000000086 .LLST0
     /tmp/ccFINnkF.s:39     .text:000000000000002c .LVL2
     /tmp/ccFINnkF.s:43     .text:000000000000003c .LVL3
     /tmp/ccFINnkF.s:323    .text:0000000000000184 .LFB12
     /tmp/ccFINnkF.s:367    .text:00000000000001d4 .LFE12
     /tmp/ccFINnkF.s:2395   .debug_loc:00000000000000d2 .LLST6
     /tmp/ccFINnkF.s:2413   .debug_loc:000000000000011e .LLST7
     /tmp/ccFINnkF.s:2427   .debug_loc:0000000000000157 .LLST8
     /tmp/ccFINnkF.s:344    .text:00000000000001ac .LVL23
     /tmp/ccFINnkF.s:350    .text:00000000000001bc .LVL24
     /tmp/ccFINnkF.s:296    .text:0000000000000168 .LFB11
     /tmp/ccFINnkF.s:317    .text:0000000000000184 .LFE11
GAS LISTING /tmp/ccFINnkF.s 			page 18


     /tmp/ccFINnkF.s:269    .text:000000000000014c .LFB10
     /tmp/ccFINnkF.s:290    .text:0000000000000168 .LFE10
     /tmp/ccFINnkF.s:242    .text:0000000000000130 .LFB9
     /tmp/ccFINnkF.s:263    .text:000000000000014c .LFE9
     /tmp/ccFINnkF.s:2445   .debug_loc:00000000000001a3 .LLST5
     /tmp/ccFINnkF.s:215    .text:0000000000000114 .LFB8
     /tmp/ccFINnkF.s:236    .text:0000000000000130 .LFE8
     /tmp/ccFINnkF.s:2459   .debug_loc:00000000000001dc .LLST4
     /tmp/ccFINnkF.s:186    .text:00000000000000f0 .LFB7
     /tmp/ccFINnkF.s:209    .text:0000000000000114 .LFE7
     /tmp/ccFINnkF.s:2473   .debug_loc:0000000000000215 .LLST3
     /tmp/ccFINnkF.s:113    .text:0000000000000080 .LFB6
     /tmp/ccFINnkF.s:180    .text:00000000000000f0 .LFE6
     /tmp/ccFINnkF.s:2486   .debug_loc:000000000000024f .LLST1
     /tmp/ccFINnkF.s:2564   .debug_str:000000000000010c .LASF81
     /tmp/ccFINnkF.s:126    .text:000000000000008c .LBB2
     /tmp/ccFINnkF.s:152    .text:00000000000000c4 .LBE2
     /tmp/ccFINnkF.s:2499   .debug_loc:0000000000000289 .LLST2
     /tmp/ccFINnkF.s:89     .text:0000000000000068 .LFB5
     /tmp/ccFINnkF.s:107    .text:0000000000000080 .LFE5
     /tmp/ccFINnkF.s:2634   .debug_str:0000000000000398 .LASF89
     /tmp/ccFINnkF.s:63     .text:0000000000000050 .LFB3
     /tmp/ccFINnkF.s:81     .text:0000000000000068 .LFE3
     /tmp/ccFINnkF.s:481    .text:0000000000000268 .LVL34
     /tmp/ccFINnkF.s:492    .text:000000000000027c .LVL35
     /tmp/ccFINnkF.s:376    .text:00000000000001d4 .LVL27
     /tmp/ccFINnkF.s:416    .text:000000000000022c .LVL31
     /tmp/ccFINnkF.s:14     .text:0000000000000000 .LVL0
     /tmp/ccFINnkF.s:34     .text:0000000000000024 .LVL1
     /tmp/ccFINnkF.s:52     .text:0000000000000048 .LVL4
     /tmp/ccFINnkF.s:326    .text:0000000000000184 .LVL22
     /tmp/ccFINnkF.s:359    .text:00000000000001c8 .LVL25
     /tmp/ccFINnkF.s:362    .text:00000000000001cc .LVL26
     /tmp/ccFINnkF.s:245    .text:0000000000000130 .LVL18
     /tmp/ccFINnkF.s:255    .text:0000000000000140 .LVL19
     /tmp/ccFINnkF.s:218    .text:0000000000000114 .LVL16
     /tmp/ccFINnkF.s:228    .text:0000000000000124 .LVL17
     /tmp/ccFINnkF.s:189    .text:00000000000000f0 .LVL14
     /tmp/ccFINnkF.s:201    .text:0000000000000108 .LVL15
     /tmp/ccFINnkF.s:116    .text:0000000000000080 .LVL7
     /tmp/ccFINnkF.s:160    .text:00000000000000d0 .LVL13
     /tmp/ccFINnkF.s:124    .text:000000000000008c .LVL8
     /tmp/ccFINnkF.s:129    .text:0000000000000090 .LVL9
     /tmp/ccFINnkF.s:148    .text:00000000000000c0 .LVL10
     /tmp/ccFINnkF.s:150    .text:00000000000000c4 .LVL11
     /tmp/ccFINnkF.s:158    .text:00000000000000cc .LVL12
     /tmp/ccFINnkF.s:509    .debug_info:0000000000000000 .Ldebug_info0

UNDEFINED SYMBOLS
_ZN9Scheduler10GetRunningEv
_ZN9Scheduler5yieldEP6ThreadS1_
_ZN9Scheduler12AddNewThreadEP6Thread
