GAS LISTING /tmp/ccGJHiMH.s 			page 1


   1              		.file	"Thread.cpp"
   2              		.option pic
   3              		.option norelax
   4              		.text
   5              	.Ltext0:
   6              		.align	2
   7              		.globl	_ZN7KThread16threadTrampolineEPS_
   9              	_ZN7KThread16threadTrampolineEPS_:
  10              	.LFB15:
  11              		.file 1 "src/Thread.cpp"
   1:src/Thread.cpp **** //
   2:src/Thread.cpp **** // Created by os on 6/10/26.
   3:src/Thread.cpp **** //
   4:src/Thread.cpp **** 
   5:src/Thread.cpp **** #include "Thread.hpp"
   6:src/Thread.cpp **** #include "Scheduler.hpp"
   7:src/Thread.cpp **** 
   8:src/Thread.cpp **** #include "../lib/console.h"
   9:src/Thread.cpp **** 
  10:src/Thread.cpp **** KThread::KThread() {
  11:src/Thread.cpp **** }
  12:src/Thread.cpp **** 
  13:src/Thread.cpp **** void KThread::init() {
  14:src/Thread.cpp ****     body = nullptr;
  15:src/Thread.cpp ****     arg = nullptr;
  16:src/Thread.cpp ****     parent = nullptr;
  17:src/Thread.cpp ****     prev = nullptr;
  18:src/Thread.cpp ****     next = nullptr;
  19:src/Thread.cpp ****     stackPtr = nullptr;
  20:src/Thread.cpp ****     supervisorSp = nullptr;
  21:src/Thread.cpp ****     stackBase = nullptr;
  22:src/Thread.cpp ****     sleepDelta = 0;
  23:src/Thread.cpp ****     for (int i = 0; i < 32; i++) threadContext.x[i] = 0;
  24:src/Thread.cpp ****     threadContext.sepc = 0;
  25:src/Thread.cpp ****     threadContext.sstatus = 0;
  26:src/Thread.cpp ****     threadContext.pc = 0;
  27:src/Thread.cpp **** }
  28:src/Thread.cpp **** 
  29:src/Thread.cpp **** void KThread::copyContext(size_t* ctx) {
  30:src/Thread.cpp ****     Context* cont = reinterpret_cast<Context*>(ctx);
  31:src/Thread.cpp ****     for (int i = 0;i<32;i++) {
  32:src/Thread.cpp ****         threadContext.x[i] = cont->x[i];
  33:src/Thread.cpp ****     }
  34:src/Thread.cpp ****     threadContext.x[2] = reinterpret_cast<size_t>(this->stackPtr);
  35:src/Thread.cpp ****     threadContext.sepc = cont->sepc;
  36:src/Thread.cpp ****     threadContext.sstatus =cont->sstatus;
  37:src/Thread.cpp **** }
  38:src/Thread.cpp **** 
  39:src/Thread.cpp **** size_t* KThread::getContext() {
  40:src/Thread.cpp ****     return reinterpret_cast<size_t*>(&threadContext);
  41:src/Thread.cpp **** }
  42:src/Thread.cpp **** KThread* KThread::getNextInQueue(){
  43:src/Thread.cpp ****     return next;
  44:src/Thread.cpp **** }
  45:src/Thread.cpp **** KThread* KThread::getPrevInQueue(){
  46:src/Thread.cpp ****     return prev;
  47:src/Thread.cpp **** }
GAS LISTING /tmp/ccGJHiMH.s 			page 2


  48:src/Thread.cpp **** void KThread::setNextInQueue(KThread* next){
  49:src/Thread.cpp ****     this->next = next;
  50:src/Thread.cpp **** }
  51:src/Thread.cpp **** void KThread::setPrevInQueue(KThread* prev){
  52:src/Thread.cpp ****     this->prev = prev;
  53:src/Thread.cpp **** }
  54:src/Thread.cpp **** void KThread::setNextAndPrevInQueue(KThread* next, KThread* prev){
  55:src/Thread.cpp ****     setNextInQueue(next);
  56:src/Thread.cpp ****     setPrevInQueue(prev);
  57:src/Thread.cpp **** }
  58:src/Thread.cpp **** 
  59:src/Thread.cpp **** void KThread::setup(KThread* parentThread, size_t* stack_top) {
  60:src/Thread.cpp ****     parent = parentThread;
  61:src/Thread.cpp ****     stackPtr = stack_top;
  62:src/Thread.cpp ****     threadContext.x[2] = reinterpret_cast<size_t>(stack_top);
  63:src/Thread.cpp ****     threadContext.sepc  = reinterpret_cast<size_t>(&threadTrampoline);
  64:src/Thread.cpp ****     threadContext.x[10] = reinterpret_cast<size_t>(this);
  65:src/Thread.cpp **** 
  66:src/Thread.cpp ****     size_t gp_val;
  67:src/Thread.cpp ****     __asm__ volatile("mv %0, gp" : "=r"(gp_val));
  68:src/Thread.cpp ****     threadContext.x[3] = gp_val;
  69:src/Thread.cpp **** 
  70:src/Thread.cpp ****     size_t sstatus_val;
  71:src/Thread.cpp ****     __asm__ volatile("csrr %0, sstatus" : "=r"(sstatus_val));
  72:src/Thread.cpp ****     sstatus_val &= ~(1UL << 8); // SPP=0
  73:src/Thread.cpp ****     sstatus_val |= (1UL << 5); // SPIE=1
  74:src/Thread.cpp ****     threadContext.sstatus = sstatus_val;
  75:src/Thread.cpp **** }
  76:src/Thread.cpp **** 
  77:src/Thread.cpp **** void KThread::threadTrampoline(KThread* t) {
  12              		.loc 1 77 44
  13              		.cfi_startproc
  14              	.LVL0:
  78:src/Thread.cpp ****     if (t->body) t->body(t->arg);
  15              		.loc 1 78 5
  16              		.loc 1 78 12 is_stmt 0
  17 0000 83370500 		ld	a5,0(a0)
  18              		.loc 1 78 5
  19 0004 638A0702 		beqz	a5,.L4
  77:src/Thread.cpp ****     if (t->body) t->body(t->arg);
  20              		.loc 1 77 44 discriminator 1
  21 0008 130101FF 		addi	sp,sp,-16
  22              		.cfi_def_cfa_offset 16
  23 000c 23341100 		sd	ra,8(sp)
  24 0010 23308100 		sd	s0,0(sp)
  25              		.cfi_offset 1, -8
  26              		.cfi_offset 8, -16
  27 0014 13040101 		addi	s0,sp,16
  28              		.cfi_def_cfa 8, 0
  29              		.loc 1 78 18 is_stmt 1 discriminator 1
  30              		.loc 1 78 25 is_stmt 0 discriminator 1
  31 0018 03358500 		ld	a0,8(a0)
  32              	.LVL1:
  33 001c E7800700 		jalr	a5
  34              	.LVL2:
  79:src/Thread.cpp ****     __asm__ volatile("li a0, 0x12; ecall");
  35              		.loc 1 79 5 is_stmt 1 discriminator 1
GAS LISTING /tmp/ccGJHiMH.s 			page 3


  36              		.loc 1 79 43 is_stmt 0 discriminator 1
  37              	#APP
  38              	# 79 "src/Thread.cpp" 1
  80              	}...
  39              		li a0, 0x12; ecall
  40              	# 0 "" 2
  41              		.loc 1 80 1 discriminator 1
  42              	#NO_APP
  43 0028 83308100 		ld	ra,8(sp)
  44              		.cfi_restore 1
  45 002c 03340100 		ld	s0,0(sp)
  46              		.cfi_restore 8
  47              		.cfi_def_cfa 2, 16
  48 0030 13010101 		addi	sp,sp,16
  49              		.cfi_def_cfa_offset 0
  50 0034 67800000 		jr	ra
  51              	.LVL3:
  52              	.L4:
  79:src/Thread.cpp ****     __asm__ volatile("li a0, 0x12; ecall");
  53              		.loc 1 79 5 is_stmt 1
  79:src/Thread.cpp ****     __asm__ volatile("li a0, 0x12; ecall");
  54              		.loc 1 79 43 is_stmt 0
  55              	#APP
  56              	# 79 "src/Thread.cpp" 1
  57              		li a0, 0x12; ecall
  58              	# 0 "" 2
  59              	#NO_APP
  60 0040 67800000 		ret
  61              		.cfi_endproc
  62              	.LFE15:
  64              		.align	2
  65              		.globl	_ZN7KThreadC2Ev
  67              	_ZN7KThreadC2Ev:
  68              	.LFB4:
  10:src/Thread.cpp **** KThread::KThread() {
  69              		.loc 1 10 1 is_stmt 1
  70              		.cfi_startproc
  71              	.LVL4:
  72 0044 130101FF 		addi	sp,sp,-16
  73              		.cfi_def_cfa_offset 16
  74 0048 23348100 		sd	s0,8(sp)
  75              		.cfi_offset 8, -8
  76 004c 13040101 		addi	s0,sp,16
  77              		.cfi_def_cfa 8, 0
  11:src/Thread.cpp **** }
  78              		.loc 1 11 1 is_stmt 0
  79 0050 03348100 		ld	s0,8(sp)
  80              		.cfi_restore 8
  81              		.cfi_def_cfa 2, 16
  82 0054 13010101 		addi	sp,sp,16
  83              		.cfi_def_cfa_offset 0
  84 0058 67800000 		jr	ra
  85              		.cfi_endproc
  86              	.LFE4:
  88              		.globl	_ZN7KThreadC1Ev
  89              		.set	_ZN7KThreadC1Ev,_ZN7KThreadC2Ev
  90              		.align	2
GAS LISTING /tmp/ccGJHiMH.s 			page 4


  91              		.globl	_ZN7KThread4initEv
  93              	_ZN7KThread4initEv:
  94              	.LFB6:
  13:src/Thread.cpp **** void KThread::init() {
  95              		.loc 1 13 22 is_stmt 1
  96              		.cfi_startproc
  97              	.LVL5:
  98 005c 130101FF 		addi	sp,sp,-16
  99              		.cfi_def_cfa_offset 16
 100 0060 23348100 		sd	s0,8(sp)
 101              		.cfi_offset 8, -8
 102 0064 13040101 		addi	s0,sp,16
 103              		.cfi_def_cfa 8, 0
  14:src/Thread.cpp ****     body = nullptr;
 104              		.loc 1 14 5
  14:src/Thread.cpp ****     body = nullptr;
 105              		.loc 1 14 10 is_stmt 0
 106 0068 23300500 		sd	zero,0(a0)
  15:src/Thread.cpp ****     arg = nullptr;
 107              		.loc 1 15 5 is_stmt 1
  15:src/Thread.cpp ****     arg = nullptr;
 108              		.loc 1 15 9 is_stmt 0
 109 006c 23340500 		sd	zero,8(a0)
  16:src/Thread.cpp ****     parent = nullptr;
 110              		.loc 1 16 5 is_stmt 1
  16:src/Thread.cpp ****     parent = nullptr;
 111              		.loc 1 16 12 is_stmt 0
 112 0070 23380500 		sd	zero,16(a0)
  17:src/Thread.cpp ****     prev = nullptr;
 113              		.loc 1 17 5 is_stmt 1
  17:src/Thread.cpp ****     prev = nullptr;
 114              		.loc 1 17 10 is_stmt 0
 115 0074 233C0500 		sd	zero,24(a0)
  18:src/Thread.cpp ****     next = nullptr;
 116              		.loc 1 18 5 is_stmt 1
  18:src/Thread.cpp ****     next = nullptr;
 117              		.loc 1 18 10 is_stmt 0
 118 0078 23300502 		sd	zero,32(a0)
  19:src/Thread.cpp ****     stackPtr = nullptr;
 119              		.loc 1 19 5 is_stmt 1
  19:src/Thread.cpp ****     stackPtr = nullptr;
 120              		.loc 1 19 14 is_stmt 0
 121 007c 23340502 		sd	zero,40(a0)
  20:src/Thread.cpp ****     supervisorSp = nullptr;
 122              		.loc 1 20 5 is_stmt 1
  20:src/Thread.cpp ****     supervisorSp = nullptr;
 123              		.loc 1 20 18 is_stmt 0
 124 0080 23380502 		sd	zero,48(a0)
  21:src/Thread.cpp ****     stackBase = nullptr;
 125              		.loc 1 21 5 is_stmt 1
  21:src/Thread.cpp ****     stackBase = nullptr;
 126              		.loc 1 21 15 is_stmt 0
 127 0084 23300504 		sd	zero,64(a0)
  22:src/Thread.cpp ****     sleepDelta = 0;
 128              		.loc 1 22 5 is_stmt 1
  22:src/Thread.cpp ****     sleepDelta = 0;
 129              		.loc 1 22 16 is_stmt 0
GAS LISTING /tmp/ccGJHiMH.s 			page 5


 130 0088 233C0502 		sd	zero,56(a0)
  23:src/Thread.cpp ****     for (int i = 0; i < 32; i++) threadContext.x[i] = 0;
 131              		.loc 1 23 5 is_stmt 1
 132              	.LVL6:
 133              	.LBB2:
  23:src/Thread.cpp ****     for (int i = 0; i < 32; i++) threadContext.x[i] = 0;
 134              		.loc 1 23 14 is_stmt 0
 135 008c 13070000 		li	a4,0
 136              	.LVL7:
 137              	.L11:
  23:src/Thread.cpp ****     for (int i = 0; i < 32; i++) threadContext.x[i] = 0;
 138              		.loc 1 23 23 is_stmt 1 discriminator 3
 139 0090 9307F001 		li	a5,31
 140 0094 63CEE700 		bgt	a4,a5,.L10
  23:src/Thread.cpp ****     for (int i = 0; i < 32; i++) threadContext.x[i] = 0;
 141              		.loc 1 23 34 discriminator 2
  23:src/Thread.cpp ****     for (int i = 0; i < 32; i++) threadContext.x[i] = 0;
 142              		.loc 1 23 53 is_stmt 0 discriminator 2
 143 0098 93078700 		addi	a5,a4,8
 144 009c 93973700 		slli	a5,a5,3
 145 00a0 B307F500 		add	a5,a0,a5
 146 00a4 23B40700 		sd	zero,8(a5)
  23:src/Thread.cpp ****     for (int i = 0; i < 32; i++) threadContext.x[i] = 0;
 147              		.loc 1 23 5 is_stmt 1 discriminator 2
 148 00a8 1B071700 		addiw	a4,a4,1
 149              	.LVL8:
 150 00ac 6FF05FFE 		j	.L11
 151              	.LVL9:
 152              	.L10:
 153              	.LBE2:
  24:src/Thread.cpp ****     threadContext.sepc = 0;
 154              		.loc 1 24 5
  24:src/Thread.cpp ****     threadContext.sepc = 0;
 155              		.loc 1 24 24 is_stmt 0
 156 00b0 23340514 		sd	zero,328(a0)
  25:src/Thread.cpp ****     threadContext.sstatus = 0;
 157              		.loc 1 25 5 is_stmt 1
  25:src/Thread.cpp ****     threadContext.sstatus = 0;
 158              		.loc 1 25 27 is_stmt 0
 159 00b4 23380514 		sd	zero,336(a0)
  26:src/Thread.cpp ****     threadContext.pc = 0;
 160              		.loc 1 26 5 is_stmt 1
  26:src/Thread.cpp ****     threadContext.pc = 0;
 161              		.loc 1 26 22 is_stmt 0
 162 00b8 233C0514 		sd	zero,344(a0)
  27:src/Thread.cpp **** }
 163              		.loc 1 27 1
 164 00bc 03348100 		ld	s0,8(sp)
 165              		.cfi_restore 8
 166              		.cfi_def_cfa 2, 16
 167 00c0 13010101 		addi	sp,sp,16
 168              		.cfi_def_cfa_offset 0
 169 00c4 67800000 		jr	ra
 170              		.cfi_endproc
 171              	.LFE6:
 173              		.align	2
 174              		.globl	_ZN7KThread11copyContextEPm
GAS LISTING /tmp/ccGJHiMH.s 			page 6


 176              	_ZN7KThread11copyContextEPm:
 177              	.LFB7:
  29:src/Thread.cpp **** void KThread::copyContext(size_t* ctx) {
 178              		.loc 1 29 40 is_stmt 1
 179              		.cfi_startproc
 180              	.LVL10:
 181 00c8 130101FF 		addi	sp,sp,-16
 182              		.cfi_def_cfa_offset 16
 183 00cc 23348100 		sd	s0,8(sp)
 184              		.cfi_offset 8, -8
 185 00d0 13040101 		addi	s0,sp,16
 186              		.cfi_def_cfa 8, 0
  30:src/Thread.cpp ****     Context* cont = reinterpret_cast<Context*>(ctx);
 187              		.loc 1 30 5
 188              	.LVL11:
  31:src/Thread.cpp ****     for (int i = 0;i<32;i++) {
 189              		.loc 1 31 5
 190              	.LBB3:
  31:src/Thread.cpp ****     for (int i = 0;i<32;i++) {
 191              		.loc 1 31 14 is_stmt 0
 192 00d4 13070000 		li	a4,0
 193              	.LVL12:
 194              	.L15:
  31:src/Thread.cpp ****     for (int i = 0;i<32;i++) {
 195              		.loc 1 31 21 is_stmt 1 discriminator 3
 196 00d8 9307F001 		li	a5,31
 197 00dc 63C4E702 		bgt	a4,a5,.L14
  32:src/Thread.cpp ****         threadContext.x[i] = cont->x[i];
 198              		.loc 1 32 9 discriminator 2
  32:src/Thread.cpp ****         threadContext.x[i] = cont->x[i];
 199              		.loc 1 32 39 is_stmt 0 discriminator 2
 200 00e0 93173700 		slli	a5,a4,3
 201 00e4 B387F500 		add	a5,a1,a5
 202 00e8 83B60700 		ld	a3,0(a5)
  32:src/Thread.cpp ****         threadContext.x[i] = cont->x[i];
 203              		.loc 1 32 28 discriminator 2
 204 00ec 93078700 		addi	a5,a4,8
 205 00f0 93973700 		slli	a5,a5,3
 206 00f4 B307F500 		add	a5,a0,a5
 207 00f8 23B4D700 		sd	a3,8(a5)
  31:src/Thread.cpp ****     for (int i = 0;i<32;i++) {
 208              		.loc 1 31 5 is_stmt 1 discriminator 2
 209 00fc 1B071700 		addiw	a4,a4,1
 210              	.LVL13:
 211 0100 6FF09FFD 		j	.L15
 212              	.LVL14:
 213              	.L14:
 214              	.LBE3:
  34:src/Thread.cpp ****     threadContext.x[2] = reinterpret_cast<size_t>(this->stackPtr);
 215              		.loc 1 34 5
  34:src/Thread.cpp ****     threadContext.x[2] = reinterpret_cast<size_t>(this->stackPtr);
 216              		.loc 1 34 57 is_stmt 0
 217 0104 83378502 		ld	a5,40(a0)
  34:src/Thread.cpp ****     threadContext.x[2] = reinterpret_cast<size_t>(this->stackPtr);
 218              		.loc 1 34 24
 219 0108 233CF504 		sd	a5,88(a0)
  35:src/Thread.cpp ****     threadContext.sepc = cont->sepc;
GAS LISTING /tmp/ccGJHiMH.s 			page 7


 220              		.loc 1 35 5 is_stmt 1
  35:src/Thread.cpp ****     threadContext.sepc = cont->sepc;
 221              		.loc 1 35 32 is_stmt 0
 222 010c 83B70510 		ld	a5,256(a1)
  35:src/Thread.cpp ****     threadContext.sepc = cont->sepc;
 223              		.loc 1 35 24
 224 0110 2334F514 		sd	a5,328(a0)
  36:src/Thread.cpp ****     threadContext.sstatus =cont->sstatus;
 225              		.loc 1 36 5 is_stmt 1
  36:src/Thread.cpp ****     threadContext.sstatus =cont->sstatus;
 226              		.loc 1 36 34 is_stmt 0
 227 0114 83B78510 		ld	a5,264(a1)
  36:src/Thread.cpp ****     threadContext.sstatus =cont->sstatus;
 228              		.loc 1 36 27
 229 0118 2338F514 		sd	a5,336(a0)
  37:src/Thread.cpp **** }
 230              		.loc 1 37 1
 231 011c 03348100 		ld	s0,8(sp)
 232              		.cfi_restore 8
 233              		.cfi_def_cfa 2, 16
 234 0120 13010101 		addi	sp,sp,16
 235              		.cfi_def_cfa_offset 0
 236 0124 67800000 		jr	ra
 237              		.cfi_endproc
 238              	.LFE7:
 240              		.align	2
 241              		.globl	_ZN7KThread10getContextEv
 243              	_ZN7KThread10getContextEv:
 244              	.LFB8:
  39:src/Thread.cpp **** size_t* KThread::getContext() {
 245              		.loc 1 39 31 is_stmt 1
 246              		.cfi_startproc
 247              	.LVL15:
 248 0128 130101FF 		addi	sp,sp,-16
 249              		.cfi_def_cfa_offset 16
 250 012c 23348100 		sd	s0,8(sp)
 251              		.cfi_offset 8, -8
 252 0130 13040101 		addi	s0,sp,16
 253              		.cfi_def_cfa 8, 0
  40:src/Thread.cpp ****     return reinterpret_cast<size_t*>(&threadContext);
 254              		.loc 1 40 5
  41:src/Thread.cpp **** }
 255              		.loc 1 41 1 is_stmt 0
 256 0134 13058504 		addi	a0,a0,72
 257              	.LVL16:
 258 0138 03348100 		ld	s0,8(sp)
 259              		.cfi_restore 8
 260              		.cfi_def_cfa 2, 16
 261 013c 13010101 		addi	sp,sp,16
 262              		.cfi_def_cfa_offset 0
 263 0140 67800000 		jr	ra
 264              		.cfi_endproc
 265              	.LFE8:
 267              		.align	2
 268              		.globl	_ZN7KThread14getNextInQueueEv
 270              	_ZN7KThread14getNextInQueueEv:
 271              	.LFB9:
GAS LISTING /tmp/ccGJHiMH.s 			page 8


  42:src/Thread.cpp **** KThread* KThread::getNextInQueue(){
 272              		.loc 1 42 35 is_stmt 1
 273              		.cfi_startproc
 274              	.LVL17:
 275 0144 130101FF 		addi	sp,sp,-16
 276              		.cfi_def_cfa_offset 16
 277 0148 23348100 		sd	s0,8(sp)
 278              		.cfi_offset 8, -8
 279 014c 13040101 		addi	s0,sp,16
 280              		.cfi_def_cfa 8, 0
  43:src/Thread.cpp ****     return next;
 281              		.loc 1 43 5
  44:src/Thread.cpp **** }
 282              		.loc 1 44 1 is_stmt 0
 283 0150 03350502 		ld	a0,32(a0)
 284              	.LVL18:
 285 0154 03348100 		ld	s0,8(sp)
 286              		.cfi_restore 8
 287              		.cfi_def_cfa 2, 16
 288 0158 13010101 		addi	sp,sp,16
 289              		.cfi_def_cfa_offset 0
 290 015c 67800000 		jr	ra
 291              		.cfi_endproc
 292              	.LFE9:
 294              		.align	2
 295              		.globl	_ZN7KThread14getPrevInQueueEv
 297              	_ZN7KThread14getPrevInQueueEv:
 298              	.LFB10:
  45:src/Thread.cpp **** KThread* KThread::getPrevInQueue(){
 299              		.loc 1 45 35 is_stmt 1
 300              		.cfi_startproc
 301              	.LVL19:
 302 0160 130101FF 		addi	sp,sp,-16
 303              		.cfi_def_cfa_offset 16
 304 0164 23348100 		sd	s0,8(sp)
 305              		.cfi_offset 8, -8
 306 0168 13040101 		addi	s0,sp,16
 307              		.cfi_def_cfa 8, 0
  46:src/Thread.cpp ****     return prev;
 308              		.loc 1 46 5
  47:src/Thread.cpp **** }
 309              		.loc 1 47 1 is_stmt 0
 310 016c 03358501 		ld	a0,24(a0)
 311              	.LVL20:
 312 0170 03348100 		ld	s0,8(sp)
 313              		.cfi_restore 8
 314              		.cfi_def_cfa 2, 16
 315 0174 13010101 		addi	sp,sp,16
 316              		.cfi_def_cfa_offset 0
 317 0178 67800000 		jr	ra
 318              		.cfi_endproc
 319              	.LFE10:
 321              		.align	2
 322              		.globl	_ZN7KThread14setNextInQueueEPS_
 324              	_ZN7KThread14setNextInQueueEPS_:
 325              	.LFB11:
  48:src/Thread.cpp **** void KThread::setNextInQueue(KThread* next){
GAS LISTING /tmp/ccGJHiMH.s 			page 9


 326              		.loc 1 48 44 is_stmt 1
 327              		.cfi_startproc
 328              	.LVL21:
 329 017c 130101FF 		addi	sp,sp,-16
 330              		.cfi_def_cfa_offset 16
 331 0180 23348100 		sd	s0,8(sp)
 332              		.cfi_offset 8, -8
 333 0184 13040101 		addi	s0,sp,16
 334              		.cfi_def_cfa 8, 0
  49:src/Thread.cpp ****     this->next = next;
 335              		.loc 1 49 5
  49:src/Thread.cpp ****     this->next = next;
 336              		.loc 1 49 16 is_stmt 0
 337 0188 2330B502 		sd	a1,32(a0)
  50:src/Thread.cpp **** }
 338              		.loc 1 50 1
 339 018c 03348100 		ld	s0,8(sp)
 340              		.cfi_restore 8
 341              		.cfi_def_cfa 2, 16
 342 0190 13010101 		addi	sp,sp,16
 343              		.cfi_def_cfa_offset 0
 344 0194 67800000 		jr	ra
 345              		.cfi_endproc
 346              	.LFE11:
 348              		.align	2
 349              		.globl	_ZN7KThread14setPrevInQueueEPS_
 351              	_ZN7KThread14setPrevInQueueEPS_:
 352              	.LFB12:
  51:src/Thread.cpp **** void KThread::setPrevInQueue(KThread* prev){
 353              		.loc 1 51 44 is_stmt 1
 354              		.cfi_startproc
 355              	.LVL22:
 356 0198 130101FF 		addi	sp,sp,-16
 357              		.cfi_def_cfa_offset 16
 358 019c 23348100 		sd	s0,8(sp)
 359              		.cfi_offset 8, -8
 360 01a0 13040101 		addi	s0,sp,16
 361              		.cfi_def_cfa 8, 0
  52:src/Thread.cpp ****     this->prev = prev;
 362              		.loc 1 52 5
  52:src/Thread.cpp ****     this->prev = prev;
 363              		.loc 1 52 16 is_stmt 0
 364 01a4 233CB500 		sd	a1,24(a0)
  53:src/Thread.cpp **** }
 365              		.loc 1 53 1
 366 01a8 03348100 		ld	s0,8(sp)
 367              		.cfi_restore 8
 368              		.cfi_def_cfa 2, 16
 369 01ac 13010101 		addi	sp,sp,16
 370              		.cfi_def_cfa_offset 0
 371 01b0 67800000 		jr	ra
 372              		.cfi_endproc
 373              	.LFE12:
 375              		.align	2
 376              		.globl	_ZN7KThread21setNextAndPrevInQueueEPS_S0_
 378              	_ZN7KThread21setNextAndPrevInQueueEPS_S0_:
 379              	.LFB13:
GAS LISTING /tmp/ccGJHiMH.s 			page 10


  54:src/Thread.cpp **** void KThread::setNextAndPrevInQueue(KThread* next, KThread* prev){
 380              		.loc 1 54 66 is_stmt 1
 381              		.cfi_startproc
 382              	.LVL23:
 383 01b4 130101FE 		addi	sp,sp,-32
 384              		.cfi_def_cfa_offset 32
 385 01b8 233C1100 		sd	ra,24(sp)
 386 01bc 23388100 		sd	s0,16(sp)
 387 01c0 23349100 		sd	s1,8(sp)
 388 01c4 23302101 		sd	s2,0(sp)
 389              		.cfi_offset 1, -8
 390              		.cfi_offset 8, -16
 391              		.cfi_offset 9, -24
 392              		.cfi_offset 18, -32
 393 01c8 13040102 		addi	s0,sp,32
 394              		.cfi_def_cfa 8, 0
 395 01cc 93040500 		mv	s1,a0
 396 01d0 13090600 		mv	s2,a2
  55:src/Thread.cpp ****     setNextInQueue(next);
 397              		.loc 1 55 5
  55:src/Thread.cpp ****     setNextInQueue(next);
 398              		.loc 1 55 19 is_stmt 0
 399 01d4 97000000 		call	_ZN7KThread14setNextInQueueEPS_
 399      E7800000 
 400              	.LVL24:
  56:src/Thread.cpp ****     setPrevInQueue(prev);
 401              		.loc 1 56 5 is_stmt 1
  56:src/Thread.cpp ****     setPrevInQueue(prev);
 402              		.loc 1 56 19 is_stmt 0
 403 01dc 93050900 		mv	a1,s2
 404 01e0 13850400 		mv	a0,s1
 405 01e4 97000000 		call	_ZN7KThread14setPrevInQueueEPS_
 405      E7800000 
 406              	.LVL25:
  57:src/Thread.cpp **** }
 407              		.loc 1 57 1
 408 01ec 83308101 		ld	ra,24(sp)
 409              		.cfi_restore 1
 410 01f0 03340101 		ld	s0,16(sp)
 411              		.cfi_restore 8
 412              		.cfi_def_cfa 2, 32
 413 01f4 83348100 		ld	s1,8(sp)
 414              		.cfi_restore 9
 415              	.LVL26:
 416 01f8 03390100 		ld	s2,0(sp)
 417              		.cfi_restore 18
 418              	.LVL27:
 419 01fc 13010102 		addi	sp,sp,32
 420              		.cfi_def_cfa_offset 0
 421 0200 67800000 		jr	ra
 422              		.cfi_endproc
 423              	.LFE13:
 425              		.align	2
 426              		.globl	_ZN7KThread5setupEPS_Pm
 428              	_ZN7KThread5setupEPS_Pm:
 429              	.LFB14:
  59:src/Thread.cpp **** void KThread::setup(KThread* parentThread, size_t* stack_top) {
GAS LISTING /tmp/ccGJHiMH.s 			page 11


 430              		.loc 1 59 63 is_stmt 1
 431              		.cfi_startproc
 432              	.LVL28:
 433 0204 130101FF 		addi	sp,sp,-16
 434              		.cfi_def_cfa_offset 16
 435 0208 23348100 		sd	s0,8(sp)
 436              		.cfi_offset 8, -8
 437 020c 13040101 		addi	s0,sp,16
 438              		.cfi_def_cfa 8, 0
  60:src/Thread.cpp ****     parent = parentThread;
 439              		.loc 1 60 5
  60:src/Thread.cpp ****     parent = parentThread;
 440              		.loc 1 60 12 is_stmt 0
 441 0210 2338B500 		sd	a1,16(a0)
  61:src/Thread.cpp ****     stackPtr = stack_top;
 442              		.loc 1 61 5 is_stmt 1
  61:src/Thread.cpp ****     stackPtr = stack_top;
 443              		.loc 1 61 14 is_stmt 0
 444 0214 2334C502 		sd	a2,40(a0)
  62:src/Thread.cpp ****     threadContext.x[2] = reinterpret_cast<size_t>(stack_top);
 445              		.loc 1 62 5 is_stmt 1
  62:src/Thread.cpp ****     threadContext.x[2] = reinterpret_cast<size_t>(stack_top);
 446              		.loc 1 62 24 is_stmt 0
 447 0218 233CC504 		sd	a2,88(a0)
  63:src/Thread.cpp ****     threadContext.sepc  = reinterpret_cast<size_t>(&threadTrampoline);
 448              		.loc 1 63 5 is_stmt 1
  63:src/Thread.cpp ****     threadContext.sepc  = reinterpret_cast<size_t>(&threadTrampoline);
 449              		.loc 1 63 25 is_stmt 0
 450 021c 97070000 		lla	a5,_ZN7KThread16threadTrampolineEPS_
 450      93870700 
 451 0224 2334F514 		sd	a5,328(a0)
  64:src/Thread.cpp ****     threadContext.x[10] = reinterpret_cast<size_t>(this);
 452              		.loc 1 64 5 is_stmt 1
  64:src/Thread.cpp ****     threadContext.x[10] = reinterpret_cast<size_t>(this);
 453              		.loc 1 64 25 is_stmt 0
 454 0228 233CA508 		sd	a0,152(a0)
  66:src/Thread.cpp ****     size_t gp_val;
 455              		.loc 1 66 5 is_stmt 1
  67:src/Thread.cpp ****     __asm__ volatile("mv %0, gp" : "=r"(gp_val));
 456              		.loc 1 67 5
  67:src/Thread.cpp ****     __asm__ volatile("mv %0, gp" : "=r"(gp_val));
 457              		.loc 1 67 49 is_stmt 0
 458              	#APP
 459              	# 67 "src/Thread.cpp" 1
 460              		mv a5, gp
 461              	# 0 "" 2
 462              	.LVL29:
  68:src/Thread.cpp ****     threadContext.x[3] = gp_val;
 463              		.loc 1 68 5 is_stmt 1
  68:src/Thread.cpp ****     threadContext.x[3] = gp_val;
 464              		.loc 1 68 24 is_stmt 0
 465              	#NO_APP
 466 0230 2330F506 		sd	a5,96(a0)
  70:src/Thread.cpp ****     size_t sstatus_val;
 467              		.loc 1 70 5 is_stmt 1
  71:src/Thread.cpp ****     __asm__ volatile("csrr %0, sstatus" : "=r"(sstatus_val));
 468              		.loc 1 71 5
GAS LISTING /tmp/ccGJHiMH.s 			page 12


  71:src/Thread.cpp ****     __asm__ volatile("csrr %0, sstatus" : "=r"(sstatus_val));
 469              		.loc 1 71 61 is_stmt 0
 470              	#APP
 471              	# 71 "src/Thread.cpp" 1
 472              		csrr a5, sstatus
 473              	# 0 "" 2
 474              	.LVL30:
  72:src/Thread.cpp ****     sstatus_val &= ~(1UL << 8); // SPP=0
 475              		.loc 1 72 5 is_stmt 1
  72:src/Thread.cpp ****     sstatus_val &= ~(1UL << 8); // SPP=0
 476              		.loc 1 72 17 is_stmt 0
 477              	#NO_APP
 478 0238 93F7F7EF 		andi	a5,a5,-257
 479              	.LVL31:
  73:src/Thread.cpp ****     sstatus_val |= (1UL << 5); // SPIE=1
 480              		.loc 1 73 5 is_stmt 1
  73:src/Thread.cpp ****     sstatus_val |= (1UL << 5); // SPIE=1
 481              		.loc 1 73 17 is_stmt 0
 482 023c 93E70702 		ori	a5,a5,32
 483              	.LVL32:
  74:src/Thread.cpp ****     threadContext.sstatus = sstatus_val;
 484              		.loc 1 74 5 is_stmt 1
  74:src/Thread.cpp ****     threadContext.sstatus = sstatus_val;
 485              		.loc 1 74 27 is_stmt 0
 486 0240 2338F514 		sd	a5,336(a0)
  75:src/Thread.cpp **** }
 487              		.loc 1 75 1
 488 0244 03348100 		ld	s0,8(sp)
 489              		.cfi_restore 8
 490              		.cfi_def_cfa 2, 16
 491 0248 13010101 		addi	sp,sp,16
 492              		.cfi_def_cfa_offset 0
 493 024c 67800000 		jr	ra
 494              		.cfi_endproc
 495              	.LFE14:
 497              	.Letext0:
 498              		.file 2 "src/../lib/hw.h"
 499              		.file 3 "src/Thread.hpp"
GAS LISTING /tmp/ccGJHiMH.s 			page 13


DEFINED SYMBOLS
                            *ABS*:0000000000000000 Thread.cpp
     /tmp/ccGJHiMH.s:9      .text:0000000000000000 _ZN7KThread16threadTrampolineEPS_
     /tmp/ccGJHiMH.s:13     .text:0000000000000000 .L0 
     /tmp/ccGJHiMH.s:15     .text:0000000000000000 .L0 
     /tmp/ccGJHiMH.s:16     .text:0000000000000000 .L0 
     /tmp/ccGJHiMH.s:17     .text:0000000000000000 .L0 
     /tmp/ccGJHiMH.s:19     .text:0000000000000004 .L0 
     /tmp/ccGJHiMH.s:21     .text:0000000000000008 .L0 
     /tmp/ccGJHiMH.s:22     .text:000000000000000c .L0 
     /tmp/ccGJHiMH.s:25     .text:0000000000000014 .L0 
     /tmp/ccGJHiMH.s:26     .text:0000000000000014 .L0 
     /tmp/ccGJHiMH.s:28     .text:0000000000000018 .L0 
     /tmp/ccGJHiMH.s:30     .text:0000000000000018 .L0 
     /tmp/ccGJHiMH.s:31     .text:0000000000000018 .L0 
     /tmp/ccGJHiMH.s:36     .text:0000000000000020 .L0 
      src/Thread.cpp:79     .text:0000000000000020 .L0 
     /tmp/ccGJHiMH.s:43     .text:0000000000000028 .L0 
     /tmp/ccGJHiMH.s:44     .text:000000000000002c .L0 
     /tmp/ccGJHiMH.s:46     .text:0000000000000030 .L0 
     /tmp/ccGJHiMH.s:47     .text:0000000000000030 .L0 
     /tmp/ccGJHiMH.s:49     .text:0000000000000034 .L0 
     /tmp/ccGJHiMH.s:54     .text:0000000000000038 .L0 
      src/Thread.cpp:79     .text:0000000000000038 .L0 
     /tmp/ccGJHiMH.s:61     .text:0000000000000044 .L0 
     /tmp/ccGJHiMH.s:67     .text:0000000000000044 _ZN7KThreadC2Ev
     /tmp/ccGJHiMH.s:70     .text:0000000000000044 .L0 
     /tmp/ccGJHiMH.s:72     .text:0000000000000044 .L0 
     /tmp/ccGJHiMH.s:73     .text:0000000000000048 .L0 
     /tmp/ccGJHiMH.s:75     .text:000000000000004c .L0 
     /tmp/ccGJHiMH.s:77     .text:0000000000000050 .L0 
     /tmp/ccGJHiMH.s:79     .text:0000000000000050 .L0 
     /tmp/ccGJHiMH.s:80     .text:0000000000000054 .L0 
     /tmp/ccGJHiMH.s:81     .text:0000000000000054 .L0 
     /tmp/ccGJHiMH.s:83     .text:0000000000000058 .L0 
     /tmp/ccGJHiMH.s:85     .text:000000000000005c .L0 
     /tmp/ccGJHiMH.s:67     .text:0000000000000044 _ZN7KThreadC1Ev
     /tmp/ccGJHiMH.s:93     .text:000000000000005c _ZN7KThread4initEv
     /tmp/ccGJHiMH.s:96     .text:000000000000005c .L0 
     /tmp/ccGJHiMH.s:98     .text:000000000000005c .L0 
     /tmp/ccGJHiMH.s:99     .text:0000000000000060 .L0 
     /tmp/ccGJHiMH.s:101    .text:0000000000000064 .L0 
     /tmp/ccGJHiMH.s:103    .text:0000000000000068 .L0 
     /tmp/ccGJHiMH.s:105    .text:0000000000000068 .L0 
     /tmp/ccGJHiMH.s:106    .text:0000000000000068 .L0 
     /tmp/ccGJHiMH.s:108    .text:000000000000006c .L0 
     /tmp/ccGJHiMH.s:109    .text:000000000000006c .L0 
     /tmp/ccGJHiMH.s:111    .text:0000000000000070 .L0 
     /tmp/ccGJHiMH.s:112    .text:0000000000000070 .L0 
     /tmp/ccGJHiMH.s:114    .text:0000000000000074 .L0 
     /tmp/ccGJHiMH.s:115    .text:0000000000000074 .L0 
     /tmp/ccGJHiMH.s:117    .text:0000000000000078 .L0 
     /tmp/ccGJHiMH.s:118    .text:0000000000000078 .L0 
     /tmp/ccGJHiMH.s:120    .text:000000000000007c .L0 
     /tmp/ccGJHiMH.s:121    .text:000000000000007c .L0 
     /tmp/ccGJHiMH.s:123    .text:0000000000000080 .L0 
     /tmp/ccGJHiMH.s:124    .text:0000000000000080 .L0 
GAS LISTING /tmp/ccGJHiMH.s 			page 14


     /tmp/ccGJHiMH.s:126    .text:0000000000000084 .L0 
     /tmp/ccGJHiMH.s:127    .text:0000000000000084 .L0 
     /tmp/ccGJHiMH.s:129    .text:0000000000000088 .L0 
     /tmp/ccGJHiMH.s:130    .text:0000000000000088 .L0 
     /tmp/ccGJHiMH.s:134    .text:000000000000008c .L0 
     /tmp/ccGJHiMH.s:135    .text:000000000000008c .L0 
     /tmp/ccGJHiMH.s:139    .text:0000000000000090 .L0 
     /tmp/ccGJHiMH.s:142    .text:0000000000000098 .L0 
     /tmp/ccGJHiMH.s:143    .text:0000000000000098 .L0 
     /tmp/ccGJHiMH.s:148    .text:00000000000000a8 .L0 
     /tmp/ccGJHiMH.s:155    .text:00000000000000b0 .L0 
     /tmp/ccGJHiMH.s:156    .text:00000000000000b0 .L0 
     /tmp/ccGJHiMH.s:158    .text:00000000000000b4 .L0 
     /tmp/ccGJHiMH.s:159    .text:00000000000000b4 .L0 
     /tmp/ccGJHiMH.s:161    .text:00000000000000b8 .L0 
     /tmp/ccGJHiMH.s:162    .text:00000000000000b8 .L0 
     /tmp/ccGJHiMH.s:164    .text:00000000000000bc .L0 
     /tmp/ccGJHiMH.s:165    .text:00000000000000c0 .L0 
     /tmp/ccGJHiMH.s:166    .text:00000000000000c0 .L0 
     /tmp/ccGJHiMH.s:168    .text:00000000000000c4 .L0 
     /tmp/ccGJHiMH.s:170    .text:00000000000000c8 .L0 
     /tmp/ccGJHiMH.s:176    .text:00000000000000c8 _ZN7KThread11copyContextEPm
     /tmp/ccGJHiMH.s:179    .text:00000000000000c8 .L0 
     /tmp/ccGJHiMH.s:181    .text:00000000000000c8 .L0 
     /tmp/ccGJHiMH.s:182    .text:00000000000000cc .L0 
     /tmp/ccGJHiMH.s:184    .text:00000000000000d0 .L0 
     /tmp/ccGJHiMH.s:186    .text:00000000000000d4 .L0 
     /tmp/ccGJHiMH.s:189    .text:00000000000000d4 .L0 
     /tmp/ccGJHiMH.s:191    .text:00000000000000d4 .L0 
     /tmp/ccGJHiMH.s:192    .text:00000000000000d4 .L0 
     /tmp/ccGJHiMH.s:196    .text:00000000000000d8 .L0 
     /tmp/ccGJHiMH.s:199    .text:00000000000000e0 .L0 
     /tmp/ccGJHiMH.s:200    .text:00000000000000e0 .L0 
     /tmp/ccGJHiMH.s:204    .text:00000000000000ec .L0 
     /tmp/ccGJHiMH.s:209    .text:00000000000000fc .L0 
     /tmp/ccGJHiMH.s:216    .text:0000000000000104 .L0 
     /tmp/ccGJHiMH.s:217    .text:0000000000000104 .L0 
     /tmp/ccGJHiMH.s:219    .text:0000000000000108 .L0 
     /tmp/ccGJHiMH.s:221    .text:000000000000010c .L0 
     /tmp/ccGJHiMH.s:222    .text:000000000000010c .L0 
     /tmp/ccGJHiMH.s:224    .text:0000000000000110 .L0 
     /tmp/ccGJHiMH.s:226    .text:0000000000000114 .L0 
     /tmp/ccGJHiMH.s:227    .text:0000000000000114 .L0 
     /tmp/ccGJHiMH.s:229    .text:0000000000000118 .L0 
     /tmp/ccGJHiMH.s:231    .text:000000000000011c .L0 
     /tmp/ccGJHiMH.s:232    .text:0000000000000120 .L0 
     /tmp/ccGJHiMH.s:233    .text:0000000000000120 .L0 
     /tmp/ccGJHiMH.s:235    .text:0000000000000124 .L0 
     /tmp/ccGJHiMH.s:237    .text:0000000000000128 .L0 
     /tmp/ccGJHiMH.s:243    .text:0000000000000128 _ZN7KThread10getContextEv
     /tmp/ccGJHiMH.s:246    .text:0000000000000128 .L0 
     /tmp/ccGJHiMH.s:248    .text:0000000000000128 .L0 
     /tmp/ccGJHiMH.s:249    .text:000000000000012c .L0 
     /tmp/ccGJHiMH.s:251    .text:0000000000000130 .L0 
     /tmp/ccGJHiMH.s:253    .text:0000000000000134 .L0 
     /tmp/ccGJHiMH.s:255    .text:0000000000000134 .L0 
     /tmp/ccGJHiMH.s:256    .text:0000000000000134 .L0 
GAS LISTING /tmp/ccGJHiMH.s 			page 15


     /tmp/ccGJHiMH.s:259    .text:000000000000013c .L0 
     /tmp/ccGJHiMH.s:260    .text:000000000000013c .L0 
     /tmp/ccGJHiMH.s:262    .text:0000000000000140 .L0 
     /tmp/ccGJHiMH.s:264    .text:0000000000000144 .L0 
     /tmp/ccGJHiMH.s:270    .text:0000000000000144 _ZN7KThread14getNextInQueueEv
     /tmp/ccGJHiMH.s:273    .text:0000000000000144 .L0 
     /tmp/ccGJHiMH.s:275    .text:0000000000000144 .L0 
     /tmp/ccGJHiMH.s:276    .text:0000000000000148 .L0 
     /tmp/ccGJHiMH.s:278    .text:000000000000014c .L0 
     /tmp/ccGJHiMH.s:280    .text:0000000000000150 .L0 
     /tmp/ccGJHiMH.s:282    .text:0000000000000150 .L0 
     /tmp/ccGJHiMH.s:283    .text:0000000000000150 .L0 
     /tmp/ccGJHiMH.s:286    .text:0000000000000158 .L0 
     /tmp/ccGJHiMH.s:287    .text:0000000000000158 .L0 
     /tmp/ccGJHiMH.s:289    .text:000000000000015c .L0 
     /tmp/ccGJHiMH.s:291    .text:0000000000000160 .L0 
     /tmp/ccGJHiMH.s:297    .text:0000000000000160 _ZN7KThread14getPrevInQueueEv
     /tmp/ccGJHiMH.s:300    .text:0000000000000160 .L0 
     /tmp/ccGJHiMH.s:302    .text:0000000000000160 .L0 
     /tmp/ccGJHiMH.s:303    .text:0000000000000164 .L0 
     /tmp/ccGJHiMH.s:305    .text:0000000000000168 .L0 
     /tmp/ccGJHiMH.s:307    .text:000000000000016c .L0 
     /tmp/ccGJHiMH.s:309    .text:000000000000016c .L0 
     /tmp/ccGJHiMH.s:310    .text:000000000000016c .L0 
     /tmp/ccGJHiMH.s:313    .text:0000000000000174 .L0 
     /tmp/ccGJHiMH.s:314    .text:0000000000000174 .L0 
     /tmp/ccGJHiMH.s:316    .text:0000000000000178 .L0 
     /tmp/ccGJHiMH.s:318    .text:000000000000017c .L0 
     /tmp/ccGJHiMH.s:324    .text:000000000000017c _ZN7KThread14setNextInQueueEPS_
     /tmp/ccGJHiMH.s:327    .text:000000000000017c .L0 
     /tmp/ccGJHiMH.s:329    .text:000000000000017c .L0 
     /tmp/ccGJHiMH.s:330    .text:0000000000000180 .L0 
     /tmp/ccGJHiMH.s:332    .text:0000000000000184 .L0 
     /tmp/ccGJHiMH.s:334    .text:0000000000000188 .L0 
     /tmp/ccGJHiMH.s:336    .text:0000000000000188 .L0 
     /tmp/ccGJHiMH.s:337    .text:0000000000000188 .L0 
     /tmp/ccGJHiMH.s:339    .text:000000000000018c .L0 
     /tmp/ccGJHiMH.s:340    .text:0000000000000190 .L0 
     /tmp/ccGJHiMH.s:341    .text:0000000000000190 .L0 
     /tmp/ccGJHiMH.s:343    .text:0000000000000194 .L0 
     /tmp/ccGJHiMH.s:345    .text:0000000000000198 .L0 
     /tmp/ccGJHiMH.s:351    .text:0000000000000198 _ZN7KThread14setPrevInQueueEPS_
     /tmp/ccGJHiMH.s:354    .text:0000000000000198 .L0 
     /tmp/ccGJHiMH.s:356    .text:0000000000000198 .L0 
     /tmp/ccGJHiMH.s:357    .text:000000000000019c .L0 
     /tmp/ccGJHiMH.s:359    .text:00000000000001a0 .L0 
     /tmp/ccGJHiMH.s:361    .text:00000000000001a4 .L0 
     /tmp/ccGJHiMH.s:363    .text:00000000000001a4 .L0 
     /tmp/ccGJHiMH.s:364    .text:00000000000001a4 .L0 
     /tmp/ccGJHiMH.s:366    .text:00000000000001a8 .L0 
     /tmp/ccGJHiMH.s:367    .text:00000000000001ac .L0 
     /tmp/ccGJHiMH.s:368    .text:00000000000001ac .L0 
     /tmp/ccGJHiMH.s:370    .text:00000000000001b0 .L0 
     /tmp/ccGJHiMH.s:372    .text:00000000000001b4 .L0 
     /tmp/ccGJHiMH.s:378    .text:00000000000001b4 _ZN7KThread21setNextAndPrevInQueueEPS_S0_
     /tmp/ccGJHiMH.s:381    .text:00000000000001b4 .L0 
     /tmp/ccGJHiMH.s:383    .text:00000000000001b4 .L0 
GAS LISTING /tmp/ccGJHiMH.s 			page 16


     /tmp/ccGJHiMH.s:384    .text:00000000000001b8 .L0 
     /tmp/ccGJHiMH.s:389    .text:00000000000001c8 .L0 
     /tmp/ccGJHiMH.s:390    .text:00000000000001c8 .L0 
     /tmp/ccGJHiMH.s:391    .text:00000000000001c8 .L0 
     /tmp/ccGJHiMH.s:392    .text:00000000000001c8 .L0 
     /tmp/ccGJHiMH.s:394    .text:00000000000001cc .L0 
     /tmp/ccGJHiMH.s:398    .text:00000000000001d4 .L0 
     /tmp/ccGJHiMH.s:399    .text:00000000000001d4 .L0 
     /tmp/ccGJHiMH.s:402    .text:00000000000001dc .L0 
     /tmp/ccGJHiMH.s:403    .text:00000000000001dc .L0 
     /tmp/ccGJHiMH.s:408    .text:00000000000001ec .L0 
     /tmp/ccGJHiMH.s:409    .text:00000000000001f0 .L0 
     /tmp/ccGJHiMH.s:411    .text:00000000000001f4 .L0 
     /tmp/ccGJHiMH.s:412    .text:00000000000001f4 .L0 
     /tmp/ccGJHiMH.s:414    .text:00000000000001f8 .L0 
     /tmp/ccGJHiMH.s:417    .text:00000000000001fc .L0 
     /tmp/ccGJHiMH.s:420    .text:0000000000000200 .L0 
     /tmp/ccGJHiMH.s:422    .text:0000000000000204 .L0 
     /tmp/ccGJHiMH.s:428    .text:0000000000000204 _ZN7KThread5setupEPS_Pm
     /tmp/ccGJHiMH.s:431    .text:0000000000000204 .L0 
     /tmp/ccGJHiMH.s:433    .text:0000000000000204 .L0 
     /tmp/ccGJHiMH.s:434    .text:0000000000000208 .L0 
     /tmp/ccGJHiMH.s:436    .text:000000000000020c .L0 
     /tmp/ccGJHiMH.s:438    .text:0000000000000210 .L0 
     /tmp/ccGJHiMH.s:440    .text:0000000000000210 .L0 
     /tmp/ccGJHiMH.s:441    .text:0000000000000210 .L0 
     /tmp/ccGJHiMH.s:443    .text:0000000000000214 .L0 
     /tmp/ccGJHiMH.s:444    .text:0000000000000214 .L0 
     /tmp/ccGJHiMH.s:446    .text:0000000000000218 .L0 
     /tmp/ccGJHiMH.s:447    .text:0000000000000218 .L0 
     /tmp/ccGJHiMH.s:449    .text:000000000000021c .L0 
     /tmp/ccGJHiMH.s:450    .text:000000000000021c .L0 
     /tmp/ccGJHiMH.s:453    .text:0000000000000228 .L0 
     /tmp/ccGJHiMH.s:454    .text:0000000000000228 .L0 
     /tmp/ccGJHiMH.s:456    .text:000000000000022c .L0 
     /tmp/ccGJHiMH.s:457    .text:000000000000022c .L0 
      src/Thread.cpp:67     .text:000000000000022c .L0 
     /tmp/ccGJHiMH.s:464    .text:0000000000000230 .L0 
     /tmp/ccGJHiMH.s:466    .text:0000000000000230 .L0 
     /tmp/ccGJHiMH.s:468    .text:0000000000000234 .L0 
     /tmp/ccGJHiMH.s:469    .text:0000000000000234 .L0 
      src/Thread.cpp:71     .text:0000000000000234 .L0 
     /tmp/ccGJHiMH.s:476    .text:0000000000000238 .L0 
     /tmp/ccGJHiMH.s:478    .text:0000000000000238 .L0 
     /tmp/ccGJHiMH.s:481    .text:000000000000023c .L0 
     /tmp/ccGJHiMH.s:482    .text:000000000000023c .L0 
     /tmp/ccGJHiMH.s:485    .text:0000000000000240 .L0 
     /tmp/ccGJHiMH.s:486    .text:0000000000000240 .L0 
     /tmp/ccGJHiMH.s:488    .text:0000000000000244 .L0 
     /tmp/ccGJHiMH.s:489    .text:0000000000000248 .L0 
     /tmp/ccGJHiMH.s:490    .text:0000000000000248 .L0 
     /tmp/ccGJHiMH.s:492    .text:000000000000024c .L0 
     /tmp/ccGJHiMH.s:494    .text:0000000000000250 .L0 
     /tmp/ccGJHiMH.s:500    .text:0000000000000250 .L0 
     /tmp/ccGJHiMH.s:450    .text:000000000000021c .L0 
     /tmp/ccGJHiMH.s:52     .text:0000000000000038 .L4
     /tmp/ccGJHiMH.s:152    .text:00000000000000b0 .L10
GAS LISTING /tmp/ccGJHiMH.s 			page 17


     /tmp/ccGJHiMH.s:137    .text:0000000000000090 .L11
     /tmp/ccGJHiMH.s:213    .text:0000000000000104 .L14
     /tmp/ccGJHiMH.s:194    .text:00000000000000d8 .L15
     /tmp/ccGJHiMH.s:1300   .debug_abbrev:0000000000000000 .Ldebug_abbrev0
     /tmp/ccGJHiMH.s:2276   .debug_str:0000000000000384 .LASF63
     /tmp/ccGJHiMH.s:2270   .debug_str:000000000000035d .LASF64
     /tmp/ccGJHiMH.s:2260   .debug_str:00000000000002e2 .LASF65
     /tmp/ccGJHiMH.s:5      .text:0000000000000000 .Ltext0
     /tmp/ccGJHiMH.s:497    .text:0000000000000250 .Letext0
     /tmp/ccGJHiMH.s:2158   .debug_line:0000000000000000 .Ldebug_line0
     /tmp/ccGJHiMH.s:2234   .debug_str:000000000000021f .LASF0
     /tmp/ccGJHiMH.s:2240   .debug_str:000000000000023b .LASF1
     /tmp/ccGJHiMH.s:2226   .debug_str:00000000000001ea .LASF2
     /tmp/ccGJHiMH.s:2212   .debug_str:0000000000000180 .LASF4
     /tmp/ccGJHiMH.s:2264   .debug_str:000000000000031a .LASF3
     /tmp/ccGJHiMH.s:2176   .debug_str:0000000000000087 .LASF5
     /tmp/ccGJHiMH.s:2192   .debug_str:00000000000000ed .LASF6
     /tmp/ccGJHiMH.s:2242   .debug_str:000000000000024e .LASF7
     /tmp/ccGJHiMH.s:2232   .debug_str:000000000000020c .LASF8
     /tmp/ccGJHiMH.s:2286   .debug_str:0000000000000491 .LASF9
     /tmp/ccGJHiMH.s:2208   .debug_str:0000000000000152 .LASF10
     /tmp/ccGJHiMH.s:2248   .debug_str:0000000000000284 .LASF11
     /tmp/ccGJHiMH.s:2278   .debug_str:0000000000000448 .LASF12
     /tmp/ccGJHiMH.s:2180   .debug_str:0000000000000098 .LASF13
     /tmp/ccGJHiMH.s:2162   .debug_str:000000000000000d .LASF14
     /tmp/ccGJHiMH.s:2186   .debug_str:00000000000000c4 .LASF15
     /tmp/ccGJHiMH.s:2258   .debug_str:00000000000002cc .LASF16
     /tmp/ccGJHiMH.s:2190   .debug_str:00000000000000d7 .LASF17
     /tmp/ccGJHiMH.s:2166   .debug_str:000000000000003b .LASF66
     /tmp/ccGJHiMH.s:2238   .debug_str:0000000000000236 .LASF18
     /tmp/ccGJHiMH.s:2256   .debug_str:00000000000002c4 .LASF19
     /tmp/ccGJHiMH.s:2198   .debug_str:0000000000000129 .LASF29
     /tmp/ccGJHiMH.s:2184   .debug_str:00000000000000b3 .LASF53
     /tmp/ccGJHiMH.s:2268   .debug_str:000000000000033b .LASF55
     /tmp/ccGJHiMH.s:2214   .debug_str:0000000000000187 .LASF20
     /tmp/ccGJHiMH.s:2204   .debug_str:000000000000013c .LASF21
     /tmp/ccGJHiMH.s:2288   .debug_str:00000000000004a1 .LASF22
     /tmp/ccGJHiMH.s:2292   .debug_str:00000000000004d0 .LASF23
     /tmp/ccGJHiMH.s:2170   .debug_str:0000000000000052 .LASF24
     /tmp/ccGJHiMH.s:2160   .debug_str:0000000000000000 .LASF25
     /tmp/ccGJHiMH.s:2216   .debug_str:000000000000018c .LASF26
     /tmp/ccGJHiMH.s:2236   .debug_str:000000000000022c .LASF27
     /tmp/ccGJHiMH.s:2174   .debug_str:0000000000000079 .LASF28
     /tmp/ccGJHiMH.s:2222   .debug_str:00000000000001ba .LASF31
     /tmp/ccGJHiMH.s:2274   .debug_str:0000000000000378 .LASF30
     /tmp/ccGJHiMH.s:2254   .debug_str:00000000000002a8 .LASF32
     /tmp/ccGJHiMH.s:2244   .debug_str:0000000000000261 .LASF33
     /tmp/ccGJHiMH.s:2262   .debug_str:0000000000000307 .LASF34
     /tmp/ccGJHiMH.s:2230   .debug_str:0000000000000200 .LASF35
     /tmp/ccGJHiMH.s:2196   .debug_str:000000000000010e .LASF37
     /tmp/ccGJHiMH.s:2182   .debug_str:00000000000000a8 .LASF36
     /tmp/ccGJHiMH.s:2194   .debug_str:00000000000000f4 .LASF38
     /tmp/ccGJHiMH.s:2178   .debug_str:000000000000008e .LASF39
     /tmp/ccGJHiMH.s:2280   .debug_str:0000000000000457 .LASF40
     /tmp/ccGJHiMH.s:2206   .debug_str:0000000000000143 .LASF41
     /tmp/ccGJHiMH.s:2164   .debug_str:000000000000001d .LASF42
     /tmp/ccGJHiMH.s:2266   .debug_str:000000000000032c .LASF43
GAS LISTING /tmp/ccGJHiMH.s 			page 18


     /tmp/ccGJHiMH.s:2246   .debug_str:0000000000000266 .LASF44
     /tmp/ccGJHiMH.s:2294   .debug_str:00000000000004d5 .LASF45
     /tmp/ccGJHiMH.s:2210   .debug_str:0000000000000160 .LASF46
     /tmp/ccGJHiMH.s:2168   .debug_str:0000000000000043 .LASF47
     /tmp/ccGJHiMH.s:2224   .debug_str:00000000000001ca .LASF48
     /tmp/ccGJHiMH.s:2220   .debug_str:00000000000001a4 .LASF49
     /tmp/ccGJHiMH.s:2290   .debug_str:00000000000004a6 .LASF50
     /tmp/ccGJHiMH.s:2200   .debug_str:0000000000000131 .LASF51
     /tmp/ccGJHiMH.s:2284   .debug_str:0000000000000479 .LASF52
     /tmp/ccGJHiMH.s:2228   .debug_str:00000000000001f8 .LASF54
     /tmp/ccGJHiMH.s:2172   .debug_str:000000000000005b .LASF56
     /tmp/ccGJHiMH.s:10     .text:0000000000000000 .LFB15
     /tmp/ccGJHiMH.s:62     .text:0000000000000044 .LFE15
     /tmp/ccGJHiMH.s:1992   .debug_loc:0000000000000000 .LLST0
     /tmp/ccGJHiMH.s:429    .text:0000000000000204 .LFB14
     /tmp/ccGJHiMH.s:495    .text:0000000000000250 .LFE14
     /tmp/ccGJHiMH.s:2252   .debug_str:00000000000002a3 .LASF61
     /tmp/ccGJHiMH.s:2218   .debug_str:0000000000000197 .LASF57
     /tmp/ccGJHiMH.s:2282   .debug_str:000000000000046f .LASF58
     /tmp/ccGJHiMH.s:2188   .debug_str:00000000000000d0 .LASF59
     /tmp/ccGJHiMH.s:2010   .debug_loc:000000000000004c .LLST9
     /tmp/ccGJHiMH.s:2272   .debug_str:000000000000036c .LASF60
     /tmp/ccGJHiMH.s:379    .text:00000000000001b4 .LFB13
     /tmp/ccGJHiMH.s:423    .text:0000000000000204 .LFE13
     /tmp/ccGJHiMH.s:2022   .debug_loc:0000000000000084 .LLST6
     /tmp/ccGJHiMH.s:2040   .debug_loc:00000000000000d0 .LLST7
     /tmp/ccGJHiMH.s:2054   .debug_loc:0000000000000109 .LLST8
     /tmp/ccGJHiMH.s:400    .text:00000000000001dc .LVL24
     /tmp/ccGJHiMH.s:406    .text:00000000000001ec .LVL25
     /tmp/ccGJHiMH.s:352    .text:0000000000000198 .LFB12
     /tmp/ccGJHiMH.s:373    .text:00000000000001b4 .LFE12
     /tmp/ccGJHiMH.s:325    .text:000000000000017c .LFB11
     /tmp/ccGJHiMH.s:346    .text:0000000000000198 .LFE11
     /tmp/ccGJHiMH.s:298    .text:0000000000000160 .LFB10
     /tmp/ccGJHiMH.s:319    .text:000000000000017c .LFE10
     /tmp/ccGJHiMH.s:2072   .debug_loc:0000000000000155 .LLST5
     /tmp/ccGJHiMH.s:271    .text:0000000000000144 .LFB9
     /tmp/ccGJHiMH.s:292    .text:0000000000000160 .LFE9
     /tmp/ccGJHiMH.s:2086   .debug_loc:000000000000018e .LLST4
     /tmp/ccGJHiMH.s:244    .text:0000000000000128 .LFB8
     /tmp/ccGJHiMH.s:265    .text:0000000000000144 .LFE8
     /tmp/ccGJHiMH.s:2100   .debug_loc:00000000000001c7 .LLST3
     /tmp/ccGJHiMH.s:177    .text:00000000000000c8 .LFB7
     /tmp/ccGJHiMH.s:238    .text:0000000000000128 .LFE7
     /tmp/ccGJHiMH.s:2202   .debug_str:0000000000000137 .LASF62
     /tmp/ccGJHiMH.s:190    .text:00000000000000d4 .LBB3
     /tmp/ccGJHiMH.s:214    .text:0000000000000104 .LBE3
     /tmp/ccGJHiMH.s:2113   .debug_loc:0000000000000200 .LLST2
     /tmp/ccGJHiMH.s:94     .text:000000000000005c .LFB6
     /tmp/ccGJHiMH.s:171    .text:00000000000000c8 .LFE6
     /tmp/ccGJHiMH.s:133    .text:000000000000008c .LBB2
     /tmp/ccGJHiMH.s:153    .text:00000000000000b0 .LBE2
     /tmp/ccGJHiMH.s:2129   .debug_loc:000000000000024a .LLST1
     /tmp/ccGJHiMH.s:2250   .debug_str:0000000000000293 .LASF67
     /tmp/ccGJHiMH.s:68     .text:0000000000000044 .LFB4
     /tmp/ccGJHiMH.s:86     .text:000000000000005c .LFE4
     /tmp/ccGJHiMH.s:14     .text:0000000000000000 .LVL0
GAS LISTING /tmp/ccGJHiMH.s 			page 19


     /tmp/ccGJHiMH.s:32     .text:000000000000001c .LVL1
     /tmp/ccGJHiMH.s:51     .text:0000000000000038 .LVL3
     /tmp/ccGJHiMH.s:462    .text:0000000000000230 .LVL29
     /tmp/ccGJHiMH.s:474    .text:0000000000000238 .LVL30
     /tmp/ccGJHiMH.s:382    .text:00000000000001b4 .LVL23
     /tmp/ccGJHiMH.s:415    .text:00000000000001f8 .LVL26
     /tmp/ccGJHiMH.s:418    .text:00000000000001fc .LVL27
     /tmp/ccGJHiMH.s:301    .text:0000000000000160 .LVL19
     /tmp/ccGJHiMH.s:311    .text:0000000000000170 .LVL20
     /tmp/ccGJHiMH.s:274    .text:0000000000000144 .LVL17
     /tmp/ccGJHiMH.s:284    .text:0000000000000154 .LVL18
     /tmp/ccGJHiMH.s:247    .text:0000000000000128 .LVL15
     /tmp/ccGJHiMH.s:257    .text:0000000000000138 .LVL16
     /tmp/ccGJHiMH.s:188    .text:00000000000000d4 .LVL11
     /tmp/ccGJHiMH.s:193    .text:00000000000000d8 .LVL12
     /tmp/ccGJHiMH.s:210    .text:0000000000000100 .LVL13
     /tmp/ccGJHiMH.s:212    .text:0000000000000104 .LVL14
     /tmp/ccGJHiMH.s:132    .text:000000000000008c .LVL6
     /tmp/ccGJHiMH.s:136    .text:0000000000000090 .LVL7
     /tmp/ccGJHiMH.s:149    .text:00000000000000ac .LVL8
     /tmp/ccGJHiMH.s:151    .text:00000000000000b0 .LVL9
     /tmp/ccGJHiMH.s:501    .debug_info:0000000000000000 .Ldebug_info0

NO UNDEFINED SYMBOLS
