GAS LISTING /tmp/ccETEn0k.s 			page 1


   1              		.file	"Thread.cpp"
   2              		.option pic
   3              		.option norelax
   4              		.text
   5              	.Ltext0:
   6              		.section	.text._ZN6Thread16threadTrampolineEPS_,"axG",@progbits,_ZN6Thread16threadTrampolineEPS_,c
   7              		.align	2
   8              		.weak	_ZN6Thread16threadTrampolineEPS_
  10              	_ZN6Thread16threadTrampolineEPS_:
  11              	.LFB0:
  12              		.file 1 "src/Thread.hpp"
   1:src/Thread.hpp **** //
   2:src/Thread.hpp **** // Created by os on 6/10/26.
   3:src/Thread.hpp **** //
   4:src/Thread.hpp **** 
   5:src/Thread.hpp **** #ifndef OSPROJEKAT_THREAD_H
   6:src/Thread.hpp **** #define OSPROJEKAT_THREAD_H
   7:src/Thread.hpp **** 
   8:src/Thread.hpp **** #include "../lib/hw.h"
   9:src/Thread.hpp **** struct Context {
  10:src/Thread.hpp ****     size_t* x[32];    // x0-x31, offsets 0x00-0xF
  11:src/Thread.hpp ****     size_t* sepc;     // offset 0x100
  12:src/Thread.hpp ****     size_t* sstatus;  // offset 0x108
  13:src/Thread.hpp **** };
  14:src/Thread.hpp **** 
  15:src/Thread.hpp **** class Thread{
  16:src/Thread.hpp **** private:
  17:src/Thread.hpp ****     static void threadTrampoline(Thread* t) {
  13              		.loc 1 17 17
  14              		.cfi_startproc
  15              	.LVL0:
  16 0000 130101FF 		addi	sp,sp,-16
  17              		.cfi_def_cfa_offset 16
  18 0004 23341100 		sd	ra,8(sp)
  19 0008 23308100 		sd	s0,0(sp)
  20              		.cfi_offset 1, -8
  21              		.cfi_offset 8, -16
  22 000c 13040101 		addi	s0,sp,16
  23              		.cfi_def_cfa 8, 0
  18:src/Thread.hpp ****         t->run();
  24              		.loc 1 18 9
  25              		.loc 1 18 16 is_stmt 0
  26 0010 83370500 		ld	a5,0(a0)
  27 0014 83B70700 		ld	a5,0(a5)
  28              		.loc 1 18 15
  29 0018 E7800700 		jalr	a5
  30              	.LVL1:
  19:src/Thread.hpp ****     }
  31              		.loc 1 19 5
  32 001c 83308100 		ld	ra,8(sp)
  33              		.cfi_restore 1
  34 0020 03340100 		ld	s0,0(sp)
  35              		.cfi_restore 8
  36              		.cfi_def_cfa 2, 16
  37 0024 13010101 		addi	sp,sp,16
  38              		.cfi_def_cfa_offset 0
  39 0028 67800000 		jr	ra
GAS LISTING /tmp/ccETEn0k.s 			page 2


  40              		.cfi_endproc
  41              	.LFE0:
  43              		.text
  44              		.align	2
  45              		.globl	_ZN6Thread3runEv
  47              	_ZN6Thread3runEv:
  48              	.LFB11:
  49              		.file 2 "src/Thread.cpp"
   1:src/Thread.cpp **** //
   2:src/Thread.cpp **** // Created by os on 6/10/26.
   3:src/Thread.cpp **** //
   4:src/Thread.cpp **** 
   5:src/Thread.cpp **** #include "Thread.hpp"
   6:src/Thread.cpp **** #include "Scheduler.hpp"
   7:src/Thread.cpp **** 
   8:src/Thread.cpp **** #include "../lib/console.h"
   9:src/Thread.cpp **** 
  10:src/Thread.cpp **** Thread::Thread() {
  11:src/Thread.cpp **** 
  12:src/Thread.cpp **** }
  13:src/Thread.cpp **** size_t* Thread::getContext() {
  14:src/Thread.cpp ****     return threadContext.x[0];
  15:src/Thread.cpp **** }
  16:src/Thread.cpp **** Thread* Thread::getNextInQueue(){
  17:src/Thread.cpp ****     return next;
  18:src/Thread.cpp **** }
  19:src/Thread.cpp **** Thread* Thread::getPrevInQueue(){
  20:src/Thread.cpp ****     return prev;
  21:src/Thread.cpp **** }
  22:src/Thread.cpp **** void Thread::setNextInQueue(Thread* next){
  23:src/Thread.cpp ****     this->next = next;
  24:src/Thread.cpp **** }
  25:src/Thread.cpp **** void Thread::setPrevInQueue(Thread* prev){
  26:src/Thread.cpp ****     this->prev = prev;
  27:src/Thread.cpp **** }
  28:src/Thread.cpp **** void Thread::setNextAndPrevInQueue(Thread* next, Thread* prev){
  29:src/Thread.cpp ****     setNextInQueue(next);
  30:src/Thread.cpp ****     setPrevInQueue(prev);
  31:src/Thread.cpp **** }
  32:src/Thread.cpp **** void Thread::start(){
  33:src/Thread.cpp ****     Scheduler::AddNewThread(this);
  34:src/Thread.cpp ****     this->threadContext.x[5] = reinterpret_cast<size_t*>(&Thread::threadTrampoline);
  35:src/Thread.cpp ****     this->threadContext.x[10] = reinterpret_cast<size_t*>(this);
  36:src/Thread.cpp ****     Scheduler::yield(nullptr,this);
  37:src/Thread.cpp **** }
  38:src/Thread.cpp **** void Thread::run(){
  50              		.loc 2 38 19 is_stmt 1
  51              		.cfi_startproc
  52              	.LVL2:
  53 0000 130101FF 		addi	sp,sp,-16
  54              		.cfi_def_cfa_offset 16
  55 0004 23341100 		sd	ra,8(sp)
  56 0008 23308100 		sd	s0,0(sp)
  57              		.cfi_offset 1, -8
  58              		.cfi_offset 8, -16
  59 000c 13040101 		addi	s0,sp,16
  60              		.cfi_def_cfa 8, 0
GAS LISTING /tmp/ccETEn0k.s 			page 3


  39:src/Thread.cpp ****     __putc('{');
  61              		.loc 2 39 5
  62              		.loc 2 39 11 is_stmt 0
  63 0010 1305B007 		li	a0,123
  64              	.LVL3:
  65 0014 97000000 		call	__putc@plt
  65      E7800000 
  66              	.LVL4:
  40:src/Thread.cpp **** }
  67              		.loc 2 40 1
  68 001c 83308100 		ld	ra,8(sp)
  69              		.cfi_restore 1
  70 0020 03340100 		ld	s0,0(sp)
  71              		.cfi_restore 8
  72              		.cfi_def_cfa 2, 16
  73 0024 13010101 		addi	sp,sp,16
  74              		.cfi_def_cfa_offset 0
  75 0028 67800000 		jr	ra
  76              		.cfi_endproc
  77              	.LFE11:
  79              		.align	2
  80              		.globl	_ZN6ThreadC2Ev
  82              	_ZN6ThreadC2Ev:
  83              	.LFB2:
  10:src/Thread.cpp **** 
  84              		.loc 2 10 1 is_stmt 1
  85              		.cfi_startproc
  86              	.LVL5:
  87 002c 130101FF 		addi	sp,sp,-16
  88              		.cfi_def_cfa_offset 16
  89 0030 23348100 		sd	s0,8(sp)
  90              		.cfi_offset 8, -8
  91 0034 13040101 		addi	s0,sp,16
  92              		.cfi_def_cfa 8, 0
  93              	.LBB2:
  10:src/Thread.cpp **** 
  94              		.loc 2 10 16 is_stmt 0
  95 0038 97070000 		lla	a5,_ZTV6Thread+16
  95      93870700 
  96 0040 2330F500 		sd	a5,0(a0)
  97              	.LBE2:
  12:src/Thread.cpp **** size_t* Thread::getContext() {
  98              		.loc 2 12 1
  99 0044 03348100 		ld	s0,8(sp)
 100              		.cfi_restore 8
 101              		.cfi_def_cfa 2, 16
 102 0048 13010101 		addi	sp,sp,16
 103              		.cfi_def_cfa_offset 0
 104 004c 67800000 		jr	ra
 105              		.cfi_endproc
 106              	.LFE2:
 108              		.globl	_ZN6ThreadC1Ev
 109              		.set	_ZN6ThreadC1Ev,_ZN6ThreadC2Ev
 110              		.align	2
 111              		.globl	_ZN6Thread10getContextEv
 113              	_ZN6Thread10getContextEv:
 114              	.LFB4:
GAS LISTING /tmp/ccETEn0k.s 			page 4


  13:src/Thread.cpp ****     return threadContext.x[0];
 115              		.loc 2 13 30 is_stmt 1
 116              		.cfi_startproc
 117              	.LVL6:
 118 0050 130101FF 		addi	sp,sp,-16
 119              		.cfi_def_cfa_offset 16
 120 0054 23348100 		sd	s0,8(sp)
 121              		.cfi_offset 8, -8
 122 0058 13040101 		addi	s0,sp,16
 123              		.cfi_def_cfa 8, 0
  14:src/Thread.cpp **** }
 124              		.loc 2 14 5
  15:src/Thread.cpp **** Thread* Thread::getNextInQueue(){
 125              		.loc 2 15 1 is_stmt 0
 126 005c 03358500 		ld	a0,8(a0)
 127              	.LVL7:
 128 0060 03348100 		ld	s0,8(sp)
 129              		.cfi_restore 8
 130              		.cfi_def_cfa 2, 16
 131 0064 13010101 		addi	sp,sp,16
 132              		.cfi_def_cfa_offset 0
 133 0068 67800000 		jr	ra
 134              		.cfi_endproc
 135              	.LFE4:
 137              		.align	2
 138              		.globl	_ZN6Thread14getNextInQueueEv
 140              	_ZN6Thread14getNextInQueueEv:
 141              	.LFB5:
  16:src/Thread.cpp ****     return next;
 142              		.loc 2 16 33 is_stmt 1
 143              		.cfi_startproc
 144              	.LVL8:
 145 006c 130101FF 		addi	sp,sp,-16
 146              		.cfi_def_cfa_offset 16
 147 0070 23348100 		sd	s0,8(sp)
 148              		.cfi_offset 8, -8
 149 0074 13040101 		addi	s0,sp,16
 150              		.cfi_def_cfa 8, 0
  17:src/Thread.cpp **** }
 151              		.loc 2 17 5
  18:src/Thread.cpp **** Thread* Thread::getPrevInQueue(){
 152              		.loc 2 18 1 is_stmt 0
 153 0078 03350512 		ld	a0,288(a0)
 154              	.LVL9:
 155 007c 03348100 		ld	s0,8(sp)
 156              		.cfi_restore 8
 157              		.cfi_def_cfa 2, 16
 158 0080 13010101 		addi	sp,sp,16
 159              		.cfi_def_cfa_offset 0
 160 0084 67800000 		jr	ra
 161              		.cfi_endproc
 162              	.LFE5:
 164              		.align	2
 165              		.globl	_ZN6Thread14getPrevInQueueEv
 167              	_ZN6Thread14getPrevInQueueEv:
 168              	.LFB6:
  19:src/Thread.cpp ****     return prev;
GAS LISTING /tmp/ccETEn0k.s 			page 5


 169              		.loc 2 19 33 is_stmt 1
 170              		.cfi_startproc
 171              	.LVL10:
 172 0088 130101FF 		addi	sp,sp,-16
 173              		.cfi_def_cfa_offset 16
 174 008c 23348100 		sd	s0,8(sp)
 175              		.cfi_offset 8, -8
 176 0090 13040101 		addi	s0,sp,16
 177              		.cfi_def_cfa 8, 0
  20:src/Thread.cpp **** }
 178              		.loc 2 20 5
  21:src/Thread.cpp **** void Thread::setNextInQueue(Thread* next){
 179              		.loc 2 21 1 is_stmt 0
 180 0094 03358511 		ld	a0,280(a0)
 181              	.LVL11:
 182 0098 03348100 		ld	s0,8(sp)
 183              		.cfi_restore 8
 184              		.cfi_def_cfa 2, 16
 185 009c 13010101 		addi	sp,sp,16
 186              		.cfi_def_cfa_offset 0
 187 00a0 67800000 		jr	ra
 188              		.cfi_endproc
 189              	.LFE6:
 191              		.align	2
 192              		.globl	_ZN6Thread14setNextInQueueEPS_
 194              	_ZN6Thread14setNextInQueueEPS_:
 195              	.LFB7:
  22:src/Thread.cpp ****     this->next = next;
 196              		.loc 2 22 42 is_stmt 1
 197              		.cfi_startproc
 198              	.LVL12:
 199 00a4 130101FF 		addi	sp,sp,-16
 200              		.cfi_def_cfa_offset 16
 201 00a8 23348100 		sd	s0,8(sp)
 202              		.cfi_offset 8, -8
 203 00ac 13040101 		addi	s0,sp,16
 204              		.cfi_def_cfa 8, 0
  23:src/Thread.cpp **** }
 205              		.loc 2 23 5
  23:src/Thread.cpp **** }
 206              		.loc 2 23 16 is_stmt 0
 207 00b0 2330B512 		sd	a1,288(a0)
  24:src/Thread.cpp **** void Thread::setPrevInQueue(Thread* prev){
 208              		.loc 2 24 1
 209 00b4 03348100 		ld	s0,8(sp)
 210              		.cfi_restore 8
 211              		.cfi_def_cfa 2, 16
 212 00b8 13010101 		addi	sp,sp,16
 213              		.cfi_def_cfa_offset 0
 214 00bc 67800000 		jr	ra
 215              		.cfi_endproc
 216              	.LFE7:
 218              		.align	2
 219              		.globl	_ZN6Thread14setPrevInQueueEPS_
 221              	_ZN6Thread14setPrevInQueueEPS_:
 222              	.LFB8:
  25:src/Thread.cpp ****     this->prev = prev;
GAS LISTING /tmp/ccETEn0k.s 			page 6


 223              		.loc 2 25 42 is_stmt 1
 224              		.cfi_startproc
 225              	.LVL13:
 226 00c0 130101FF 		addi	sp,sp,-16
 227              		.cfi_def_cfa_offset 16
 228 00c4 23348100 		sd	s0,8(sp)
 229              		.cfi_offset 8, -8
 230 00c8 13040101 		addi	s0,sp,16
 231              		.cfi_def_cfa 8, 0
  26:src/Thread.cpp **** }
 232              		.loc 2 26 5
  26:src/Thread.cpp **** }
 233              		.loc 2 26 16 is_stmt 0
 234 00cc 233CB510 		sd	a1,280(a0)
  27:src/Thread.cpp **** void Thread::setNextAndPrevInQueue(Thread* next, Thread* prev){
 235              		.loc 2 27 1
 236 00d0 03348100 		ld	s0,8(sp)
 237              		.cfi_restore 8
 238              		.cfi_def_cfa 2, 16
 239 00d4 13010101 		addi	sp,sp,16
 240              		.cfi_def_cfa_offset 0
 241 00d8 67800000 		jr	ra
 242              		.cfi_endproc
 243              	.LFE8:
 245              		.align	2
 246              		.globl	_ZN6Thread21setNextAndPrevInQueueEPS_S0_
 248              	_ZN6Thread21setNextAndPrevInQueueEPS_S0_:
 249              	.LFB9:
  28:src/Thread.cpp ****     setNextInQueue(next);
 250              		.loc 2 28 63 is_stmt 1
 251              		.cfi_startproc
 252              	.LVL14:
 253 00dc 130101FE 		addi	sp,sp,-32
 254              		.cfi_def_cfa_offset 32
 255 00e0 233C1100 		sd	ra,24(sp)
 256 00e4 23388100 		sd	s0,16(sp)
 257 00e8 23349100 		sd	s1,8(sp)
 258 00ec 23302101 		sd	s2,0(sp)
 259              		.cfi_offset 1, -8
 260              		.cfi_offset 8, -16
 261              		.cfi_offset 9, -24
 262              		.cfi_offset 18, -32
 263 00f0 13040102 		addi	s0,sp,32
 264              		.cfi_def_cfa 8, 0
 265 00f4 93040500 		mv	s1,a0
 266 00f8 13090600 		mv	s2,a2
  29:src/Thread.cpp ****     setPrevInQueue(prev);
 267              		.loc 2 29 5
  29:src/Thread.cpp ****     setPrevInQueue(prev);
 268              		.loc 2 29 19 is_stmt 0
 269 00fc 97000000 		call	_ZN6Thread14setNextInQueueEPS_
 269      E7800000 
 270              	.LVL15:
  30:src/Thread.cpp **** }
 271              		.loc 2 30 5 is_stmt 1
  30:src/Thread.cpp **** }
 272              		.loc 2 30 19 is_stmt 0
GAS LISTING /tmp/ccETEn0k.s 			page 7


 273 0104 93050900 		mv	a1,s2
 274 0108 13850400 		mv	a0,s1
 275 010c 97000000 		call	_ZN6Thread14setPrevInQueueEPS_
 275      E7800000 
 276              	.LVL16:
  31:src/Thread.cpp **** void Thread::start(){
 277              		.loc 2 31 1
 278 0114 83308101 		ld	ra,24(sp)
 279              		.cfi_restore 1
 280 0118 03340101 		ld	s0,16(sp)
 281              		.cfi_restore 8
 282              		.cfi_def_cfa 2, 32
 283 011c 83348100 		ld	s1,8(sp)
 284              		.cfi_restore 9
 285              	.LVL17:
 286 0120 03390100 		ld	s2,0(sp)
 287              		.cfi_restore 18
 288              	.LVL18:
 289 0124 13010102 		addi	sp,sp,32
 290              		.cfi_def_cfa_offset 0
 291 0128 67800000 		jr	ra
 292              		.cfi_endproc
 293              	.LFE9:
 295              		.align	2
 296              		.globl	_ZN6Thread5startEv
 298              	_ZN6Thread5startEv:
 299              	.LFB10:
  32:src/Thread.cpp ****     Scheduler::AddNewThread(this);
 300              		.loc 2 32 21 is_stmt 1
 301              		.cfi_startproc
 302              	.LVL19:
 303 012c 130101FE 		addi	sp,sp,-32
 304              		.cfi_def_cfa_offset 32
 305 0130 233C1100 		sd	ra,24(sp)
 306 0134 23388100 		sd	s0,16(sp)
 307 0138 23349100 		sd	s1,8(sp)
 308              		.cfi_offset 1, -8
 309              		.cfi_offset 8, -16
 310              		.cfi_offset 9, -24
 311 013c 13040102 		addi	s0,sp,32
 312              		.cfi_def_cfa 8, 0
 313 0140 93040500 		mv	s1,a0
  33:src/Thread.cpp ****     this->threadContext.x[5] = reinterpret_cast<size_t*>(&Thread::threadTrampoline);
 314              		.loc 2 33 5
  33:src/Thread.cpp ****     this->threadContext.x[5] = reinterpret_cast<size_t*>(&Thread::threadTrampoline);
 315              		.loc 2 33 28 is_stmt 0
 316 0144 97000000 		call	_ZN9Scheduler12AddNewThreadEP6Thread@plt
 316      E7800000 
 317              	.LVL20:
  34:src/Thread.cpp ****     this->threadContext.x[10] = reinterpret_cast<size_t*>(this);
 318              		.loc 2 34 5 is_stmt 1
  34:src/Thread.cpp ****     this->threadContext.x[10] = reinterpret_cast<size_t*>(this);
 319              		.loc 2 34 30 is_stmt 0
 320 014c 97070000 		lla	a5,_ZN6Thread16threadTrampolineEPS_
 320      93870700 
 321 0154 23B8F402 		sd	a5,48(s1)
  35:src/Thread.cpp ****     Scheduler::yield(nullptr,this);
GAS LISTING /tmp/ccETEn0k.s 			page 8


 322              		.loc 2 35 5 is_stmt 1
  35:src/Thread.cpp ****     Scheduler::yield(nullptr,this);
 323              		.loc 2 35 31 is_stmt 0
 324 0158 23BC9404 		sd	s1,88(s1)
  36:src/Thread.cpp **** }
 325              		.loc 2 36 5 is_stmt 1
  36:src/Thread.cpp **** }
 326              		.loc 2 36 21 is_stmt 0
 327 015c 93850400 		mv	a1,s1
 328 0160 13050000 		li	a0,0
 329 0164 97000000 		call	_ZN9Scheduler5yieldEP6ThreadS1_@plt
 329      E7800000 
 330              	.LVL21:
  37:src/Thread.cpp **** void Thread::run(){
 331              		.loc 2 37 1
 332 016c 83308101 		ld	ra,24(sp)
 333              		.cfi_restore 1
 334 0170 03340101 		ld	s0,16(sp)
 335              		.cfi_restore 8
 336              		.cfi_def_cfa 2, 32
 337 0174 83348100 		ld	s1,8(sp)
 338              		.cfi_restore 9
 339              	.LVL22:
 340 0178 13010102 		addi	sp,sp,32
 341              		.cfi_def_cfa_offset 0
 342 017c 67800000 		jr	ra
 343              		.cfi_endproc
 344              	.LFE10:
 346              		.align	2
 347              		.globl	_ZN6Thread4joinEv
 349              	_ZN6Thread4joinEv:
 350              	.LFB12:
  41:src/Thread.cpp **** void Thread::join(){
 351              		.loc 2 41 20 is_stmt 1
 352              		.cfi_startproc
 353              	.LVL23:
 354 0180 130101FF 		addi	sp,sp,-16
 355              		.cfi_def_cfa_offset 16
 356 0184 23348100 		sd	s0,8(sp)
 357              		.cfi_offset 8, -8
 358 0188 13040101 		addi	s0,sp,16
 359              		.cfi_def_cfa 8, 0
  42:src/Thread.cpp **** 
  43:src/Thread.cpp **** }
 360              		.loc 2 43 1 is_stmt 0
 361 018c 03348100 		ld	s0,8(sp)
 362              		.cfi_restore 8
 363              		.cfi_def_cfa 2, 16
 364 0190 13010101 		addi	sp,sp,16
 365              		.cfi_def_cfa_offset 0
 366 0194 67800000 		jr	ra
 367              		.cfi_endproc
 368              	.LFE12:
 370              		.align	2
 371              		.globl	_ZN6Thread11setStackPtrEPm
 373              	_ZN6Thread11setStackPtrEPm:
 374              	.LFB13:
GAS LISTING /tmp/ccETEn0k.s 			page 9


  44:src/Thread.cpp **** void Thread::setStackPtr(size_t* stackPtr) {
 375              		.loc 2 44 44 is_stmt 1
 376              		.cfi_startproc
 377              	.LVL24:
 378 0198 130101FF 		addi	sp,sp,-16
 379              		.cfi_def_cfa_offset 16
 380 019c 23348100 		sd	s0,8(sp)
 381              		.cfi_offset 8, -8
 382 01a0 13040101 		addi	s0,sp,16
 383              		.cfi_def_cfa 8, 0
  45:src/Thread.cpp ****     this->stackPtr = stackPtr;
 384              		.loc 2 45 5
 385              		.loc 2 45 20 is_stmt 0
 386 01a4 2334B512 		sd	a1,296(a0)
  46:src/Thread.cpp **** }
 387              		.loc 2 46 1
 388 01a8 03348100 		ld	s0,8(sp)
 389              		.cfi_restore 8
 390              		.cfi_def_cfa 2, 16
 391 01ac 13010101 		addi	sp,sp,16
 392              		.cfi_def_cfa_offset 0
 393 01b0 67800000 		jr	ra
 394              		.cfi_endproc
 395              	.LFE13:
 397              		.align	2
 398              		.globl	_ZN6Thread15setSupervisorSpEPm
 400              	_ZN6Thread15setSupervisorSpEPm:
 401              	.LFB14:
  47:src/Thread.cpp **** 
  48:src/Thread.cpp **** void Thread::setSupervisorSp(size_t* supervisorSp) {
 402              		.loc 2 48 52 is_stmt 1
 403              		.cfi_startproc
 404              	.LVL25:
 405 01b4 130101FF 		addi	sp,sp,-16
 406              		.cfi_def_cfa_offset 16
 407 01b8 23348100 		sd	s0,8(sp)
 408              		.cfi_offset 8, -8
 409 01bc 13040101 		addi	s0,sp,16
 410              		.cfi_def_cfa 8, 0
  49:src/Thread.cpp ****     this->supervisorSp = supervisorSp;
 411              		.loc 2 49 5
 412              		.loc 2 49 24 is_stmt 0
 413 01c0 B7870000 		li	a5,32768
 414 01c4 3305F500 		add	a0,a0,a5
 415              	.LVL26:
 416 01c8 2338B512 		sd	a1,304(a0)
  50:src/Thread.cpp **** }
 417              		.loc 2 50 1
 418 01cc 03348100 		ld	s0,8(sp)
 419              		.cfi_restore 8
 420              		.cfi_def_cfa 2, 16
 421 01d0 13010101 		addi	sp,sp,16
 422              		.cfi_def_cfa_offset 0
 423 01d4 67800000 		jr	ra
 424              		.cfi_endproc
 425              	.LFE14:
 427              		.weak	_ZTV6Thread
GAS LISTING /tmp/ccETEn0k.s 			page 10


 428              		.section	.data.rel.ro.local._ZTV6Thread,"awG",@progbits,_ZTV6Thread,comdat
 429              		.align	3
 432              	_ZTV6Thread:
 433 0000 00000000 		.dword	0
 433      00000000 
 434 0008 00000000 		.dword	0
 434      00000000 
 435 0010 00000000 		.dword	_ZN6Thread3runEv
 435      00000000 
 436              		.text
 437              	.Letext0:
 438              		.file 3 "src/../lib/hw.h"
 439              		.file 4 "src/Scheduler.hpp"
 440              		.file 5 "src/../lib/console.h"
GAS LISTING /tmp/ccETEn0k.s 			page 11


DEFINED SYMBOLS
                            *ABS*:0000000000000000 Thread.cpp
     /tmp/ccETEn0k.s:10     .text._ZN6Thread16threadTrampolineEPS_:0000000000000000 _ZN6Thread16threadTrampolineEPS_
     /tmp/ccETEn0k.s:14     .text._ZN6Thread16threadTrampolineEPS_:0000000000000000 .L0 
     /tmp/ccETEn0k.s:16     .text._ZN6Thread16threadTrampolineEPS_:0000000000000000 .L0 
     /tmp/ccETEn0k.s:17     .text._ZN6Thread16threadTrampolineEPS_:0000000000000004 .L0 
     /tmp/ccETEn0k.s:20     .text._ZN6Thread16threadTrampolineEPS_:000000000000000c .L0 
     /tmp/ccETEn0k.s:21     .text._ZN6Thread16threadTrampolineEPS_:000000000000000c .L0 
     /tmp/ccETEn0k.s:23     .text._ZN6Thread16threadTrampolineEPS_:0000000000000010 .L0 
     /tmp/ccETEn0k.s:25     .text._ZN6Thread16threadTrampolineEPS_:0000000000000010 .L0 
     /tmp/ccETEn0k.s:26     .text._ZN6Thread16threadTrampolineEPS_:0000000000000010 .L0 
     /tmp/ccETEn0k.s:29     .text._ZN6Thread16threadTrampolineEPS_:0000000000000018 .L0 
     /tmp/ccETEn0k.s:32     .text._ZN6Thread16threadTrampolineEPS_:000000000000001c .L0 
     /tmp/ccETEn0k.s:33     .text._ZN6Thread16threadTrampolineEPS_:0000000000000020 .L0 
     /tmp/ccETEn0k.s:35     .text._ZN6Thread16threadTrampolineEPS_:0000000000000024 .L0 
     /tmp/ccETEn0k.s:36     .text._ZN6Thread16threadTrampolineEPS_:0000000000000024 .L0 
     /tmp/ccETEn0k.s:38     .text._ZN6Thread16threadTrampolineEPS_:0000000000000028 .L0 
     /tmp/ccETEn0k.s:40     .text._ZN6Thread16threadTrampolineEPS_:000000000000002c .L0 
     /tmp/ccETEn0k.s:47     .text:0000000000000000 _ZN6Thread3runEv
     /tmp/ccETEn0k.s:51     .text:0000000000000000 .L0 
     /tmp/ccETEn0k.s:53     .text:0000000000000000 .L0 
     /tmp/ccETEn0k.s:54     .text:0000000000000004 .L0 
     /tmp/ccETEn0k.s:57     .text:000000000000000c .L0 
     /tmp/ccETEn0k.s:58     .text:000000000000000c .L0 
     /tmp/ccETEn0k.s:60     .text:0000000000000010 .L0 
     /tmp/ccETEn0k.s:62     .text:0000000000000010 .L0 
     /tmp/ccETEn0k.s:63     .text:0000000000000010 .L0 
     /tmp/ccETEn0k.s:68     .text:000000000000001c .L0 
     /tmp/ccETEn0k.s:69     .text:0000000000000020 .L0 
     /tmp/ccETEn0k.s:71     .text:0000000000000024 .L0 
     /tmp/ccETEn0k.s:72     .text:0000000000000024 .L0 
     /tmp/ccETEn0k.s:74     .text:0000000000000028 .L0 
     /tmp/ccETEn0k.s:76     .text:000000000000002c .L0 
     /tmp/ccETEn0k.s:82     .text:000000000000002c _ZN6ThreadC2Ev
     /tmp/ccETEn0k.s:85     .text:000000000000002c .L0 
     /tmp/ccETEn0k.s:87     .text:000000000000002c .L0 
     /tmp/ccETEn0k.s:88     .text:0000000000000030 .L0 
     /tmp/ccETEn0k.s:90     .text:0000000000000034 .L0 
     /tmp/ccETEn0k.s:92     .text:0000000000000038 .L0 
     /tmp/ccETEn0k.s:432    .data.rel.ro.local._ZTV6Thread:0000000000000000 _ZTV6Thread
     /tmp/ccETEn0k.s:95     .text:0000000000000038 .L0 
     /tmp/ccETEn0k.s:99     .text:0000000000000044 .L0 
     /tmp/ccETEn0k.s:100    .text:0000000000000048 .L0 
     /tmp/ccETEn0k.s:101    .text:0000000000000048 .L0 
     /tmp/ccETEn0k.s:103    .text:000000000000004c .L0 
     /tmp/ccETEn0k.s:105    .text:0000000000000050 .L0 
     /tmp/ccETEn0k.s:82     .text:000000000000002c _ZN6ThreadC1Ev
     /tmp/ccETEn0k.s:113    .text:0000000000000050 _ZN6Thread10getContextEv
     /tmp/ccETEn0k.s:116    .text:0000000000000050 .L0 
     /tmp/ccETEn0k.s:118    .text:0000000000000050 .L0 
     /tmp/ccETEn0k.s:119    .text:0000000000000054 .L0 
     /tmp/ccETEn0k.s:121    .text:0000000000000058 .L0 
     /tmp/ccETEn0k.s:123    .text:000000000000005c .L0 
     /tmp/ccETEn0k.s:125    .text:000000000000005c .L0 
     /tmp/ccETEn0k.s:126    .text:000000000000005c .L0 
     /tmp/ccETEn0k.s:129    .text:0000000000000064 .L0 
     /tmp/ccETEn0k.s:130    .text:0000000000000064 .L0 
GAS LISTING /tmp/ccETEn0k.s 			page 12


     /tmp/ccETEn0k.s:132    .text:0000000000000068 .L0 
     /tmp/ccETEn0k.s:134    .text:000000000000006c .L0 
     /tmp/ccETEn0k.s:140    .text:000000000000006c _ZN6Thread14getNextInQueueEv
     /tmp/ccETEn0k.s:143    .text:000000000000006c .L0 
     /tmp/ccETEn0k.s:145    .text:000000000000006c .L0 
     /tmp/ccETEn0k.s:146    .text:0000000000000070 .L0 
     /tmp/ccETEn0k.s:148    .text:0000000000000074 .L0 
     /tmp/ccETEn0k.s:150    .text:0000000000000078 .L0 
     /tmp/ccETEn0k.s:152    .text:0000000000000078 .L0 
     /tmp/ccETEn0k.s:153    .text:0000000000000078 .L0 
     /tmp/ccETEn0k.s:156    .text:0000000000000080 .L0 
     /tmp/ccETEn0k.s:157    .text:0000000000000080 .L0 
     /tmp/ccETEn0k.s:159    .text:0000000000000084 .L0 
     /tmp/ccETEn0k.s:161    .text:0000000000000088 .L0 
     /tmp/ccETEn0k.s:167    .text:0000000000000088 _ZN6Thread14getPrevInQueueEv
     /tmp/ccETEn0k.s:170    .text:0000000000000088 .L0 
     /tmp/ccETEn0k.s:172    .text:0000000000000088 .L0 
     /tmp/ccETEn0k.s:173    .text:000000000000008c .L0 
     /tmp/ccETEn0k.s:175    .text:0000000000000090 .L0 
     /tmp/ccETEn0k.s:177    .text:0000000000000094 .L0 
     /tmp/ccETEn0k.s:179    .text:0000000000000094 .L0 
     /tmp/ccETEn0k.s:180    .text:0000000000000094 .L0 
     /tmp/ccETEn0k.s:183    .text:000000000000009c .L0 
     /tmp/ccETEn0k.s:184    .text:000000000000009c .L0 
     /tmp/ccETEn0k.s:186    .text:00000000000000a0 .L0 
     /tmp/ccETEn0k.s:188    .text:00000000000000a4 .L0 
     /tmp/ccETEn0k.s:194    .text:00000000000000a4 _ZN6Thread14setNextInQueueEPS_
     /tmp/ccETEn0k.s:197    .text:00000000000000a4 .L0 
     /tmp/ccETEn0k.s:199    .text:00000000000000a4 .L0 
     /tmp/ccETEn0k.s:200    .text:00000000000000a8 .L0 
     /tmp/ccETEn0k.s:202    .text:00000000000000ac .L0 
     /tmp/ccETEn0k.s:204    .text:00000000000000b0 .L0 
     /tmp/ccETEn0k.s:206    .text:00000000000000b0 .L0 
     /tmp/ccETEn0k.s:207    .text:00000000000000b0 .L0 
     /tmp/ccETEn0k.s:209    .text:00000000000000b4 .L0 
     /tmp/ccETEn0k.s:210    .text:00000000000000b8 .L0 
     /tmp/ccETEn0k.s:211    .text:00000000000000b8 .L0 
     /tmp/ccETEn0k.s:213    .text:00000000000000bc .L0 
     /tmp/ccETEn0k.s:215    .text:00000000000000c0 .L0 
     /tmp/ccETEn0k.s:221    .text:00000000000000c0 _ZN6Thread14setPrevInQueueEPS_
     /tmp/ccETEn0k.s:224    .text:00000000000000c0 .L0 
     /tmp/ccETEn0k.s:226    .text:00000000000000c0 .L0 
     /tmp/ccETEn0k.s:227    .text:00000000000000c4 .L0 
     /tmp/ccETEn0k.s:229    .text:00000000000000c8 .L0 
     /tmp/ccETEn0k.s:231    .text:00000000000000cc .L0 
     /tmp/ccETEn0k.s:233    .text:00000000000000cc .L0 
     /tmp/ccETEn0k.s:234    .text:00000000000000cc .L0 
     /tmp/ccETEn0k.s:236    .text:00000000000000d0 .L0 
     /tmp/ccETEn0k.s:237    .text:00000000000000d4 .L0 
     /tmp/ccETEn0k.s:238    .text:00000000000000d4 .L0 
     /tmp/ccETEn0k.s:240    .text:00000000000000d8 .L0 
     /tmp/ccETEn0k.s:242    .text:00000000000000dc .L0 
     /tmp/ccETEn0k.s:248    .text:00000000000000dc _ZN6Thread21setNextAndPrevInQueueEPS_S0_
     /tmp/ccETEn0k.s:251    .text:00000000000000dc .L0 
     /tmp/ccETEn0k.s:253    .text:00000000000000dc .L0 
     /tmp/ccETEn0k.s:254    .text:00000000000000e0 .L0 
     /tmp/ccETEn0k.s:259    .text:00000000000000f0 .L0 
GAS LISTING /tmp/ccETEn0k.s 			page 13


     /tmp/ccETEn0k.s:260    .text:00000000000000f0 .L0 
     /tmp/ccETEn0k.s:261    .text:00000000000000f0 .L0 
     /tmp/ccETEn0k.s:262    .text:00000000000000f0 .L0 
     /tmp/ccETEn0k.s:264    .text:00000000000000f4 .L0 
     /tmp/ccETEn0k.s:268    .text:00000000000000fc .L0 
     /tmp/ccETEn0k.s:269    .text:00000000000000fc .L0 
     /tmp/ccETEn0k.s:272    .text:0000000000000104 .L0 
     /tmp/ccETEn0k.s:273    .text:0000000000000104 .L0 
     /tmp/ccETEn0k.s:278    .text:0000000000000114 .L0 
     /tmp/ccETEn0k.s:279    .text:0000000000000118 .L0 
     /tmp/ccETEn0k.s:281    .text:000000000000011c .L0 
     /tmp/ccETEn0k.s:282    .text:000000000000011c .L0 
     /tmp/ccETEn0k.s:284    .text:0000000000000120 .L0 
     /tmp/ccETEn0k.s:287    .text:0000000000000124 .L0 
     /tmp/ccETEn0k.s:290    .text:0000000000000128 .L0 
     /tmp/ccETEn0k.s:292    .text:000000000000012c .L0 
     /tmp/ccETEn0k.s:298    .text:000000000000012c _ZN6Thread5startEv
     /tmp/ccETEn0k.s:301    .text:000000000000012c .L0 
     /tmp/ccETEn0k.s:303    .text:000000000000012c .L0 
     /tmp/ccETEn0k.s:304    .text:0000000000000130 .L0 
     /tmp/ccETEn0k.s:308    .text:000000000000013c .L0 
     /tmp/ccETEn0k.s:309    .text:000000000000013c .L0 
     /tmp/ccETEn0k.s:310    .text:000000000000013c .L0 
     /tmp/ccETEn0k.s:312    .text:0000000000000140 .L0 
     /tmp/ccETEn0k.s:315    .text:0000000000000144 .L0 
     /tmp/ccETEn0k.s:316    .text:0000000000000144 .L0 
     /tmp/ccETEn0k.s:319    .text:000000000000014c .L0 
     /tmp/ccETEn0k.s:320    .text:000000000000014c .L0 
     /tmp/ccETEn0k.s:323    .text:0000000000000158 .L0 
     /tmp/ccETEn0k.s:324    .text:0000000000000158 .L0 
     /tmp/ccETEn0k.s:326    .text:000000000000015c .L0 
     /tmp/ccETEn0k.s:327    .text:000000000000015c .L0 
     /tmp/ccETEn0k.s:332    .text:000000000000016c .L0 
     /tmp/ccETEn0k.s:333    .text:0000000000000170 .L0 
     /tmp/ccETEn0k.s:335    .text:0000000000000174 .L0 
     /tmp/ccETEn0k.s:336    .text:0000000000000174 .L0 
     /tmp/ccETEn0k.s:338    .text:0000000000000178 .L0 
     /tmp/ccETEn0k.s:341    .text:000000000000017c .L0 
     /tmp/ccETEn0k.s:343    .text:0000000000000180 .L0 
     /tmp/ccETEn0k.s:349    .text:0000000000000180 _ZN6Thread4joinEv
     /tmp/ccETEn0k.s:352    .text:0000000000000180 .L0 
     /tmp/ccETEn0k.s:354    .text:0000000000000180 .L0 
     /tmp/ccETEn0k.s:355    .text:0000000000000184 .L0 
     /tmp/ccETEn0k.s:357    .text:0000000000000188 .L0 
     /tmp/ccETEn0k.s:359    .text:000000000000018c .L0 
     /tmp/ccETEn0k.s:361    .text:000000000000018c .L0 
     /tmp/ccETEn0k.s:362    .text:0000000000000190 .L0 
     /tmp/ccETEn0k.s:363    .text:0000000000000190 .L0 
     /tmp/ccETEn0k.s:365    .text:0000000000000194 .L0 
     /tmp/ccETEn0k.s:367    .text:0000000000000198 .L0 
     /tmp/ccETEn0k.s:373    .text:0000000000000198 _ZN6Thread11setStackPtrEPm
     /tmp/ccETEn0k.s:376    .text:0000000000000198 .L0 
     /tmp/ccETEn0k.s:378    .text:0000000000000198 .L0 
     /tmp/ccETEn0k.s:379    .text:000000000000019c .L0 
     /tmp/ccETEn0k.s:381    .text:00000000000001a0 .L0 
     /tmp/ccETEn0k.s:383    .text:00000000000001a4 .L0 
     /tmp/ccETEn0k.s:385    .text:00000000000001a4 .L0 
GAS LISTING /tmp/ccETEn0k.s 			page 14


     /tmp/ccETEn0k.s:386    .text:00000000000001a4 .L0 
     /tmp/ccETEn0k.s:388    .text:00000000000001a8 .L0 
     /tmp/ccETEn0k.s:389    .text:00000000000001ac .L0 
     /tmp/ccETEn0k.s:390    .text:00000000000001ac .L0 
     /tmp/ccETEn0k.s:392    .text:00000000000001b0 .L0 
     /tmp/ccETEn0k.s:394    .text:00000000000001b4 .L0 
     /tmp/ccETEn0k.s:400    .text:00000000000001b4 _ZN6Thread15setSupervisorSpEPm
     /tmp/ccETEn0k.s:403    .text:00000000000001b4 .L0 
     /tmp/ccETEn0k.s:405    .text:00000000000001b4 .L0 
     /tmp/ccETEn0k.s:406    .text:00000000000001b8 .L0 
     /tmp/ccETEn0k.s:408    .text:00000000000001bc .L0 
     /tmp/ccETEn0k.s:410    .text:00000000000001c0 .L0 
     /tmp/ccETEn0k.s:412    .text:00000000000001c0 .L0 
     /tmp/ccETEn0k.s:413    .text:00000000000001c0 .L0 
     /tmp/ccETEn0k.s:418    .text:00000000000001cc .L0 
     /tmp/ccETEn0k.s:419    .text:00000000000001d0 .L0 
     /tmp/ccETEn0k.s:420    .text:00000000000001d0 .L0 
     /tmp/ccETEn0k.s:422    .text:00000000000001d4 .L0 
     /tmp/ccETEn0k.s:424    .text:00000000000001d8 .L0 
     /tmp/ccETEn0k.s:43     .text._ZN6Thread16threadTrampolineEPS_:000000000000002c .L0 
     /tmp/ccETEn0k.s:441    .text:00000000000001d8 .L0 
     /tmp/ccETEn0k.s:95     .text:0000000000000038 .L0 
     /tmp/ccETEn0k.s:320    .text:000000000000014c .L0 
     /tmp/ccETEn0k.s:1333   .debug_abbrev:0000000000000000 .Ldebug_abbrev0
     /tmp/ccETEn0k.s:2460   .debug_str:00000000000002b8 .LASF69
     /tmp/ccETEn0k.s:2422   .debug_str:0000000000000180 .LASF70
     /tmp/ccETEn0k.s:2464   .debug_str:0000000000000388 .LASF71
     /tmp/ccETEn0k.s:2364   .debug_ranges:0000000000000000 .Ldebug_ranges0
     /tmp/ccETEn0k.s:2372   .debug_line:0000000000000000 .Ldebug_line0
     /tmp/ccETEn0k.s:2476   .debug_str:00000000000003e3 .LASF0
     /tmp/ccETEn0k.s:2436   .debug_str:00000000000001ed .LASF1
     /tmp/ccETEn0k.s:2450   .debug_str:000000000000026c .LASF2
     /tmp/ccETEn0k.s:2392   .debug_str:000000000000008c .LASF4
     /tmp/ccETEn0k.s:2432   .debug_str:00000000000001cb .LASF3
     /tmp/ccETEn0k.s:2384   .debug_str:0000000000000065 .LASF5
     /tmp/ccETEn0k.s:2488   .debug_str:000000000000044e .LASF6
     /tmp/ccETEn0k.s:2378   .debug_str:000000000000001c .LASF7
     /tmp/ccETEn0k.s:2412   .debug_str:000000000000012a .LASF8
     /tmp/ccETEn0k.s:2490   .debug_str:0000000000000455 .LASF9
     /tmp/ccETEn0k.s:2390   .debug_str:000000000000007e .LASF10
     /tmp/ccETEn0k.s:2540   .debug_str:0000000000000636 .LASF11
     /tmp/ccETEn0k.s:2418   .debug_str:000000000000016a .LASF12
     /tmp/ccETEn0k.s:2518   .debug_str:0000000000000543 .LASF13
     /tmp/ccETEn0k.s:2496   .debug_str:0000000000000486 .LASF14
     /tmp/ccETEn0k.s:2442   .debug_str:000000000000022f .LASF15
     /tmp/ccETEn0k.s:2400   .debug_str:00000000000000c2 .LASF16
     /tmp/ccETEn0k.s:2492   .debug_str:0000000000000465 .LASF17
     /tmp/ccETEn0k.s:2522   .debug_str:0000000000000572 .LASF72
     /tmp/ccETEn0k.s:2408   .debug_str:000000000000011b .LASF18
     /tmp/ccETEn0k.s:2466   .debug_str:00000000000003ad .LASF19
     /tmp/ccETEn0k.s:2410   .debug_str:0000000000000120 .LASF73
     /tmp/ccETEn0k.s:2532   .debug_str:00000000000005db .LASF20
     /tmp/ccETEn0k.s:2480   .debug_str:00000000000003fd .LASF21
     /tmp/ccETEn0k.s:2486   .debug_str:0000000000000443 .LASF22
     /tmp/ccETEn0k.s:2426   .debug_str:0000000000000194 .LASF23
     /tmp/ccETEn0k.s:2428   .debug_str:00000000000001a2 .LASF24
     /tmp/ccETEn0k.s:2512   .debug_str:00000000000004fd .LASF25
GAS LISTING /tmp/ccETEn0k.s 			page 15


     /tmp/ccETEn0k.s:2462   .debug_str:000000000000037c .LASF74
     /tmp/ccETEn0k.s:2430   .debug_str:00000000000001ae .LASF75
     /tmp/ccETEn0k.s:2380   .debug_str:000000000000002f .LASF31
     /tmp/ccETEn0k.s:2382   .debug_str:000000000000003e .LASF33
     /tmp/ccETEn0k.s:2434   .debug_str:00000000000001dd .LASF76
     /tmp/ccETEn0k.s:2484   .debug_str:0000000000000422 .LASF77
     /tmp/ccETEn0k.s:2452   .debug_str:000000000000027a .LASF26
     /tmp/ccETEn0k.s:2446   .debug_str:0000000000000244 .LASF28
     /tmp/ccETEn0k.s:2472   .debug_str:00000000000003cf .LASF30
     /tmp/ccETEn0k.s:2440   .debug_str:000000000000020f .LASF66
     /tmp/ccETEn0k.s:2468   .debug_str:00000000000003b5 .LASF27
     /tmp/ccETEn0k.s:2526   .debug_str:0000000000000599 .LASF29
     /tmp/ccETEn0k.s:2454   .debug_str:0000000000000285 .LASF78
     /tmp/ccETEn0k.s:2388   .debug_str:0000000000000071 .LASF32
     /tmp/ccETEn0k.s:2402   .debug_str:00000000000000d8 .LASF34
     /tmp/ccETEn0k.s:2420   .debug_str:0000000000000179 .LASF35
     /tmp/ccETEn0k.s:2456   .debug_str:00000000000002a0 .LASF36
     /tmp/ccETEn0k.s:2470   .debug_str:00000000000003bd .LASF37
     /tmp/ccETEn0k.s:2374   .debug_str:0000000000000000 .LASF79
     /tmp/ccETEn0k.s:2506   .debug_str:00000000000004d7 .LASF38
     /tmp/ccETEn0k.s:2536   .debug_str:00000000000005f6 .LASF39
     /tmp/ccETEn0k.s:2474   .debug_str:00000000000003d5 .LASF40
     /tmp/ccETEn0k.s:2534   .debug_str:00000000000005f1 .LASF41
     /tmp/ccETEn0k.s:2386   .debug_str:000000000000006c .LASF42
     /tmp/ccETEn0k.s:2444   .debug_str:000000000000023b .LASF43
     /tmp/ccETEn0k.s:2394   .debug_str:0000000000000093 .LASF44
     /tmp/ccETEn0k.s:2478   .debug_str:00000000000003f0 .LASF45
     /tmp/ccETEn0k.s:2530   .debug_str:00000000000005cc .LASF47
     /tmp/ccETEn0k.s:2448   .debug_str:0000000000000260 .LASF46
     /tmp/ccETEn0k.s:2528   .debug_str:00000000000005b1 .LASF48
     /tmp/ccETEn0k.s:2414   .debug_str:000000000000013d .LASF49
     /tmp/ccETEn0k.s:2520   .debug_str:0000000000000553 .LASF50
     /tmp/ccETEn0k.s:2494   .debug_str:000000000000047b .LASF51
     /tmp/ccETEn0k.s:2500   .debug_str:000000000000049b .LASF53
     /tmp/ccETEn0k.s:2510   .debug_str:00000000000004ee .LASF52
     /tmp/ccETEn0k.s:2482   .debug_str:0000000000000405 .LASF54
     /tmp/ccETEn0k.s:2406   .debug_str:000000000000010c .LASF55
     /tmp/ccETEn0k.s:2416   .debug_str:000000000000014d .LASF56
     /tmp/ccETEn0k.s:2438   .debug_str:0000000000000200 .LASF57
     /tmp/ccETEn0k.s:2524   .debug_str:000000000000057a .LASF58
     /tmp/ccETEn0k.s:2404   .debug_str:00000000000000fd .LASF59
     /tmp/ccETEn0k.s:2538   .debug_str:0000000000000617 .LASF60
     /tmp/ccETEn0k.s:2398   .debug_str:00000000000000ac .LASF61
     /tmp/ccETEn0k.s:2516   .debug_str:000000000000051a .LASF62
     /tmp/ccETEn0k.s:2508   .debug_str:00000000000004e8 .LASF63
     /tmp/ccETEn0k.s:2396   .debug_str:0000000000000099 .LASF64
     /tmp/ccETEn0k.s:2502   .debug_str:00000000000004b4 .LASF80
     /tmp/ccETEn0k.s:2498   .debug_str:0000000000000496 .LASF65
     /tmp/ccETEn0k.s:2504   .debug_str:00000000000004c5 .LASF67
     /tmp/ccETEn0k.s:2514   .debug_str:000000000000050a .LASF81
     /tmp/ccETEn0k.s:401    .text:00000000000001b4 .LFB14
     /tmp/ccETEn0k.s:425    .text:00000000000001d8 .LFE14
     /tmp/ccETEn0k.s:2424   .debug_str:000000000000018f .LASF68
     /tmp/ccETEn0k.s:2198   .debug_loc:0000000000000000 .LLST9
     /tmp/ccETEn0k.s:374    .text:0000000000000198 .LFB13
     /tmp/ccETEn0k.s:395    .text:00000000000001b4 .LFE13
     /tmp/ccETEn0k.s:350    .text:0000000000000180 .LFB12
GAS LISTING /tmp/ccETEn0k.s 			page 16


     /tmp/ccETEn0k.s:368    .text:0000000000000198 .LFE12
     /tmp/ccETEn0k.s:48     .text:0000000000000000 .LFB11
     /tmp/ccETEn0k.s:77     .text:000000000000002c .LFE11
     /tmp/ccETEn0k.s:2211   .debug_loc:000000000000003a .LLST1
     /tmp/ccETEn0k.s:66     .text:000000000000001c .LVL4
     /tmp/ccETEn0k.s:299    .text:000000000000012c .LFB10
     /tmp/ccETEn0k.s:344    .text:0000000000000180 .LFE10
     /tmp/ccETEn0k.s:2225   .debug_loc:0000000000000073 .LLST8
     /tmp/ccETEn0k.s:317    .text:000000000000014c .LVL20
     /tmp/ccETEn0k.s:330    .text:000000000000016c .LVL21
     /tmp/ccETEn0k.s:249    .text:00000000000000dc .LFB9
     /tmp/ccETEn0k.s:293    .text:000000000000012c .LFE9
     /tmp/ccETEn0k.s:2243   .debug_loc:00000000000000bf .LLST5
     /tmp/ccETEn0k.s:2261   .debug_loc:000000000000010b .LLST6
     /tmp/ccETEn0k.s:2275   .debug_loc:0000000000000144 .LLST7
     /tmp/ccETEn0k.s:270    .text:0000000000000104 .LVL15
     /tmp/ccETEn0k.s:276    .text:0000000000000114 .LVL16
     /tmp/ccETEn0k.s:222    .text:00000000000000c0 .LFB8
     /tmp/ccETEn0k.s:243    .text:00000000000000dc .LFE8
     /tmp/ccETEn0k.s:195    .text:00000000000000a4 .LFB7
     /tmp/ccETEn0k.s:216    .text:00000000000000c0 .LFE7
     /tmp/ccETEn0k.s:168    .text:0000000000000088 .LFB6
     /tmp/ccETEn0k.s:189    .text:00000000000000a4 .LFE6
     /tmp/ccETEn0k.s:2293   .debug_loc:0000000000000190 .LLST4
     /tmp/ccETEn0k.s:141    .text:000000000000006c .LFB5
     /tmp/ccETEn0k.s:162    .text:0000000000000088 .LFE5
     /tmp/ccETEn0k.s:2307   .debug_loc:00000000000001c9 .LLST3
     /tmp/ccETEn0k.s:114    .text:0000000000000050 .LFB4
     /tmp/ccETEn0k.s:135    .text:000000000000006c .LFE4
     /tmp/ccETEn0k.s:2321   .debug_loc:0000000000000202 .LLST2
     /tmp/ccETEn0k.s:2376   .debug_str:000000000000000d .LASF82
     /tmp/ccETEn0k.s:83     .text:000000000000002c .LFB2
     /tmp/ccETEn0k.s:106    .text:0000000000000050 .LFE2
     /tmp/ccETEn0k.s:11     .text._ZN6Thread16threadTrampolineEPS_:0000000000000000 .LFB0
     /tmp/ccETEn0k.s:41     .text._ZN6Thread16threadTrampolineEPS_:000000000000002c .LFE0
     /tmp/ccETEn0k.s:2335   .debug_loc:000000000000023b .LLST0
     /tmp/ccETEn0k.s:30     .text._ZN6Thread16threadTrampolineEPS_:000000000000001c .LVL1
     /tmp/ccETEn0k.s:2458   .debug_str:00000000000002b1 .LASF83
     /tmp/ccETEn0k.s:404    .text:00000000000001b4 .LVL25
     /tmp/ccETEn0k.s:415    .text:00000000000001c8 .LVL26
     /tmp/ccETEn0k.s:52     .text:0000000000000000 .LVL2
     /tmp/ccETEn0k.s:64     .text:0000000000000014 .LVL3
     /tmp/ccETEn0k.s:302    .text:000000000000012c .LVL19
     /tmp/ccETEn0k.s:339    .text:0000000000000178 .LVL22
     /tmp/ccETEn0k.s:252    .text:00000000000000dc .LVL14
     /tmp/ccETEn0k.s:285    .text:0000000000000120 .LVL17
     /tmp/ccETEn0k.s:288    .text:0000000000000124 .LVL18
     /tmp/ccETEn0k.s:171    .text:0000000000000088 .LVL10
     /tmp/ccETEn0k.s:181    .text:0000000000000098 .LVL11
     /tmp/ccETEn0k.s:144    .text:000000000000006c .LVL8
     /tmp/ccETEn0k.s:154    .text:000000000000007c .LVL9
     /tmp/ccETEn0k.s:117    .text:0000000000000050 .LVL6
     /tmp/ccETEn0k.s:127    .text:0000000000000060 .LVL7
     /tmp/ccETEn0k.s:15     .text._ZN6Thread16threadTrampolineEPS_:0000000000000000 .LVL0
     /tmp/ccETEn0k.s:442    .debug_info:0000000000000000 .Ldebug_info0
     /tmp/ccETEn0k.s:5      .text:0000000000000000 .Ltext0
     /tmp/ccETEn0k.s:437    .text:00000000000001d8 .Letext0
GAS LISTING /tmp/ccETEn0k.s 			page 17



UNDEFINED SYMBOLS
__putc
_ZN9Scheduler12AddNewThreadEP6Thread
_ZN9Scheduler5yieldEP6ThreadS1_
