GAS LISTING /tmp/cc94JdsP.s 			page 1


   1              		.file	"Thread.cpp"
   2              		.option pic
   3              		.option norelax
   4              		.text
   5              	.Ltext0:
   6              		.section	.text._ZN6Thread16threadTrampolineEPS_,"axG",@progbits,_ZN6Thread16threadTrampolineEPS_,c
   7              		.align	2
   8              		.weak	_ZN6Thread16threadTrampolineEPS_
  10              	_ZN6Thread16threadTrampolineEPS_:
  11              	.LFB0:
  12              		.file 1 "src/Thread.hpp"
   1:src/Thread.hpp **** //
   2:src/Thread.hpp **** // Created by os on 6/10/26.
   3:src/Thread.hpp **** //
   4:src/Thread.hpp **** 
   5:src/Thread.hpp **** #ifndef OSPROJEKAT_THREAD_H
   6:src/Thread.hpp **** #define OSPROJEKAT_THREAD_H
   7:src/Thread.hpp **** 
   8:src/Thread.hpp **** #include "../lib/hw.h"
   9:src/Thread.hpp **** struct Context {
  10:src/Thread.hpp ****     size_t x[32];    // x0-x31, offsets 0x00-0xF
  11:src/Thread.hpp ****     size_t sepc;     // offset 0x100
  12:src/Thread.hpp ****     size_t sstatus;  // offset 0x108
  13:src/Thread.hpp **** };
  14:src/Thread.hpp **** 
  15:src/Thread.hpp **** class Thread{
  16:src/Thread.hpp **** protected:
  17:src/Thread.hpp ****     static void threadTrampoline(Thread* t) {
  13              		.loc 1 17 17
  14              		.cfi_startproc
  15              	.LVL0:
  18:src/Thread.hpp ****         if (t->body)t->body();
  16              		.loc 1 18 9
  17              		.loc 1 18 16 is_stmt 0
  18 0000 83370500 		ld	a5,0(a0)
  19              		.loc 1 18 9
  20 0004 63840702 		beqz	a5,.L4
  17:src/Thread.hpp ****         if (t->body)t->body();
  21              		.loc 1 17 17 discriminator 1
  22 0008 130101FF 		addi	sp,sp,-16
  23              		.cfi_def_cfa_offset 16
  24 000c 23341100 		sd	ra,8(sp)
  25 0010 23308100 		sd	s0,0(sp)
  26              		.cfi_offset 1, -8
  27              		.cfi_offset 8, -16
  28 0014 13040101 		addi	s0,sp,16
  29              		.cfi_def_cfa 8, 0
  30              		.loc 1 18 21 is_stmt 1 discriminator 1
  31              		.loc 1 18 28 is_stmt 0 discriminator 1
  32 0018 E7800700 		jalr	a5
  33              	.LVL1:
  19:src/Thread.hpp ****     }
  34              		.loc 1 19 5 discriminator 1
  35 001c 83308100 		ld	ra,8(sp)
  36              		.cfi_restore 1
  37 0020 03340100 		ld	s0,0(sp)
  38              		.cfi_restore 8
GAS LISTING /tmp/cc94JdsP.s 			page 2


  39              		.cfi_def_cfa 2, 16
  40 0024 13010101 		addi	sp,sp,16
  41              		.cfi_def_cfa_offset 0
  42 0028 67800000 		jr	ra
  43              	.LVL2:
  44              	.L4:
  45 002c 67800000 		ret
  46              		.cfi_endproc
  47              	.LFE0:
  49              		.text
  50              		.align	2
  51              		.globl	_ZN6ThreadC2Ev
  53              	_ZN6ThreadC2Ev:
  54              	.LFB4:
  55              		.file 2 "src/Thread.cpp"
   1:src/Thread.cpp **** //
   2:src/Thread.cpp **** // Created by os on 6/10/26.
   3:src/Thread.cpp **** //
   4:src/Thread.cpp **** 
   5:src/Thread.cpp **** #include "Thread.hpp"
   6:src/Thread.cpp **** #include "Scheduler.hpp"
   7:src/Thread.cpp **** 
   8:src/Thread.cpp **** #include "../lib/console.h"
   9:src/Thread.cpp **** 
  10:src/Thread.cpp **** Thread::Thread() {
  56              		.loc 2 10 1 is_stmt 1
  57              		.cfi_startproc
  58              	.LVL3:
  59 0000 130101FF 		addi	sp,sp,-16
  60              		.cfi_def_cfa_offset 16
  61 0004 23348100 		sd	s0,8(sp)
  62              		.cfi_offset 8, -8
  63 0008 13040101 		addi	s0,sp,16
  64              		.cfi_def_cfa 8, 0
  11:src/Thread.cpp **** }
  65              		.loc 2 11 1 is_stmt 0
  66 000c 03348100 		ld	s0,8(sp)
  67              		.cfi_restore 8
  68              		.cfi_def_cfa 2, 16
  69 0010 13010101 		addi	sp,sp,16
  70              		.cfi_def_cfa_offset 0
  71 0014 67800000 		jr	ra
  72              		.cfi_endproc
  73              	.LFE4:
  75              		.globl	_ZN6ThreadC1Ev
  76              		.set	_ZN6ThreadC1Ev,_ZN6ThreadC2Ev
  77              		.align	2
  78              		.globl	_ZN6Thread4initEv
  80              	_ZN6Thread4initEv:
  81              	.LFB6:
  12:src/Thread.cpp **** 
  13:src/Thread.cpp **** void Thread::init() {
  82              		.loc 2 13 21 is_stmt 1
  83              		.cfi_startproc
  84              	.LVL4:
  85 0018 130101FF 		addi	sp,sp,-16
  86              		.cfi_def_cfa_offset 16
GAS LISTING /tmp/cc94JdsP.s 			page 3


  87 001c 23348100 		sd	s0,8(sp)
  88              		.cfi_offset 8, -8
  89 0020 13040101 		addi	s0,sp,16
  90              		.cfi_def_cfa 8, 0
  14:src/Thread.cpp **** }
  91              		.loc 2 14 1 is_stmt 0
  92 0024 03348100 		ld	s0,8(sp)
  93              		.cfi_restore 8
  94              		.cfi_def_cfa 2, 16
  95 0028 13010101 		addi	sp,sp,16
  96              		.cfi_def_cfa_offset 0
  97 002c 67800000 		jr	ra
  98              		.cfi_endproc
  99              	.LFE6:
 101              		.align	2
 102              		.globl	_ZN6Thread11copyContextEPm
 104              	_ZN6Thread11copyContextEPm:
 105              	.LFB7:
  15:src/Thread.cpp **** void Thread::copyContext(size_t* ctx) {
 106              		.loc 2 15 39 is_stmt 1
 107              		.cfi_startproc
 108              	.LVL5:
 109 0030 130101FF 		addi	sp,sp,-16
 110              		.cfi_def_cfa_offset 16
 111 0034 23348100 		sd	s0,8(sp)
 112              		.cfi_offset 8, -8
 113 0038 13040101 		addi	s0,sp,16
 114              		.cfi_def_cfa 8, 0
  16:src/Thread.cpp ****     Context* cont = reinterpret_cast<Context*>(ctx);
 115              		.loc 2 16 5
 116              	.LVL6:
  17:src/Thread.cpp ****     for (int i = 0;i<32;i++) {
 117              		.loc 2 17 5
 118              	.LBB2:
 119              		.loc 2 17 14 is_stmt 0
 120 003c 13070000 		li	a4,0
 121              	.LVL7:
 122              	.L13:
 123              		.loc 2 17 21 is_stmt 1 discriminator 3
 124 0040 9307F001 		li	a5,31
 125 0044 63C8E702 		bgt	a4,a5,.L12
  18:src/Thread.cpp ****         threadContext.x[i] = cont->x[i];
 126              		.loc 2 18 9 discriminator 2
 127              		.loc 2 18 39 is_stmt 0 discriminator 2
 128 0048 93173700 		slli	a5,a4,3
 129 004c B387F500 		add	a5,a1,a5
 130 0050 83B60700 		ld	a3,0(a5)
 131              		.loc 2 18 28 discriminator 2
 132 0054 B7170000 		li	a5,4096
 133 0058 93874700 		addi	a5,a5,4
 134 005c B307F700 		add	a5,a4,a5
 135 0060 93973700 		slli	a5,a5,3
 136 0064 B307F500 		add	a5,a0,a5
 137 0068 23B4D700 		sd	a3,8(a5)
  17:src/Thread.cpp ****     for (int i = 0;i<32;i++) {
 138              		.loc 2 17 5 is_stmt 1 discriminator 2
 139 006c 1B071700 		addiw	a4,a4,1
GAS LISTING /tmp/cc94JdsP.s 			page 4


 140              	.LVL8:
 141 0070 6FF01FFD 		j	.L13
 142              	.LVL9:
 143              	.L12:
 144              	.LBE2:
  19:src/Thread.cpp ****     }
  20:src/Thread.cpp ****     threadContext.x[2] = reinterpret_cast<size_t>(this->stackPtr);
 145              		.loc 2 20 5
 146              		.loc 2 20 57 is_stmt 0
 147 0074 83378501 		ld	a5,24(a0)
 148              		.loc 2 20 24
 149 0078 37870000 		li	a4,32768
 150              	.LVL10:
 151 007c 3305E500 		add	a0,a0,a4
 152              	.LVL11:
 153 0080 233CF502 		sd	a5,56(a0)
  21:src/Thread.cpp ****     threadContext.sepc = cont->sepc;
 154              		.loc 2 21 5 is_stmt 1
 155              		.loc 2 21 32 is_stmt 0
 156 0084 83B70510 		ld	a5,256(a1)
 157              		.loc 2 21 24
 158 0088 2334F512 		sd	a5,296(a0)
  22:src/Thread.cpp ****     threadContext.sstatus =cont->sstatus;
 159              		.loc 2 22 5 is_stmt 1
 160              		.loc 2 22 34 is_stmt 0
 161 008c 83B78510 		ld	a5,264(a1)
 162              		.loc 2 22 27
 163 0090 2338F512 		sd	a5,304(a0)
  23:src/Thread.cpp **** }
 164              		.loc 2 23 1
 165 0094 03348100 		ld	s0,8(sp)
 166              		.cfi_restore 8
 167              		.cfi_def_cfa 2, 16
 168 0098 13010101 		addi	sp,sp,16
 169              		.cfi_def_cfa_offset 0
 170 009c 67800000 		jr	ra
 171              		.cfi_endproc
 172              	.LFE7:
 174              		.align	2
 175              		.globl	_ZN6Thread10getContextEv
 177              	_ZN6Thread10getContextEv:
 178              	.LFB8:
  24:src/Thread.cpp **** 
  25:src/Thread.cpp **** size_t* Thread::getContext() {
 179              		.loc 2 25 30 is_stmt 1
 180              		.cfi_startproc
 181              	.LVL12:
 182 00a0 130101FF 		addi	sp,sp,-16
 183              		.cfi_def_cfa_offset 16
 184 00a4 23348100 		sd	s0,8(sp)
 185              		.cfi_offset 8, -8
 186 00a8 13040101 		addi	s0,sp,16
 187              		.cfi_def_cfa 8, 0
  26:src/Thread.cpp ****     return reinterpret_cast<size_t*>(&threadContext);
 188              		.loc 2 26 5
  27:src/Thread.cpp **** }
 189              		.loc 2 27 1 is_stmt 0
GAS LISTING /tmp/cc94JdsP.s 			page 5


 190 00ac B7870000 		li	a5,32768
 191 00b0 93878702 		addi	a5,a5,40
 192 00b4 3305F500 		add	a0,a0,a5
 193              	.LVL13:
 194 00b8 03348100 		ld	s0,8(sp)
 195              		.cfi_restore 8
 196              		.cfi_def_cfa 2, 16
 197 00bc 13010101 		addi	sp,sp,16
 198              		.cfi_def_cfa_offset 0
 199 00c0 67800000 		jr	ra
 200              		.cfi_endproc
 201              	.LFE8:
 203              		.align	2
 204              		.globl	_ZN6Thread14getNextInQueueEv
 206              	_ZN6Thread14getNextInQueueEv:
 207              	.LFB9:
  28:src/Thread.cpp **** Thread* Thread::getNextInQueue(){
 208              		.loc 2 28 33 is_stmt 1
 209              		.cfi_startproc
 210              	.LVL14:
 211 00c4 130101FF 		addi	sp,sp,-16
 212              		.cfi_def_cfa_offset 16
 213 00c8 23348100 		sd	s0,8(sp)
 214              		.cfi_offset 8, -8
 215 00cc 13040101 		addi	s0,sp,16
 216              		.cfi_def_cfa 8, 0
  29:src/Thread.cpp ****     return next;
 217              		.loc 2 29 5
  30:src/Thread.cpp **** }
 218              		.loc 2 30 1 is_stmt 0
 219 00d0 03350501 		ld	a0,16(a0)
 220              	.LVL15:
 221 00d4 03348100 		ld	s0,8(sp)
 222              		.cfi_restore 8
 223              		.cfi_def_cfa 2, 16
 224 00d8 13010101 		addi	sp,sp,16
 225              		.cfi_def_cfa_offset 0
 226 00dc 67800000 		jr	ra
 227              		.cfi_endproc
 228              	.LFE9:
 230              		.align	2
 231              		.globl	_ZN6Thread14getPrevInQueueEv
 233              	_ZN6Thread14getPrevInQueueEv:
 234              	.LFB10:
  31:src/Thread.cpp **** Thread* Thread::getPrevInQueue(){
 235              		.loc 2 31 33 is_stmt 1
 236              		.cfi_startproc
 237              	.LVL16:
 238 00e0 130101FF 		addi	sp,sp,-16
 239              		.cfi_def_cfa_offset 16
 240 00e4 23348100 		sd	s0,8(sp)
 241              		.cfi_offset 8, -8
 242 00e8 13040101 		addi	s0,sp,16
 243              		.cfi_def_cfa 8, 0
  32:src/Thread.cpp ****     return prev;
 244              		.loc 2 32 5
  33:src/Thread.cpp **** }
GAS LISTING /tmp/cc94JdsP.s 			page 6


 245              		.loc 2 33 1 is_stmt 0
 246 00ec 03358500 		ld	a0,8(a0)
 247              	.LVL17:
 248 00f0 03348100 		ld	s0,8(sp)
 249              		.cfi_restore 8
 250              		.cfi_def_cfa 2, 16
 251 00f4 13010101 		addi	sp,sp,16
 252              		.cfi_def_cfa_offset 0
 253 00f8 67800000 		jr	ra
 254              		.cfi_endproc
 255              	.LFE10:
 257              		.align	2
 258              		.globl	_ZN6Thread14setNextInQueueEPS_
 260              	_ZN6Thread14setNextInQueueEPS_:
 261              	.LFB11:
  34:src/Thread.cpp **** void Thread::setNextInQueue(Thread* next){
 262              		.loc 2 34 42 is_stmt 1
 263              		.cfi_startproc
 264              	.LVL18:
 265 00fc 130101FF 		addi	sp,sp,-16
 266              		.cfi_def_cfa_offset 16
 267 0100 23348100 		sd	s0,8(sp)
 268              		.cfi_offset 8, -8
 269 0104 13040101 		addi	s0,sp,16
 270              		.cfi_def_cfa 8, 0
  35:src/Thread.cpp ****     this->next = next;
 271              		.loc 2 35 5
 272              		.loc 2 35 16 is_stmt 0
 273 0108 2338B500 		sd	a1,16(a0)
  36:src/Thread.cpp **** }
 274              		.loc 2 36 1
 275 010c 03348100 		ld	s0,8(sp)
 276              		.cfi_restore 8
 277              		.cfi_def_cfa 2, 16
 278 0110 13010101 		addi	sp,sp,16
 279              		.cfi_def_cfa_offset 0
 280 0114 67800000 		jr	ra
 281              		.cfi_endproc
 282              	.LFE11:
 284              		.align	2
 285              		.globl	_ZN6Thread14setPrevInQueueEPS_
 287              	_ZN6Thread14setPrevInQueueEPS_:
 288              	.LFB12:
  37:src/Thread.cpp **** void Thread::setPrevInQueue(Thread* prev){
 289              		.loc 2 37 42 is_stmt 1
 290              		.cfi_startproc
 291              	.LVL19:
 292 0118 130101FF 		addi	sp,sp,-16
 293              		.cfi_def_cfa_offset 16
 294 011c 23348100 		sd	s0,8(sp)
 295              		.cfi_offset 8, -8
 296 0120 13040101 		addi	s0,sp,16
 297              		.cfi_def_cfa 8, 0
  38:src/Thread.cpp ****     this->prev = prev;
 298              		.loc 2 38 5
 299              		.loc 2 38 16 is_stmt 0
 300 0124 2334B500 		sd	a1,8(a0)
GAS LISTING /tmp/cc94JdsP.s 			page 7


  39:src/Thread.cpp **** }
 301              		.loc 2 39 1
 302 0128 03348100 		ld	s0,8(sp)
 303              		.cfi_restore 8
 304              		.cfi_def_cfa 2, 16
 305 012c 13010101 		addi	sp,sp,16
 306              		.cfi_def_cfa_offset 0
 307 0130 67800000 		jr	ra
 308              		.cfi_endproc
 309              	.LFE12:
 311              		.align	2
 312              		.globl	_ZN6Thread21setNextAndPrevInQueueEPS_S0_
 314              	_ZN6Thread21setNextAndPrevInQueueEPS_S0_:
 315              	.LFB13:
  40:src/Thread.cpp **** void Thread::setNextAndPrevInQueue(Thread* next, Thread* prev){
 316              		.loc 2 40 63 is_stmt 1
 317              		.cfi_startproc
 318              	.LVL20:
 319 0134 130101FE 		addi	sp,sp,-32
 320              		.cfi_def_cfa_offset 32
 321 0138 233C1100 		sd	ra,24(sp)
 322 013c 23388100 		sd	s0,16(sp)
 323 0140 23349100 		sd	s1,8(sp)
 324 0144 23302101 		sd	s2,0(sp)
 325              		.cfi_offset 1, -8
 326              		.cfi_offset 8, -16
 327              		.cfi_offset 9, -24
 328              		.cfi_offset 18, -32
 329 0148 13040102 		addi	s0,sp,32
 330              		.cfi_def_cfa 8, 0
 331 014c 93040500 		mv	s1,a0
 332 0150 13090600 		mv	s2,a2
  41:src/Thread.cpp ****     setNextInQueue(next);
 333              		.loc 2 41 5
 334              		.loc 2 41 19 is_stmt 0
 335 0154 97000000 		call	_ZN6Thread14setNextInQueueEPS_
 335      E7800000 
 336              	.LVL21:
  42:src/Thread.cpp ****     setPrevInQueue(prev);
 337              		.loc 2 42 5 is_stmt 1
 338              		.loc 2 42 19 is_stmt 0
 339 015c 93050900 		mv	a1,s2
 340 0160 13850400 		mv	a0,s1
 341 0164 97000000 		call	_ZN6Thread14setPrevInQueueEPS_
 341      E7800000 
 342              	.LVL22:
  43:src/Thread.cpp **** }
 343              		.loc 2 43 1
 344 016c 83308101 		ld	ra,24(sp)
 345              		.cfi_restore 1
 346 0170 03340101 		ld	s0,16(sp)
 347              		.cfi_restore 8
 348              		.cfi_def_cfa 2, 32
 349 0174 83348100 		ld	s1,8(sp)
 350              		.cfi_restore 9
 351              	.LVL23:
 352 0178 03390100 		ld	s2,0(sp)
GAS LISTING /tmp/cc94JdsP.s 			page 8


 353              		.cfi_restore 18
 354              	.LVL24:
 355 017c 13010102 		addi	sp,sp,32
 356              		.cfi_def_cfa_offset 0
 357 0180 67800000 		jr	ra
 358              		.cfi_endproc
 359              	.LFE13:
 361              		.align	2
 362              		.globl	_ZN6Thread5startEv
 364              	_ZN6Thread5startEv:
 365              	.LFB14:
  44:src/Thread.cpp **** void Thread::start(){
 366              		.loc 2 44 21 is_stmt 1
 367              		.cfi_startproc
 368              	.LVL25:
 369 0184 130101FE 		addi	sp,sp,-32
 370              		.cfi_def_cfa_offset 32
 371 0188 233C1100 		sd	ra,24(sp)
 372 018c 23388100 		sd	s0,16(sp)
 373 0190 23349100 		sd	s1,8(sp)
 374              		.cfi_offset 1, -8
 375              		.cfi_offset 8, -16
 376              		.cfi_offset 9, -24
 377 0194 13040102 		addi	s0,sp,32
 378              		.cfi_def_cfa 8, 0
 379 0198 93040500 		mv	s1,a0
  45:src/Thread.cpp ****     Scheduler::AddNewThread(this);
 380              		.loc 2 45 5
 381              		.loc 2 45 28 is_stmt 0
 382 019c 97000000 		call	_ZN9Scheduler12AddNewThreadEP6Thread@plt
 382      E7800000 
 383              	.LVL26:
  46:src/Thread.cpp ****     this->threadContext.sepc = reinterpret_cast<size_t>(&Thread::threadTrampoline);
 384              		.loc 2 46 5 is_stmt 1
 385              		.loc 2 46 30 is_stmt 0
 386 01a4 B7870000 		li	a5,32768
 387 01a8 B387F400 		add	a5,s1,a5
 388 01ac 17070000 		lla	a4,_ZN6Thread16threadTrampolineEPS_
 388      13070700 
 389 01b4 23B4E712 		sd	a4,296(a5)
  47:src/Thread.cpp ****     this->threadContext.x[10] = reinterpret_cast<size_t>(this);
 390              		.loc 2 47 5 is_stmt 1
 391              		.loc 2 47 31 is_stmt 0
 392 01b8 23BC9706 		sd	s1,120(a5)
  48:src/Thread.cpp ****     Scheduler::yield(Scheduler::GetRunning(),this);
 393              		.loc 2 48 5 is_stmt 1
 394              		.loc 2 48 21 is_stmt 0
 395 01bc 97000000 		call	_ZN9Scheduler10GetRunningEv@plt
 395      E7800000 
 396              	.LVL27:
 397 01c4 93850400 		mv	a1,s1
 398 01c8 97000000 		call	_ZN9Scheduler5yieldEP6ThreadS1_@plt
 398      E7800000 
 399              	.LVL28:
  49:src/Thread.cpp **** }
 400              		.loc 2 49 1
 401 01d0 83308101 		ld	ra,24(sp)
GAS LISTING /tmp/cc94JdsP.s 			page 9


 402              		.cfi_restore 1
 403 01d4 03340101 		ld	s0,16(sp)
 404              		.cfi_restore 8
 405              		.cfi_def_cfa 2, 32
 406 01d8 83348100 		ld	s1,8(sp)
 407              		.cfi_restore 9
 408              	.LVL29:
 409 01dc 13010102 		addi	sp,sp,32
 410              		.cfi_def_cfa_offset 0
 411 01e0 67800000 		jr	ra
 412              		.cfi_endproc
 413              	.LFE14:
 415              		.align	2
 416              		.globl	_ZN6Thread4joinEv
 418              	_ZN6Thread4joinEv:
 419              	.LFB15:
  50:src/Thread.cpp **** void Thread::join(){
 420              		.loc 2 50 20 is_stmt 1
 421              		.cfi_startproc
 422              	.LVL30:
 423 01e4 130101FF 		addi	sp,sp,-16
 424              		.cfi_def_cfa_offset 16
 425 01e8 23348100 		sd	s0,8(sp)
 426              		.cfi_offset 8, -8
 427 01ec 13040101 		addi	s0,sp,16
 428              		.cfi_def_cfa 8, 0
  51:src/Thread.cpp **** 
  52:src/Thread.cpp **** }
 429              		.loc 2 52 1 is_stmt 0
 430 01f0 03348100 		ld	s0,8(sp)
 431              		.cfi_restore 8
 432              		.cfi_def_cfa 2, 16
 433 01f4 13010101 		addi	sp,sp,16
 434              		.cfi_def_cfa_offset 0
 435 01f8 67800000 		jr	ra
 436              		.cfi_endproc
 437              	.LFE15:
 439              		.align	2
 440              		.globl	_ZN6Thread11setStackPtrEPm
 442              	_ZN6Thread11setStackPtrEPm:
 443              	.LFB16:
  53:src/Thread.cpp **** void Thread::setStackPtr(size_t* stackPtr) {
 444              		.loc 2 53 44 is_stmt 1
 445              		.cfi_startproc
 446              	.LVL31:
 447 01fc 130101FF 		addi	sp,sp,-16
 448              		.cfi_def_cfa_offset 16
 449 0200 23348100 		sd	s0,8(sp)
 450              		.cfi_offset 8, -8
 451 0204 13040101 		addi	s0,sp,16
 452              		.cfi_def_cfa 8, 0
  54:src/Thread.cpp ****     this->stackPtr = stackPtr;
 453              		.loc 2 54 5
 454              		.loc 2 54 20 is_stmt 0
 455 0208 233CB500 		sd	a1,24(a0)
  55:src/Thread.cpp **** }
 456              		.loc 2 55 1
GAS LISTING /tmp/cc94JdsP.s 			page 10


 457 020c 03348100 		ld	s0,8(sp)
 458              		.cfi_restore 8
 459              		.cfi_def_cfa 2, 16
 460 0210 13010101 		addi	sp,sp,16
 461              		.cfi_def_cfa_offset 0
 462 0214 67800000 		jr	ra
 463              		.cfi_endproc
 464              	.LFE16:
 466              		.align	2
 467              		.globl	_ZN6Thread15setSupervisorSpEPm
 469              	_ZN6Thread15setSupervisorSpEPm:
 470              	.LFB17:
  56:src/Thread.cpp **** 
  57:src/Thread.cpp **** void Thread::setSupervisorSp(size_t* supervisorSp) {
 471              		.loc 2 57 52 is_stmt 1
 472              		.cfi_startproc
 473              	.LVL32:
 474 0218 130101FF 		addi	sp,sp,-16
 475              		.cfi_def_cfa_offset 16
 476 021c 23348100 		sd	s0,8(sp)
 477              		.cfi_offset 8, -8
 478 0220 13040101 		addi	s0,sp,16
 479              		.cfi_def_cfa 8, 0
  58:src/Thread.cpp ****     this->supervisorSp = supervisorSp;
 480              		.loc 2 58 5
 481              		.loc 2 58 24 is_stmt 0
 482 0224 B7870000 		li	a5,32768
 483 0228 3305F500 		add	a0,a0,a5
 484              	.LVL33:
 485 022c 2330B502 		sd	a1,32(a0)
  59:src/Thread.cpp **** }
 486              		.loc 2 59 1
 487 0230 03348100 		ld	s0,8(sp)
 488              		.cfi_restore 8
 489              		.cfi_def_cfa 2, 16
 490 0234 13010101 		addi	sp,sp,16
 491              		.cfi_def_cfa_offset 0
 492 0238 67800000 		jr	ra
 493              		.cfi_endproc
 494              	.LFE17:
 496              	.Letext0:
 497              		.file 3 "src/../lib/hw.h"
 498              		.file 4 "src/Scheduler.hpp"
GAS LISTING /tmp/cc94JdsP.s 			page 11


DEFINED SYMBOLS
                            *ABS*:0000000000000000 Thread.cpp
     /tmp/cc94JdsP.s:10     .text._ZN6Thread16threadTrampolineEPS_:0000000000000000 _ZN6Thread16threadTrampolineEPS_
     /tmp/cc94JdsP.s:14     .text._ZN6Thread16threadTrampolineEPS_:0000000000000000 .L0 
     /tmp/cc94JdsP.s:16     .text._ZN6Thread16threadTrampolineEPS_:0000000000000000 .L0 
     /tmp/cc94JdsP.s:17     .text._ZN6Thread16threadTrampolineEPS_:0000000000000000 .L0 
     /tmp/cc94JdsP.s:18     .text._ZN6Thread16threadTrampolineEPS_:0000000000000000 .L0 
     /tmp/cc94JdsP.s:20     .text._ZN6Thread16threadTrampolineEPS_:0000000000000004 .L0 
     /tmp/cc94JdsP.s:22     .text._ZN6Thread16threadTrampolineEPS_:0000000000000008 .L0 
     /tmp/cc94JdsP.s:23     .text._ZN6Thread16threadTrampolineEPS_:000000000000000c .L0 
     /tmp/cc94JdsP.s:26     .text._ZN6Thread16threadTrampolineEPS_:0000000000000014 .L0 
     /tmp/cc94JdsP.s:27     .text._ZN6Thread16threadTrampolineEPS_:0000000000000014 .L0 
     /tmp/cc94JdsP.s:29     .text._ZN6Thread16threadTrampolineEPS_:0000000000000018 .L0 
     /tmp/cc94JdsP.s:31     .text._ZN6Thread16threadTrampolineEPS_:0000000000000018 .L0 
     /tmp/cc94JdsP.s:32     .text._ZN6Thread16threadTrampolineEPS_:0000000000000018 .L0 
     /tmp/cc94JdsP.s:35     .text._ZN6Thread16threadTrampolineEPS_:000000000000001c .L0 
     /tmp/cc94JdsP.s:36     .text._ZN6Thread16threadTrampolineEPS_:0000000000000020 .L0 
     /tmp/cc94JdsP.s:38     .text._ZN6Thread16threadTrampolineEPS_:0000000000000024 .L0 
     /tmp/cc94JdsP.s:39     .text._ZN6Thread16threadTrampolineEPS_:0000000000000024 .L0 
     /tmp/cc94JdsP.s:41     .text._ZN6Thread16threadTrampolineEPS_:0000000000000028 .L0 
     /tmp/cc94JdsP.s:46     .text._ZN6Thread16threadTrampolineEPS_:0000000000000030 .L0 
     /tmp/cc94JdsP.s:53     .text:0000000000000000 _ZN6ThreadC2Ev
     /tmp/cc94JdsP.s:57     .text:0000000000000000 .L0 
     /tmp/cc94JdsP.s:59     .text:0000000000000000 .L0 
     /tmp/cc94JdsP.s:60     .text:0000000000000004 .L0 
     /tmp/cc94JdsP.s:62     .text:0000000000000008 .L0 
     /tmp/cc94JdsP.s:64     .text:000000000000000c .L0 
     /tmp/cc94JdsP.s:66     .text:000000000000000c .L0 
     /tmp/cc94JdsP.s:67     .text:0000000000000010 .L0 
     /tmp/cc94JdsP.s:68     .text:0000000000000010 .L0 
     /tmp/cc94JdsP.s:70     .text:0000000000000014 .L0 
     /tmp/cc94JdsP.s:72     .text:0000000000000018 .L0 
     /tmp/cc94JdsP.s:53     .text:0000000000000000 _ZN6ThreadC1Ev
     /tmp/cc94JdsP.s:80     .text:0000000000000018 _ZN6Thread4initEv
     /tmp/cc94JdsP.s:83     .text:0000000000000018 .L0 
     /tmp/cc94JdsP.s:85     .text:0000000000000018 .L0 
     /tmp/cc94JdsP.s:86     .text:000000000000001c .L0 
     /tmp/cc94JdsP.s:88     .text:0000000000000020 .L0 
     /tmp/cc94JdsP.s:90     .text:0000000000000024 .L0 
     /tmp/cc94JdsP.s:92     .text:0000000000000024 .L0 
     /tmp/cc94JdsP.s:93     .text:0000000000000028 .L0 
     /tmp/cc94JdsP.s:94     .text:0000000000000028 .L0 
     /tmp/cc94JdsP.s:96     .text:000000000000002c .L0 
     /tmp/cc94JdsP.s:98     .text:0000000000000030 .L0 
     /tmp/cc94JdsP.s:104    .text:0000000000000030 _ZN6Thread11copyContextEPm
     /tmp/cc94JdsP.s:107    .text:0000000000000030 .L0 
     /tmp/cc94JdsP.s:109    .text:0000000000000030 .L0 
     /tmp/cc94JdsP.s:110    .text:0000000000000034 .L0 
     /tmp/cc94JdsP.s:112    .text:0000000000000038 .L0 
     /tmp/cc94JdsP.s:114    .text:000000000000003c .L0 
     /tmp/cc94JdsP.s:117    .text:000000000000003c .L0 
     /tmp/cc94JdsP.s:119    .text:000000000000003c .L0 
     /tmp/cc94JdsP.s:120    .text:000000000000003c .L0 
     /tmp/cc94JdsP.s:124    .text:0000000000000040 .L0 
     /tmp/cc94JdsP.s:127    .text:0000000000000048 .L0 
     /tmp/cc94JdsP.s:128    .text:0000000000000048 .L0 
     /tmp/cc94JdsP.s:132    .text:0000000000000054 .L0 
GAS LISTING /tmp/cc94JdsP.s 			page 12


     /tmp/cc94JdsP.s:139    .text:000000000000006c .L0 
     /tmp/cc94JdsP.s:146    .text:0000000000000074 .L0 
     /tmp/cc94JdsP.s:147    .text:0000000000000074 .L0 
     /tmp/cc94JdsP.s:149    .text:0000000000000078 .L0 
     /tmp/cc94JdsP.s:155    .text:0000000000000084 .L0 
     /tmp/cc94JdsP.s:156    .text:0000000000000084 .L0 
     /tmp/cc94JdsP.s:158    .text:0000000000000088 .L0 
     /tmp/cc94JdsP.s:160    .text:000000000000008c .L0 
     /tmp/cc94JdsP.s:161    .text:000000000000008c .L0 
     /tmp/cc94JdsP.s:163    .text:0000000000000090 .L0 
     /tmp/cc94JdsP.s:165    .text:0000000000000094 .L0 
     /tmp/cc94JdsP.s:166    .text:0000000000000098 .L0 
     /tmp/cc94JdsP.s:167    .text:0000000000000098 .L0 
     /tmp/cc94JdsP.s:169    .text:000000000000009c .L0 
     /tmp/cc94JdsP.s:171    .text:00000000000000a0 .L0 
     /tmp/cc94JdsP.s:177    .text:00000000000000a0 _ZN6Thread10getContextEv
     /tmp/cc94JdsP.s:180    .text:00000000000000a0 .L0 
     /tmp/cc94JdsP.s:182    .text:00000000000000a0 .L0 
     /tmp/cc94JdsP.s:183    .text:00000000000000a4 .L0 
     /tmp/cc94JdsP.s:185    .text:00000000000000a8 .L0 
     /tmp/cc94JdsP.s:187    .text:00000000000000ac .L0 
     /tmp/cc94JdsP.s:189    .text:00000000000000ac .L0 
     /tmp/cc94JdsP.s:190    .text:00000000000000ac .L0 
     /tmp/cc94JdsP.s:195    .text:00000000000000bc .L0 
     /tmp/cc94JdsP.s:196    .text:00000000000000bc .L0 
     /tmp/cc94JdsP.s:198    .text:00000000000000c0 .L0 
     /tmp/cc94JdsP.s:200    .text:00000000000000c4 .L0 
     /tmp/cc94JdsP.s:206    .text:00000000000000c4 _ZN6Thread14getNextInQueueEv
     /tmp/cc94JdsP.s:209    .text:00000000000000c4 .L0 
     /tmp/cc94JdsP.s:211    .text:00000000000000c4 .L0 
     /tmp/cc94JdsP.s:212    .text:00000000000000c8 .L0 
     /tmp/cc94JdsP.s:214    .text:00000000000000cc .L0 
     /tmp/cc94JdsP.s:216    .text:00000000000000d0 .L0 
     /tmp/cc94JdsP.s:218    .text:00000000000000d0 .L0 
     /tmp/cc94JdsP.s:219    .text:00000000000000d0 .L0 
     /tmp/cc94JdsP.s:222    .text:00000000000000d8 .L0 
     /tmp/cc94JdsP.s:223    .text:00000000000000d8 .L0 
     /tmp/cc94JdsP.s:225    .text:00000000000000dc .L0 
     /tmp/cc94JdsP.s:227    .text:00000000000000e0 .L0 
     /tmp/cc94JdsP.s:233    .text:00000000000000e0 _ZN6Thread14getPrevInQueueEv
     /tmp/cc94JdsP.s:236    .text:00000000000000e0 .L0 
     /tmp/cc94JdsP.s:238    .text:00000000000000e0 .L0 
     /tmp/cc94JdsP.s:239    .text:00000000000000e4 .L0 
     /tmp/cc94JdsP.s:241    .text:00000000000000e8 .L0 
     /tmp/cc94JdsP.s:243    .text:00000000000000ec .L0 
     /tmp/cc94JdsP.s:245    .text:00000000000000ec .L0 
     /tmp/cc94JdsP.s:246    .text:00000000000000ec .L0 
     /tmp/cc94JdsP.s:249    .text:00000000000000f4 .L0 
     /tmp/cc94JdsP.s:250    .text:00000000000000f4 .L0 
     /tmp/cc94JdsP.s:252    .text:00000000000000f8 .L0 
     /tmp/cc94JdsP.s:254    .text:00000000000000fc .L0 
     /tmp/cc94JdsP.s:260    .text:00000000000000fc _ZN6Thread14setNextInQueueEPS_
     /tmp/cc94JdsP.s:263    .text:00000000000000fc .L0 
     /tmp/cc94JdsP.s:265    .text:00000000000000fc .L0 
     /tmp/cc94JdsP.s:266    .text:0000000000000100 .L0 
     /tmp/cc94JdsP.s:268    .text:0000000000000104 .L0 
     /tmp/cc94JdsP.s:270    .text:0000000000000108 .L0 
GAS LISTING /tmp/cc94JdsP.s 			page 13


     /tmp/cc94JdsP.s:272    .text:0000000000000108 .L0 
     /tmp/cc94JdsP.s:273    .text:0000000000000108 .L0 
     /tmp/cc94JdsP.s:275    .text:000000000000010c .L0 
     /tmp/cc94JdsP.s:276    .text:0000000000000110 .L0 
     /tmp/cc94JdsP.s:277    .text:0000000000000110 .L0 
     /tmp/cc94JdsP.s:279    .text:0000000000000114 .L0 
     /tmp/cc94JdsP.s:281    .text:0000000000000118 .L0 
     /tmp/cc94JdsP.s:287    .text:0000000000000118 _ZN6Thread14setPrevInQueueEPS_
     /tmp/cc94JdsP.s:290    .text:0000000000000118 .L0 
     /tmp/cc94JdsP.s:292    .text:0000000000000118 .L0 
     /tmp/cc94JdsP.s:293    .text:000000000000011c .L0 
     /tmp/cc94JdsP.s:295    .text:0000000000000120 .L0 
     /tmp/cc94JdsP.s:297    .text:0000000000000124 .L0 
     /tmp/cc94JdsP.s:299    .text:0000000000000124 .L0 
     /tmp/cc94JdsP.s:300    .text:0000000000000124 .L0 
     /tmp/cc94JdsP.s:302    .text:0000000000000128 .L0 
     /tmp/cc94JdsP.s:303    .text:000000000000012c .L0 
     /tmp/cc94JdsP.s:304    .text:000000000000012c .L0 
     /tmp/cc94JdsP.s:306    .text:0000000000000130 .L0 
     /tmp/cc94JdsP.s:308    .text:0000000000000134 .L0 
     /tmp/cc94JdsP.s:314    .text:0000000000000134 _ZN6Thread21setNextAndPrevInQueueEPS_S0_
     /tmp/cc94JdsP.s:317    .text:0000000000000134 .L0 
     /tmp/cc94JdsP.s:319    .text:0000000000000134 .L0 
     /tmp/cc94JdsP.s:320    .text:0000000000000138 .L0 
     /tmp/cc94JdsP.s:325    .text:0000000000000148 .L0 
     /tmp/cc94JdsP.s:326    .text:0000000000000148 .L0 
     /tmp/cc94JdsP.s:327    .text:0000000000000148 .L0 
     /tmp/cc94JdsP.s:328    .text:0000000000000148 .L0 
     /tmp/cc94JdsP.s:330    .text:000000000000014c .L0 
     /tmp/cc94JdsP.s:334    .text:0000000000000154 .L0 
     /tmp/cc94JdsP.s:335    .text:0000000000000154 .L0 
     /tmp/cc94JdsP.s:338    .text:000000000000015c .L0 
     /tmp/cc94JdsP.s:339    .text:000000000000015c .L0 
     /tmp/cc94JdsP.s:344    .text:000000000000016c .L0 
     /tmp/cc94JdsP.s:345    .text:0000000000000170 .L0 
     /tmp/cc94JdsP.s:347    .text:0000000000000174 .L0 
     /tmp/cc94JdsP.s:348    .text:0000000000000174 .L0 
     /tmp/cc94JdsP.s:350    .text:0000000000000178 .L0 
     /tmp/cc94JdsP.s:353    .text:000000000000017c .L0 
     /tmp/cc94JdsP.s:356    .text:0000000000000180 .L0 
     /tmp/cc94JdsP.s:358    .text:0000000000000184 .L0 
     /tmp/cc94JdsP.s:364    .text:0000000000000184 _ZN6Thread5startEv
     /tmp/cc94JdsP.s:367    .text:0000000000000184 .L0 
     /tmp/cc94JdsP.s:369    .text:0000000000000184 .L0 
     /tmp/cc94JdsP.s:370    .text:0000000000000188 .L0 
     /tmp/cc94JdsP.s:374    .text:0000000000000194 .L0 
     /tmp/cc94JdsP.s:375    .text:0000000000000194 .L0 
     /tmp/cc94JdsP.s:376    .text:0000000000000194 .L0 
     /tmp/cc94JdsP.s:378    .text:0000000000000198 .L0 
     /tmp/cc94JdsP.s:381    .text:000000000000019c .L0 
     /tmp/cc94JdsP.s:382    .text:000000000000019c .L0 
     /tmp/cc94JdsP.s:385    .text:00000000000001a4 .L0 
     /tmp/cc94JdsP.s:386    .text:00000000000001a4 .L0 
     /tmp/cc94JdsP.s:391    .text:00000000000001b8 .L0 
     /tmp/cc94JdsP.s:392    .text:00000000000001b8 .L0 
     /tmp/cc94JdsP.s:394    .text:00000000000001bc .L0 
     /tmp/cc94JdsP.s:395    .text:00000000000001bc .L0 
GAS LISTING /tmp/cc94JdsP.s 			page 14


     /tmp/cc94JdsP.s:401    .text:00000000000001d0 .L0 
     /tmp/cc94JdsP.s:402    .text:00000000000001d4 .L0 
     /tmp/cc94JdsP.s:404    .text:00000000000001d8 .L0 
     /tmp/cc94JdsP.s:405    .text:00000000000001d8 .L0 
     /tmp/cc94JdsP.s:407    .text:00000000000001dc .L0 
     /tmp/cc94JdsP.s:410    .text:00000000000001e0 .L0 
     /tmp/cc94JdsP.s:412    .text:00000000000001e4 .L0 
     /tmp/cc94JdsP.s:418    .text:00000000000001e4 _ZN6Thread4joinEv
     /tmp/cc94JdsP.s:421    .text:00000000000001e4 .L0 
     /tmp/cc94JdsP.s:423    .text:00000000000001e4 .L0 
     /tmp/cc94JdsP.s:424    .text:00000000000001e8 .L0 
     /tmp/cc94JdsP.s:426    .text:00000000000001ec .L0 
     /tmp/cc94JdsP.s:428    .text:00000000000001f0 .L0 
     /tmp/cc94JdsP.s:430    .text:00000000000001f0 .L0 
     /tmp/cc94JdsP.s:431    .text:00000000000001f4 .L0 
     /tmp/cc94JdsP.s:432    .text:00000000000001f4 .L0 
     /tmp/cc94JdsP.s:434    .text:00000000000001f8 .L0 
     /tmp/cc94JdsP.s:436    .text:00000000000001fc .L0 
     /tmp/cc94JdsP.s:442    .text:00000000000001fc _ZN6Thread11setStackPtrEPm
     /tmp/cc94JdsP.s:445    .text:00000000000001fc .L0 
     /tmp/cc94JdsP.s:447    .text:00000000000001fc .L0 
     /tmp/cc94JdsP.s:448    .text:0000000000000200 .L0 
     /tmp/cc94JdsP.s:450    .text:0000000000000204 .L0 
     /tmp/cc94JdsP.s:452    .text:0000000000000208 .L0 
     /tmp/cc94JdsP.s:454    .text:0000000000000208 .L0 
     /tmp/cc94JdsP.s:455    .text:0000000000000208 .L0 
     /tmp/cc94JdsP.s:457    .text:000000000000020c .L0 
     /tmp/cc94JdsP.s:458    .text:0000000000000210 .L0 
     /tmp/cc94JdsP.s:459    .text:0000000000000210 .L0 
     /tmp/cc94JdsP.s:461    .text:0000000000000214 .L0 
     /tmp/cc94JdsP.s:463    .text:0000000000000218 .L0 
     /tmp/cc94JdsP.s:469    .text:0000000000000218 _ZN6Thread15setSupervisorSpEPm
     /tmp/cc94JdsP.s:472    .text:0000000000000218 .L0 
     /tmp/cc94JdsP.s:474    .text:0000000000000218 .L0 
     /tmp/cc94JdsP.s:475    .text:000000000000021c .L0 
     /tmp/cc94JdsP.s:477    .text:0000000000000220 .L0 
     /tmp/cc94JdsP.s:479    .text:0000000000000224 .L0 
     /tmp/cc94JdsP.s:481    .text:0000000000000224 .L0 
     /tmp/cc94JdsP.s:482    .text:0000000000000224 .L0 
     /tmp/cc94JdsP.s:487    .text:0000000000000230 .L0 
     /tmp/cc94JdsP.s:488    .text:0000000000000234 .L0 
     /tmp/cc94JdsP.s:489    .text:0000000000000234 .L0 
     /tmp/cc94JdsP.s:491    .text:0000000000000238 .L0 
     /tmp/cc94JdsP.s:493    .text:000000000000023c .L0 
     /tmp/cc94JdsP.s:49     .text._ZN6Thread16threadTrampolineEPS_:0000000000000030 .L0 
     /tmp/cc94JdsP.s:499    .text:000000000000023c .L0 
     /tmp/cc94JdsP.s:388    .text:00000000000001ac .L0 
     /tmp/cc94JdsP.s:143    .text:0000000000000074 .L12
     /tmp/cc94JdsP.s:122    .text:0000000000000040 .L13
     /tmp/cc94JdsP.s:44     .text._ZN6Thread16threadTrampolineEPS_:000000000000002c .L4
     /tmp/cc94JdsP.s:1458   .debug_abbrev:0000000000000000 .Ldebug_abbrev0
     /tmp/cc94JdsP.s:2661   .debug_str:0000000000000520 .LASF82
     /tmp/cc94JdsP.s:2657   .debug_str:0000000000000505 .LASF83
     /tmp/cc94JdsP.s:2651   .debug_str:00000000000004d3 .LASF84
     /tmp/cc94JdsP.s:2497   .debug_ranges:0000000000000000 .Ldebug_ranges0
     /tmp/cc94JdsP.s:2505   .debug_line:0000000000000000 .Ldebug_line0
     /tmp/cc94JdsP.s:2607   .debug_str:000000000000037c .LASF0
GAS LISTING /tmp/cc94JdsP.s 			page 15


     /tmp/cc94JdsP.s:2623   .debug_str:00000000000003dc .LASF1
     /tmp/cc94JdsP.s:2595   .debug_str:0000000000000302 .LASF2
     /tmp/cc94JdsP.s:2577   .debug_str:000000000000025a .LASF4
     /tmp/cc94JdsP.s:2615   .debug_str:00000000000003ad .LASF3
     /tmp/cc94JdsP.s:2525   .debug_str:000000000000007a .LASF5
     /tmp/cc94JdsP.s:2553   .debug_str:0000000000000168 .LASF6
     /tmp/cc94JdsP.s:2627   .debug_str:000000000000040b .LASF7
     /tmp/cc94JdsP.s:2605   .debug_str:0000000000000369 .LASF8
     /tmp/cc94JdsP.s:2673   .debug_str:0000000000000638 .LASF9
     /tmp/cc94JdsP.s:2571   .debug_str:000000000000021d .LASF10
     /tmp/cc94JdsP.s:2635   .debug_str:0000000000000438 .LASF11
     /tmp/cc94JdsP.s:2663   .debug_str:00000000000005e4 .LASF12
     /tmp/cc94JdsP.s:2529   .debug_str:00000000000000a8 .LASF13
     /tmp/cc94JdsP.s:2511   .debug_str:0000000000000025 .LASF14
     /tmp/cc94JdsP.s:2543   .debug_str:0000000000000111 .LASF15
     /tmp/cc94JdsP.s:2645   .debug_str:00000000000004a9 .LASF16
     /tmp/cc94JdsP.s:2549   .debug_str:0000000000000142 .LASF17
     /tmp/cc94JdsP.s:2513   .debug_str:0000000000000035 .LASF85
     /tmp/cc94JdsP.s:2617   .debug_str:00000000000003bf .LASF18
     /tmp/cc94JdsP.s:2643   .debug_str:00000000000004a1 .LASF19
     /tmp/cc94JdsP.s:2669   .debug_str:0000000000000618 .LASF27
     /tmp/cc94JdsP.s:2539   .debug_str:00000000000000fb .LASF55
     /tmp/cc94JdsP.s:2603   .debug_str:0000000000000348 .LASF57
     /tmp/cc94JdsP.s:2579   .debug_str:0000000000000261 .LASF20
     /tmp/cc94JdsP.s:2675   .debug_str:0000000000000648 .LASF21
     /tmp/cc94JdsP.s:2683   .debug_str:0000000000000694 .LASF22
     /tmp/cc94JdsP.s:2519   .debug_str:0000000000000058 .LASF23
     /tmp/cc94JdsP.s:2613   .debug_str:00000000000003a7 .LASF24
     /tmp/cc94JdsP.s:2509   .debug_str:0000000000000018 .LASF25
     /tmp/cc94JdsP.s:2523   .debug_str:000000000000006c .LASF26
     /tmp/cc94JdsP.s:2569   .debug_str:000000000000020e .LASF29
     /tmp/cc94JdsP.s:2659   .debug_str:0000000000000514 .LASF28
     /tmp/cc94JdsP.s:2581   .debug_str:0000000000000266 .LASF30
     /tmp/cc94JdsP.s:2629   .debug_str:000000000000041e .LASF31
     /tmp/cc94JdsP.s:2619   .debug_str:00000000000003c4 .LASF32
     /tmp/cc94JdsP.s:2545   .debug_str:000000000000011d .LASF33
     /tmp/cc94JdsP.s:2591   .debug_str:00000000000002d7 .LASF34
     /tmp/cc94JdsP.s:2601   .debug_str:000000000000033c .LASF37
     /tmp/cc94JdsP.s:2637   .debug_str:0000000000000447 .LASF39
     /tmp/cc94JdsP.s:2593   .debug_str:00000000000002f2 .LASF35
     /tmp/cc94JdsP.s:2531   .debug_str:00000000000000b8 .LASF36
     /tmp/cc94JdsP.s:2535   .debug_str:00000000000000e3 .LASF38
     /tmp/cc94JdsP.s:2671   .debug_str:000000000000061f .LASF40
     /tmp/cc94JdsP.s:2555   .debug_str:000000000000016f .LASF41
     /tmp/cc94JdsP.s:2575   .debug_str:000000000000023d .LASF42
     /tmp/cc94JdsP.s:2655   .debug_str:00000000000004f6 .LASF43
     /tmp/cc94JdsP.s:2667   .debug_str:00000000000005fb .LASF44
     /tmp/cc94JdsP.s:2685   .debug_str:0000000000000699 .LASF45
     /tmp/cc94JdsP.s:2597   .debug_str:0000000000000310 .LASF46
     /tmp/cc94JdsP.s:2517   .debug_str:0000000000000049 .LASF47
     /tmp/cc94JdsP.s:2641   .debug_str:0000000000000482 .LASF48
     /tmp/cc94JdsP.s:2583   .debug_str:0000000000000281 .LASF49
     /tmp/cc94JdsP.s:2561   .debug_str:0000000000000197 .LASF50
     /tmp/cc94JdsP.s:2621   .debug_str:00000000000003d6 .LASF51
     /tmp/cc94JdsP.s:2567   .debug_str:00000000000001fb .LASF52
     /tmp/cc94JdsP.s:2665   .debug_str:00000000000005f3 .LASF53
     /tmp/cc94JdsP.s:2547   .debug_str:0000000000000129 .LASF54
GAS LISTING /tmp/cc94JdsP.s 			page 16


     /tmp/cc94JdsP.s:2653   .debug_str:00000000000004f1 .LASF56
     /tmp/cc94JdsP.s:2573   .debug_str:000000000000022b .LASF58
     /tmp/cc94JdsP.s:2633   .debug_str:000000000000042e .LASF59
     /tmp/cc94JdsP.s:2565   .debug_str:00000000000001e5 .LASF60
     /tmp/cc94JdsP.s:2557   .debug_str:000000000000017e .LASF61
     /tmp/cc94JdsP.s:2521   .debug_str:0000000000000061 .LASF62
     /tmp/cc94JdsP.s:2649   .debug_str:00000000000004c5 .LASF63
     /tmp/cc94JdsP.s:2515   .debug_str:000000000000003d .LASF64
     /tmp/cc94JdsP.s:2599   .debug_str:000000000000032f .LASF65
     /tmp/cc94JdsP.s:2533   .debug_str:00000000000000d7 .LASF86
     /tmp/cc94JdsP.s:2589   .debug_str:00000000000002ba .LASF87
     /tmp/cc94JdsP.s:2609   .debug_str:0000000000000389 .LASF76
     /tmp/cc94JdsP.s:2527   .debug_str:0000000000000081 .LASF78
     /tmp/cc94JdsP.s:2551   .debug_str:0000000000000158 .LASF66
     /tmp/cc94JdsP.s:2639   .debug_str:0000000000000461 .LASF68
     /tmp/cc94JdsP.s:2559   .debug_str:0000000000000186 .LASF67
     /tmp/cc94JdsP.s:2681   .debug_str:0000000000000672 .LASF69
     /tmp/cc94JdsP.s:2631   .debug_str:0000000000000423 .LASF72
     /tmp/cc94JdsP.s:2625   .debug_str:00000000000003ef .LASF74
     /tmp/cc94JdsP.s:2647   .debug_str:00000000000004bf .LASF70
     /tmp/cc94JdsP.s:2679   .debug_str:0000000000000652 .LASF71
     /tmp/cc94JdsP.s:2585   .debug_str:0000000000000297 .LASF73
     /tmp/cc94JdsP.s:2507   .debug_str:0000000000000000 .LASF75
     /tmp/cc94JdsP.s:2587   .debug_str:000000000000029f .LASF88
     /tmp/cc94JdsP.s:2537   .debug_str:00000000000000ee .LASF77
     /tmp/cc94JdsP.s:2563   .debug_str:00000000000001c0 .LASF79
     /tmp/cc94JdsP.s:470    .text:0000000000000218 .LFB17
     /tmp/cc94JdsP.s:494    .text:000000000000023c .LFE17
     /tmp/cc94JdsP.s:2677   .debug_str:000000000000064d .LASF80
     /tmp/cc94JdsP.s:2313   .debug_loc:0000000000000000 .LLST10
     /tmp/cc94JdsP.s:443    .text:00000000000001fc .LFB16
     /tmp/cc94JdsP.s:464    .text:0000000000000218 .LFE16
     /tmp/cc94JdsP.s:419    .text:00000000000001e4 .LFB15
     /tmp/cc94JdsP.s:437    .text:00000000000001fc .LFE15
     /tmp/cc94JdsP.s:365    .text:0000000000000184 .LFB14
     /tmp/cc94JdsP.s:413    .text:00000000000001e4 .LFE14
     /tmp/cc94JdsP.s:2326   .debug_loc:000000000000003a .LLST9
     /tmp/cc94JdsP.s:383    .text:00000000000001a4 .LVL26
     /tmp/cc94JdsP.s:396    .text:00000000000001c4 .LVL27
     /tmp/cc94JdsP.s:399    .text:00000000000001d0 .LVL28
     /tmp/cc94JdsP.s:315    .text:0000000000000134 .LFB13
     /tmp/cc94JdsP.s:359    .text:0000000000000184 .LFE13
     /tmp/cc94JdsP.s:2344   .debug_loc:0000000000000086 .LLST6
     /tmp/cc94JdsP.s:2362   .debug_loc:00000000000000d2 .LLST7
     /tmp/cc94JdsP.s:2376   .debug_loc:000000000000010b .LLST8
     /tmp/cc94JdsP.s:336    .text:000000000000015c .LVL21
     /tmp/cc94JdsP.s:342    .text:000000000000016c .LVL22
     /tmp/cc94JdsP.s:288    .text:0000000000000118 .LFB12
     /tmp/cc94JdsP.s:309    .text:0000000000000134 .LFE12
     /tmp/cc94JdsP.s:261    .text:00000000000000fc .LFB11
     /tmp/cc94JdsP.s:282    .text:0000000000000118 .LFE11
     /tmp/cc94JdsP.s:234    .text:00000000000000e0 .LFB10
     /tmp/cc94JdsP.s:255    .text:00000000000000fc .LFE10
     /tmp/cc94JdsP.s:2394   .debug_loc:0000000000000157 .LLST5
     /tmp/cc94JdsP.s:207    .text:00000000000000c4 .LFB9
     /tmp/cc94JdsP.s:228    .text:00000000000000e0 .LFE9
     /tmp/cc94JdsP.s:2408   .debug_loc:0000000000000190 .LLST4
GAS LISTING /tmp/cc94JdsP.s 			page 17


     /tmp/cc94JdsP.s:178    .text:00000000000000a0 .LFB8
     /tmp/cc94JdsP.s:201    .text:00000000000000c4 .LFE8
     /tmp/cc94JdsP.s:2422   .debug_loc:00000000000001c9 .LLST3
     /tmp/cc94JdsP.s:105    .text:0000000000000030 .LFB7
     /tmp/cc94JdsP.s:172    .text:00000000000000a0 .LFE7
     /tmp/cc94JdsP.s:2435   .debug_loc:0000000000000203 .LLST1
     /tmp/cc94JdsP.s:2541   .debug_str:000000000000010c .LASF81
     /tmp/cc94JdsP.s:118    .text:000000000000003c .LBB2
     /tmp/cc94JdsP.s:144    .text:0000000000000074 .LBE2
     /tmp/cc94JdsP.s:2448   .debug_loc:000000000000023d .LLST2
     /tmp/cc94JdsP.s:81     .text:0000000000000018 .LFB6
     /tmp/cc94JdsP.s:99     .text:0000000000000030 .LFE6
     /tmp/cc94JdsP.s:2611   .debug_str:0000000000000398 .LASF89
     /tmp/cc94JdsP.s:54     .text:0000000000000000 .LFB4
     /tmp/cc94JdsP.s:73     .text:0000000000000018 .LFE4
     /tmp/cc94JdsP.s:11     .text._ZN6Thread16threadTrampolineEPS_:0000000000000000 .LFB0
     /tmp/cc94JdsP.s:47     .text._ZN6Thread16threadTrampolineEPS_:0000000000000030 .LFE0
     /tmp/cc94JdsP.s:2464   .debug_loc:0000000000000287 .LLST0
     /tmp/cc94JdsP.s:473    .text:0000000000000218 .LVL32
     /tmp/cc94JdsP.s:484    .text:000000000000022c .LVL33
     /tmp/cc94JdsP.s:368    .text:0000000000000184 .LVL25
     /tmp/cc94JdsP.s:408    .text:00000000000001dc .LVL29
     /tmp/cc94JdsP.s:318    .text:0000000000000134 .LVL20
     /tmp/cc94JdsP.s:351    .text:0000000000000178 .LVL23
     /tmp/cc94JdsP.s:354    .text:000000000000017c .LVL24
     /tmp/cc94JdsP.s:237    .text:00000000000000e0 .LVL16
     /tmp/cc94JdsP.s:247    .text:00000000000000f0 .LVL17
     /tmp/cc94JdsP.s:210    .text:00000000000000c4 .LVL14
     /tmp/cc94JdsP.s:220    .text:00000000000000d4 .LVL15
     /tmp/cc94JdsP.s:181    .text:00000000000000a0 .LVL12
     /tmp/cc94JdsP.s:193    .text:00000000000000b8 .LVL13
     /tmp/cc94JdsP.s:108    .text:0000000000000030 .LVL5
     /tmp/cc94JdsP.s:152    .text:0000000000000080 .LVL11
     /tmp/cc94JdsP.s:116    .text:000000000000003c .LVL6
     /tmp/cc94JdsP.s:121    .text:0000000000000040 .LVL7
     /tmp/cc94JdsP.s:140    .text:0000000000000070 .LVL8
     /tmp/cc94JdsP.s:142    .text:0000000000000074 .LVL9
     /tmp/cc94JdsP.s:150    .text:000000000000007c .LVL10
     /tmp/cc94JdsP.s:15     .text._ZN6Thread16threadTrampolineEPS_:0000000000000000 .LVL0
     /tmp/cc94JdsP.s:33     .text._ZN6Thread16threadTrampolineEPS_:000000000000001c .LVL1
     /tmp/cc94JdsP.s:43     .text._ZN6Thread16threadTrampolineEPS_:000000000000002c .LVL2
     /tmp/cc94JdsP.s:500    .debug_info:0000000000000000 .Ldebug_info0
     /tmp/cc94JdsP.s:5      .text:0000000000000000 .Ltext0
     /tmp/cc94JdsP.s:496    .text:000000000000023c .Letext0

UNDEFINED SYMBOLS
_ZN9Scheduler12AddNewThreadEP6Thread
_ZN9Scheduler10GetRunningEv
_ZN9Scheduler5yieldEP6ThreadS1_
