GAS LISTING /tmp/ccvNYnVM.s 			page 1


   1              		.file	"Thread.cpp"
   2              		.option pic
   3              		.option norelax
   4              		.text
   5              	.Ltext0:
   6              		.align	2
   7              		.globl	_ZN6Thread16threadTrampolineEPS_
   9              	_ZN6Thread16threadTrampolineEPS_:
  10              	.LFB13:
  11              		.file 1 "src/Thread.cpp"
   1:src/Thread.cpp **** //
   2:src/Thread.cpp **** // Created by os on 6/10/26.
   3:src/Thread.cpp **** //
   4:src/Thread.cpp **** 
   5:src/Thread.cpp **** #include "Thread.hpp"
   6:src/Thread.cpp **** #include "Scheduler.hpp"
   7:src/Thread.cpp **** 
   8:src/Thread.cpp **** #include "../lib/console.h"
   9:src/Thread.cpp **** 
  10:src/Thread.cpp **** Thread::Thread() {
  11:src/Thread.cpp **** }
  12:src/Thread.cpp **** 
  13:src/Thread.cpp **** void Thread::init() {
  14:src/Thread.cpp **** }
  15:src/Thread.cpp **** void Thread::copyContext(size_t* ctx) {
  16:src/Thread.cpp ****     Context* cont = reinterpret_cast<Context*>(ctx);
  17:src/Thread.cpp ****     for (int i = 0;i<32;i++) {
  18:src/Thread.cpp ****         threadContext.x[i] = cont->x[i];
  19:src/Thread.cpp ****     }
  20:src/Thread.cpp ****     threadContext.x[2] = reinterpret_cast<size_t>(this->stackPtr);
  21:src/Thread.cpp ****     threadContext.sepc = cont->sepc;
  22:src/Thread.cpp ****     threadContext.sstatus =cont->sstatus;
  23:src/Thread.cpp **** }
  24:src/Thread.cpp **** 
  25:src/Thread.cpp **** size_t* Thread::getContext() {
  26:src/Thread.cpp ****     return reinterpret_cast<size_t*>(&threadContext);
  27:src/Thread.cpp **** }
  28:src/Thread.cpp **** Thread* Thread::getNextInQueue(){
  29:src/Thread.cpp ****     return next;
  30:src/Thread.cpp **** }
  31:src/Thread.cpp **** Thread* Thread::getPrevInQueue(){
  32:src/Thread.cpp ****     return prev;
  33:src/Thread.cpp **** }
  34:src/Thread.cpp **** void Thread::setNextInQueue(Thread* next){
  35:src/Thread.cpp ****     this->next = next;
  36:src/Thread.cpp **** }
  37:src/Thread.cpp **** void Thread::setPrevInQueue(Thread* prev){
  38:src/Thread.cpp ****     this->prev = prev;
  39:src/Thread.cpp **** }
  40:src/Thread.cpp **** void Thread::setNextAndPrevInQueue(Thread* next, Thread* prev){
  41:src/Thread.cpp ****     setNextInQueue(next);
  42:src/Thread.cpp ****     setPrevInQueue(prev);
  43:src/Thread.cpp **** }
  44:src/Thread.cpp **** void Thread::threadTrampoline(Thread* t) {
  12              		.loc 1 44 42
  13              		.cfi_startproc
  14              	.LVL0:
GAS LISTING /tmp/ccvNYnVM.s 			page 2


  45:src/Thread.cpp ****     if (t->body)t->body();
  15              		.loc 1 45 5
  16              		.loc 1 45 12 is_stmt 0
  17 0000 83370500 		ld	a5,0(a0)
  18              		.loc 1 45 5
  19 0004 638E0700 		beqz	a5,.L4
  44:src/Thread.cpp ****     if (t->body)t->body();
  20              		.loc 1 44 42 discriminator 1
  21 0008 130101FF 		addi	sp,sp,-16
  22              		.cfi_def_cfa_offset 16
  23 000c 23341100 		sd	ra,8(sp)
  24 0010 23308100 		sd	s0,0(sp)
  25              		.cfi_offset 1, -8
  26              		.cfi_offset 8, -16
  27 0014 13040101 		addi	s0,sp,16
  28              		.cfi_def_cfa 8, 0
  29              		.loc 1 45 17 is_stmt 1 discriminator 1
  30              		.loc 1 45 24 is_stmt 0 discriminator 1
  31 0018 E7800700 		jalr	a5
  32              	.LVL1:
  33              	.L2:
  46:src/Thread.cpp ****     //Scheduler::yield(t,Scheduler::GetRunning());
  47:src/Thread.cpp ****     while (true) {}//TODO: Namesti dobar return iz threada
  34              		.loc 1 47 5 is_stmt 1 discriminator 1
  35              		.loc 1 47 5 discriminator 1
  36 001c 6F000000 		j	.L2
  37              	.LVL2:
  38              	.L4:
  39              		.cfi_def_cfa_register 2
  40              		.cfi_restore 1
  41              		.cfi_restore 8
  42              		.loc 1 47 5
  43              		.loc 1 47 5
  44 0020 6F000000 		j	.L4
  45              		.cfi_endproc
  46              	.LFE13:
  48              		.align	2
  49              		.globl	_ZN6ThreadC2Ev
  51              	_ZN6ThreadC2Ev:
  52              	.LFB3:
  10:src/Thread.cpp **** }
  53              		.loc 1 10 1
  54              		.cfi_startproc
  55              	.LVL3:
  56 0024 130101FF 		addi	sp,sp,-16
  57              		.cfi_def_cfa_offset 16
  58 0028 23348100 		sd	s0,8(sp)
  59              		.cfi_offset 8, -8
  60 002c 13040101 		addi	s0,sp,16
  61              		.cfi_def_cfa 8, 0
  11:src/Thread.cpp **** 
  62              		.loc 1 11 1 is_stmt 0
  63 0030 03348100 		ld	s0,8(sp)
  64              		.cfi_restore 8
  65              		.cfi_def_cfa 2, 16
  66 0034 13010101 		addi	sp,sp,16
  67              		.cfi_def_cfa_offset 0
GAS LISTING /tmp/ccvNYnVM.s 			page 3


  68 0038 67800000 		jr	ra
  69              		.cfi_endproc
  70              	.LFE3:
  72              		.globl	_ZN6ThreadC1Ev
  73              		.set	_ZN6ThreadC1Ev,_ZN6ThreadC2Ev
  74              		.align	2
  75              		.globl	_ZN6Thread4initEv
  77              	_ZN6Thread4initEv:
  78              	.LFB5:
  13:src/Thread.cpp **** }
  79              		.loc 1 13 21 is_stmt 1
  80              		.cfi_startproc
  81              	.LVL4:
  82 003c 130101FF 		addi	sp,sp,-16
  83              		.cfi_def_cfa_offset 16
  84 0040 23348100 		sd	s0,8(sp)
  85              		.cfi_offset 8, -8
  86 0044 13040101 		addi	s0,sp,16
  87              		.cfi_def_cfa 8, 0
  14:src/Thread.cpp **** void Thread::copyContext(size_t* ctx) {
  88              		.loc 1 14 1 is_stmt 0
  89 0048 03348100 		ld	s0,8(sp)
  90              		.cfi_restore 8
  91              		.cfi_def_cfa 2, 16
  92 004c 13010101 		addi	sp,sp,16
  93              		.cfi_def_cfa_offset 0
  94 0050 67800000 		jr	ra
  95              		.cfi_endproc
  96              	.LFE5:
  98              		.align	2
  99              		.globl	_ZN6Thread11copyContextEPm
 101              	_ZN6Thread11copyContextEPm:
 102              	.LFB6:
  15:src/Thread.cpp ****     Context* cont = reinterpret_cast<Context*>(ctx);
 103              		.loc 1 15 39 is_stmt 1
 104              		.cfi_startproc
 105              	.LVL5:
 106 0054 130101FF 		addi	sp,sp,-16
 107              		.cfi_def_cfa_offset 16
 108 0058 23348100 		sd	s0,8(sp)
 109              		.cfi_offset 8, -8
 110 005c 13040101 		addi	s0,sp,16
 111              		.cfi_def_cfa 8, 0
  16:src/Thread.cpp ****     for (int i = 0;i<32;i++) {
 112              		.loc 1 16 5
 113              	.LVL6:
  17:src/Thread.cpp ****         threadContext.x[i] = cont->x[i];
 114              		.loc 1 17 5
 115              	.LBB2:
  17:src/Thread.cpp ****         threadContext.x[i] = cont->x[i];
 116              		.loc 1 17 14 is_stmt 0
 117 0060 13070000 		li	a4,0
 118              	.LVL7:
 119              	.L13:
  17:src/Thread.cpp ****         threadContext.x[i] = cont->x[i];
 120              		.loc 1 17 21 is_stmt 1 discriminator 3
 121 0064 9307F001 		li	a5,31
GAS LISTING /tmp/ccvNYnVM.s 			page 4


 122 0068 63C8E702 		bgt	a4,a5,.L12
  18:src/Thread.cpp ****     }
 123              		.loc 1 18 9 discriminator 2
  18:src/Thread.cpp ****     }
 124              		.loc 1 18 39 is_stmt 0 discriminator 2
 125 006c 93173700 		slli	a5,a4,3
 126 0070 B387F500 		add	a5,a1,a5
 127 0074 83B60700 		ld	a3,0(a5)
  18:src/Thread.cpp ****     }
 128              		.loc 1 18 28 discriminator 2
 129 0078 B7170000 		li	a5,4096
 130 007c 93874700 		addi	a5,a5,4
 131 0080 B307F700 		add	a5,a4,a5
 132 0084 93973700 		slli	a5,a5,3
 133 0088 B307F500 		add	a5,a0,a5
 134 008c 23B4D700 		sd	a3,8(a5)
  17:src/Thread.cpp ****         threadContext.x[i] = cont->x[i];
 135              		.loc 1 17 5 is_stmt 1 discriminator 2
 136 0090 1B071700 		addiw	a4,a4,1
 137              	.LVL8:
 138 0094 6FF01FFD 		j	.L13
 139              	.LVL9:
 140              	.L12:
 141              	.LBE2:
  20:src/Thread.cpp ****     threadContext.sepc = cont->sepc;
 142              		.loc 1 20 5
  20:src/Thread.cpp ****     threadContext.sepc = cont->sepc;
 143              		.loc 1 20 57 is_stmt 0
 144 0098 83378501 		ld	a5,24(a0)
  20:src/Thread.cpp ****     threadContext.sepc = cont->sepc;
 145              		.loc 1 20 24
 146 009c 37870000 		li	a4,32768
 147              	.LVL10:
 148 00a0 3305E500 		add	a0,a0,a4
 149              	.LVL11:
 150 00a4 233CF502 		sd	a5,56(a0)
  21:src/Thread.cpp ****     threadContext.sstatus =cont->sstatus;
 151              		.loc 1 21 5 is_stmt 1
  21:src/Thread.cpp ****     threadContext.sstatus =cont->sstatus;
 152              		.loc 1 21 32 is_stmt 0
 153 00a8 83B70510 		ld	a5,256(a1)
  21:src/Thread.cpp ****     threadContext.sstatus =cont->sstatus;
 154              		.loc 1 21 24
 155 00ac 2334F512 		sd	a5,296(a0)
  22:src/Thread.cpp **** }
 156              		.loc 1 22 5 is_stmt 1
  22:src/Thread.cpp **** }
 157              		.loc 1 22 34 is_stmt 0
 158 00b0 83B78510 		ld	a5,264(a1)
  22:src/Thread.cpp **** }
 159              		.loc 1 22 27
 160 00b4 2338F512 		sd	a5,304(a0)
  23:src/Thread.cpp **** 
 161              		.loc 1 23 1
 162 00b8 03348100 		ld	s0,8(sp)
 163              		.cfi_restore 8
 164              		.cfi_def_cfa 2, 16
GAS LISTING /tmp/ccvNYnVM.s 			page 5


 165 00bc 13010101 		addi	sp,sp,16
 166              		.cfi_def_cfa_offset 0
 167 00c0 67800000 		jr	ra
 168              		.cfi_endproc
 169              	.LFE6:
 171              		.align	2
 172              		.globl	_ZN6Thread10getContextEv
 174              	_ZN6Thread10getContextEv:
 175              	.LFB7:
  25:src/Thread.cpp ****     return reinterpret_cast<size_t*>(&threadContext);
 176              		.loc 1 25 30 is_stmt 1
 177              		.cfi_startproc
 178              	.LVL12:
 179 00c4 130101FF 		addi	sp,sp,-16
 180              		.cfi_def_cfa_offset 16
 181 00c8 23348100 		sd	s0,8(sp)
 182              		.cfi_offset 8, -8
 183 00cc 13040101 		addi	s0,sp,16
 184              		.cfi_def_cfa 8, 0
  26:src/Thread.cpp **** }
 185              		.loc 1 26 5
  27:src/Thread.cpp **** Thread* Thread::getNextInQueue(){
 186              		.loc 1 27 1 is_stmt 0
 187 00d0 B7870000 		li	a5,32768
 188 00d4 93878702 		addi	a5,a5,40
 189 00d8 3305F500 		add	a0,a0,a5
 190              	.LVL13:
 191 00dc 03348100 		ld	s0,8(sp)
 192              		.cfi_restore 8
 193              		.cfi_def_cfa 2, 16
 194 00e0 13010101 		addi	sp,sp,16
 195              		.cfi_def_cfa_offset 0
 196 00e4 67800000 		jr	ra
 197              		.cfi_endproc
 198              	.LFE7:
 200              		.align	2
 201              		.globl	_ZN6Thread14getNextInQueueEv
 203              	_ZN6Thread14getNextInQueueEv:
 204              	.LFB8:
  28:src/Thread.cpp ****     return next;
 205              		.loc 1 28 33 is_stmt 1
 206              		.cfi_startproc
 207              	.LVL14:
 208 00e8 130101FF 		addi	sp,sp,-16
 209              		.cfi_def_cfa_offset 16
 210 00ec 23348100 		sd	s0,8(sp)
 211              		.cfi_offset 8, -8
 212 00f0 13040101 		addi	s0,sp,16
 213              		.cfi_def_cfa 8, 0
  29:src/Thread.cpp **** }
 214              		.loc 1 29 5
  30:src/Thread.cpp **** Thread* Thread::getPrevInQueue(){
 215              		.loc 1 30 1 is_stmt 0
 216 00f4 03350501 		ld	a0,16(a0)
 217              	.LVL15:
 218 00f8 03348100 		ld	s0,8(sp)
 219              		.cfi_restore 8
GAS LISTING /tmp/ccvNYnVM.s 			page 6


 220              		.cfi_def_cfa 2, 16
 221 00fc 13010101 		addi	sp,sp,16
 222              		.cfi_def_cfa_offset 0
 223 0100 67800000 		jr	ra
 224              		.cfi_endproc
 225              	.LFE8:
 227              		.align	2
 228              		.globl	_ZN6Thread14getPrevInQueueEv
 230              	_ZN6Thread14getPrevInQueueEv:
 231              	.LFB9:
  31:src/Thread.cpp ****     return prev;
 232              		.loc 1 31 33 is_stmt 1
 233              		.cfi_startproc
 234              	.LVL16:
 235 0104 130101FF 		addi	sp,sp,-16
 236              		.cfi_def_cfa_offset 16
 237 0108 23348100 		sd	s0,8(sp)
 238              		.cfi_offset 8, -8
 239 010c 13040101 		addi	s0,sp,16
 240              		.cfi_def_cfa 8, 0
  32:src/Thread.cpp **** }
 241              		.loc 1 32 5
  33:src/Thread.cpp **** void Thread::setNextInQueue(Thread* next){
 242              		.loc 1 33 1 is_stmt 0
 243 0110 03358500 		ld	a0,8(a0)
 244              	.LVL17:
 245 0114 03348100 		ld	s0,8(sp)
 246              		.cfi_restore 8
 247              		.cfi_def_cfa 2, 16
 248 0118 13010101 		addi	sp,sp,16
 249              		.cfi_def_cfa_offset 0
 250 011c 67800000 		jr	ra
 251              		.cfi_endproc
 252              	.LFE9:
 254              		.align	2
 255              		.globl	_ZN6Thread14setNextInQueueEPS_
 257              	_ZN6Thread14setNextInQueueEPS_:
 258              	.LFB10:
  34:src/Thread.cpp ****     this->next = next;
 259              		.loc 1 34 42 is_stmt 1
 260              		.cfi_startproc
 261              	.LVL18:
 262 0120 130101FF 		addi	sp,sp,-16
 263              		.cfi_def_cfa_offset 16
 264 0124 23348100 		sd	s0,8(sp)
 265              		.cfi_offset 8, -8
 266 0128 13040101 		addi	s0,sp,16
 267              		.cfi_def_cfa 8, 0
  35:src/Thread.cpp **** }
 268              		.loc 1 35 5
  35:src/Thread.cpp **** }
 269              		.loc 1 35 16 is_stmt 0
 270 012c 2338B500 		sd	a1,16(a0)
  36:src/Thread.cpp **** void Thread::setPrevInQueue(Thread* prev){
 271              		.loc 1 36 1
 272 0130 03348100 		ld	s0,8(sp)
 273              		.cfi_restore 8
GAS LISTING /tmp/ccvNYnVM.s 			page 7


 274              		.cfi_def_cfa 2, 16
 275 0134 13010101 		addi	sp,sp,16
 276              		.cfi_def_cfa_offset 0
 277 0138 67800000 		jr	ra
 278              		.cfi_endproc
 279              	.LFE10:
 281              		.align	2
 282              		.globl	_ZN6Thread14setPrevInQueueEPS_
 284              	_ZN6Thread14setPrevInQueueEPS_:
 285              	.LFB11:
  37:src/Thread.cpp ****     this->prev = prev;
 286              		.loc 1 37 42 is_stmt 1
 287              		.cfi_startproc
 288              	.LVL19:
 289 013c 130101FF 		addi	sp,sp,-16
 290              		.cfi_def_cfa_offset 16
 291 0140 23348100 		sd	s0,8(sp)
 292              		.cfi_offset 8, -8
 293 0144 13040101 		addi	s0,sp,16
 294              		.cfi_def_cfa 8, 0
  38:src/Thread.cpp **** }
 295              		.loc 1 38 5
  38:src/Thread.cpp **** }
 296              		.loc 1 38 16 is_stmt 0
 297 0148 2334B500 		sd	a1,8(a0)
  39:src/Thread.cpp **** void Thread::setNextAndPrevInQueue(Thread* next, Thread* prev){
 298              		.loc 1 39 1
 299 014c 03348100 		ld	s0,8(sp)
 300              		.cfi_restore 8
 301              		.cfi_def_cfa 2, 16
 302 0150 13010101 		addi	sp,sp,16
 303              		.cfi_def_cfa_offset 0
 304 0154 67800000 		jr	ra
 305              		.cfi_endproc
 306              	.LFE11:
 308              		.align	2
 309              		.globl	_ZN6Thread21setNextAndPrevInQueueEPS_S0_
 311              	_ZN6Thread21setNextAndPrevInQueueEPS_S0_:
 312              	.LFB12:
  40:src/Thread.cpp ****     setNextInQueue(next);
 313              		.loc 1 40 63 is_stmt 1
 314              		.cfi_startproc
 315              	.LVL20:
 316 0158 130101FE 		addi	sp,sp,-32
 317              		.cfi_def_cfa_offset 32
 318 015c 233C1100 		sd	ra,24(sp)
 319 0160 23388100 		sd	s0,16(sp)
 320 0164 23349100 		sd	s1,8(sp)
 321 0168 23302101 		sd	s2,0(sp)
 322              		.cfi_offset 1, -8
 323              		.cfi_offset 8, -16
 324              		.cfi_offset 9, -24
 325              		.cfi_offset 18, -32
 326 016c 13040102 		addi	s0,sp,32
 327              		.cfi_def_cfa 8, 0
 328 0170 93040500 		mv	s1,a0
 329 0174 13090600 		mv	s2,a2
GAS LISTING /tmp/ccvNYnVM.s 			page 8


  41:src/Thread.cpp ****     setPrevInQueue(prev);
 330              		.loc 1 41 5
  41:src/Thread.cpp ****     setPrevInQueue(prev);
 331              		.loc 1 41 19 is_stmt 0
 332 0178 97000000 		call	_ZN6Thread14setNextInQueueEPS_
 332      E7800000 
 333              	.LVL21:
  42:src/Thread.cpp **** }
 334              		.loc 1 42 5 is_stmt 1
  42:src/Thread.cpp **** }
 335              		.loc 1 42 19 is_stmt 0
 336 0180 93050900 		mv	a1,s2
 337 0184 13850400 		mv	a0,s1
 338 0188 97000000 		call	_ZN6Thread14setPrevInQueueEPS_
 338      E7800000 
 339              	.LVL22:
  43:src/Thread.cpp **** void Thread::threadTrampoline(Thread* t) {
 340              		.loc 1 43 1
 341 0190 83308101 		ld	ra,24(sp)
 342              		.cfi_restore 1
 343 0194 03340101 		ld	s0,16(sp)
 344              		.cfi_restore 8
 345              		.cfi_def_cfa 2, 32
 346 0198 83348100 		ld	s1,8(sp)
 347              		.cfi_restore 9
 348              	.LVL23:
 349 019c 03390100 		ld	s2,0(sp)
 350              		.cfi_restore 18
 351              	.LVL24:
 352 01a0 13010102 		addi	sp,sp,32
 353              		.cfi_def_cfa_offset 0
 354 01a4 67800000 		jr	ra
 355              		.cfi_endproc
 356              	.LFE12:
 358              		.align	2
 359              		.globl	_ZN6Thread5startEv
 361              	_ZN6Thread5startEv:
 362              	.LFB14:
  48:src/Thread.cpp **** }
  49:src/Thread.cpp **** void Thread::start(){
 363              		.loc 1 49 21 is_stmt 1
 364              		.cfi_startproc
 365              	.LVL25:
 366 01a8 130101FE 		addi	sp,sp,-32
 367              		.cfi_def_cfa_offset 32
 368 01ac 233C1100 		sd	ra,24(sp)
 369 01b0 23388100 		sd	s0,16(sp)
 370 01b4 23349100 		sd	s1,8(sp)
 371              		.cfi_offset 1, -8
 372              		.cfi_offset 8, -16
 373              		.cfi_offset 9, -24
 374 01b8 13040102 		addi	s0,sp,32
 375              		.cfi_def_cfa 8, 0
 376 01bc 93040500 		mv	s1,a0
  50:src/Thread.cpp ****     Scheduler::AddNewThread(this);
 377              		.loc 1 50 5
 378              		.loc 1 50 28 is_stmt 0
GAS LISTING /tmp/ccvNYnVM.s 			page 9


 379 01c0 97000000 		call	_ZN9Scheduler12AddNewThreadEP6Thread@plt
 379      E7800000 
 380              	.LVL26:
  51:src/Thread.cpp ****     this->threadContext.sepc = reinterpret_cast<size_t>(&Thread::threadTrampoline);
 381              		.loc 1 51 5 is_stmt 1
 382              		.loc 1 51 30 is_stmt 0
 383 01c8 B7870000 		li	a5,32768
 384 01cc B387F400 		add	a5,s1,a5
 385 01d0 17070000 		lla	a4,_ZN6Thread16threadTrampolineEPS_
 385      13070700 
 386 01d8 23B4E712 		sd	a4,296(a5)
  52:src/Thread.cpp ****     this->threadContext.x[10] = reinterpret_cast<size_t>(this);
 387              		.loc 1 52 5 is_stmt 1
 388              		.loc 1 52 31 is_stmt 0
 389 01dc 23BC9706 		sd	s1,120(a5)
  53:src/Thread.cpp ****     // size_t gp_val;
  54:src/Thread.cpp ****     // __asm__ volatile("mv %0, gp" : "=r"(gp_val));
  55:src/Thread.cpp ****     // this->threadContext.x[3] = gp_val;
  56:src/Thread.cpp ****     // size_t sstatus_val;
  57:src/Thread.cpp ****     // __asm__ volatile("csrr %0, sstatus" : "=r"(sstatus_val));
  58:src/Thread.cpp ****     // sstatus_val |= (1UL << 8);
  59:src/Thread.cpp ****     // sstatus_val |= (1UL << 5);
  60:src/Thread.cpp ****     // this->threadContext.sstatus = sstatus_val;
  61:src/Thread.cpp ****     Scheduler::yield(Scheduler::GetRunning(), this);
 390              		.loc 1 61 5 is_stmt 1
 391              		.loc 1 61 21 is_stmt 0
 392 01e0 97000000 		call	_ZN9Scheduler10GetRunningEv@plt
 392      E7800000 
 393              	.LVL27:
 394 01e8 93850400 		mv	a1,s1
 395 01ec 97000000 		call	_ZN9Scheduler5yieldEP6ThreadS1_@plt
 395      E7800000 
 396              	.LVL28:
  62:src/Thread.cpp **** }
 397              		.loc 1 62 1
 398 01f4 83308101 		ld	ra,24(sp)
 399              		.cfi_restore 1
 400 01f8 03340101 		ld	s0,16(sp)
 401              		.cfi_restore 8
 402              		.cfi_def_cfa 2, 32
 403 01fc 83348100 		ld	s1,8(sp)
 404              		.cfi_restore 9
 405              	.LVL29:
 406 0200 13010102 		addi	sp,sp,32
 407              		.cfi_def_cfa_offset 0
 408 0204 67800000 		jr	ra
 409              		.cfi_endproc
 410              	.LFE14:
 412              		.align	2
 413              		.globl	_ZN6Thread4joinEv
 415              	_ZN6Thread4joinEv:
 416              	.LFB15:
  63:src/Thread.cpp **** void Thread::join(){
 417              		.loc 1 63 20 is_stmt 1
 418              		.cfi_startproc
 419              	.LVL30:
 420 0208 130101FF 		addi	sp,sp,-16
GAS LISTING /tmp/ccvNYnVM.s 			page 10


 421              		.cfi_def_cfa_offset 16
 422 020c 23348100 		sd	s0,8(sp)
 423              		.cfi_offset 8, -8
 424 0210 13040101 		addi	s0,sp,16
 425              		.cfi_def_cfa 8, 0
  64:src/Thread.cpp **** 
  65:src/Thread.cpp **** }
 426              		.loc 1 65 1 is_stmt 0
 427 0214 03348100 		ld	s0,8(sp)
 428              		.cfi_restore 8
 429              		.cfi_def_cfa 2, 16
 430 0218 13010101 		addi	sp,sp,16
 431              		.cfi_def_cfa_offset 0
 432 021c 67800000 		jr	ra
 433              		.cfi_endproc
 434              	.LFE15:
 436              		.align	2
 437              		.globl	_ZN6Thread11setStackPtrEPm
 439              	_ZN6Thread11setStackPtrEPm:
 440              	.LFB16:
  66:src/Thread.cpp **** void Thread::setStackPtr(size_t* stackPtr) {
 441              		.loc 1 66 44 is_stmt 1
 442              		.cfi_startproc
 443              	.LVL31:
 444 0220 130101FF 		addi	sp,sp,-16
 445              		.cfi_def_cfa_offset 16
 446 0224 23348100 		sd	s0,8(sp)
 447              		.cfi_offset 8, -8
 448 0228 13040101 		addi	s0,sp,16
 449              		.cfi_def_cfa 8, 0
  67:src/Thread.cpp ****     this->stackPtr = stackPtr;
 450              		.loc 1 67 5
 451              		.loc 1 67 20 is_stmt 0
 452 022c 233CB500 		sd	a1,24(a0)
  68:src/Thread.cpp **** }
 453              		.loc 1 68 1
 454 0230 03348100 		ld	s0,8(sp)
 455              		.cfi_restore 8
 456              		.cfi_def_cfa 2, 16
 457 0234 13010101 		addi	sp,sp,16
 458              		.cfi_def_cfa_offset 0
 459 0238 67800000 		jr	ra
 460              		.cfi_endproc
 461              	.LFE16:
 463              		.align	2
 464              		.globl	_ZN6Thread15setSupervisorSpEPm
 466              	_ZN6Thread15setSupervisorSpEPm:
 467              	.LFB17:
  69:src/Thread.cpp **** 
  70:src/Thread.cpp **** void Thread::setSupervisorSp(size_t* supervisorSp) {
 468              		.loc 1 70 52 is_stmt 1
 469              		.cfi_startproc
 470              	.LVL32:
 471 023c 130101FF 		addi	sp,sp,-16
 472              		.cfi_def_cfa_offset 16
 473 0240 23348100 		sd	s0,8(sp)
 474              		.cfi_offset 8, -8
GAS LISTING /tmp/ccvNYnVM.s 			page 11


 475 0244 13040101 		addi	s0,sp,16
 476              		.cfi_def_cfa 8, 0
  71:src/Thread.cpp ****     this->supervisorSp = supervisorSp;
 477              		.loc 1 71 5
 478              		.loc 1 71 24 is_stmt 0
 479 0248 B7870000 		li	a5,32768
 480 024c 3305F500 		add	a0,a0,a5
 481              	.LVL33:
 482 0250 2330B502 		sd	a1,32(a0)
  72:src/Thread.cpp **** }
 483              		.loc 1 72 1
 484 0254 03348100 		ld	s0,8(sp)
 485              		.cfi_restore 8
 486              		.cfi_def_cfa 2, 16
 487 0258 13010101 		addi	sp,sp,16
 488              		.cfi_def_cfa_offset 0
 489 025c 67800000 		jr	ra
 490              		.cfi_endproc
 491              	.LFE17:
 493              	.Letext0:
 494              		.file 2 "src/../lib/hw.h"
 495              		.file 3 "src/Thread.hpp"
 496              		.file 4 "src/Scheduler.hpp"
GAS LISTING /tmp/ccvNYnVM.s 			page 12


DEFINED SYMBOLS
                            *ABS*:0000000000000000 Thread.cpp
     /tmp/ccvNYnVM.s:9      .text:0000000000000000 _ZN6Thread16threadTrampolineEPS_
     /tmp/ccvNYnVM.s:13     .text:0000000000000000 .L0 
     /tmp/ccvNYnVM.s:15     .text:0000000000000000 .L0 
     /tmp/ccvNYnVM.s:16     .text:0000000000000000 .L0 
     /tmp/ccvNYnVM.s:17     .text:0000000000000000 .L0 
     /tmp/ccvNYnVM.s:19     .text:0000000000000004 .L0 
     /tmp/ccvNYnVM.s:21     .text:0000000000000008 .L0 
     /tmp/ccvNYnVM.s:22     .text:000000000000000c .L0 
     /tmp/ccvNYnVM.s:25     .text:0000000000000014 .L0 
     /tmp/ccvNYnVM.s:26     .text:0000000000000014 .L0 
     /tmp/ccvNYnVM.s:28     .text:0000000000000018 .L0 
     /tmp/ccvNYnVM.s:30     .text:0000000000000018 .L0 
     /tmp/ccvNYnVM.s:31     .text:0000000000000018 .L0 
     /tmp/ccvNYnVM.s:35     .text:000000000000001c .L0 
     /tmp/ccvNYnVM.s:36     .text:000000000000001c .L0 
     /tmp/ccvNYnVM.s:39     .text:0000000000000020 .L0 
     /tmp/ccvNYnVM.s:40     .text:0000000000000020 .L0 
     /tmp/ccvNYnVM.s:41     .text:0000000000000020 .L0 
     /tmp/ccvNYnVM.s:43     .text:0000000000000020 .L0 
     /tmp/ccvNYnVM.s:44     .text:0000000000000020 .L0 
     /tmp/ccvNYnVM.s:45     .text:0000000000000024 .L0 
     /tmp/ccvNYnVM.s:51     .text:0000000000000024 _ZN6ThreadC2Ev
     /tmp/ccvNYnVM.s:54     .text:0000000000000024 .L0 
     /tmp/ccvNYnVM.s:56     .text:0000000000000024 .L0 
     /tmp/ccvNYnVM.s:57     .text:0000000000000028 .L0 
     /tmp/ccvNYnVM.s:59     .text:000000000000002c .L0 
     /tmp/ccvNYnVM.s:61     .text:0000000000000030 .L0 
     /tmp/ccvNYnVM.s:63     .text:0000000000000030 .L0 
     /tmp/ccvNYnVM.s:64     .text:0000000000000034 .L0 
     /tmp/ccvNYnVM.s:65     .text:0000000000000034 .L0 
     /tmp/ccvNYnVM.s:67     .text:0000000000000038 .L0 
     /tmp/ccvNYnVM.s:69     .text:000000000000003c .L0 
     /tmp/ccvNYnVM.s:51     .text:0000000000000024 _ZN6ThreadC1Ev
     /tmp/ccvNYnVM.s:77     .text:000000000000003c _ZN6Thread4initEv
     /tmp/ccvNYnVM.s:80     .text:000000000000003c .L0 
     /tmp/ccvNYnVM.s:82     .text:000000000000003c .L0 
     /tmp/ccvNYnVM.s:83     .text:0000000000000040 .L0 
     /tmp/ccvNYnVM.s:85     .text:0000000000000044 .L0 
     /tmp/ccvNYnVM.s:87     .text:0000000000000048 .L0 
     /tmp/ccvNYnVM.s:89     .text:0000000000000048 .L0 
     /tmp/ccvNYnVM.s:90     .text:000000000000004c .L0 
     /tmp/ccvNYnVM.s:91     .text:000000000000004c .L0 
     /tmp/ccvNYnVM.s:93     .text:0000000000000050 .L0 
     /tmp/ccvNYnVM.s:95     .text:0000000000000054 .L0 
     /tmp/ccvNYnVM.s:101    .text:0000000000000054 _ZN6Thread11copyContextEPm
     /tmp/ccvNYnVM.s:104    .text:0000000000000054 .L0 
     /tmp/ccvNYnVM.s:106    .text:0000000000000054 .L0 
     /tmp/ccvNYnVM.s:107    .text:0000000000000058 .L0 
     /tmp/ccvNYnVM.s:109    .text:000000000000005c .L0 
     /tmp/ccvNYnVM.s:111    .text:0000000000000060 .L0 
     /tmp/ccvNYnVM.s:114    .text:0000000000000060 .L0 
     /tmp/ccvNYnVM.s:116    .text:0000000000000060 .L0 
     /tmp/ccvNYnVM.s:117    .text:0000000000000060 .L0 
     /tmp/ccvNYnVM.s:121    .text:0000000000000064 .L0 
     /tmp/ccvNYnVM.s:124    .text:000000000000006c .L0 
GAS LISTING /tmp/ccvNYnVM.s 			page 13


     /tmp/ccvNYnVM.s:125    .text:000000000000006c .L0 
     /tmp/ccvNYnVM.s:129    .text:0000000000000078 .L0 
     /tmp/ccvNYnVM.s:136    .text:0000000000000090 .L0 
     /tmp/ccvNYnVM.s:143    .text:0000000000000098 .L0 
     /tmp/ccvNYnVM.s:144    .text:0000000000000098 .L0 
     /tmp/ccvNYnVM.s:146    .text:000000000000009c .L0 
     /tmp/ccvNYnVM.s:152    .text:00000000000000a8 .L0 
     /tmp/ccvNYnVM.s:153    .text:00000000000000a8 .L0 
     /tmp/ccvNYnVM.s:155    .text:00000000000000ac .L0 
     /tmp/ccvNYnVM.s:157    .text:00000000000000b0 .L0 
     /tmp/ccvNYnVM.s:158    .text:00000000000000b0 .L0 
     /tmp/ccvNYnVM.s:160    .text:00000000000000b4 .L0 
     /tmp/ccvNYnVM.s:162    .text:00000000000000b8 .L0 
     /tmp/ccvNYnVM.s:163    .text:00000000000000bc .L0 
     /tmp/ccvNYnVM.s:164    .text:00000000000000bc .L0 
     /tmp/ccvNYnVM.s:166    .text:00000000000000c0 .L0 
     /tmp/ccvNYnVM.s:168    .text:00000000000000c4 .L0 
     /tmp/ccvNYnVM.s:174    .text:00000000000000c4 _ZN6Thread10getContextEv
     /tmp/ccvNYnVM.s:177    .text:00000000000000c4 .L0 
     /tmp/ccvNYnVM.s:179    .text:00000000000000c4 .L0 
     /tmp/ccvNYnVM.s:180    .text:00000000000000c8 .L0 
     /tmp/ccvNYnVM.s:182    .text:00000000000000cc .L0 
     /tmp/ccvNYnVM.s:184    .text:00000000000000d0 .L0 
     /tmp/ccvNYnVM.s:186    .text:00000000000000d0 .L0 
     /tmp/ccvNYnVM.s:187    .text:00000000000000d0 .L0 
     /tmp/ccvNYnVM.s:192    .text:00000000000000e0 .L0 
     /tmp/ccvNYnVM.s:193    .text:00000000000000e0 .L0 
     /tmp/ccvNYnVM.s:195    .text:00000000000000e4 .L0 
     /tmp/ccvNYnVM.s:197    .text:00000000000000e8 .L0 
     /tmp/ccvNYnVM.s:203    .text:00000000000000e8 _ZN6Thread14getNextInQueueEv
     /tmp/ccvNYnVM.s:206    .text:00000000000000e8 .L0 
     /tmp/ccvNYnVM.s:208    .text:00000000000000e8 .L0 
     /tmp/ccvNYnVM.s:209    .text:00000000000000ec .L0 
     /tmp/ccvNYnVM.s:211    .text:00000000000000f0 .L0 
     /tmp/ccvNYnVM.s:213    .text:00000000000000f4 .L0 
     /tmp/ccvNYnVM.s:215    .text:00000000000000f4 .L0 
     /tmp/ccvNYnVM.s:216    .text:00000000000000f4 .L0 
     /tmp/ccvNYnVM.s:219    .text:00000000000000fc .L0 
     /tmp/ccvNYnVM.s:220    .text:00000000000000fc .L0 
     /tmp/ccvNYnVM.s:222    .text:0000000000000100 .L0 
     /tmp/ccvNYnVM.s:224    .text:0000000000000104 .L0 
     /tmp/ccvNYnVM.s:230    .text:0000000000000104 _ZN6Thread14getPrevInQueueEv
     /tmp/ccvNYnVM.s:233    .text:0000000000000104 .L0 
     /tmp/ccvNYnVM.s:235    .text:0000000000000104 .L0 
     /tmp/ccvNYnVM.s:236    .text:0000000000000108 .L0 
     /tmp/ccvNYnVM.s:238    .text:000000000000010c .L0 
     /tmp/ccvNYnVM.s:240    .text:0000000000000110 .L0 
     /tmp/ccvNYnVM.s:242    .text:0000000000000110 .L0 
     /tmp/ccvNYnVM.s:243    .text:0000000000000110 .L0 
     /tmp/ccvNYnVM.s:246    .text:0000000000000118 .L0 
     /tmp/ccvNYnVM.s:247    .text:0000000000000118 .L0 
     /tmp/ccvNYnVM.s:249    .text:000000000000011c .L0 
     /tmp/ccvNYnVM.s:251    .text:0000000000000120 .L0 
     /tmp/ccvNYnVM.s:257    .text:0000000000000120 _ZN6Thread14setNextInQueueEPS_
     /tmp/ccvNYnVM.s:260    .text:0000000000000120 .L0 
     /tmp/ccvNYnVM.s:262    .text:0000000000000120 .L0 
     /tmp/ccvNYnVM.s:263    .text:0000000000000124 .L0 
GAS LISTING /tmp/ccvNYnVM.s 			page 14


     /tmp/ccvNYnVM.s:265    .text:0000000000000128 .L0 
     /tmp/ccvNYnVM.s:267    .text:000000000000012c .L0 
     /tmp/ccvNYnVM.s:269    .text:000000000000012c .L0 
     /tmp/ccvNYnVM.s:270    .text:000000000000012c .L0 
     /tmp/ccvNYnVM.s:272    .text:0000000000000130 .L0 
     /tmp/ccvNYnVM.s:273    .text:0000000000000134 .L0 
     /tmp/ccvNYnVM.s:274    .text:0000000000000134 .L0 
     /tmp/ccvNYnVM.s:276    .text:0000000000000138 .L0 
     /tmp/ccvNYnVM.s:278    .text:000000000000013c .L0 
     /tmp/ccvNYnVM.s:284    .text:000000000000013c _ZN6Thread14setPrevInQueueEPS_
     /tmp/ccvNYnVM.s:287    .text:000000000000013c .L0 
     /tmp/ccvNYnVM.s:289    .text:000000000000013c .L0 
     /tmp/ccvNYnVM.s:290    .text:0000000000000140 .L0 
     /tmp/ccvNYnVM.s:292    .text:0000000000000144 .L0 
     /tmp/ccvNYnVM.s:294    .text:0000000000000148 .L0 
     /tmp/ccvNYnVM.s:296    .text:0000000000000148 .L0 
     /tmp/ccvNYnVM.s:297    .text:0000000000000148 .L0 
     /tmp/ccvNYnVM.s:299    .text:000000000000014c .L0 
     /tmp/ccvNYnVM.s:300    .text:0000000000000150 .L0 
     /tmp/ccvNYnVM.s:301    .text:0000000000000150 .L0 
     /tmp/ccvNYnVM.s:303    .text:0000000000000154 .L0 
     /tmp/ccvNYnVM.s:305    .text:0000000000000158 .L0 
     /tmp/ccvNYnVM.s:311    .text:0000000000000158 _ZN6Thread21setNextAndPrevInQueueEPS_S0_
     /tmp/ccvNYnVM.s:314    .text:0000000000000158 .L0 
     /tmp/ccvNYnVM.s:316    .text:0000000000000158 .L0 
     /tmp/ccvNYnVM.s:317    .text:000000000000015c .L0 
     /tmp/ccvNYnVM.s:322    .text:000000000000016c .L0 
     /tmp/ccvNYnVM.s:323    .text:000000000000016c .L0 
     /tmp/ccvNYnVM.s:324    .text:000000000000016c .L0 
     /tmp/ccvNYnVM.s:325    .text:000000000000016c .L0 
     /tmp/ccvNYnVM.s:327    .text:0000000000000170 .L0 
     /tmp/ccvNYnVM.s:331    .text:0000000000000178 .L0 
     /tmp/ccvNYnVM.s:332    .text:0000000000000178 .L0 
     /tmp/ccvNYnVM.s:335    .text:0000000000000180 .L0 
     /tmp/ccvNYnVM.s:336    .text:0000000000000180 .L0 
     /tmp/ccvNYnVM.s:341    .text:0000000000000190 .L0 
     /tmp/ccvNYnVM.s:342    .text:0000000000000194 .L0 
     /tmp/ccvNYnVM.s:344    .text:0000000000000198 .L0 
     /tmp/ccvNYnVM.s:345    .text:0000000000000198 .L0 
     /tmp/ccvNYnVM.s:347    .text:000000000000019c .L0 
     /tmp/ccvNYnVM.s:350    .text:00000000000001a0 .L0 
     /tmp/ccvNYnVM.s:353    .text:00000000000001a4 .L0 
     /tmp/ccvNYnVM.s:355    .text:00000000000001a8 .L0 
     /tmp/ccvNYnVM.s:361    .text:00000000000001a8 _ZN6Thread5startEv
     /tmp/ccvNYnVM.s:364    .text:00000000000001a8 .L0 
     /tmp/ccvNYnVM.s:366    .text:00000000000001a8 .L0 
     /tmp/ccvNYnVM.s:367    .text:00000000000001ac .L0 
     /tmp/ccvNYnVM.s:371    .text:00000000000001b8 .L0 
     /tmp/ccvNYnVM.s:372    .text:00000000000001b8 .L0 
     /tmp/ccvNYnVM.s:373    .text:00000000000001b8 .L0 
     /tmp/ccvNYnVM.s:375    .text:00000000000001bc .L0 
     /tmp/ccvNYnVM.s:378    .text:00000000000001c0 .L0 
     /tmp/ccvNYnVM.s:379    .text:00000000000001c0 .L0 
     /tmp/ccvNYnVM.s:382    .text:00000000000001c8 .L0 
     /tmp/ccvNYnVM.s:383    .text:00000000000001c8 .L0 
     /tmp/ccvNYnVM.s:388    .text:00000000000001dc .L0 
     /tmp/ccvNYnVM.s:389    .text:00000000000001dc .L0 
GAS LISTING /tmp/ccvNYnVM.s 			page 15


     /tmp/ccvNYnVM.s:391    .text:00000000000001e0 .L0 
     /tmp/ccvNYnVM.s:392    .text:00000000000001e0 .L0 
     /tmp/ccvNYnVM.s:398    .text:00000000000001f4 .L0 
     /tmp/ccvNYnVM.s:399    .text:00000000000001f8 .L0 
     /tmp/ccvNYnVM.s:401    .text:00000000000001fc .L0 
     /tmp/ccvNYnVM.s:402    .text:00000000000001fc .L0 
     /tmp/ccvNYnVM.s:404    .text:0000000000000200 .L0 
     /tmp/ccvNYnVM.s:407    .text:0000000000000204 .L0 
     /tmp/ccvNYnVM.s:409    .text:0000000000000208 .L0 
     /tmp/ccvNYnVM.s:415    .text:0000000000000208 _ZN6Thread4joinEv
     /tmp/ccvNYnVM.s:418    .text:0000000000000208 .L0 
     /tmp/ccvNYnVM.s:420    .text:0000000000000208 .L0 
     /tmp/ccvNYnVM.s:421    .text:000000000000020c .L0 
     /tmp/ccvNYnVM.s:423    .text:0000000000000210 .L0 
     /tmp/ccvNYnVM.s:425    .text:0000000000000214 .L0 
     /tmp/ccvNYnVM.s:427    .text:0000000000000214 .L0 
     /tmp/ccvNYnVM.s:428    .text:0000000000000218 .L0 
     /tmp/ccvNYnVM.s:429    .text:0000000000000218 .L0 
     /tmp/ccvNYnVM.s:431    .text:000000000000021c .L0 
     /tmp/ccvNYnVM.s:433    .text:0000000000000220 .L0 
     /tmp/ccvNYnVM.s:439    .text:0000000000000220 _ZN6Thread11setStackPtrEPm
     /tmp/ccvNYnVM.s:442    .text:0000000000000220 .L0 
     /tmp/ccvNYnVM.s:444    .text:0000000000000220 .L0 
     /tmp/ccvNYnVM.s:445    .text:0000000000000224 .L0 
     /tmp/ccvNYnVM.s:447    .text:0000000000000228 .L0 
     /tmp/ccvNYnVM.s:449    .text:000000000000022c .L0 
     /tmp/ccvNYnVM.s:451    .text:000000000000022c .L0 
     /tmp/ccvNYnVM.s:452    .text:000000000000022c .L0 
     /tmp/ccvNYnVM.s:454    .text:0000000000000230 .L0 
     /tmp/ccvNYnVM.s:455    .text:0000000000000234 .L0 
     /tmp/ccvNYnVM.s:456    .text:0000000000000234 .L0 
     /tmp/ccvNYnVM.s:458    .text:0000000000000238 .L0 
     /tmp/ccvNYnVM.s:460    .text:000000000000023c .L0 
     /tmp/ccvNYnVM.s:466    .text:000000000000023c _ZN6Thread15setSupervisorSpEPm
     /tmp/ccvNYnVM.s:469    .text:000000000000023c .L0 
     /tmp/ccvNYnVM.s:471    .text:000000000000023c .L0 
     /tmp/ccvNYnVM.s:472    .text:0000000000000240 .L0 
     /tmp/ccvNYnVM.s:474    .text:0000000000000244 .L0 
     /tmp/ccvNYnVM.s:476    .text:0000000000000248 .L0 
     /tmp/ccvNYnVM.s:478    .text:0000000000000248 .L0 
     /tmp/ccvNYnVM.s:479    .text:0000000000000248 .L0 
     /tmp/ccvNYnVM.s:484    .text:0000000000000254 .L0 
     /tmp/ccvNYnVM.s:485    .text:0000000000000258 .L0 
     /tmp/ccvNYnVM.s:486    .text:0000000000000258 .L0 
     /tmp/ccvNYnVM.s:488    .text:000000000000025c .L0 
     /tmp/ccvNYnVM.s:490    .text:0000000000000260 .L0 
     /tmp/ccvNYnVM.s:497    .text:0000000000000260 .L0 
     /tmp/ccvNYnVM.s:385    .text:00000000000001d0 .L0 
     /tmp/ccvNYnVM.s:38     .text:0000000000000020 .L4
     /tmp/ccvNYnVM.s:33     .text:000000000000001c .L2
     /tmp/ccvNYnVM.s:140    .text:0000000000000098 .L12
     /tmp/ccvNYnVM.s:119    .text:0000000000000064 .L13
     /tmp/ccvNYnVM.s:1459   .debug_abbrev:0000000000000000 .Ldebug_abbrev0
     /tmp/ccvNYnVM.s:2658   .debug_str:0000000000000520 .LASF82
     /tmp/ccvNYnVM.s:2654   .debug_str:0000000000000505 .LASF83
     /tmp/ccvNYnVM.s:2648   .debug_str:00000000000004d3 .LASF84
     /tmp/ccvNYnVM.s:5      .text:0000000000000000 .Ltext0
GAS LISTING /tmp/ccvNYnVM.s 			page 16


     /tmp/ccvNYnVM.s:493    .text:0000000000000260 .Letext0
     /tmp/ccvNYnVM.s:2502   .debug_line:0000000000000000 .Ldebug_line0
     /tmp/ccvNYnVM.s:2604   .debug_str:000000000000037c .LASF0
     /tmp/ccvNYnVM.s:2620   .debug_str:00000000000003dc .LASF1
     /tmp/ccvNYnVM.s:2592   .debug_str:0000000000000302 .LASF2
     /tmp/ccvNYnVM.s:2574   .debug_str:000000000000025a .LASF4
     /tmp/ccvNYnVM.s:2612   .debug_str:00000000000003ad .LASF3
     /tmp/ccvNYnVM.s:2522   .debug_str:000000000000007a .LASF5
     /tmp/ccvNYnVM.s:2550   .debug_str:0000000000000168 .LASF6
     /tmp/ccvNYnVM.s:2624   .debug_str:000000000000040b .LASF7
     /tmp/ccvNYnVM.s:2602   .debug_str:0000000000000369 .LASF8
     /tmp/ccvNYnVM.s:2670   .debug_str:0000000000000638 .LASF9
     /tmp/ccvNYnVM.s:2568   .debug_str:000000000000021d .LASF10
     /tmp/ccvNYnVM.s:2632   .debug_str:0000000000000438 .LASF11
     /tmp/ccvNYnVM.s:2660   .debug_str:00000000000005e4 .LASF12
     /tmp/ccvNYnVM.s:2526   .debug_str:00000000000000a8 .LASF13
     /tmp/ccvNYnVM.s:2508   .debug_str:0000000000000025 .LASF14
     /tmp/ccvNYnVM.s:2540   .debug_str:0000000000000111 .LASF15
     /tmp/ccvNYnVM.s:2642   .debug_str:00000000000004a9 .LASF16
     /tmp/ccvNYnVM.s:2546   .debug_str:0000000000000142 .LASF17
     /tmp/ccvNYnVM.s:2510   .debug_str:0000000000000035 .LASF85
     /tmp/ccvNYnVM.s:2614   .debug_str:00000000000003bf .LASF18
     /tmp/ccvNYnVM.s:2640   .debug_str:00000000000004a1 .LASF19
     /tmp/ccvNYnVM.s:2666   .debug_str:0000000000000618 .LASF27
     /tmp/ccvNYnVM.s:2536   .debug_str:00000000000000fb .LASF55
     /tmp/ccvNYnVM.s:2600   .debug_str:0000000000000348 .LASF57
     /tmp/ccvNYnVM.s:2576   .debug_str:0000000000000261 .LASF20
     /tmp/ccvNYnVM.s:2672   .debug_str:0000000000000648 .LASF21
     /tmp/ccvNYnVM.s:2680   .debug_str:0000000000000694 .LASF22
     /tmp/ccvNYnVM.s:2516   .debug_str:0000000000000058 .LASF23
     /tmp/ccvNYnVM.s:2610   .debug_str:00000000000003a7 .LASF24
     /tmp/ccvNYnVM.s:2506   .debug_str:0000000000000018 .LASF25
     /tmp/ccvNYnVM.s:2520   .debug_str:000000000000006c .LASF26
     /tmp/ccvNYnVM.s:2566   .debug_str:000000000000020e .LASF29
     /tmp/ccvNYnVM.s:2656   .debug_str:0000000000000514 .LASF28
     /tmp/ccvNYnVM.s:2578   .debug_str:0000000000000266 .LASF30
     /tmp/ccvNYnVM.s:2626   .debug_str:000000000000041e .LASF31
     /tmp/ccvNYnVM.s:2616   .debug_str:00000000000003c4 .LASF32
     /tmp/ccvNYnVM.s:2542   .debug_str:000000000000011d .LASF33
     /tmp/ccvNYnVM.s:2588   .debug_str:00000000000002d7 .LASF34
     /tmp/ccvNYnVM.s:2598   .debug_str:000000000000033c .LASF37
     /tmp/ccvNYnVM.s:2634   .debug_str:0000000000000447 .LASF39
     /tmp/ccvNYnVM.s:2590   .debug_str:00000000000002f2 .LASF35
     /tmp/ccvNYnVM.s:2528   .debug_str:00000000000000b8 .LASF36
     /tmp/ccvNYnVM.s:2532   .debug_str:00000000000000e3 .LASF38
     /tmp/ccvNYnVM.s:2668   .debug_str:000000000000061f .LASF40
     /tmp/ccvNYnVM.s:2552   .debug_str:000000000000016f .LASF41
     /tmp/ccvNYnVM.s:2572   .debug_str:000000000000023d .LASF42
     /tmp/ccvNYnVM.s:2652   .debug_str:00000000000004f6 .LASF43
     /tmp/ccvNYnVM.s:2664   .debug_str:00000000000005fb .LASF44
     /tmp/ccvNYnVM.s:2682   .debug_str:0000000000000699 .LASF45
     /tmp/ccvNYnVM.s:2594   .debug_str:0000000000000310 .LASF46
     /tmp/ccvNYnVM.s:2514   .debug_str:0000000000000049 .LASF47
     /tmp/ccvNYnVM.s:2638   .debug_str:0000000000000482 .LASF48
     /tmp/ccvNYnVM.s:2580   .debug_str:0000000000000281 .LASF49
     /tmp/ccvNYnVM.s:2558   .debug_str:0000000000000197 .LASF50
     /tmp/ccvNYnVM.s:2618   .debug_str:00000000000003d6 .LASF51
GAS LISTING /tmp/ccvNYnVM.s 			page 17


     /tmp/ccvNYnVM.s:2564   .debug_str:00000000000001fb .LASF52
     /tmp/ccvNYnVM.s:2662   .debug_str:00000000000005f3 .LASF53
     /tmp/ccvNYnVM.s:2544   .debug_str:0000000000000129 .LASF54
     /tmp/ccvNYnVM.s:2650   .debug_str:00000000000004f1 .LASF56
     /tmp/ccvNYnVM.s:2570   .debug_str:000000000000022b .LASF58
     /tmp/ccvNYnVM.s:2630   .debug_str:000000000000042e .LASF59
     /tmp/ccvNYnVM.s:2562   .debug_str:00000000000001e5 .LASF60
     /tmp/ccvNYnVM.s:2554   .debug_str:000000000000017e .LASF61
     /tmp/ccvNYnVM.s:2518   .debug_str:0000000000000061 .LASF62
     /tmp/ccvNYnVM.s:2646   .debug_str:00000000000004c5 .LASF63
     /tmp/ccvNYnVM.s:2512   .debug_str:000000000000003d .LASF64
     /tmp/ccvNYnVM.s:2596   .debug_str:000000000000032f .LASF65
     /tmp/ccvNYnVM.s:2530   .debug_str:00000000000000d7 .LASF86
     /tmp/ccvNYnVM.s:2586   .debug_str:00000000000002ba .LASF87
     /tmp/ccvNYnVM.s:2606   .debug_str:0000000000000389 .LASF76
     /tmp/ccvNYnVM.s:2524   .debug_str:0000000000000081 .LASF78
     /tmp/ccvNYnVM.s:2548   .debug_str:0000000000000158 .LASF66
     /tmp/ccvNYnVM.s:2636   .debug_str:0000000000000461 .LASF68
     /tmp/ccvNYnVM.s:2556   .debug_str:0000000000000186 .LASF67
     /tmp/ccvNYnVM.s:2678   .debug_str:0000000000000672 .LASF69
     /tmp/ccvNYnVM.s:2628   .debug_str:0000000000000423 .LASF72
     /tmp/ccvNYnVM.s:2622   .debug_str:00000000000003ef .LASF74
     /tmp/ccvNYnVM.s:2644   .debug_str:00000000000004bf .LASF70
     /tmp/ccvNYnVM.s:2676   .debug_str:0000000000000652 .LASF71
     /tmp/ccvNYnVM.s:2582   .debug_str:0000000000000297 .LASF73
     /tmp/ccvNYnVM.s:2504   .debug_str:0000000000000000 .LASF75
     /tmp/ccvNYnVM.s:2584   .debug_str:000000000000029f .LASF88
     /tmp/ccvNYnVM.s:2534   .debug_str:00000000000000ee .LASF77
     /tmp/ccvNYnVM.s:2560   .debug_str:00000000000001c0 .LASF79
     /tmp/ccvNYnVM.s:467    .text:000000000000023c .LFB17
     /tmp/ccvNYnVM.s:491    .text:0000000000000260 .LFE17
     /tmp/ccvNYnVM.s:2674   .debug_str:000000000000064d .LASF80
     /tmp/ccvNYnVM.s:2320   .debug_loc:0000000000000000 .LLST10
     /tmp/ccvNYnVM.s:440    .text:0000000000000220 .LFB16
     /tmp/ccvNYnVM.s:461    .text:000000000000023c .LFE16
     /tmp/ccvNYnVM.s:416    .text:0000000000000208 .LFB15
     /tmp/ccvNYnVM.s:434    .text:0000000000000220 .LFE15
     /tmp/ccvNYnVM.s:362    .text:00000000000001a8 .LFB14
     /tmp/ccvNYnVM.s:410    .text:0000000000000208 .LFE14
     /tmp/ccvNYnVM.s:2333   .debug_loc:000000000000003a .LLST9
     /tmp/ccvNYnVM.s:380    .text:00000000000001c8 .LVL26
     /tmp/ccvNYnVM.s:393    .text:00000000000001e8 .LVL27
     /tmp/ccvNYnVM.s:396    .text:00000000000001f4 .LVL28
     /tmp/ccvNYnVM.s:10     .text:0000000000000000 .LFB13
     /tmp/ccvNYnVM.s:46     .text:0000000000000024 .LFE13
     /tmp/ccvNYnVM.s:2351   .debug_loc:0000000000000086 .LLST0
     /tmp/ccvNYnVM.s:312    .text:0000000000000158 .LFB12
     /tmp/ccvNYnVM.s:356    .text:00000000000001a8 .LFE12
     /tmp/ccvNYnVM.s:2369   .debug_loc:00000000000000d2 .LLST6
     /tmp/ccvNYnVM.s:2387   .debug_loc:000000000000011e .LLST7
     /tmp/ccvNYnVM.s:2401   .debug_loc:0000000000000157 .LLST8
     /tmp/ccvNYnVM.s:333    .text:0000000000000180 .LVL21
     /tmp/ccvNYnVM.s:339    .text:0000000000000190 .LVL22
     /tmp/ccvNYnVM.s:285    .text:000000000000013c .LFB11
     /tmp/ccvNYnVM.s:306    .text:0000000000000158 .LFE11
     /tmp/ccvNYnVM.s:258    .text:0000000000000120 .LFB10
     /tmp/ccvNYnVM.s:279    .text:000000000000013c .LFE10
GAS LISTING /tmp/ccvNYnVM.s 			page 18


     /tmp/ccvNYnVM.s:231    .text:0000000000000104 .LFB9
     /tmp/ccvNYnVM.s:252    .text:0000000000000120 .LFE9
     /tmp/ccvNYnVM.s:2419   .debug_loc:00000000000001a3 .LLST5
     /tmp/ccvNYnVM.s:204    .text:00000000000000e8 .LFB8
     /tmp/ccvNYnVM.s:225    .text:0000000000000104 .LFE8
     /tmp/ccvNYnVM.s:2433   .debug_loc:00000000000001dc .LLST4
     /tmp/ccvNYnVM.s:175    .text:00000000000000c4 .LFB7
     /tmp/ccvNYnVM.s:198    .text:00000000000000e8 .LFE7
     /tmp/ccvNYnVM.s:2447   .debug_loc:0000000000000215 .LLST3
     /tmp/ccvNYnVM.s:102    .text:0000000000000054 .LFB6
     /tmp/ccvNYnVM.s:169    .text:00000000000000c4 .LFE6
     /tmp/ccvNYnVM.s:2460   .debug_loc:000000000000024f .LLST1
     /tmp/ccvNYnVM.s:2538   .debug_str:000000000000010c .LASF81
     /tmp/ccvNYnVM.s:115    .text:0000000000000060 .LBB2
     /tmp/ccvNYnVM.s:141    .text:0000000000000098 .LBE2
     /tmp/ccvNYnVM.s:2473   .debug_loc:0000000000000289 .LLST2
     /tmp/ccvNYnVM.s:78     .text:000000000000003c .LFB5
     /tmp/ccvNYnVM.s:96     .text:0000000000000054 .LFE5
     /tmp/ccvNYnVM.s:2608   .debug_str:0000000000000398 .LASF89
     /tmp/ccvNYnVM.s:52     .text:0000000000000024 .LFB3
     /tmp/ccvNYnVM.s:70     .text:000000000000003c .LFE3
     /tmp/ccvNYnVM.s:470    .text:000000000000023c .LVL32
     /tmp/ccvNYnVM.s:481    .text:0000000000000250 .LVL33
     /tmp/ccvNYnVM.s:365    .text:00000000000001a8 .LVL25
     /tmp/ccvNYnVM.s:405    .text:0000000000000200 .LVL29
     /tmp/ccvNYnVM.s:14     .text:0000000000000000 .LVL0
     /tmp/ccvNYnVM.s:32     .text:000000000000001c .LVL1
     /tmp/ccvNYnVM.s:37     .text:0000000000000020 .LVL2
     /tmp/ccvNYnVM.s:315    .text:0000000000000158 .LVL20
     /tmp/ccvNYnVM.s:348    .text:000000000000019c .LVL23
     /tmp/ccvNYnVM.s:351    .text:00000000000001a0 .LVL24
     /tmp/ccvNYnVM.s:234    .text:0000000000000104 .LVL16
     /tmp/ccvNYnVM.s:244    .text:0000000000000114 .LVL17
     /tmp/ccvNYnVM.s:207    .text:00000000000000e8 .LVL14
     /tmp/ccvNYnVM.s:217    .text:00000000000000f8 .LVL15
     /tmp/ccvNYnVM.s:178    .text:00000000000000c4 .LVL12
     /tmp/ccvNYnVM.s:190    .text:00000000000000dc .LVL13
     /tmp/ccvNYnVM.s:105    .text:0000000000000054 .LVL5
     /tmp/ccvNYnVM.s:149    .text:00000000000000a4 .LVL11
     /tmp/ccvNYnVM.s:113    .text:0000000000000060 .LVL6
     /tmp/ccvNYnVM.s:118    .text:0000000000000064 .LVL7
     /tmp/ccvNYnVM.s:137    .text:0000000000000094 .LVL8
     /tmp/ccvNYnVM.s:139    .text:0000000000000098 .LVL9
     /tmp/ccvNYnVM.s:147    .text:00000000000000a0 .LVL10
     /tmp/ccvNYnVM.s:498    .debug_info:0000000000000000 .Ldebug_info0

UNDEFINED SYMBOLS
_ZN9Scheduler12AddNewThreadEP6Thread
_ZN9Scheduler10GetRunningEv
_ZN9Scheduler5yieldEP6ThreadS1_
